ARM GAS  C:\Users\kylep\AppData\Local\Temp\cct59PEg.s 			page 1


   1              		.cpu cortex-m0
   2              		.fpu softvfp
   3              		.eabi_attribute 20, 1
   4              		.eabi_attribute 21, 1
   5              		.eabi_attribute 23, 3
   6              		.eabi_attribute 24, 1
   7              		.eabi_attribute 25, 1
   8              		.eabi_attribute 26, 1
   9              		.eabi_attribute 30, 6
  10              		.eabi_attribute 34, 0
  11              		.eabi_attribute 18, 4
  12              		.code	16
  13              		.file	"AckTimeoutISR.c"
  14              		.text
  15              	.Ltext0:
  16              		.cfi_sections	.debug_frame
  17              		.section	.text.AckTimeoutISR_Start,"ax",%progbits
  18              		.align	2
  19              		.global	AckTimeoutISR_Start
  20              		.code	16
  21              		.thumb_func
  22              		.type	AckTimeoutISR_Start, %function
  23              	AckTimeoutISR_Start:
  24              	.LFB34:
  25              		.file 1 ".\\Generated_Source\\PSoC4\\AckTimeoutISR.c"
   1:.\Generated_Source\PSoC4/AckTimeoutISR.c **** /*******************************************************************************
   2:.\Generated_Source\PSoC4/AckTimeoutISR.c **** * File Name: AckTimeoutISR.c  
   3:.\Generated_Source\PSoC4/AckTimeoutISR.c **** * Version 1.70
   4:.\Generated_Source\PSoC4/AckTimeoutISR.c **** *
   5:.\Generated_Source\PSoC4/AckTimeoutISR.c **** *  Description:
   6:.\Generated_Source\PSoC4/AckTimeoutISR.c **** *   API for controlling the state of an interrupt.
   7:.\Generated_Source\PSoC4/AckTimeoutISR.c **** *
   8:.\Generated_Source\PSoC4/AckTimeoutISR.c **** *
   9:.\Generated_Source\PSoC4/AckTimeoutISR.c **** *  Note:
  10:.\Generated_Source\PSoC4/AckTimeoutISR.c **** *
  11:.\Generated_Source\PSoC4/AckTimeoutISR.c **** ********************************************************************************
  12:.\Generated_Source\PSoC4/AckTimeoutISR.c **** * Copyright 2008-2015, Cypress Semiconductor Corporation.  All rights reserved.
  13:.\Generated_Source\PSoC4/AckTimeoutISR.c **** * You may use this file only in accordance with the license, terms, conditions, 
  14:.\Generated_Source\PSoC4/AckTimeoutISR.c **** * disclaimers, and limitations in the end user license agreement accompanying 
  15:.\Generated_Source\PSoC4/AckTimeoutISR.c **** * the software package with which this file was provided.
  16:.\Generated_Source\PSoC4/AckTimeoutISR.c **** *******************************************************************************/
  17:.\Generated_Source\PSoC4/AckTimeoutISR.c **** 
  18:.\Generated_Source\PSoC4/AckTimeoutISR.c **** 
  19:.\Generated_Source\PSoC4/AckTimeoutISR.c **** #include <cydevice_trm.h>
  20:.\Generated_Source\PSoC4/AckTimeoutISR.c **** #include <CyLib.h>
  21:.\Generated_Source\PSoC4/AckTimeoutISR.c **** #include <AckTimeoutISR.h>
  22:.\Generated_Source\PSoC4/AckTimeoutISR.c **** 
  23:.\Generated_Source\PSoC4/AckTimeoutISR.c **** 
  24:.\Generated_Source\PSoC4/AckTimeoutISR.c **** #if !defined(AckTimeoutISR__REMOVED) /* Check for removal by optimization */
  25:.\Generated_Source\PSoC4/AckTimeoutISR.c **** 
  26:.\Generated_Source\PSoC4/AckTimeoutISR.c **** /*******************************************************************************
  27:.\Generated_Source\PSoC4/AckTimeoutISR.c **** *  Place your includes, defines and code here 
  28:.\Generated_Source\PSoC4/AckTimeoutISR.c **** ********************************************************************************/
  29:.\Generated_Source\PSoC4/AckTimeoutISR.c **** /* `#START AckTimeoutISR_intc` */
  30:.\Generated_Source\PSoC4/AckTimeoutISR.c **** 
  31:.\Generated_Source\PSoC4/AckTimeoutISR.c **** #include "TemperatureCommManager.h"
  32:.\Generated_Source\PSoC4/AckTimeoutISR.c ****     
ARM GAS  C:\Users\kylep\AppData\Local\Temp\cct59PEg.s 			page 2


  33:.\Generated_Source\PSoC4/AckTimeoutISR.c **** /* `#END` */
  34:.\Generated_Source\PSoC4/AckTimeoutISR.c **** 
  35:.\Generated_Source\PSoC4/AckTimeoutISR.c **** extern cyisraddress CyRamVectors[CYINT_IRQ_BASE + CY_NUM_INTERRUPTS];
  36:.\Generated_Source\PSoC4/AckTimeoutISR.c **** 
  37:.\Generated_Source\PSoC4/AckTimeoutISR.c **** /* Declared in startup, used to set unused interrupts to. */
  38:.\Generated_Source\PSoC4/AckTimeoutISR.c **** CY_ISR_PROTO(IntDefaultHandler);
  39:.\Generated_Source\PSoC4/AckTimeoutISR.c **** 
  40:.\Generated_Source\PSoC4/AckTimeoutISR.c **** 
  41:.\Generated_Source\PSoC4/AckTimeoutISR.c **** /*******************************************************************************
  42:.\Generated_Source\PSoC4/AckTimeoutISR.c **** * Function Name: AckTimeoutISR_Start
  43:.\Generated_Source\PSoC4/AckTimeoutISR.c **** ********************************************************************************
  44:.\Generated_Source\PSoC4/AckTimeoutISR.c **** *
  45:.\Generated_Source\PSoC4/AckTimeoutISR.c **** * Summary:
  46:.\Generated_Source\PSoC4/AckTimeoutISR.c **** *  Set up the interrupt and enable it. This function disables the interrupt, 
  47:.\Generated_Source\PSoC4/AckTimeoutISR.c **** *  sets the default interrupt vector, sets the priority from the value in the
  48:.\Generated_Source\PSoC4/AckTimeoutISR.c **** *  Design Wide Resources Interrupt Editor, then enables the interrupt to the 
  49:.\Generated_Source\PSoC4/AckTimeoutISR.c **** *  interrupt controller.
  50:.\Generated_Source\PSoC4/AckTimeoutISR.c **** *
  51:.\Generated_Source\PSoC4/AckTimeoutISR.c **** * Parameters:  
  52:.\Generated_Source\PSoC4/AckTimeoutISR.c **** *   None
  53:.\Generated_Source\PSoC4/AckTimeoutISR.c **** *
  54:.\Generated_Source\PSoC4/AckTimeoutISR.c **** * Return:
  55:.\Generated_Source\PSoC4/AckTimeoutISR.c **** *   None
  56:.\Generated_Source\PSoC4/AckTimeoutISR.c **** *
  57:.\Generated_Source\PSoC4/AckTimeoutISR.c **** *******************************************************************************/
  58:.\Generated_Source\PSoC4/AckTimeoutISR.c **** void AckTimeoutISR_Start(void)
  59:.\Generated_Source\PSoC4/AckTimeoutISR.c **** {
  26              		.loc 1 59 0
  27              		.cfi_startproc
  28 0000 80B5     		push	{r7, lr}
  29              		.cfi_def_cfa_offset 8
  30              		.cfi_offset 7, -8
  31              		.cfi_offset 14, -4
  32 0002 00AF     		add	r7, sp, #0
  33              		.cfi_def_cfa_register 7
  60:.\Generated_Source\PSoC4/AckTimeoutISR.c ****     /* For all we know the interrupt is active. */
  61:.\Generated_Source\PSoC4/AckTimeoutISR.c ****     AckTimeoutISR_Disable();
  34              		.loc 1 61 0
  35 0004 FFF7FEFF 		bl	AckTimeoutISR_Disable
  62:.\Generated_Source\PSoC4/AckTimeoutISR.c **** 
  63:.\Generated_Source\PSoC4/AckTimeoutISR.c ****     /* Set the ISR to point to the AckTimeoutISR Interrupt. */
  64:.\Generated_Source\PSoC4/AckTimeoutISR.c ****     AckTimeoutISR_SetVector(&AckTimeoutISR_Interrupt);
  36              		.loc 1 64 0
  37 0008 054B     		ldr	r3, .L2
  38 000a 181C     		mov	r0, r3
  39 000c FFF7FEFF 		bl	AckTimeoutISR_SetVector
  65:.\Generated_Source\PSoC4/AckTimeoutISR.c **** 
  66:.\Generated_Source\PSoC4/AckTimeoutISR.c ****     /* Set the priority. */
  67:.\Generated_Source\PSoC4/AckTimeoutISR.c ****     AckTimeoutISR_SetPriority((uint8)AckTimeoutISR_INTC_PRIOR_NUMBER);
  40              		.loc 1 67 0
  41 0010 0320     		mov	r0, #3
  42 0012 FFF7FEFF 		bl	AckTimeoutISR_SetPriority
  68:.\Generated_Source\PSoC4/AckTimeoutISR.c **** 
  69:.\Generated_Source\PSoC4/AckTimeoutISR.c ****     /* Enable it. */
  70:.\Generated_Source\PSoC4/AckTimeoutISR.c ****     AckTimeoutISR_Enable();
  43              		.loc 1 70 0
  44 0016 FFF7FEFF 		bl	AckTimeoutISR_Enable
ARM GAS  C:\Users\kylep\AppData\Local\Temp\cct59PEg.s 			page 3


  71:.\Generated_Source\PSoC4/AckTimeoutISR.c **** }
  45              		.loc 1 71 0
  46 001a BD46     		mov	sp, r7
  47              		@ sp needed
  48 001c 80BD     		pop	{r7, pc}
  49              	.L3:
  50 001e C046     		.align	2
  51              	.L2:
  52 0020 00000000 		.word	AckTimeoutISR_Interrupt
  53              		.cfi_endproc
  54              	.LFE34:
  55              		.size	AckTimeoutISR_Start, .-AckTimeoutISR_Start
  56              		.section	.text.AckTimeoutISR_StartEx,"ax",%progbits
  57              		.align	2
  58              		.global	AckTimeoutISR_StartEx
  59              		.code	16
  60              		.thumb_func
  61              		.type	AckTimeoutISR_StartEx, %function
  62              	AckTimeoutISR_StartEx:
  63              	.LFB35:
  72:.\Generated_Source\PSoC4/AckTimeoutISR.c **** 
  73:.\Generated_Source\PSoC4/AckTimeoutISR.c **** 
  74:.\Generated_Source\PSoC4/AckTimeoutISR.c **** /*******************************************************************************
  75:.\Generated_Source\PSoC4/AckTimeoutISR.c **** * Function Name: AckTimeoutISR_StartEx
  76:.\Generated_Source\PSoC4/AckTimeoutISR.c **** ********************************************************************************
  77:.\Generated_Source\PSoC4/AckTimeoutISR.c **** *
  78:.\Generated_Source\PSoC4/AckTimeoutISR.c **** * Summary:
  79:.\Generated_Source\PSoC4/AckTimeoutISR.c **** *  Sets up the interrupt and enables it. This function disables the interrupt,
  80:.\Generated_Source\PSoC4/AckTimeoutISR.c **** *  sets the interrupt vector based on the address passed in, sets the priority 
  81:.\Generated_Source\PSoC4/AckTimeoutISR.c **** *  from the value in the Design Wide Resources Interrupt Editor, then enables 
  82:.\Generated_Source\PSoC4/AckTimeoutISR.c **** *  the interrupt to the interrupt controller.
  83:.\Generated_Source\PSoC4/AckTimeoutISR.c **** *  
  84:.\Generated_Source\PSoC4/AckTimeoutISR.c **** *  When defining ISR functions, the CY_ISR and CY_ISR_PROTO macros should be 
  85:.\Generated_Source\PSoC4/AckTimeoutISR.c **** *  used to provide consistent definition across compilers:
  86:.\Generated_Source\PSoC4/AckTimeoutISR.c **** *  
  87:.\Generated_Source\PSoC4/AckTimeoutISR.c **** *  Function definition example:
  88:.\Generated_Source\PSoC4/AckTimeoutISR.c **** *   CY_ISR(MyISR)
  89:.\Generated_Source\PSoC4/AckTimeoutISR.c **** *   {
  90:.\Generated_Source\PSoC4/AckTimeoutISR.c **** *   }
  91:.\Generated_Source\PSoC4/AckTimeoutISR.c **** *   Function prototype example:
  92:.\Generated_Source\PSoC4/AckTimeoutISR.c **** *   CY_ISR_PROTO(MyISR);
  93:.\Generated_Source\PSoC4/AckTimeoutISR.c **** *
  94:.\Generated_Source\PSoC4/AckTimeoutISR.c **** * Parameters:  
  95:.\Generated_Source\PSoC4/AckTimeoutISR.c **** *   address: Address of the ISR to set in the interrupt vector table.
  96:.\Generated_Source\PSoC4/AckTimeoutISR.c **** *
  97:.\Generated_Source\PSoC4/AckTimeoutISR.c **** * Return:
  98:.\Generated_Source\PSoC4/AckTimeoutISR.c **** *   None
  99:.\Generated_Source\PSoC4/AckTimeoutISR.c **** *
 100:.\Generated_Source\PSoC4/AckTimeoutISR.c **** *******************************************************************************/
 101:.\Generated_Source\PSoC4/AckTimeoutISR.c **** void AckTimeoutISR_StartEx(cyisraddress address)
 102:.\Generated_Source\PSoC4/AckTimeoutISR.c **** {
  64              		.loc 1 102 0
  65              		.cfi_startproc
  66 0000 80B5     		push	{r7, lr}
  67              		.cfi_def_cfa_offset 8
  68              		.cfi_offset 7, -8
  69              		.cfi_offset 14, -4
ARM GAS  C:\Users\kylep\AppData\Local\Temp\cct59PEg.s 			page 4


  70 0002 82B0     		sub	sp, sp, #8
  71              		.cfi_def_cfa_offset 16
  72 0004 00AF     		add	r7, sp, #0
  73              		.cfi_def_cfa_register 7
  74 0006 7860     		str	r0, [r7, #4]
 103:.\Generated_Source\PSoC4/AckTimeoutISR.c ****     /* For all we know the interrupt is active. */
 104:.\Generated_Source\PSoC4/AckTimeoutISR.c ****     AckTimeoutISR_Disable();
  75              		.loc 1 104 0
  76 0008 FFF7FEFF 		bl	AckTimeoutISR_Disable
 105:.\Generated_Source\PSoC4/AckTimeoutISR.c **** 
 106:.\Generated_Source\PSoC4/AckTimeoutISR.c ****     /* Set the ISR to point to the AckTimeoutISR Interrupt. */
 107:.\Generated_Source\PSoC4/AckTimeoutISR.c ****     AckTimeoutISR_SetVector(address);
  77              		.loc 1 107 0
  78 000c 7B68     		ldr	r3, [r7, #4]
  79 000e 181C     		mov	r0, r3
  80 0010 FFF7FEFF 		bl	AckTimeoutISR_SetVector
 108:.\Generated_Source\PSoC4/AckTimeoutISR.c **** 
 109:.\Generated_Source\PSoC4/AckTimeoutISR.c ****     /* Set the priority. */
 110:.\Generated_Source\PSoC4/AckTimeoutISR.c ****     AckTimeoutISR_SetPriority((uint8)AckTimeoutISR_INTC_PRIOR_NUMBER);
  81              		.loc 1 110 0
  82 0014 0320     		mov	r0, #3
  83 0016 FFF7FEFF 		bl	AckTimeoutISR_SetPriority
 111:.\Generated_Source\PSoC4/AckTimeoutISR.c **** 
 112:.\Generated_Source\PSoC4/AckTimeoutISR.c ****     /* Enable it. */
 113:.\Generated_Source\PSoC4/AckTimeoutISR.c ****     AckTimeoutISR_Enable();
  84              		.loc 1 113 0
  85 001a FFF7FEFF 		bl	AckTimeoutISR_Enable
 114:.\Generated_Source\PSoC4/AckTimeoutISR.c **** }
  86              		.loc 1 114 0
  87 001e BD46     		mov	sp, r7
  88 0020 02B0     		add	sp, sp, #8
  89              		@ sp needed
  90 0022 80BD     		pop	{r7, pc}
  91              		.cfi_endproc
  92              	.LFE35:
  93              		.size	AckTimeoutISR_StartEx, .-AckTimeoutISR_StartEx
  94              		.section	.text.AckTimeoutISR_Stop,"ax",%progbits
  95              		.align	2
  96              		.global	AckTimeoutISR_Stop
  97              		.code	16
  98              		.thumb_func
  99              		.type	AckTimeoutISR_Stop, %function
 100              	AckTimeoutISR_Stop:
 101              	.LFB36:
 115:.\Generated_Source\PSoC4/AckTimeoutISR.c **** 
 116:.\Generated_Source\PSoC4/AckTimeoutISR.c **** 
 117:.\Generated_Source\PSoC4/AckTimeoutISR.c **** /*******************************************************************************
 118:.\Generated_Source\PSoC4/AckTimeoutISR.c **** * Function Name: AckTimeoutISR_Stop
 119:.\Generated_Source\PSoC4/AckTimeoutISR.c **** ********************************************************************************
 120:.\Generated_Source\PSoC4/AckTimeoutISR.c **** *
 121:.\Generated_Source\PSoC4/AckTimeoutISR.c **** * Summary:
 122:.\Generated_Source\PSoC4/AckTimeoutISR.c **** *   Disables and removes the interrupt.
 123:.\Generated_Source\PSoC4/AckTimeoutISR.c **** *
 124:.\Generated_Source\PSoC4/AckTimeoutISR.c **** * Parameters:  
 125:.\Generated_Source\PSoC4/AckTimeoutISR.c **** *   None
 126:.\Generated_Source\PSoC4/AckTimeoutISR.c **** *
 127:.\Generated_Source\PSoC4/AckTimeoutISR.c **** * Return:
ARM GAS  C:\Users\kylep\AppData\Local\Temp\cct59PEg.s 			page 5


 128:.\Generated_Source\PSoC4/AckTimeoutISR.c **** *   None
 129:.\Generated_Source\PSoC4/AckTimeoutISR.c **** *
 130:.\Generated_Source\PSoC4/AckTimeoutISR.c **** *******************************************************************************/
 131:.\Generated_Source\PSoC4/AckTimeoutISR.c **** void AckTimeoutISR_Stop(void)
 132:.\Generated_Source\PSoC4/AckTimeoutISR.c **** {
 102              		.loc 1 132 0
 103              		.cfi_startproc
 104 0000 80B5     		push	{r7, lr}
 105              		.cfi_def_cfa_offset 8
 106              		.cfi_offset 7, -8
 107              		.cfi_offset 14, -4
 108 0002 00AF     		add	r7, sp, #0
 109              		.cfi_def_cfa_register 7
 133:.\Generated_Source\PSoC4/AckTimeoutISR.c ****     /* Disable this interrupt. */
 134:.\Generated_Source\PSoC4/AckTimeoutISR.c ****     AckTimeoutISR_Disable();
 110              		.loc 1 134 0
 111 0004 FFF7FEFF 		bl	AckTimeoutISR_Disable
 135:.\Generated_Source\PSoC4/AckTimeoutISR.c **** 
 136:.\Generated_Source\PSoC4/AckTimeoutISR.c ****     /* Set the ISR to point to the passive one. */
 137:.\Generated_Source\PSoC4/AckTimeoutISR.c ****     AckTimeoutISR_SetVector(&IntDefaultHandler);
 112              		.loc 1 137 0
 113 0008 024B     		ldr	r3, .L6
 114 000a 181C     		mov	r0, r3
 115 000c FFF7FEFF 		bl	AckTimeoutISR_SetVector
 138:.\Generated_Source\PSoC4/AckTimeoutISR.c **** }
 116              		.loc 1 138 0
 117 0010 BD46     		mov	sp, r7
 118              		@ sp needed
 119 0012 80BD     		pop	{r7, pc}
 120              	.L7:
 121              		.align	2
 122              	.L6:
 123 0014 00000000 		.word	IntDefaultHandler
 124              		.cfi_endproc
 125              	.LFE36:
 126              		.size	AckTimeoutISR_Stop, .-AckTimeoutISR_Stop
 127              		.section	.text.AckTimeoutISR_Interrupt,"ax",%progbits
 128              		.align	2
 129              		.global	AckTimeoutISR_Interrupt
 130              		.code	16
 131              		.thumb_func
 132              		.type	AckTimeoutISR_Interrupt, %function
 133              	AckTimeoutISR_Interrupt:
 134              	.LFB37:
 139:.\Generated_Source\PSoC4/AckTimeoutISR.c **** 
 140:.\Generated_Source\PSoC4/AckTimeoutISR.c **** 
 141:.\Generated_Source\PSoC4/AckTimeoutISR.c **** /*******************************************************************************
 142:.\Generated_Source\PSoC4/AckTimeoutISR.c **** * Function Name: AckTimeoutISR_Interrupt
 143:.\Generated_Source\PSoC4/AckTimeoutISR.c **** ********************************************************************************
 144:.\Generated_Source\PSoC4/AckTimeoutISR.c **** *
 145:.\Generated_Source\PSoC4/AckTimeoutISR.c **** * Summary:
 146:.\Generated_Source\PSoC4/AckTimeoutISR.c **** *   The default Interrupt Service Routine for AckTimeoutISR.
 147:.\Generated_Source\PSoC4/AckTimeoutISR.c **** *
 148:.\Generated_Source\PSoC4/AckTimeoutISR.c **** *   Add custom code between the START and END comments to keep the next version
 149:.\Generated_Source\PSoC4/AckTimeoutISR.c **** *   of this file from over-writing your code.
 150:.\Generated_Source\PSoC4/AckTimeoutISR.c **** *
 151:.\Generated_Source\PSoC4/AckTimeoutISR.c **** *   Note You may use either the default ISR by using this API, or you may define
ARM GAS  C:\Users\kylep\AppData\Local\Temp\cct59PEg.s 			page 6


 152:.\Generated_Source\PSoC4/AckTimeoutISR.c **** *   your own separate ISR through ISR_StartEx().
 153:.\Generated_Source\PSoC4/AckTimeoutISR.c **** *
 154:.\Generated_Source\PSoC4/AckTimeoutISR.c **** * Parameters:  
 155:.\Generated_Source\PSoC4/AckTimeoutISR.c **** *   None
 156:.\Generated_Source\PSoC4/AckTimeoutISR.c **** *
 157:.\Generated_Source\PSoC4/AckTimeoutISR.c **** * Return:
 158:.\Generated_Source\PSoC4/AckTimeoutISR.c **** *   None
 159:.\Generated_Source\PSoC4/AckTimeoutISR.c **** *
 160:.\Generated_Source\PSoC4/AckTimeoutISR.c **** *******************************************************************************/
 161:.\Generated_Source\PSoC4/AckTimeoutISR.c **** CY_ISR(AckTimeoutISR_Interrupt)
 162:.\Generated_Source\PSoC4/AckTimeoutISR.c **** {
 135              		.loc 1 162 0
 136              		.cfi_startproc
 137 0000 80B5     		push	{r7, lr}
 138              		.cfi_def_cfa_offset 8
 139              		.cfi_offset 7, -8
 140              		.cfi_offset 14, -4
 141 0002 00AF     		add	r7, sp, #0
 142              		.cfi_def_cfa_register 7
 163:.\Generated_Source\PSoC4/AckTimeoutISR.c ****     #ifdef AckTimeoutISR_INTERRUPT_INTERRUPT_CALLBACK
 164:.\Generated_Source\PSoC4/AckTimeoutISR.c ****         AckTimeoutISR_Interrupt_InterruptCallback();
 165:.\Generated_Source\PSoC4/AckTimeoutISR.c ****     #endif /* AckTimeoutISR_INTERRUPT_INTERRUPT_CALLBACK */ 
 166:.\Generated_Source\PSoC4/AckTimeoutISR.c **** 
 167:.\Generated_Source\PSoC4/AckTimeoutISR.c ****     /*  Place your Interrupt code here. */
 168:.\Generated_Source\PSoC4/AckTimeoutISR.c ****     /* `#START AckTimeoutISR_Interrupt` */
 169:.\Generated_Source\PSoC4/AckTimeoutISR.c **** 
 170:.\Generated_Source\PSoC4/AckTimeoutISR.c ****     processAckTimeoutRoutine();
 143              		.loc 1 170 0
 144 0004 FFF7FEFF 		bl	processAckTimeoutRoutine
 171:.\Generated_Source\PSoC4/AckTimeoutISR.c ****     
 172:.\Generated_Source\PSoC4/AckTimeoutISR.c ****     /* `#END` */
 173:.\Generated_Source\PSoC4/AckTimeoutISR.c **** }
 145              		.loc 1 173 0
 146 0008 BD46     		mov	sp, r7
 147              		@ sp needed
 148 000a 80BD     		pop	{r7, pc}
 149              		.cfi_endproc
 150              	.LFE37:
 151              		.size	AckTimeoutISR_Interrupt, .-AckTimeoutISR_Interrupt
 152              		.section	.text.AckTimeoutISR_SetVector,"ax",%progbits
 153              		.align	2
 154              		.global	AckTimeoutISR_SetVector
 155              		.code	16
 156              		.thumb_func
 157              		.type	AckTimeoutISR_SetVector, %function
 158              	AckTimeoutISR_SetVector:
 159              	.LFB38:
 174:.\Generated_Source\PSoC4/AckTimeoutISR.c **** 
 175:.\Generated_Source\PSoC4/AckTimeoutISR.c **** 
 176:.\Generated_Source\PSoC4/AckTimeoutISR.c **** /*******************************************************************************
 177:.\Generated_Source\PSoC4/AckTimeoutISR.c **** * Function Name: AckTimeoutISR_SetVector
 178:.\Generated_Source\PSoC4/AckTimeoutISR.c **** ********************************************************************************
 179:.\Generated_Source\PSoC4/AckTimeoutISR.c **** *
 180:.\Generated_Source\PSoC4/AckTimeoutISR.c **** * Summary:
 181:.\Generated_Source\PSoC4/AckTimeoutISR.c **** *   Change the ISR vector for the Interrupt. Note calling AckTimeoutISR_Start
 182:.\Generated_Source\PSoC4/AckTimeoutISR.c **** *   will override any effect this method would have had. To set the vector 
 183:.\Generated_Source\PSoC4/AckTimeoutISR.c **** *   before the component has been started use AckTimeoutISR_StartEx instead.
ARM GAS  C:\Users\kylep\AppData\Local\Temp\cct59PEg.s 			page 7


 184:.\Generated_Source\PSoC4/AckTimeoutISR.c **** * 
 185:.\Generated_Source\PSoC4/AckTimeoutISR.c **** *   When defining ISR functions, the CY_ISR and CY_ISR_PROTO macros should be 
 186:.\Generated_Source\PSoC4/AckTimeoutISR.c **** *   used to provide consistent definition across compilers:
 187:.\Generated_Source\PSoC4/AckTimeoutISR.c **** *
 188:.\Generated_Source\PSoC4/AckTimeoutISR.c **** *   Function definition example:
 189:.\Generated_Source\PSoC4/AckTimeoutISR.c **** *   CY_ISR(MyISR)
 190:.\Generated_Source\PSoC4/AckTimeoutISR.c **** *   {
 191:.\Generated_Source\PSoC4/AckTimeoutISR.c **** *   }
 192:.\Generated_Source\PSoC4/AckTimeoutISR.c **** *
 193:.\Generated_Source\PSoC4/AckTimeoutISR.c **** *   Function prototype example:
 194:.\Generated_Source\PSoC4/AckTimeoutISR.c **** *     CY_ISR_PROTO(MyISR);
 195:.\Generated_Source\PSoC4/AckTimeoutISR.c **** *
 196:.\Generated_Source\PSoC4/AckTimeoutISR.c **** * Parameters:
 197:.\Generated_Source\PSoC4/AckTimeoutISR.c **** *   address: Address of the ISR to set in the interrupt vector table.
 198:.\Generated_Source\PSoC4/AckTimeoutISR.c **** *
 199:.\Generated_Source\PSoC4/AckTimeoutISR.c **** * Return:
 200:.\Generated_Source\PSoC4/AckTimeoutISR.c **** *   None
 201:.\Generated_Source\PSoC4/AckTimeoutISR.c **** *
 202:.\Generated_Source\PSoC4/AckTimeoutISR.c **** *******************************************************************************/
 203:.\Generated_Source\PSoC4/AckTimeoutISR.c **** void AckTimeoutISR_SetVector(cyisraddress address)
 204:.\Generated_Source\PSoC4/AckTimeoutISR.c **** {
 160              		.loc 1 204 0
 161              		.cfi_startproc
 162 0000 80B5     		push	{r7, lr}
 163              		.cfi_def_cfa_offset 8
 164              		.cfi_offset 7, -8
 165              		.cfi_offset 14, -4
 166 0002 82B0     		sub	sp, sp, #8
 167              		.cfi_def_cfa_offset 16
 168 0004 00AF     		add	r7, sp, #0
 169              		.cfi_def_cfa_register 7
 170 0006 7860     		str	r0, [r7, #4]
 205:.\Generated_Source\PSoC4/AckTimeoutISR.c ****     CyRamVectors[CYINT_IRQ_BASE + AckTimeoutISR__INTC_NUMBER] = address;
 171              		.loc 1 205 0
 172 0008 024B     		ldr	r3, .L10
 173 000a 7A68     		ldr	r2, [r7, #4]
 174 000c 1A64     		str	r2, [r3, #64]
 206:.\Generated_Source\PSoC4/AckTimeoutISR.c **** }
 175              		.loc 1 206 0
 176 000e BD46     		mov	sp, r7
 177 0010 02B0     		add	sp, sp, #8
 178              		@ sp needed
 179 0012 80BD     		pop	{r7, pc}
 180              	.L11:
 181              		.align	2
 182              	.L10:
 183 0014 00000000 		.word	CyRamVectors
 184              		.cfi_endproc
 185              	.LFE38:
 186              		.size	AckTimeoutISR_SetVector, .-AckTimeoutISR_SetVector
 187              		.section	.text.AckTimeoutISR_GetVector,"ax",%progbits
 188              		.align	2
 189              		.global	AckTimeoutISR_GetVector
 190              		.code	16
 191              		.thumb_func
 192              		.type	AckTimeoutISR_GetVector, %function
 193              	AckTimeoutISR_GetVector:
ARM GAS  C:\Users\kylep\AppData\Local\Temp\cct59PEg.s 			page 8


 194              	.LFB39:
 207:.\Generated_Source\PSoC4/AckTimeoutISR.c **** 
 208:.\Generated_Source\PSoC4/AckTimeoutISR.c **** 
 209:.\Generated_Source\PSoC4/AckTimeoutISR.c **** /*******************************************************************************
 210:.\Generated_Source\PSoC4/AckTimeoutISR.c **** * Function Name: AckTimeoutISR_GetVector
 211:.\Generated_Source\PSoC4/AckTimeoutISR.c **** ********************************************************************************
 212:.\Generated_Source\PSoC4/AckTimeoutISR.c **** *
 213:.\Generated_Source\PSoC4/AckTimeoutISR.c **** * Summary:
 214:.\Generated_Source\PSoC4/AckTimeoutISR.c **** *   Gets the "address" of the current ISR vector for the Interrupt.
 215:.\Generated_Source\PSoC4/AckTimeoutISR.c **** *
 216:.\Generated_Source\PSoC4/AckTimeoutISR.c **** * Parameters:
 217:.\Generated_Source\PSoC4/AckTimeoutISR.c **** *   None
 218:.\Generated_Source\PSoC4/AckTimeoutISR.c **** *
 219:.\Generated_Source\PSoC4/AckTimeoutISR.c **** * Return:
 220:.\Generated_Source\PSoC4/AckTimeoutISR.c **** *   Address of the ISR in the interrupt vector table.
 221:.\Generated_Source\PSoC4/AckTimeoutISR.c **** *
 222:.\Generated_Source\PSoC4/AckTimeoutISR.c **** *******************************************************************************/
 223:.\Generated_Source\PSoC4/AckTimeoutISR.c **** cyisraddress AckTimeoutISR_GetVector(void)
 224:.\Generated_Source\PSoC4/AckTimeoutISR.c **** {
 195              		.loc 1 224 0
 196              		.cfi_startproc
 197 0000 80B5     		push	{r7, lr}
 198              		.cfi_def_cfa_offset 8
 199              		.cfi_offset 7, -8
 200              		.cfi_offset 14, -4
 201 0002 00AF     		add	r7, sp, #0
 202              		.cfi_def_cfa_register 7
 225:.\Generated_Source\PSoC4/AckTimeoutISR.c ****     return CyRamVectors[CYINT_IRQ_BASE + AckTimeoutISR__INTC_NUMBER];
 203              		.loc 1 225 0
 204 0004 024B     		ldr	r3, .L14
 205 0006 1B6C     		ldr	r3, [r3, #64]
 226:.\Generated_Source\PSoC4/AckTimeoutISR.c **** }
 206              		.loc 1 226 0
 207 0008 181C     		mov	r0, r3
 208 000a BD46     		mov	sp, r7
 209              		@ sp needed
 210 000c 80BD     		pop	{r7, pc}
 211              	.L15:
 212 000e C046     		.align	2
 213              	.L14:
 214 0010 00000000 		.word	CyRamVectors
 215              		.cfi_endproc
 216              	.LFE39:
 217              		.size	AckTimeoutISR_GetVector, .-AckTimeoutISR_GetVector
 218              		.section	.text.AckTimeoutISR_SetPriority,"ax",%progbits
 219              		.align	2
 220              		.global	AckTimeoutISR_SetPriority
 221              		.code	16
 222              		.thumb_func
 223              		.type	AckTimeoutISR_SetPriority, %function
 224              	AckTimeoutISR_SetPriority:
 225              	.LFB40:
 227:.\Generated_Source\PSoC4/AckTimeoutISR.c **** 
 228:.\Generated_Source\PSoC4/AckTimeoutISR.c **** 
 229:.\Generated_Source\PSoC4/AckTimeoutISR.c **** /*******************************************************************************
 230:.\Generated_Source\PSoC4/AckTimeoutISR.c **** * Function Name: AckTimeoutISR_SetPriority
 231:.\Generated_Source\PSoC4/AckTimeoutISR.c **** ********************************************************************************
ARM GAS  C:\Users\kylep\AppData\Local\Temp\cct59PEg.s 			page 9


 232:.\Generated_Source\PSoC4/AckTimeoutISR.c **** *
 233:.\Generated_Source\PSoC4/AckTimeoutISR.c **** * Summary:
 234:.\Generated_Source\PSoC4/AckTimeoutISR.c **** *   Sets the Priority of the Interrupt. 
 235:.\Generated_Source\PSoC4/AckTimeoutISR.c **** *
 236:.\Generated_Source\PSoC4/AckTimeoutISR.c **** *   Note calling AckTimeoutISR_Start or AckTimeoutISR_StartEx will 
 237:.\Generated_Source\PSoC4/AckTimeoutISR.c **** *   override any effect this API would have had. This API should only be called
 238:.\Generated_Source\PSoC4/AckTimeoutISR.c **** *   after AckTimeoutISR_Start or AckTimeoutISR_StartEx has been called. 
 239:.\Generated_Source\PSoC4/AckTimeoutISR.c **** *   To set the initial priority for the component, use the Design-Wide Resources
 240:.\Generated_Source\PSoC4/AckTimeoutISR.c **** *   Interrupt Editor.
 241:.\Generated_Source\PSoC4/AckTimeoutISR.c **** *
 242:.\Generated_Source\PSoC4/AckTimeoutISR.c **** *   Note This API has no effect on Non-maskable interrupt NMI).
 243:.\Generated_Source\PSoC4/AckTimeoutISR.c **** *
 244:.\Generated_Source\PSoC4/AckTimeoutISR.c **** * Parameters:
 245:.\Generated_Source\PSoC4/AckTimeoutISR.c **** *   priority: Priority of the interrupt, 0 being the highest priority
 246:.\Generated_Source\PSoC4/AckTimeoutISR.c **** *             PSoC 3 and PSoC 5LP: Priority is from 0 to 7.
 247:.\Generated_Source\PSoC4/AckTimeoutISR.c **** *             PSoC 4: Priority is from 0 to 3.
 248:.\Generated_Source\PSoC4/AckTimeoutISR.c **** *
 249:.\Generated_Source\PSoC4/AckTimeoutISR.c **** * Return:
 250:.\Generated_Source\PSoC4/AckTimeoutISR.c **** *   None
 251:.\Generated_Source\PSoC4/AckTimeoutISR.c **** *
 252:.\Generated_Source\PSoC4/AckTimeoutISR.c **** *******************************************************************************/
 253:.\Generated_Source\PSoC4/AckTimeoutISR.c **** void AckTimeoutISR_SetPriority(uint8 priority)
 254:.\Generated_Source\PSoC4/AckTimeoutISR.c **** {
 226              		.loc 1 254 0
 227              		.cfi_startproc
 228 0000 90B5     		push	{r4, r7, lr}
 229              		.cfi_def_cfa_offset 12
 230              		.cfi_offset 4, -12
 231              		.cfi_offset 7, -8
 232              		.cfi_offset 14, -4
 233 0002 85B0     		sub	sp, sp, #20
 234              		.cfi_def_cfa_offset 32
 235 0004 00AF     		add	r7, sp, #0
 236              		.cfi_def_cfa_register 7
 237 0006 021C     		mov	r2, r0
 238 0008 FB1D     		add	r3, r7, #7
 239 000a 1A70     		strb	r2, [r3]
 255:.\Generated_Source\PSoC4/AckTimeoutISR.c **** 	uint8 interruptState;
 256:.\Generated_Source\PSoC4/AckTimeoutISR.c ****     uint32 priorityOffset = ((AckTimeoutISR__INTC_NUMBER % 4u) * 8u) + 6u;
 240              		.loc 1 256 0
 241 000c 0623     		mov	r3, #6
 242 000e FB60     		str	r3, [r7, #12]
 257:.\Generated_Source\PSoC4/AckTimeoutISR.c ****     
 258:.\Generated_Source\PSoC4/AckTimeoutISR.c **** 	interruptState = CyEnterCriticalSection();
 243              		.loc 1 258 0
 244 0010 0B23     		mov	r3, #11
 245 0012 FC18     		add	r4, r7, r3
 246 0014 FFF7FEFF 		bl	CyEnterCriticalSection
 247 0018 031C     		mov	r3, r0
 248 001a 2370     		strb	r3, [r4]
 259:.\Generated_Source\PSoC4/AckTimeoutISR.c ****     *AckTimeoutISR_INTC_PRIOR = (*AckTimeoutISR_INTC_PRIOR & (uint32)(~AckTimeoutISR__INTC_PRIOR_MA
 249              		.loc 1 259 0
 250 001c 0A4B     		ldr	r3, .L17
 251 001e 0A4A     		ldr	r2, .L17
 252 0020 1268     		ldr	r2, [r2]
 253 0022 C021     		mov	r1, #192
 254 0024 8A43     		bic	r2, r1
ARM GAS  C:\Users\kylep\AppData\Local\Temp\cct59PEg.s 			page 10


 255 0026 111C     		mov	r1, r2
 260:.\Generated_Source\PSoC4/AckTimeoutISR.c ****                                     ((uint32)priority << priorityOffset);
 256              		.loc 1 260 0
 257 0028 FA1D     		add	r2, r7, #7
 258 002a 1078     		ldrb	r0, [r2]
 259 002c FA68     		ldr	r2, [r7, #12]
 260 002e 9040     		lsl	r0, r0, r2
 261 0030 021C     		mov	r2, r0
 259:.\Generated_Source\PSoC4/AckTimeoutISR.c ****     *AckTimeoutISR_INTC_PRIOR = (*AckTimeoutISR_INTC_PRIOR & (uint32)(~AckTimeoutISR__INTC_PRIOR_MA
 262              		.loc 1 259 0
 263 0032 0A43     		orr	r2, r1
 264 0034 1A60     		str	r2, [r3]
 261:.\Generated_Source\PSoC4/AckTimeoutISR.c **** 	CyExitCriticalSection(interruptState);
 265              		.loc 1 261 0
 266 0036 0B23     		mov	r3, #11
 267 0038 FB18     		add	r3, r7, r3
 268 003a 1B78     		ldrb	r3, [r3]
 269 003c 181C     		mov	r0, r3
 270 003e FFF7FEFF 		bl	CyExitCriticalSection
 262:.\Generated_Source\PSoC4/AckTimeoutISR.c **** }
 271              		.loc 1 262 0
 272 0042 BD46     		mov	sp, r7
 273 0044 05B0     		add	sp, sp, #20
 274              		@ sp needed
 275 0046 90BD     		pop	{r4, r7, pc}
 276              	.L18:
 277              		.align	2
 278              	.L17:
 279 0048 00E400E0 		.word	-536812544
 280              		.cfi_endproc
 281              	.LFE40:
 282              		.size	AckTimeoutISR_SetPriority, .-AckTimeoutISR_SetPriority
 283              		.section	.text.AckTimeoutISR_GetPriority,"ax",%progbits
 284              		.align	2
 285              		.global	AckTimeoutISR_GetPriority
 286              		.code	16
 287              		.thumb_func
 288              		.type	AckTimeoutISR_GetPriority, %function
 289              	AckTimeoutISR_GetPriority:
 290              	.LFB41:
 263:.\Generated_Source\PSoC4/AckTimeoutISR.c **** 
 264:.\Generated_Source\PSoC4/AckTimeoutISR.c **** 
 265:.\Generated_Source\PSoC4/AckTimeoutISR.c **** /*******************************************************************************
 266:.\Generated_Source\PSoC4/AckTimeoutISR.c **** * Function Name: AckTimeoutISR_GetPriority
 267:.\Generated_Source\PSoC4/AckTimeoutISR.c **** ********************************************************************************
 268:.\Generated_Source\PSoC4/AckTimeoutISR.c **** *
 269:.\Generated_Source\PSoC4/AckTimeoutISR.c **** * Summary:
 270:.\Generated_Source\PSoC4/AckTimeoutISR.c **** *   Gets the Priority of the Interrupt.
 271:.\Generated_Source\PSoC4/AckTimeoutISR.c **** *
 272:.\Generated_Source\PSoC4/AckTimeoutISR.c **** * Parameters:
 273:.\Generated_Source\PSoC4/AckTimeoutISR.c **** *   None
 274:.\Generated_Source\PSoC4/AckTimeoutISR.c **** *
 275:.\Generated_Source\PSoC4/AckTimeoutISR.c **** * Return:
 276:.\Generated_Source\PSoC4/AckTimeoutISR.c **** *   Priority of the interrupt, 0 being the highest priority
 277:.\Generated_Source\PSoC4/AckTimeoutISR.c **** *    PSoC 3 and PSoC 5LP: Priority is from 0 to 7.
 278:.\Generated_Source\PSoC4/AckTimeoutISR.c **** *    PSoC 4: Priority is from 0 to 3.
 279:.\Generated_Source\PSoC4/AckTimeoutISR.c **** *
ARM GAS  C:\Users\kylep\AppData\Local\Temp\cct59PEg.s 			page 11


 280:.\Generated_Source\PSoC4/AckTimeoutISR.c **** *******************************************************************************/
 281:.\Generated_Source\PSoC4/AckTimeoutISR.c **** uint8 AckTimeoutISR_GetPriority(void)
 282:.\Generated_Source\PSoC4/AckTimeoutISR.c **** {
 291              		.loc 1 282 0
 292              		.cfi_startproc
 293 0000 80B5     		push	{r7, lr}
 294              		.cfi_def_cfa_offset 8
 295              		.cfi_offset 7, -8
 296              		.cfi_offset 14, -4
 297 0002 82B0     		sub	sp, sp, #8
 298              		.cfi_def_cfa_offset 16
 299 0004 00AF     		add	r7, sp, #0
 300              		.cfi_def_cfa_register 7
 283:.\Generated_Source\PSoC4/AckTimeoutISR.c ****     uint32 priority;
 284:.\Generated_Source\PSoC4/AckTimeoutISR.c **** 	uint32 priorityOffset = ((AckTimeoutISR__INTC_NUMBER % 4u) * 8u) + 6u;
 301              		.loc 1 284 0
 302 0006 0623     		mov	r3, #6
 303 0008 7B60     		str	r3, [r7, #4]
 285:.\Generated_Source\PSoC4/AckTimeoutISR.c **** 
 286:.\Generated_Source\PSoC4/AckTimeoutISR.c ****     priority = (*AckTimeoutISR_INTC_PRIOR & AckTimeoutISR__INTC_PRIOR_MASK) >> priorityOffset;
 304              		.loc 1 286 0
 305 000a 074B     		ldr	r3, .L21
 306 000c 1B68     		ldr	r3, [r3]
 307 000e C022     		mov	r2, #192
 308 0010 1A40     		and	r2, r3
 309 0012 7B68     		ldr	r3, [r7, #4]
 310 0014 DA40     		lsr	r2, r2, r3
 311 0016 131C     		mov	r3, r2
 312 0018 3B60     		str	r3, [r7]
 287:.\Generated_Source\PSoC4/AckTimeoutISR.c **** 
 288:.\Generated_Source\PSoC4/AckTimeoutISR.c ****     return (uint8)priority;
 313              		.loc 1 288 0
 314 001a 3B68     		ldr	r3, [r7]
 315 001c DBB2     		uxtb	r3, r3
 289:.\Generated_Source\PSoC4/AckTimeoutISR.c **** }
 316              		.loc 1 289 0
 317 001e 181C     		mov	r0, r3
 318 0020 BD46     		mov	sp, r7
 319 0022 02B0     		add	sp, sp, #8
 320              		@ sp needed
 321 0024 80BD     		pop	{r7, pc}
 322              	.L22:
 323 0026 C046     		.align	2
 324              	.L21:
 325 0028 00E400E0 		.word	-536812544
 326              		.cfi_endproc
 327              	.LFE41:
 328              		.size	AckTimeoutISR_GetPriority, .-AckTimeoutISR_GetPriority
 329              		.section	.text.AckTimeoutISR_Enable,"ax",%progbits
 330              		.align	2
 331              		.global	AckTimeoutISR_Enable
 332              		.code	16
 333              		.thumb_func
 334              		.type	AckTimeoutISR_Enable, %function
 335              	AckTimeoutISR_Enable:
 336              	.LFB42:
 290:.\Generated_Source\PSoC4/AckTimeoutISR.c **** 
ARM GAS  C:\Users\kylep\AppData\Local\Temp\cct59PEg.s 			page 12


 291:.\Generated_Source\PSoC4/AckTimeoutISR.c **** 
 292:.\Generated_Source\PSoC4/AckTimeoutISR.c **** /*******************************************************************************
 293:.\Generated_Source\PSoC4/AckTimeoutISR.c **** * Function Name: AckTimeoutISR_Enable
 294:.\Generated_Source\PSoC4/AckTimeoutISR.c **** ********************************************************************************
 295:.\Generated_Source\PSoC4/AckTimeoutISR.c **** *
 296:.\Generated_Source\PSoC4/AckTimeoutISR.c **** * Summary:
 297:.\Generated_Source\PSoC4/AckTimeoutISR.c **** *   Enables the interrupt to the interrupt controller. Do not call this function
 298:.\Generated_Source\PSoC4/AckTimeoutISR.c **** *   unless ISR_Start() has been called or the functionality of the ISR_Start() 
 299:.\Generated_Source\PSoC4/AckTimeoutISR.c **** *   function, which sets the vector and the priority, has been called.
 300:.\Generated_Source\PSoC4/AckTimeoutISR.c **** *
 301:.\Generated_Source\PSoC4/AckTimeoutISR.c **** * Parameters:
 302:.\Generated_Source\PSoC4/AckTimeoutISR.c **** *   None
 303:.\Generated_Source\PSoC4/AckTimeoutISR.c **** *
 304:.\Generated_Source\PSoC4/AckTimeoutISR.c **** * Return:
 305:.\Generated_Source\PSoC4/AckTimeoutISR.c **** *   None
 306:.\Generated_Source\PSoC4/AckTimeoutISR.c **** *
 307:.\Generated_Source\PSoC4/AckTimeoutISR.c **** *******************************************************************************/
 308:.\Generated_Source\PSoC4/AckTimeoutISR.c **** void AckTimeoutISR_Enable(void)
 309:.\Generated_Source\PSoC4/AckTimeoutISR.c **** {
 337              		.loc 1 309 0
 338              		.cfi_startproc
 339 0000 80B5     		push	{r7, lr}
 340              		.cfi_def_cfa_offset 8
 341              		.cfi_offset 7, -8
 342              		.cfi_offset 14, -4
 343 0002 00AF     		add	r7, sp, #0
 344              		.cfi_def_cfa_register 7
 310:.\Generated_Source\PSoC4/AckTimeoutISR.c ****     /* Enable the general interrupt. */
 311:.\Generated_Source\PSoC4/AckTimeoutISR.c ****     *AckTimeoutISR_INTC_SET_EN = AckTimeoutISR__INTC_MASK;
 345              		.loc 1 311 0
 346 0004 024B     		ldr	r3, .L24
 347 0006 0122     		mov	r2, #1
 348 0008 1A60     		str	r2, [r3]
 312:.\Generated_Source\PSoC4/AckTimeoutISR.c **** }
 349              		.loc 1 312 0
 350 000a BD46     		mov	sp, r7
 351              		@ sp needed
 352 000c 80BD     		pop	{r7, pc}
 353              	.L25:
 354 000e C046     		.align	2
 355              	.L24:
 356 0010 00E100E0 		.word	-536813312
 357              		.cfi_endproc
 358              	.LFE42:
 359              		.size	AckTimeoutISR_Enable, .-AckTimeoutISR_Enable
 360              		.section	.text.AckTimeoutISR_GetState,"ax",%progbits
 361              		.align	2
 362              		.global	AckTimeoutISR_GetState
 363              		.code	16
 364              		.thumb_func
 365              		.type	AckTimeoutISR_GetState, %function
 366              	AckTimeoutISR_GetState:
 367              	.LFB43:
 313:.\Generated_Source\PSoC4/AckTimeoutISR.c **** 
 314:.\Generated_Source\PSoC4/AckTimeoutISR.c **** 
 315:.\Generated_Source\PSoC4/AckTimeoutISR.c **** /*******************************************************************************
 316:.\Generated_Source\PSoC4/AckTimeoutISR.c **** * Function Name: AckTimeoutISR_GetState
ARM GAS  C:\Users\kylep\AppData\Local\Temp\cct59PEg.s 			page 13


 317:.\Generated_Source\PSoC4/AckTimeoutISR.c **** ********************************************************************************
 318:.\Generated_Source\PSoC4/AckTimeoutISR.c **** *
 319:.\Generated_Source\PSoC4/AckTimeoutISR.c **** * Summary:
 320:.\Generated_Source\PSoC4/AckTimeoutISR.c **** *   Gets the state (enabled, disabled) of the Interrupt.
 321:.\Generated_Source\PSoC4/AckTimeoutISR.c **** *
 322:.\Generated_Source\PSoC4/AckTimeoutISR.c **** * Parameters:
 323:.\Generated_Source\PSoC4/AckTimeoutISR.c **** *   None
 324:.\Generated_Source\PSoC4/AckTimeoutISR.c **** *
 325:.\Generated_Source\PSoC4/AckTimeoutISR.c **** * Return:
 326:.\Generated_Source\PSoC4/AckTimeoutISR.c **** *   1 if enabled, 0 if disabled.
 327:.\Generated_Source\PSoC4/AckTimeoutISR.c **** *
 328:.\Generated_Source\PSoC4/AckTimeoutISR.c **** *******************************************************************************/
 329:.\Generated_Source\PSoC4/AckTimeoutISR.c **** uint8 AckTimeoutISR_GetState(void)
 330:.\Generated_Source\PSoC4/AckTimeoutISR.c **** {
 368              		.loc 1 330 0
 369              		.cfi_startproc
 370 0000 80B5     		push	{r7, lr}
 371              		.cfi_def_cfa_offset 8
 372              		.cfi_offset 7, -8
 373              		.cfi_offset 14, -4
 374 0002 00AF     		add	r7, sp, #0
 375              		.cfi_def_cfa_register 7
 331:.\Generated_Source\PSoC4/AckTimeoutISR.c ****     /* Get the state of the general interrupt. */
 332:.\Generated_Source\PSoC4/AckTimeoutISR.c ****     return ((*AckTimeoutISR_INTC_SET_EN & (uint32)AckTimeoutISR__INTC_MASK) != 0u) ? 1u:0u;
 376              		.loc 1 332 0
 377 0004 044B     		ldr	r3, .L28
 378 0006 1B68     		ldr	r3, [r3]
 379 0008 DBB2     		uxtb	r3, r3
 380 000a 0122     		mov	r2, #1
 381 000c 1340     		and	r3, r2
 382 000e DBB2     		uxtb	r3, r3
 333:.\Generated_Source\PSoC4/AckTimeoutISR.c **** }
 383              		.loc 1 333 0
 384 0010 181C     		mov	r0, r3
 385 0012 BD46     		mov	sp, r7
 386              		@ sp needed
 387 0014 80BD     		pop	{r7, pc}
 388              	.L29:
 389 0016 C046     		.align	2
 390              	.L28:
 391 0018 00E100E0 		.word	-536813312
 392              		.cfi_endproc
 393              	.LFE43:
 394              		.size	AckTimeoutISR_GetState, .-AckTimeoutISR_GetState
 395              		.section	.text.AckTimeoutISR_Disable,"ax",%progbits
 396              		.align	2
 397              		.global	AckTimeoutISR_Disable
 398              		.code	16
 399              		.thumb_func
 400              		.type	AckTimeoutISR_Disable, %function
 401              	AckTimeoutISR_Disable:
 402              	.LFB44:
 334:.\Generated_Source\PSoC4/AckTimeoutISR.c **** 
 335:.\Generated_Source\PSoC4/AckTimeoutISR.c **** 
 336:.\Generated_Source\PSoC4/AckTimeoutISR.c **** /*******************************************************************************
 337:.\Generated_Source\PSoC4/AckTimeoutISR.c **** * Function Name: AckTimeoutISR_Disable
 338:.\Generated_Source\PSoC4/AckTimeoutISR.c **** ********************************************************************************
ARM GAS  C:\Users\kylep\AppData\Local\Temp\cct59PEg.s 			page 14


 339:.\Generated_Source\PSoC4/AckTimeoutISR.c **** *
 340:.\Generated_Source\PSoC4/AckTimeoutISR.c **** * Summary:
 341:.\Generated_Source\PSoC4/AckTimeoutISR.c **** *   Disables the Interrupt in the interrupt controller.
 342:.\Generated_Source\PSoC4/AckTimeoutISR.c **** *
 343:.\Generated_Source\PSoC4/AckTimeoutISR.c **** * Parameters:
 344:.\Generated_Source\PSoC4/AckTimeoutISR.c **** *   None
 345:.\Generated_Source\PSoC4/AckTimeoutISR.c **** *
 346:.\Generated_Source\PSoC4/AckTimeoutISR.c **** * Return:
 347:.\Generated_Source\PSoC4/AckTimeoutISR.c **** *   None
 348:.\Generated_Source\PSoC4/AckTimeoutISR.c **** *
 349:.\Generated_Source\PSoC4/AckTimeoutISR.c **** *******************************************************************************/
 350:.\Generated_Source\PSoC4/AckTimeoutISR.c **** void AckTimeoutISR_Disable(void)
 351:.\Generated_Source\PSoC4/AckTimeoutISR.c **** {
 403              		.loc 1 351 0
 404              		.cfi_startproc
 405 0000 80B5     		push	{r7, lr}
 406              		.cfi_def_cfa_offset 8
 407              		.cfi_offset 7, -8
 408              		.cfi_offset 14, -4
 409 0002 00AF     		add	r7, sp, #0
 410              		.cfi_def_cfa_register 7
 352:.\Generated_Source\PSoC4/AckTimeoutISR.c ****     /* Disable the general interrupt. */
 353:.\Generated_Source\PSoC4/AckTimeoutISR.c ****     *AckTimeoutISR_INTC_CLR_EN = AckTimeoutISR__INTC_MASK;
 411              		.loc 1 353 0
 412 0004 024B     		ldr	r3, .L31
 413 0006 0122     		mov	r2, #1
 414 0008 1A60     		str	r2, [r3]
 354:.\Generated_Source\PSoC4/AckTimeoutISR.c **** }
 415              		.loc 1 354 0
 416 000a BD46     		mov	sp, r7
 417              		@ sp needed
 418 000c 80BD     		pop	{r7, pc}
 419              	.L32:
 420 000e C046     		.align	2
 421              	.L31:
 422 0010 80E100E0 		.word	-536813184
 423              		.cfi_endproc
 424              	.LFE44:
 425              		.size	AckTimeoutISR_Disable, .-AckTimeoutISR_Disable
 426              		.section	.text.AckTimeoutISR_SetPending,"ax",%progbits
 427              		.align	2
 428              		.global	AckTimeoutISR_SetPending
 429              		.code	16
 430              		.thumb_func
 431              		.type	AckTimeoutISR_SetPending, %function
 432              	AckTimeoutISR_SetPending:
 433              	.LFB45:
 355:.\Generated_Source\PSoC4/AckTimeoutISR.c **** 
 356:.\Generated_Source\PSoC4/AckTimeoutISR.c **** 
 357:.\Generated_Source\PSoC4/AckTimeoutISR.c **** /*******************************************************************************
 358:.\Generated_Source\PSoC4/AckTimeoutISR.c **** * Function Name: AckTimeoutISR_SetPending
 359:.\Generated_Source\PSoC4/AckTimeoutISR.c **** ********************************************************************************
 360:.\Generated_Source\PSoC4/AckTimeoutISR.c **** *
 361:.\Generated_Source\PSoC4/AckTimeoutISR.c **** * Summary:
 362:.\Generated_Source\PSoC4/AckTimeoutISR.c **** *   Causes the Interrupt to enter the pending state, a software method of
 363:.\Generated_Source\PSoC4/AckTimeoutISR.c **** *   generating the interrupt.
 364:.\Generated_Source\PSoC4/AckTimeoutISR.c **** *
ARM GAS  C:\Users\kylep\AppData\Local\Temp\cct59PEg.s 			page 15


 365:.\Generated_Source\PSoC4/AckTimeoutISR.c **** * Parameters:
 366:.\Generated_Source\PSoC4/AckTimeoutISR.c **** *   None
 367:.\Generated_Source\PSoC4/AckTimeoutISR.c **** *
 368:.\Generated_Source\PSoC4/AckTimeoutISR.c **** * Return:
 369:.\Generated_Source\PSoC4/AckTimeoutISR.c **** *   None
 370:.\Generated_Source\PSoC4/AckTimeoutISR.c **** *
 371:.\Generated_Source\PSoC4/AckTimeoutISR.c **** * Side Effects:
 372:.\Generated_Source\PSoC4/AckTimeoutISR.c **** *   If interrupts are enabled and the interrupt is set up properly, the ISR is
 373:.\Generated_Source\PSoC4/AckTimeoutISR.c **** *   entered (depending on the priority of this interrupt and other pending 
 374:.\Generated_Source\PSoC4/AckTimeoutISR.c **** *   interrupts).
 375:.\Generated_Source\PSoC4/AckTimeoutISR.c **** *
 376:.\Generated_Source\PSoC4/AckTimeoutISR.c **** *******************************************************************************/
 377:.\Generated_Source\PSoC4/AckTimeoutISR.c **** void AckTimeoutISR_SetPending(void)
 378:.\Generated_Source\PSoC4/AckTimeoutISR.c **** {
 434              		.loc 1 378 0
 435              		.cfi_startproc
 436 0000 80B5     		push	{r7, lr}
 437              		.cfi_def_cfa_offset 8
 438              		.cfi_offset 7, -8
 439              		.cfi_offset 14, -4
 440 0002 00AF     		add	r7, sp, #0
 441              		.cfi_def_cfa_register 7
 379:.\Generated_Source\PSoC4/AckTimeoutISR.c ****     *AckTimeoutISR_INTC_SET_PD = AckTimeoutISR__INTC_MASK;
 442              		.loc 1 379 0
 443 0004 024B     		ldr	r3, .L34
 444 0006 0122     		mov	r2, #1
 445 0008 1A60     		str	r2, [r3]
 380:.\Generated_Source\PSoC4/AckTimeoutISR.c **** }
 446              		.loc 1 380 0
 447 000a BD46     		mov	sp, r7
 448              		@ sp needed
 449 000c 80BD     		pop	{r7, pc}
 450              	.L35:
 451 000e C046     		.align	2
 452              	.L34:
 453 0010 00E200E0 		.word	-536813056
 454              		.cfi_endproc
 455              	.LFE45:
 456              		.size	AckTimeoutISR_SetPending, .-AckTimeoutISR_SetPending
 457              		.section	.text.AckTimeoutISR_ClearPending,"ax",%progbits
 458              		.align	2
 459              		.global	AckTimeoutISR_ClearPending
 460              		.code	16
 461              		.thumb_func
 462              		.type	AckTimeoutISR_ClearPending, %function
 463              	AckTimeoutISR_ClearPending:
 464              	.LFB46:
 381:.\Generated_Source\PSoC4/AckTimeoutISR.c **** 
 382:.\Generated_Source\PSoC4/AckTimeoutISR.c **** 
 383:.\Generated_Source\PSoC4/AckTimeoutISR.c **** /*******************************************************************************
 384:.\Generated_Source\PSoC4/AckTimeoutISR.c **** * Function Name: AckTimeoutISR_ClearPending
 385:.\Generated_Source\PSoC4/AckTimeoutISR.c **** ********************************************************************************
 386:.\Generated_Source\PSoC4/AckTimeoutISR.c **** *
 387:.\Generated_Source\PSoC4/AckTimeoutISR.c **** * Summary:
 388:.\Generated_Source\PSoC4/AckTimeoutISR.c **** *   Clears a pending interrupt in the interrupt controller.
 389:.\Generated_Source\PSoC4/AckTimeoutISR.c **** *
 390:.\Generated_Source\PSoC4/AckTimeoutISR.c **** *   Note Some interrupt sources are clear-on-read and require the block 
ARM GAS  C:\Users\kylep\AppData\Local\Temp\cct59PEg.s 			page 16


 391:.\Generated_Source\PSoC4/AckTimeoutISR.c **** *   interrupt/status register to be read/cleared with the appropriate block API 
 392:.\Generated_Source\PSoC4/AckTimeoutISR.c **** *   (GPIO, UART, and so on). Otherwise the ISR will continue to remain in 
 393:.\Generated_Source\PSoC4/AckTimeoutISR.c **** *   pending state even though the interrupt itself is cleared using this API.
 394:.\Generated_Source\PSoC4/AckTimeoutISR.c **** *
 395:.\Generated_Source\PSoC4/AckTimeoutISR.c **** * Parameters:
 396:.\Generated_Source\PSoC4/AckTimeoutISR.c **** *   None
 397:.\Generated_Source\PSoC4/AckTimeoutISR.c **** *
 398:.\Generated_Source\PSoC4/AckTimeoutISR.c **** * Return:
 399:.\Generated_Source\PSoC4/AckTimeoutISR.c **** *   None
 400:.\Generated_Source\PSoC4/AckTimeoutISR.c **** *
 401:.\Generated_Source\PSoC4/AckTimeoutISR.c **** *******************************************************************************/
 402:.\Generated_Source\PSoC4/AckTimeoutISR.c **** void AckTimeoutISR_ClearPending(void)
 403:.\Generated_Source\PSoC4/AckTimeoutISR.c **** {
 465              		.loc 1 403 0
 466              		.cfi_startproc
 467 0000 80B5     		push	{r7, lr}
 468              		.cfi_def_cfa_offset 8
 469              		.cfi_offset 7, -8
 470              		.cfi_offset 14, -4
 471 0002 00AF     		add	r7, sp, #0
 472              		.cfi_def_cfa_register 7
 404:.\Generated_Source\PSoC4/AckTimeoutISR.c ****     *AckTimeoutISR_INTC_CLR_PD = AckTimeoutISR__INTC_MASK;
 473              		.loc 1 404 0
 474 0004 024B     		ldr	r3, .L37
 475 0006 0122     		mov	r2, #1
 476 0008 1A60     		str	r2, [r3]
 405:.\Generated_Source\PSoC4/AckTimeoutISR.c **** }
 477              		.loc 1 405 0
 478 000a BD46     		mov	sp, r7
 479              		@ sp needed
 480 000c 80BD     		pop	{r7, pc}
 481              	.L38:
 482 000e C046     		.align	2
 483              	.L37:
 484 0010 80E200E0 		.word	-536812928
 485              		.cfi_endproc
 486              	.LFE46:
 487              		.size	AckTimeoutISR_ClearPending, .-AckTimeoutISR_ClearPending
 488              		.text
 489              	.Letext0:
 490              		.file 2 "Generated_Source\\PSoC4/cytypes.h"