ARM GAS  C:\Users\faithc\AppData\Local\Temp\ccitAhLJ.s 			page 1


   1              		.cpu cortex-m0
   2              		.fpu softvfp
   3              		.eabi_attribute 20, 1
   4              		.eabi_attribute 21, 1
   5              		.eabi_attribute 23, 3
   6              		.eabi_attribute 24, 1
   7              		.eabi_attribute 25, 1
   8              		.eabi_attribute 26, 1
   9              		.eabi_attribute 30, 4
  10              		.eabi_attribute 34, 0
  11              		.eabi_attribute 18, 4
  12              		.code	16
  13              		.file	"ADC_ISR.c"
  14              		.text
  15              	.Ltext0:
  16              		.cfi_sections	.debug_frame
  17              		.section	.text.ADC_ISR_Interrupt,"ax",%progbits
  18              		.align	1
  19              		.global	ADC_ISR_Interrupt
  20              		.code	16
  21              		.thumb_func
  22              		.type	ADC_ISR_Interrupt, %function
  23              	ADC_ISR_Interrupt:
  24              	.LFB37:
  25              		.file 1 ".\\Generated_Source\\PSoC4\\ADC_ISR.c"
   1:.\Generated_Source\PSoC4/ADC_ISR.c **** /*******************************************************************************
   2:.\Generated_Source\PSoC4/ADC_ISR.c **** * File Name: ADC_ISR.c  
   3:.\Generated_Source\PSoC4/ADC_ISR.c **** * Version 1.70
   4:.\Generated_Source\PSoC4/ADC_ISR.c **** *
   5:.\Generated_Source\PSoC4/ADC_ISR.c **** *  Description:
   6:.\Generated_Source\PSoC4/ADC_ISR.c **** *   API for controlling the state of an interrupt.
   7:.\Generated_Source\PSoC4/ADC_ISR.c **** *
   8:.\Generated_Source\PSoC4/ADC_ISR.c **** *
   9:.\Generated_Source\PSoC4/ADC_ISR.c **** *  Note:
  10:.\Generated_Source\PSoC4/ADC_ISR.c **** *
  11:.\Generated_Source\PSoC4/ADC_ISR.c **** ********************************************************************************
  12:.\Generated_Source\PSoC4/ADC_ISR.c **** * Copyright 2008-2015, Cypress Semiconductor Corporation.  All rights reserved.
  13:.\Generated_Source\PSoC4/ADC_ISR.c **** * You may use this file only in accordance with the license, terms, conditions, 
  14:.\Generated_Source\PSoC4/ADC_ISR.c **** * disclaimers, and limitations in the end user license agreement accompanying 
  15:.\Generated_Source\PSoC4/ADC_ISR.c **** * the software package with which this file was provided.
  16:.\Generated_Source\PSoC4/ADC_ISR.c **** *******************************************************************************/
  17:.\Generated_Source\PSoC4/ADC_ISR.c **** 
  18:.\Generated_Source\PSoC4/ADC_ISR.c **** 
  19:.\Generated_Source\PSoC4/ADC_ISR.c **** #include <cydevice_trm.h>
  20:.\Generated_Source\PSoC4/ADC_ISR.c **** #include <CyLib.h>
  21:.\Generated_Source\PSoC4/ADC_ISR.c **** #include <ADC_ISR.h>
  22:.\Generated_Source\PSoC4/ADC_ISR.c **** 
  23:.\Generated_Source\PSoC4/ADC_ISR.c **** 
  24:.\Generated_Source\PSoC4/ADC_ISR.c **** #if !defined(ADC_ISR__REMOVED) /* Check for removal by optimization */
  25:.\Generated_Source\PSoC4/ADC_ISR.c **** 
  26:.\Generated_Source\PSoC4/ADC_ISR.c **** /*******************************************************************************
  27:.\Generated_Source\PSoC4/ADC_ISR.c **** *  Place your includes, defines and code here 
  28:.\Generated_Source\PSoC4/ADC_ISR.c **** ********************************************************************************/
  29:.\Generated_Source\PSoC4/ADC_ISR.c **** /* `#START ADC_ISR_intc` */
  30:.\Generated_Source\PSoC4/ADC_ISR.c **** 
  31:.\Generated_Source\PSoC4/ADC_ISR.c **** #include "IO_Control.h"
  32:.\Generated_Source\PSoC4/ADC_ISR.c ****     
ARM GAS  C:\Users\faithc\AppData\Local\Temp\ccitAhLJ.s 			page 2


  33:.\Generated_Source\PSoC4/ADC_ISR.c **** /* `#END` */
  34:.\Generated_Source\PSoC4/ADC_ISR.c **** 
  35:.\Generated_Source\PSoC4/ADC_ISR.c **** extern cyisraddress CyRamVectors[CYINT_IRQ_BASE + CY_NUM_INTERRUPTS];
  36:.\Generated_Source\PSoC4/ADC_ISR.c **** 
  37:.\Generated_Source\PSoC4/ADC_ISR.c **** /* Declared in startup, used to set unused interrupts to. */
  38:.\Generated_Source\PSoC4/ADC_ISR.c **** CY_ISR_PROTO(IntDefaultHandler);
  39:.\Generated_Source\PSoC4/ADC_ISR.c **** 
  40:.\Generated_Source\PSoC4/ADC_ISR.c **** 
  41:.\Generated_Source\PSoC4/ADC_ISR.c **** /*******************************************************************************
  42:.\Generated_Source\PSoC4/ADC_ISR.c **** * Function Name: ADC_ISR_Start
  43:.\Generated_Source\PSoC4/ADC_ISR.c **** ********************************************************************************
  44:.\Generated_Source\PSoC4/ADC_ISR.c **** *
  45:.\Generated_Source\PSoC4/ADC_ISR.c **** * Summary:
  46:.\Generated_Source\PSoC4/ADC_ISR.c **** *  Set up the interrupt and enable it. This function disables the interrupt, 
  47:.\Generated_Source\PSoC4/ADC_ISR.c **** *  sets the default interrupt vector, sets the priority from the value in the
  48:.\Generated_Source\PSoC4/ADC_ISR.c **** *  Design Wide Resources Interrupt Editor, then enables the interrupt to the 
  49:.\Generated_Source\PSoC4/ADC_ISR.c **** *  interrupt controller.
  50:.\Generated_Source\PSoC4/ADC_ISR.c **** *
  51:.\Generated_Source\PSoC4/ADC_ISR.c **** * Parameters:  
  52:.\Generated_Source\PSoC4/ADC_ISR.c **** *   None
  53:.\Generated_Source\PSoC4/ADC_ISR.c **** *
  54:.\Generated_Source\PSoC4/ADC_ISR.c **** * Return:
  55:.\Generated_Source\PSoC4/ADC_ISR.c **** *   None
  56:.\Generated_Source\PSoC4/ADC_ISR.c **** *
  57:.\Generated_Source\PSoC4/ADC_ISR.c **** *******************************************************************************/
  58:.\Generated_Source\PSoC4/ADC_ISR.c **** void ADC_ISR_Start(void)
  59:.\Generated_Source\PSoC4/ADC_ISR.c **** {
  60:.\Generated_Source\PSoC4/ADC_ISR.c ****     /* For all we know the interrupt is active. */
  61:.\Generated_Source\PSoC4/ADC_ISR.c ****     ADC_ISR_Disable();
  62:.\Generated_Source\PSoC4/ADC_ISR.c **** 
  63:.\Generated_Source\PSoC4/ADC_ISR.c ****     /* Set the ISR to point to the ADC_ISR Interrupt. */
  64:.\Generated_Source\PSoC4/ADC_ISR.c ****     ADC_ISR_SetVector(&ADC_ISR_Interrupt);
  65:.\Generated_Source\PSoC4/ADC_ISR.c **** 
  66:.\Generated_Source\PSoC4/ADC_ISR.c ****     /* Set the priority. */
  67:.\Generated_Source\PSoC4/ADC_ISR.c ****     ADC_ISR_SetPriority((uint8)ADC_ISR_INTC_PRIOR_NUMBER);
  68:.\Generated_Source\PSoC4/ADC_ISR.c **** 
  69:.\Generated_Source\PSoC4/ADC_ISR.c ****     /* Enable it. */
  70:.\Generated_Source\PSoC4/ADC_ISR.c ****     ADC_ISR_Enable();
  71:.\Generated_Source\PSoC4/ADC_ISR.c **** }
  72:.\Generated_Source\PSoC4/ADC_ISR.c **** 
  73:.\Generated_Source\PSoC4/ADC_ISR.c **** 
  74:.\Generated_Source\PSoC4/ADC_ISR.c **** /*******************************************************************************
  75:.\Generated_Source\PSoC4/ADC_ISR.c **** * Function Name: ADC_ISR_StartEx
  76:.\Generated_Source\PSoC4/ADC_ISR.c **** ********************************************************************************
  77:.\Generated_Source\PSoC4/ADC_ISR.c **** *
  78:.\Generated_Source\PSoC4/ADC_ISR.c **** * Summary:
  79:.\Generated_Source\PSoC4/ADC_ISR.c **** *  Sets up the interrupt and enables it. This function disables the interrupt,
  80:.\Generated_Source\PSoC4/ADC_ISR.c **** *  sets the interrupt vector based on the address passed in, sets the priority 
  81:.\Generated_Source\PSoC4/ADC_ISR.c **** *  from the value in the Design Wide Resources Interrupt Editor, then enables 
  82:.\Generated_Source\PSoC4/ADC_ISR.c **** *  the interrupt to the interrupt controller.
  83:.\Generated_Source\PSoC4/ADC_ISR.c **** *  
  84:.\Generated_Source\PSoC4/ADC_ISR.c **** *  When defining ISR functions, the CY_ISR and CY_ISR_PROTO macros should be 
  85:.\Generated_Source\PSoC4/ADC_ISR.c **** *  used to provide consistent definition across compilers:
  86:.\Generated_Source\PSoC4/ADC_ISR.c **** *  
  87:.\Generated_Source\PSoC4/ADC_ISR.c **** *  Function definition example:
  88:.\Generated_Source\PSoC4/ADC_ISR.c **** *   CY_ISR(MyISR)
  89:.\Generated_Source\PSoC4/ADC_ISR.c **** *   {
ARM GAS  C:\Users\faithc\AppData\Local\Temp\ccitAhLJ.s 			page 3


  90:.\Generated_Source\PSoC4/ADC_ISR.c **** *   }
  91:.\Generated_Source\PSoC4/ADC_ISR.c **** *   Function prototype example:
  92:.\Generated_Source\PSoC4/ADC_ISR.c **** *   CY_ISR_PROTO(MyISR);
  93:.\Generated_Source\PSoC4/ADC_ISR.c **** *
  94:.\Generated_Source\PSoC4/ADC_ISR.c **** * Parameters:  
  95:.\Generated_Source\PSoC4/ADC_ISR.c **** *   address: Address of the ISR to set in the interrupt vector table.
  96:.\Generated_Source\PSoC4/ADC_ISR.c **** *
  97:.\Generated_Source\PSoC4/ADC_ISR.c **** * Return:
  98:.\Generated_Source\PSoC4/ADC_ISR.c **** *   None
  99:.\Generated_Source\PSoC4/ADC_ISR.c **** *
 100:.\Generated_Source\PSoC4/ADC_ISR.c **** *******************************************************************************/
 101:.\Generated_Source\PSoC4/ADC_ISR.c **** void ADC_ISR_StartEx(cyisraddress address)
 102:.\Generated_Source\PSoC4/ADC_ISR.c **** {
 103:.\Generated_Source\PSoC4/ADC_ISR.c ****     /* For all we know the interrupt is active. */
 104:.\Generated_Source\PSoC4/ADC_ISR.c ****     ADC_ISR_Disable();
 105:.\Generated_Source\PSoC4/ADC_ISR.c **** 
 106:.\Generated_Source\PSoC4/ADC_ISR.c ****     /* Set the ISR to point to the ADC_ISR Interrupt. */
 107:.\Generated_Source\PSoC4/ADC_ISR.c ****     ADC_ISR_SetVector(address);
 108:.\Generated_Source\PSoC4/ADC_ISR.c **** 
 109:.\Generated_Source\PSoC4/ADC_ISR.c ****     /* Set the priority. */
 110:.\Generated_Source\PSoC4/ADC_ISR.c ****     ADC_ISR_SetPriority((uint8)ADC_ISR_INTC_PRIOR_NUMBER);
 111:.\Generated_Source\PSoC4/ADC_ISR.c **** 
 112:.\Generated_Source\PSoC4/ADC_ISR.c ****     /* Enable it. */
 113:.\Generated_Source\PSoC4/ADC_ISR.c ****     ADC_ISR_Enable();
 114:.\Generated_Source\PSoC4/ADC_ISR.c **** }
 115:.\Generated_Source\PSoC4/ADC_ISR.c **** 
 116:.\Generated_Source\PSoC4/ADC_ISR.c **** 
 117:.\Generated_Source\PSoC4/ADC_ISR.c **** /*******************************************************************************
 118:.\Generated_Source\PSoC4/ADC_ISR.c **** * Function Name: ADC_ISR_Stop
 119:.\Generated_Source\PSoC4/ADC_ISR.c **** ********************************************************************************
 120:.\Generated_Source\PSoC4/ADC_ISR.c **** *
 121:.\Generated_Source\PSoC4/ADC_ISR.c **** * Summary:
 122:.\Generated_Source\PSoC4/ADC_ISR.c **** *   Disables and removes the interrupt.
 123:.\Generated_Source\PSoC4/ADC_ISR.c **** *
 124:.\Generated_Source\PSoC4/ADC_ISR.c **** * Parameters:  
 125:.\Generated_Source\PSoC4/ADC_ISR.c **** *   None
 126:.\Generated_Source\PSoC4/ADC_ISR.c **** *
 127:.\Generated_Source\PSoC4/ADC_ISR.c **** * Return:
 128:.\Generated_Source\PSoC4/ADC_ISR.c **** *   None
 129:.\Generated_Source\PSoC4/ADC_ISR.c **** *
 130:.\Generated_Source\PSoC4/ADC_ISR.c **** *******************************************************************************/
 131:.\Generated_Source\PSoC4/ADC_ISR.c **** void ADC_ISR_Stop(void)
 132:.\Generated_Source\PSoC4/ADC_ISR.c **** {
 133:.\Generated_Source\PSoC4/ADC_ISR.c ****     /* Disable this interrupt. */
 134:.\Generated_Source\PSoC4/ADC_ISR.c ****     ADC_ISR_Disable();
 135:.\Generated_Source\PSoC4/ADC_ISR.c **** 
 136:.\Generated_Source\PSoC4/ADC_ISR.c ****     /* Set the ISR to point to the passive one. */
 137:.\Generated_Source\PSoC4/ADC_ISR.c ****     ADC_ISR_SetVector(&IntDefaultHandler);
 138:.\Generated_Source\PSoC4/ADC_ISR.c **** }
 139:.\Generated_Source\PSoC4/ADC_ISR.c **** 
 140:.\Generated_Source\PSoC4/ADC_ISR.c **** 
 141:.\Generated_Source\PSoC4/ADC_ISR.c **** /*******************************************************************************
 142:.\Generated_Source\PSoC4/ADC_ISR.c **** * Function Name: ADC_ISR_Interrupt
 143:.\Generated_Source\PSoC4/ADC_ISR.c **** ********************************************************************************
 144:.\Generated_Source\PSoC4/ADC_ISR.c **** *
 145:.\Generated_Source\PSoC4/ADC_ISR.c **** * Summary:
 146:.\Generated_Source\PSoC4/ADC_ISR.c **** *   The default Interrupt Service Routine for ADC_ISR.
ARM GAS  C:\Users\faithc\AppData\Local\Temp\ccitAhLJ.s 			page 4


 147:.\Generated_Source\PSoC4/ADC_ISR.c **** *
 148:.\Generated_Source\PSoC4/ADC_ISR.c **** *   Add custom code between the START and END comments to keep the next version
 149:.\Generated_Source\PSoC4/ADC_ISR.c **** *   of this file from over-writing your code.
 150:.\Generated_Source\PSoC4/ADC_ISR.c **** *
 151:.\Generated_Source\PSoC4/ADC_ISR.c **** *   Note You may use either the default ISR by using this API, or you may define
 152:.\Generated_Source\PSoC4/ADC_ISR.c **** *   your own separate ISR through ISR_StartEx().
 153:.\Generated_Source\PSoC4/ADC_ISR.c **** *
 154:.\Generated_Source\PSoC4/ADC_ISR.c **** * Parameters:  
 155:.\Generated_Source\PSoC4/ADC_ISR.c **** *   None
 156:.\Generated_Source\PSoC4/ADC_ISR.c **** *
 157:.\Generated_Source\PSoC4/ADC_ISR.c **** * Return:
 158:.\Generated_Source\PSoC4/ADC_ISR.c **** *   None
 159:.\Generated_Source\PSoC4/ADC_ISR.c **** *
 160:.\Generated_Source\PSoC4/ADC_ISR.c **** *******************************************************************************/
 161:.\Generated_Source\PSoC4/ADC_ISR.c **** CY_ISR(ADC_ISR_Interrupt)
 162:.\Generated_Source\PSoC4/ADC_ISR.c **** {
  26              		.loc 1 162 0
  27              		.cfi_startproc
  28 0000 08B5     		push	{r3, lr}
  29              		.cfi_def_cfa_offset 8
  30              		.cfi_offset 3, -8
  31              		.cfi_offset 14, -4
 163:.\Generated_Source\PSoC4/ADC_ISR.c ****     #ifdef ADC_ISR_INTERRUPT_INTERRUPT_CALLBACK
 164:.\Generated_Source\PSoC4/ADC_ISR.c ****         ADC_ISR_Interrupt_InterruptCallback();
 165:.\Generated_Source\PSoC4/ADC_ISR.c ****     #endif /* ADC_ISR_INTERRUPT_INTERRUPT_CALLBACK */ 
 166:.\Generated_Source\PSoC4/ADC_ISR.c **** 
 167:.\Generated_Source\PSoC4/ADC_ISR.c ****     /*  Place your Interrupt code here. */
 168:.\Generated_Source\PSoC4/ADC_ISR.c ****     /* `#START ADC_ISR_Interrupt` */
 169:.\Generated_Source\PSoC4/ADC_ISR.c **** 
 170:.\Generated_Source\PSoC4/ADC_ISR.c ****     processTemperatureSample();
  32              		.loc 1 170 0
  33 0002 FFF7FEFF 		bl	processTemperatureSample
  34              	.LVL0:
 171:.\Generated_Source\PSoC4/ADC_ISR.c ****     
 172:.\Generated_Source\PSoC4/ADC_ISR.c ****     /* `#END` */
 173:.\Generated_Source\PSoC4/ADC_ISR.c **** }
  35              		.loc 1 173 0
  36              		@ sp needed
  37 0006 08BD     		pop	{r3, pc}
  38              		.cfi_endproc
  39              	.LFE37:
  40              		.size	ADC_ISR_Interrupt, .-ADC_ISR_Interrupt
  41              		.section	.text.ADC_ISR_Stop,"ax",%progbits
  42              		.align	1
  43              		.global	ADC_ISR_Stop
  44              		.code	16
  45              		.thumb_func
  46              		.type	ADC_ISR_Stop, %function
  47              	ADC_ISR_Stop:
  48              	.LFB36:
 132:.\Generated_Source\PSoC4/ADC_ISR.c ****     /* Disable this interrupt. */
  49              		.loc 1 132 0
  50              		.cfi_startproc
  51              	.LBB18:
  52              	.LBB19:
 174:.\Generated_Source\PSoC4/ADC_ISR.c **** 
 175:.\Generated_Source\PSoC4/ADC_ISR.c **** 
ARM GAS  C:\Users\faithc\AppData\Local\Temp\ccitAhLJ.s 			page 5


 176:.\Generated_Source\PSoC4/ADC_ISR.c **** /*******************************************************************************
 177:.\Generated_Source\PSoC4/ADC_ISR.c **** * Function Name: ADC_ISR_SetVector
 178:.\Generated_Source\PSoC4/ADC_ISR.c **** ********************************************************************************
 179:.\Generated_Source\PSoC4/ADC_ISR.c **** *
 180:.\Generated_Source\PSoC4/ADC_ISR.c **** * Summary:
 181:.\Generated_Source\PSoC4/ADC_ISR.c **** *   Change the ISR vector for the Interrupt. Note calling ADC_ISR_Start
 182:.\Generated_Source\PSoC4/ADC_ISR.c **** *   will override any effect this method would have had. To set the vector 
 183:.\Generated_Source\PSoC4/ADC_ISR.c **** *   before the component has been started use ADC_ISR_StartEx instead.
 184:.\Generated_Source\PSoC4/ADC_ISR.c **** * 
 185:.\Generated_Source\PSoC4/ADC_ISR.c **** *   When defining ISR functions, the CY_ISR and CY_ISR_PROTO macros should be 
 186:.\Generated_Source\PSoC4/ADC_ISR.c **** *   used to provide consistent definition across compilers:
 187:.\Generated_Source\PSoC4/ADC_ISR.c **** *
 188:.\Generated_Source\PSoC4/ADC_ISR.c **** *   Function definition example:
 189:.\Generated_Source\PSoC4/ADC_ISR.c **** *   CY_ISR(MyISR)
 190:.\Generated_Source\PSoC4/ADC_ISR.c **** *   {
 191:.\Generated_Source\PSoC4/ADC_ISR.c **** *   }
 192:.\Generated_Source\PSoC4/ADC_ISR.c **** *
 193:.\Generated_Source\PSoC4/ADC_ISR.c **** *   Function prototype example:
 194:.\Generated_Source\PSoC4/ADC_ISR.c **** *     CY_ISR_PROTO(MyISR);
 195:.\Generated_Source\PSoC4/ADC_ISR.c **** *
 196:.\Generated_Source\PSoC4/ADC_ISR.c **** * Parameters:
 197:.\Generated_Source\PSoC4/ADC_ISR.c **** *   address: Address of the ISR to set in the interrupt vector table.
 198:.\Generated_Source\PSoC4/ADC_ISR.c **** *
 199:.\Generated_Source\PSoC4/ADC_ISR.c **** * Return:
 200:.\Generated_Source\PSoC4/ADC_ISR.c **** *   None
 201:.\Generated_Source\PSoC4/ADC_ISR.c **** *
 202:.\Generated_Source\PSoC4/ADC_ISR.c **** *******************************************************************************/
 203:.\Generated_Source\PSoC4/ADC_ISR.c **** void ADC_ISR_SetVector(cyisraddress address)
 204:.\Generated_Source\PSoC4/ADC_ISR.c **** {
 205:.\Generated_Source\PSoC4/ADC_ISR.c ****     CyRamVectors[CYINT_IRQ_BASE + ADC_ISR__INTC_NUMBER] = address;
 206:.\Generated_Source\PSoC4/ADC_ISR.c **** }
 207:.\Generated_Source\PSoC4/ADC_ISR.c **** 
 208:.\Generated_Source\PSoC4/ADC_ISR.c **** 
 209:.\Generated_Source\PSoC4/ADC_ISR.c **** /*******************************************************************************
 210:.\Generated_Source\PSoC4/ADC_ISR.c **** * Function Name: ADC_ISR_GetVector
 211:.\Generated_Source\PSoC4/ADC_ISR.c **** ********************************************************************************
 212:.\Generated_Source\PSoC4/ADC_ISR.c **** *
 213:.\Generated_Source\PSoC4/ADC_ISR.c **** * Summary:
 214:.\Generated_Source\PSoC4/ADC_ISR.c **** *   Gets the "address" of the current ISR vector for the Interrupt.
 215:.\Generated_Source\PSoC4/ADC_ISR.c **** *
 216:.\Generated_Source\PSoC4/ADC_ISR.c **** * Parameters:
 217:.\Generated_Source\PSoC4/ADC_ISR.c **** *   None
 218:.\Generated_Source\PSoC4/ADC_ISR.c **** *
 219:.\Generated_Source\PSoC4/ADC_ISR.c **** * Return:
 220:.\Generated_Source\PSoC4/ADC_ISR.c **** *   Address of the ISR in the interrupt vector table.
 221:.\Generated_Source\PSoC4/ADC_ISR.c **** *
 222:.\Generated_Source\PSoC4/ADC_ISR.c **** *******************************************************************************/
 223:.\Generated_Source\PSoC4/ADC_ISR.c **** cyisraddress ADC_ISR_GetVector(void)
 224:.\Generated_Source\PSoC4/ADC_ISR.c **** {
 225:.\Generated_Source\PSoC4/ADC_ISR.c ****     return CyRamVectors[CYINT_IRQ_BASE + ADC_ISR__INTC_NUMBER];
 226:.\Generated_Source\PSoC4/ADC_ISR.c **** }
 227:.\Generated_Source\PSoC4/ADC_ISR.c **** 
 228:.\Generated_Source\PSoC4/ADC_ISR.c **** 
 229:.\Generated_Source\PSoC4/ADC_ISR.c **** /*******************************************************************************
 230:.\Generated_Source\PSoC4/ADC_ISR.c **** * Function Name: ADC_ISR_SetPriority
 231:.\Generated_Source\PSoC4/ADC_ISR.c **** ********************************************************************************
 232:.\Generated_Source\PSoC4/ADC_ISR.c **** *
ARM GAS  C:\Users\faithc\AppData\Local\Temp\ccitAhLJ.s 			page 6


 233:.\Generated_Source\PSoC4/ADC_ISR.c **** * Summary:
 234:.\Generated_Source\PSoC4/ADC_ISR.c **** *   Sets the Priority of the Interrupt. 
 235:.\Generated_Source\PSoC4/ADC_ISR.c **** *
 236:.\Generated_Source\PSoC4/ADC_ISR.c **** *   Note calling ADC_ISR_Start or ADC_ISR_StartEx will 
 237:.\Generated_Source\PSoC4/ADC_ISR.c **** *   override any effect this API would have had. This API should only be called
 238:.\Generated_Source\PSoC4/ADC_ISR.c **** *   after ADC_ISR_Start or ADC_ISR_StartEx has been called. 
 239:.\Generated_Source\PSoC4/ADC_ISR.c **** *   To set the initial priority for the component, use the Design-Wide Resources
 240:.\Generated_Source\PSoC4/ADC_ISR.c **** *   Interrupt Editor.
 241:.\Generated_Source\PSoC4/ADC_ISR.c **** *
 242:.\Generated_Source\PSoC4/ADC_ISR.c **** *   Note This API has no effect on Non-maskable interrupt NMI).
 243:.\Generated_Source\PSoC4/ADC_ISR.c **** *
 244:.\Generated_Source\PSoC4/ADC_ISR.c **** * Parameters:
 245:.\Generated_Source\PSoC4/ADC_ISR.c **** *   priority: Priority of the interrupt, 0 being the highest priority
 246:.\Generated_Source\PSoC4/ADC_ISR.c **** *             PSoC 3 and PSoC 5LP: Priority is from 0 to 7.
 247:.\Generated_Source\PSoC4/ADC_ISR.c **** *             PSoC 4: Priority is from 0 to 3.
 248:.\Generated_Source\PSoC4/ADC_ISR.c **** *
 249:.\Generated_Source\PSoC4/ADC_ISR.c **** * Return:
 250:.\Generated_Source\PSoC4/ADC_ISR.c **** *   None
 251:.\Generated_Source\PSoC4/ADC_ISR.c **** *
 252:.\Generated_Source\PSoC4/ADC_ISR.c **** *******************************************************************************/
 253:.\Generated_Source\PSoC4/ADC_ISR.c **** void ADC_ISR_SetPriority(uint8 priority)
 254:.\Generated_Source\PSoC4/ADC_ISR.c **** {
 255:.\Generated_Source\PSoC4/ADC_ISR.c **** 	uint8 interruptState;
 256:.\Generated_Source\PSoC4/ADC_ISR.c ****     uint32 priorityOffset = ((ADC_ISR__INTC_NUMBER % 4u) * 8u) + 6u;
 257:.\Generated_Source\PSoC4/ADC_ISR.c ****     
 258:.\Generated_Source\PSoC4/ADC_ISR.c **** 	interruptState = CyEnterCriticalSection();
 259:.\Generated_Source\PSoC4/ADC_ISR.c ****     *ADC_ISR_INTC_PRIOR = (*ADC_ISR_INTC_PRIOR & (uint32)(~ADC_ISR__INTC_PRIOR_MASK)) |
 260:.\Generated_Source\PSoC4/ADC_ISR.c ****                                     ((uint32)priority << priorityOffset);
 261:.\Generated_Source\PSoC4/ADC_ISR.c **** 	CyExitCriticalSection(interruptState);
 262:.\Generated_Source\PSoC4/ADC_ISR.c **** }
 263:.\Generated_Source\PSoC4/ADC_ISR.c **** 
 264:.\Generated_Source\PSoC4/ADC_ISR.c **** 
 265:.\Generated_Source\PSoC4/ADC_ISR.c **** /*******************************************************************************
 266:.\Generated_Source\PSoC4/ADC_ISR.c **** * Function Name: ADC_ISR_GetPriority
 267:.\Generated_Source\PSoC4/ADC_ISR.c **** ********************************************************************************
 268:.\Generated_Source\PSoC4/ADC_ISR.c **** *
 269:.\Generated_Source\PSoC4/ADC_ISR.c **** * Summary:
 270:.\Generated_Source\PSoC4/ADC_ISR.c **** *   Gets the Priority of the Interrupt.
 271:.\Generated_Source\PSoC4/ADC_ISR.c **** *
 272:.\Generated_Source\PSoC4/ADC_ISR.c **** * Parameters:
 273:.\Generated_Source\PSoC4/ADC_ISR.c **** *   None
 274:.\Generated_Source\PSoC4/ADC_ISR.c **** *
 275:.\Generated_Source\PSoC4/ADC_ISR.c **** * Return:
 276:.\Generated_Source\PSoC4/ADC_ISR.c **** *   Priority of the interrupt, 0 being the highest priority
 277:.\Generated_Source\PSoC4/ADC_ISR.c **** *    PSoC 3 and PSoC 5LP: Priority is from 0 to 7.
 278:.\Generated_Source\PSoC4/ADC_ISR.c **** *    PSoC 4: Priority is from 0 to 3.
 279:.\Generated_Source\PSoC4/ADC_ISR.c **** *
 280:.\Generated_Source\PSoC4/ADC_ISR.c **** *******************************************************************************/
 281:.\Generated_Source\PSoC4/ADC_ISR.c **** uint8 ADC_ISR_GetPriority(void)
 282:.\Generated_Source\PSoC4/ADC_ISR.c **** {
 283:.\Generated_Source\PSoC4/ADC_ISR.c ****     uint32 priority;
 284:.\Generated_Source\PSoC4/ADC_ISR.c **** 	uint32 priorityOffset = ((ADC_ISR__INTC_NUMBER % 4u) * 8u) + 6u;
 285:.\Generated_Source\PSoC4/ADC_ISR.c **** 
 286:.\Generated_Source\PSoC4/ADC_ISR.c ****     priority = (*ADC_ISR_INTC_PRIOR & ADC_ISR__INTC_PRIOR_MASK) >> priorityOffset;
 287:.\Generated_Source\PSoC4/ADC_ISR.c **** 
 288:.\Generated_Source\PSoC4/ADC_ISR.c ****     return (uint8)priority;
 289:.\Generated_Source\PSoC4/ADC_ISR.c **** }
ARM GAS  C:\Users\faithc\AppData\Local\Temp\ccitAhLJ.s 			page 7


 290:.\Generated_Source\PSoC4/ADC_ISR.c **** 
 291:.\Generated_Source\PSoC4/ADC_ISR.c **** 
 292:.\Generated_Source\PSoC4/ADC_ISR.c **** /*******************************************************************************
 293:.\Generated_Source\PSoC4/ADC_ISR.c **** * Function Name: ADC_ISR_Enable
 294:.\Generated_Source\PSoC4/ADC_ISR.c **** ********************************************************************************
 295:.\Generated_Source\PSoC4/ADC_ISR.c **** *
 296:.\Generated_Source\PSoC4/ADC_ISR.c **** * Summary:
 297:.\Generated_Source\PSoC4/ADC_ISR.c **** *   Enables the interrupt to the interrupt controller. Do not call this function
 298:.\Generated_Source\PSoC4/ADC_ISR.c **** *   unless ISR_Start() has been called or the functionality of the ISR_Start() 
 299:.\Generated_Source\PSoC4/ADC_ISR.c **** *   function, which sets the vector and the priority, has been called.
 300:.\Generated_Source\PSoC4/ADC_ISR.c **** *
 301:.\Generated_Source\PSoC4/ADC_ISR.c **** * Parameters:
 302:.\Generated_Source\PSoC4/ADC_ISR.c **** *   None
 303:.\Generated_Source\PSoC4/ADC_ISR.c **** *
 304:.\Generated_Source\PSoC4/ADC_ISR.c **** * Return:
 305:.\Generated_Source\PSoC4/ADC_ISR.c **** *   None
 306:.\Generated_Source\PSoC4/ADC_ISR.c **** *
 307:.\Generated_Source\PSoC4/ADC_ISR.c **** *******************************************************************************/
 308:.\Generated_Source\PSoC4/ADC_ISR.c **** void ADC_ISR_Enable(void)
 309:.\Generated_Source\PSoC4/ADC_ISR.c **** {
 310:.\Generated_Source\PSoC4/ADC_ISR.c ****     /* Enable the general interrupt. */
 311:.\Generated_Source\PSoC4/ADC_ISR.c ****     *ADC_ISR_INTC_SET_EN = ADC_ISR__INTC_MASK;
 312:.\Generated_Source\PSoC4/ADC_ISR.c **** }
 313:.\Generated_Source\PSoC4/ADC_ISR.c **** 
 314:.\Generated_Source\PSoC4/ADC_ISR.c **** 
 315:.\Generated_Source\PSoC4/ADC_ISR.c **** /*******************************************************************************
 316:.\Generated_Source\PSoC4/ADC_ISR.c **** * Function Name: ADC_ISR_GetState
 317:.\Generated_Source\PSoC4/ADC_ISR.c **** ********************************************************************************
 318:.\Generated_Source\PSoC4/ADC_ISR.c **** *
 319:.\Generated_Source\PSoC4/ADC_ISR.c **** * Summary:
 320:.\Generated_Source\PSoC4/ADC_ISR.c **** *   Gets the state (enabled, disabled) of the Interrupt.
 321:.\Generated_Source\PSoC4/ADC_ISR.c **** *
 322:.\Generated_Source\PSoC4/ADC_ISR.c **** * Parameters:
 323:.\Generated_Source\PSoC4/ADC_ISR.c **** *   None
 324:.\Generated_Source\PSoC4/ADC_ISR.c **** *
 325:.\Generated_Source\PSoC4/ADC_ISR.c **** * Return:
 326:.\Generated_Source\PSoC4/ADC_ISR.c **** *   1 if enabled, 0 if disabled.
 327:.\Generated_Source\PSoC4/ADC_ISR.c **** *
 328:.\Generated_Source\PSoC4/ADC_ISR.c **** *******************************************************************************/
 329:.\Generated_Source\PSoC4/ADC_ISR.c **** uint8 ADC_ISR_GetState(void)
 330:.\Generated_Source\PSoC4/ADC_ISR.c **** {
 331:.\Generated_Source\PSoC4/ADC_ISR.c ****     /* Get the state of the general interrupt. */
 332:.\Generated_Source\PSoC4/ADC_ISR.c ****     return ((*ADC_ISR_INTC_SET_EN & (uint32)ADC_ISR__INTC_MASK) != 0u) ? 1u:0u;
 333:.\Generated_Source\PSoC4/ADC_ISR.c **** }
 334:.\Generated_Source\PSoC4/ADC_ISR.c **** 
 335:.\Generated_Source\PSoC4/ADC_ISR.c **** 
 336:.\Generated_Source\PSoC4/ADC_ISR.c **** /*******************************************************************************
 337:.\Generated_Source\PSoC4/ADC_ISR.c **** * Function Name: ADC_ISR_Disable
 338:.\Generated_Source\PSoC4/ADC_ISR.c **** ********************************************************************************
 339:.\Generated_Source\PSoC4/ADC_ISR.c **** *
 340:.\Generated_Source\PSoC4/ADC_ISR.c **** * Summary:
 341:.\Generated_Source\PSoC4/ADC_ISR.c **** *   Disables the Interrupt in the interrupt controller.
 342:.\Generated_Source\PSoC4/ADC_ISR.c **** *
 343:.\Generated_Source\PSoC4/ADC_ISR.c **** * Parameters:
 344:.\Generated_Source\PSoC4/ADC_ISR.c **** *   None
 345:.\Generated_Source\PSoC4/ADC_ISR.c **** *
 346:.\Generated_Source\PSoC4/ADC_ISR.c **** * Return:
ARM GAS  C:\Users\faithc\AppData\Local\Temp\ccitAhLJ.s 			page 8


 347:.\Generated_Source\PSoC4/ADC_ISR.c **** *   None
 348:.\Generated_Source\PSoC4/ADC_ISR.c **** *
 349:.\Generated_Source\PSoC4/ADC_ISR.c **** *******************************************************************************/
 350:.\Generated_Source\PSoC4/ADC_ISR.c **** void ADC_ISR_Disable(void)
 351:.\Generated_Source\PSoC4/ADC_ISR.c **** {
 352:.\Generated_Source\PSoC4/ADC_ISR.c ****     /* Disable the general interrupt. */
 353:.\Generated_Source\PSoC4/ADC_ISR.c ****     *ADC_ISR_INTC_CLR_EN = ADC_ISR__INTC_MASK;
  53              		.loc 1 353 0
  54 0000 0122     		mov	r2, #1
  55 0002 034B     		ldr	r3, .L3
  56              	.LBE19:
  57              	.LBE18:
 138:.\Generated_Source\PSoC4/ADC_ISR.c **** 
  58              		.loc 1 138 0
  59              		@ sp needed
  60              	.LBB21:
  61              	.LBB20:
  62              		.loc 1 353 0
  63 0004 1A60     		str	r2, [r3]
  64              	.LVL1:
  65              	.LBE20:
  66              	.LBE21:
  67              	.LBB22:
  68              	.LBB23:
 205:.\Generated_Source\PSoC4/ADC_ISR.c **** }
  69              		.loc 1 205 0
  70 0006 034A     		ldr	r2, .L3+4
  71 0008 034B     		ldr	r3, .L3+8
  72 000a 1A64     		str	r2, [r3, #64]
  73              	.LBE23:
  74              	.LBE22:
 138:.\Generated_Source\PSoC4/ADC_ISR.c **** 
  75              		.loc 1 138 0
  76 000c 7047     		bx	lr
  77              	.L4:
  78 000e C046     		.align	2
  79              	.L3:
  80 0010 80E100E0 		.word	-536813184
  81 0014 00000000 		.word	IntDefaultHandler
  82 0018 00000000 		.word	CyRamVectors
  83              		.cfi_endproc
  84              	.LFE36:
  85              		.size	ADC_ISR_Stop, .-ADC_ISR_Stop
  86              		.section	.text.ADC_ISR_SetVector,"ax",%progbits
  87              		.align	1
  88              		.global	ADC_ISR_SetVector
  89              		.code	16
  90              		.thumb_func
  91              		.type	ADC_ISR_SetVector, %function
  92              	ADC_ISR_SetVector:
  93              	.LFB38:
 204:.\Generated_Source\PSoC4/ADC_ISR.c ****     CyRamVectors[CYINT_IRQ_BASE + ADC_ISR__INTC_NUMBER] = address;
  94              		.loc 1 204 0
  95              		.cfi_startproc
  96              	.LVL2:
 205:.\Generated_Source\PSoC4/ADC_ISR.c **** }
  97              		.loc 1 205 0
ARM GAS  C:\Users\faithc\AppData\Local\Temp\ccitAhLJ.s 			page 9


  98 0000 014B     		ldr	r3, .L6
 206:.\Generated_Source\PSoC4/ADC_ISR.c **** 
  99              		.loc 1 206 0
 100              		@ sp needed
 205:.\Generated_Source\PSoC4/ADC_ISR.c **** }
 101              		.loc 1 205 0
 102 0002 1864     		str	r0, [r3, #64]
 206:.\Generated_Source\PSoC4/ADC_ISR.c **** 
 103              		.loc 1 206 0
 104 0004 7047     		bx	lr
 105              	.L7:
 106 0006 C046     		.align	2
 107              	.L6:
 108 0008 00000000 		.word	CyRamVectors
 109              		.cfi_endproc
 110              	.LFE38:
 111              		.size	ADC_ISR_SetVector, .-ADC_ISR_SetVector
 112              		.section	.text.ADC_ISR_GetVector,"ax",%progbits
 113              		.align	1
 114              		.global	ADC_ISR_GetVector
 115              		.code	16
 116              		.thumb_func
 117              		.type	ADC_ISR_GetVector, %function
 118              	ADC_ISR_GetVector:
 119              	.LFB39:
 224:.\Generated_Source\PSoC4/ADC_ISR.c ****     return CyRamVectors[CYINT_IRQ_BASE + ADC_ISR__INTC_NUMBER];
 120              		.loc 1 224 0
 121              		.cfi_startproc
 225:.\Generated_Source\PSoC4/ADC_ISR.c **** }
 122              		.loc 1 225 0
 123 0000 014B     		ldr	r3, .L9
 226:.\Generated_Source\PSoC4/ADC_ISR.c **** 
 124              		.loc 1 226 0
 125              		@ sp needed
 225:.\Generated_Source\PSoC4/ADC_ISR.c **** }
 126              		.loc 1 225 0
 127 0002 186C     		ldr	r0, [r3, #64]
 226:.\Generated_Source\PSoC4/ADC_ISR.c **** 
 128              		.loc 1 226 0
 129 0004 7047     		bx	lr
 130              	.L10:
 131 0006 C046     		.align	2
 132              	.L9:
 133 0008 00000000 		.word	CyRamVectors
 134              		.cfi_endproc
 135              	.LFE39:
 136              		.size	ADC_ISR_GetVector, .-ADC_ISR_GetVector
 137              		.section	.text.ADC_ISR_SetPriority,"ax",%progbits
 138              		.align	1
 139              		.global	ADC_ISR_SetPriority
 140              		.code	16
 141              		.thumb_func
 142              		.type	ADC_ISR_SetPriority, %function
 143              	ADC_ISR_SetPriority:
 144              	.LFB40:
 254:.\Generated_Source\PSoC4/ADC_ISR.c **** 	uint8 interruptState;
 145              		.loc 1 254 0
ARM GAS  C:\Users\faithc\AppData\Local\Temp\ccitAhLJ.s 			page 10


 146              		.cfi_startproc
 147              	.LVL3:
 148 0000 10B5     		push	{r4, lr}
 149              		.cfi_def_cfa_offset 8
 150              		.cfi_offset 4, -8
 151              		.cfi_offset 14, -4
 254:.\Generated_Source\PSoC4/ADC_ISR.c **** 	uint8 interruptState;
 152              		.loc 1 254 0
 153 0002 041C     		mov	r4, r0
 258:.\Generated_Source\PSoC4/ADC_ISR.c ****     *ADC_ISR_INTC_PRIOR = (*ADC_ISR_INTC_PRIOR & (uint32)(~ADC_ISR__INTC_PRIOR_MASK)) |
 154              		.loc 1 258 0
 155 0004 FFF7FEFF 		bl	CyEnterCriticalSection
 156              	.LVL4:
 259:.\Generated_Source\PSoC4/ADC_ISR.c ****                                     ((uint32)priority << priorityOffset);
 157              		.loc 1 259 0
 158 0008 C021     		mov	r1, #192
 159 000a 044A     		ldr	r2, .L12
 260:.\Generated_Source\PSoC4/ADC_ISR.c **** 	CyExitCriticalSection(interruptState);
 160              		.loc 1 260 0
 161 000c A401     		lsl	r4, r4, #6
 259:.\Generated_Source\PSoC4/ADC_ISR.c ****                                     ((uint32)priority << priorityOffset);
 162              		.loc 1 259 0
 163 000e 1368     		ldr	r3, [r2]
 262:.\Generated_Source\PSoC4/ADC_ISR.c **** 
 164              		.loc 1 262 0
 165              		@ sp needed
 259:.\Generated_Source\PSoC4/ADC_ISR.c ****                                     ((uint32)priority << priorityOffset);
 166              		.loc 1 259 0
 167 0010 8B43     		bic	r3, r1
 168 0012 2343     		orr	r3, r4
 169 0014 1360     		str	r3, [r2]
 261:.\Generated_Source\PSoC4/ADC_ISR.c **** }
 170              		.loc 1 261 0
 171 0016 FFF7FEFF 		bl	CyExitCriticalSection
 172              	.LVL5:
 262:.\Generated_Source\PSoC4/ADC_ISR.c **** 
 173              		.loc 1 262 0
 174 001a 10BD     		pop	{r4, pc}
 175              	.L13:
 176              		.align	2
 177              	.L12:
 178 001c 00E400E0 		.word	-536812544
 179              		.cfi_endproc
 180              	.LFE40:
 181              		.size	ADC_ISR_SetPriority, .-ADC_ISR_SetPriority
 182              		.section	.text.ADC_ISR_Start,"ax",%progbits
 183              		.align	1
 184              		.global	ADC_ISR_Start
 185              		.code	16
 186              		.thumb_func
 187              		.type	ADC_ISR_Start, %function
 188              	ADC_ISR_Start:
 189              	.LFB34:
  59:.\Generated_Source\PSoC4/ADC_ISR.c ****     /* For all we know the interrupt is active. */
 190              		.loc 1 59 0
 191              		.cfi_startproc
 192 0000 10B5     		push	{r4, lr}
ARM GAS  C:\Users\faithc\AppData\Local\Temp\ccitAhLJ.s 			page 11


 193              		.cfi_def_cfa_offset 8
 194              		.cfi_offset 4, -8
 195              		.cfi_offset 14, -4
 196              	.LBB24:
 197              	.LBB25:
 198              		.loc 1 353 0
 199 0002 0124     		mov	r4, #1
 200 0004 054B     		ldr	r3, .L15
 201              	.LBE25:
 202              	.LBE24:
 203              	.LBB27:
 204              	.LBB28:
 205:.\Generated_Source\PSoC4/ADC_ISR.c **** }
 205              		.loc 1 205 0
 206 0006 064A     		ldr	r2, .L15+4
 207              	.LBE28:
 208              	.LBE27:
 209              	.LBB31:
 210              	.LBB26:
 211              		.loc 1 353 0
 212 0008 1C60     		str	r4, [r3]
 213              	.LVL6:
 214              	.LBE26:
 215              	.LBE31:
 216              	.LBB32:
 217              	.LBB29:
 205:.\Generated_Source\PSoC4/ADC_ISR.c **** }
 218              		.loc 1 205 0
 219 000a 064B     		ldr	r3, .L15+8
 220              	.LBE29:
 221              	.LBE32:
  67:.\Generated_Source\PSoC4/ADC_ISR.c **** 
 222              		.loc 1 67 0
 223 000c 0320     		mov	r0, #3
 224              	.LBB33:
 225              	.LBB30:
 205:.\Generated_Source\PSoC4/ADC_ISR.c **** }
 226              		.loc 1 205 0
 227 000e 1A64     		str	r2, [r3, #64]
 228              	.LBE30:
 229              	.LBE33:
  67:.\Generated_Source\PSoC4/ADC_ISR.c **** 
 230              		.loc 1 67 0
 231 0010 FFF7FEFF 		bl	ADC_ISR_SetPriority
 232              	.LVL7:
 233              	.LBB34:
 234              	.LBB35:
 311:.\Generated_Source\PSoC4/ADC_ISR.c **** }
 235              		.loc 1 311 0
 236 0014 044B     		ldr	r3, .L15+12
 237              	.LBE35:
 238              	.LBE34:
  71:.\Generated_Source\PSoC4/ADC_ISR.c **** 
 239              		.loc 1 71 0
 240              		@ sp needed
 241              	.LBB37:
 242              	.LBB36:
ARM GAS  C:\Users\faithc\AppData\Local\Temp\ccitAhLJ.s 			page 12


 311:.\Generated_Source\PSoC4/ADC_ISR.c **** }
 243              		.loc 1 311 0
 244 0016 1C60     		str	r4, [r3]
 245              	.LBE36:
 246              	.LBE37:
  71:.\Generated_Source\PSoC4/ADC_ISR.c **** 
 247              		.loc 1 71 0
 248 0018 10BD     		pop	{r4, pc}
 249              	.L16:
 250 001a C046     		.align	2
 251              	.L15:
 252 001c 80E100E0 		.word	-536813184
 253 0020 00000000 		.word	ADC_ISR_Interrupt
 254 0024 00000000 		.word	CyRamVectors
 255 0028 00E100E0 		.word	-536813312
 256              		.cfi_endproc
 257              	.LFE34:
 258              		.size	ADC_ISR_Start, .-ADC_ISR_Start
 259              		.section	.text.ADC_ISR_StartEx,"ax",%progbits
 260              		.align	1
 261              		.global	ADC_ISR_StartEx
 262              		.code	16
 263              		.thumb_func
 264              		.type	ADC_ISR_StartEx, %function
 265              	ADC_ISR_StartEx:
 266              	.LFB35:
 102:.\Generated_Source\PSoC4/ADC_ISR.c ****     /* For all we know the interrupt is active. */
 267              		.loc 1 102 0
 268              		.cfi_startproc
 269              	.LVL8:
 270 0000 10B5     		push	{r4, lr}
 271              		.cfi_def_cfa_offset 8
 272              		.cfi_offset 4, -8
 273              		.cfi_offset 14, -4
 274              	.LBB38:
 275              	.LBB39:
 276              		.loc 1 353 0
 277 0002 0124     		mov	r4, #1
 278 0004 044B     		ldr	r3, .L18
 279              	.LBE39:
 280              	.LBE38:
 114:.\Generated_Source\PSoC4/ADC_ISR.c **** 
 281              		.loc 1 114 0
 282              		@ sp needed
 283              	.LBB41:
 284              	.LBB40:
 285              		.loc 1 353 0
 286 0006 1C60     		str	r4, [r3]
 287              	.LVL9:
 288              	.LBE40:
 289              	.LBE41:
 290              	.LBB42:
 291              	.LBB43:
 205:.\Generated_Source\PSoC4/ADC_ISR.c **** }
 292              		.loc 1 205 0
 293 0008 044B     		ldr	r3, .L18+4
 294 000a 1864     		str	r0, [r3, #64]
ARM GAS  C:\Users\faithc\AppData\Local\Temp\ccitAhLJ.s 			page 13


 295              	.LBE43:
 296              	.LBE42:
 110:.\Generated_Source\PSoC4/ADC_ISR.c **** 
 297              		.loc 1 110 0
 298 000c 0320     		mov	r0, #3
 299              	.LVL10:
 300 000e FFF7FEFF 		bl	ADC_ISR_SetPriority
 301              	.LVL11:
 302              	.LBB44:
 303              	.LBB45:
 311:.\Generated_Source\PSoC4/ADC_ISR.c **** }
 304              		.loc 1 311 0
 305 0012 034B     		ldr	r3, .L18+8
 306 0014 1C60     		str	r4, [r3]
 307              	.LBE45:
 308              	.LBE44:
 114:.\Generated_Source\PSoC4/ADC_ISR.c **** 
 309              		.loc 1 114 0
 310 0016 10BD     		pop	{r4, pc}
 311              	.L19:
 312              		.align	2
 313              	.L18:
 314 0018 80E100E0 		.word	-536813184
 315 001c 00000000 		.word	CyRamVectors
 316 0020 00E100E0 		.word	-536813312
 317              		.cfi_endproc
 318              	.LFE35:
 319              		.size	ADC_ISR_StartEx, .-ADC_ISR_StartEx
 320              		.section	.text.ADC_ISR_GetPriority,"ax",%progbits
 321              		.align	1
 322              		.global	ADC_ISR_GetPriority
 323              		.code	16
 324              		.thumb_func
 325              		.type	ADC_ISR_GetPriority, %function
 326              	ADC_ISR_GetPriority:
 327              	.LFB41:
 282:.\Generated_Source\PSoC4/ADC_ISR.c ****     uint32 priority;
 328              		.loc 1 282 0
 329              		.cfi_startproc
 330              	.LVL12:
 286:.\Generated_Source\PSoC4/ADC_ISR.c **** 
 331              		.loc 1 286 0
 332 0000 024B     		ldr	r3, .L21
 289:.\Generated_Source\PSoC4/ADC_ISR.c **** 
 333              		.loc 1 289 0
 334              		@ sp needed
 286:.\Generated_Source\PSoC4/ADC_ISR.c **** 
 335              		.loc 1 286 0
 336 0002 1868     		ldr	r0, [r3]
 337              	.LVL13:
 338 0004 0006     		lsl	r0, r0, #24
 339              	.LVL14:
 288:.\Generated_Source\PSoC4/ADC_ISR.c **** }
 340              		.loc 1 288 0
 341 0006 800F     		lsr	r0, r0, #30
 289:.\Generated_Source\PSoC4/ADC_ISR.c **** 
 342              		.loc 1 289 0
ARM GAS  C:\Users\faithc\AppData\Local\Temp\ccitAhLJ.s 			page 14


 343 0008 7047     		bx	lr
 344              	.L22:
 345 000a C046     		.align	2
 346              	.L21:
 347 000c 00E400E0 		.word	-536812544
 348              		.cfi_endproc
 349              	.LFE41:
 350              		.size	ADC_ISR_GetPriority, .-ADC_ISR_GetPriority
 351              		.section	.text.ADC_ISR_Enable,"ax",%progbits
 352              		.align	1
 353              		.global	ADC_ISR_Enable
 354              		.code	16
 355              		.thumb_func
 356              		.type	ADC_ISR_Enable, %function
 357              	ADC_ISR_Enable:
 358              	.LFB42:
 309:.\Generated_Source\PSoC4/ADC_ISR.c ****     /* Enable the general interrupt. */
 359              		.loc 1 309 0
 360              		.cfi_startproc
 311:.\Generated_Source\PSoC4/ADC_ISR.c **** }
 361              		.loc 1 311 0
 362 0000 0122     		mov	r2, #1
 363 0002 014B     		ldr	r3, .L24
 312:.\Generated_Source\PSoC4/ADC_ISR.c **** 
 364              		.loc 1 312 0
 365              		@ sp needed
 311:.\Generated_Source\PSoC4/ADC_ISR.c **** }
 366              		.loc 1 311 0
 367 0004 1A60     		str	r2, [r3]
 312:.\Generated_Source\PSoC4/ADC_ISR.c **** 
 368              		.loc 1 312 0
 369 0006 7047     		bx	lr
 370              	.L25:
 371              		.align	2
 372              	.L24:
 373 0008 00E100E0 		.word	-536813312
 374              		.cfi_endproc
 375              	.LFE42:
 376              		.size	ADC_ISR_Enable, .-ADC_ISR_Enable
 377              		.section	.text.ADC_ISR_GetState,"ax",%progbits
 378              		.align	1
 379              		.global	ADC_ISR_GetState
 380              		.code	16
 381              		.thumb_func
 382              		.type	ADC_ISR_GetState, %function
 383              	ADC_ISR_GetState:
 384              	.LFB43:
 330:.\Generated_Source\PSoC4/ADC_ISR.c ****     /* Get the state of the general interrupt. */
 385              		.loc 1 330 0
 386              		.cfi_startproc
 332:.\Generated_Source\PSoC4/ADC_ISR.c **** }
 387              		.loc 1 332 0
 388 0000 024B     		ldr	r3, .L27
 333:.\Generated_Source\PSoC4/ADC_ISR.c **** 
 389              		.loc 1 333 0
 390              		@ sp needed
 332:.\Generated_Source\PSoC4/ADC_ISR.c **** }
ARM GAS  C:\Users\faithc\AppData\Local\Temp\ccitAhLJ.s 			page 15


 391              		.loc 1 332 0
 392 0002 1868     		ldr	r0, [r3]
 393 0004 0123     		mov	r3, #1
 394 0006 1840     		and	r0, r3
 333:.\Generated_Source\PSoC4/ADC_ISR.c **** 
 395              		.loc 1 333 0
 396 0008 7047     		bx	lr
 397              	.L28:
 398 000a C046     		.align	2
 399              	.L27:
 400 000c 00E100E0 		.word	-536813312
 401              		.cfi_endproc
 402              	.LFE43:
 403              		.size	ADC_ISR_GetState, .-ADC_ISR_GetState
 404              		.section	.text.ADC_ISR_Disable,"ax",%progbits
 405              		.align	1
 406              		.global	ADC_ISR_Disable
 407              		.code	16
 408              		.thumb_func
 409              		.type	ADC_ISR_Disable, %function
 410              	ADC_ISR_Disable:
 411              	.LFB44:
 351:.\Generated_Source\PSoC4/ADC_ISR.c ****     /* Disable the general interrupt. */
 412              		.loc 1 351 0
 413              		.cfi_startproc
 414              		.loc 1 353 0
 415 0000 0122     		mov	r2, #1
 416 0002 014B     		ldr	r3, .L30
 354:.\Generated_Source\PSoC4/ADC_ISR.c **** }
 417              		.loc 1 354 0
 418              		@ sp needed
 353:.\Generated_Source\PSoC4/ADC_ISR.c **** }
 419              		.loc 1 353 0
 420 0004 1A60     		str	r2, [r3]
 421              		.loc 1 354 0
 422 0006 7047     		bx	lr
 423              	.L31:
 424              		.align	2
 425              	.L30:
 426 0008 80E100E0 		.word	-536813184
 427              		.cfi_endproc
 428              	.LFE44:
 429              		.size	ADC_ISR_Disable, .-ADC_ISR_Disable
 430              		.section	.text.ADC_ISR_SetPending,"ax",%progbits
 431              		.align	1
 432              		.global	ADC_ISR_SetPending
 433              		.code	16
 434              		.thumb_func
 435              		.type	ADC_ISR_SetPending, %function
 436              	ADC_ISR_SetPending:
 437              	.LFB45:
 355:.\Generated_Source\PSoC4/ADC_ISR.c **** 
 356:.\Generated_Source\PSoC4/ADC_ISR.c **** 
 357:.\Generated_Source\PSoC4/ADC_ISR.c **** /*******************************************************************************
 358:.\Generated_Source\PSoC4/ADC_ISR.c **** * Function Name: ADC_ISR_SetPending
 359:.\Generated_Source\PSoC4/ADC_ISR.c **** ********************************************************************************
 360:.\Generated_Source\PSoC4/ADC_ISR.c **** *
ARM GAS  C:\Users\faithc\AppData\Local\Temp\ccitAhLJ.s 			page 16


 361:.\Generated_Source\PSoC4/ADC_ISR.c **** * Summary:
 362:.\Generated_Source\PSoC4/ADC_ISR.c **** *   Causes the Interrupt to enter the pending state, a software method of
 363:.\Generated_Source\PSoC4/ADC_ISR.c **** *   generating the interrupt.
 364:.\Generated_Source\PSoC4/ADC_ISR.c **** *
 365:.\Generated_Source\PSoC4/ADC_ISR.c **** * Parameters:
 366:.\Generated_Source\PSoC4/ADC_ISR.c **** *   None
 367:.\Generated_Source\PSoC4/ADC_ISR.c **** *
 368:.\Generated_Source\PSoC4/ADC_ISR.c **** * Return:
 369:.\Generated_Source\PSoC4/ADC_ISR.c **** *   None
 370:.\Generated_Source\PSoC4/ADC_ISR.c **** *
 371:.\Generated_Source\PSoC4/ADC_ISR.c **** * Side Effects:
 372:.\Generated_Source\PSoC4/ADC_ISR.c **** *   If interrupts are enabled and the interrupt is set up properly, the ISR is
 373:.\Generated_Source\PSoC4/ADC_ISR.c **** *   entered (depending on the priority of this interrupt and other pending 
 374:.\Generated_Source\PSoC4/ADC_ISR.c **** *   interrupts).
 375:.\Generated_Source\PSoC4/ADC_ISR.c **** *
 376:.\Generated_Source\PSoC4/ADC_ISR.c **** *******************************************************************************/
 377:.\Generated_Source\PSoC4/ADC_ISR.c **** void ADC_ISR_SetPending(void)
 378:.\Generated_Source\PSoC4/ADC_ISR.c **** {
 438              		.loc 1 378 0
 439              		.cfi_startproc
 379:.\Generated_Source\PSoC4/ADC_ISR.c ****     *ADC_ISR_INTC_SET_PD = ADC_ISR__INTC_MASK;
 440              		.loc 1 379 0
 441 0000 0122     		mov	r2, #1
 442 0002 014B     		ldr	r3, .L33
 380:.\Generated_Source\PSoC4/ADC_ISR.c **** }
 443              		.loc 1 380 0
 444              		@ sp needed
 379:.\Generated_Source\PSoC4/ADC_ISR.c ****     *ADC_ISR_INTC_SET_PD = ADC_ISR__INTC_MASK;
 445              		.loc 1 379 0
 446 0004 1A60     		str	r2, [r3]
 447              		.loc 1 380 0
 448 0006 7047     		bx	lr
 449              	.L34:
 450              		.align	2
 451              	.L33:
 452 0008 00E200E0 		.word	-536813056
 453              		.cfi_endproc
 454              	.LFE45:
 455              		.size	ADC_ISR_SetPending, .-ADC_ISR_SetPending
 456              		.section	.text.ADC_ISR_ClearPending,"ax",%progbits
 457              		.align	1
 458              		.global	ADC_ISR_ClearPending
 459              		.code	16
 460              		.thumb_func
 461              		.type	ADC_ISR_ClearPending, %function
 462              	ADC_ISR_ClearPending:
 463              	.LFB46:
 381:.\Generated_Source\PSoC4/ADC_ISR.c **** 
 382:.\Generated_Source\PSoC4/ADC_ISR.c **** 
 383:.\Generated_Source\PSoC4/ADC_ISR.c **** /*******************************************************************************
 384:.\Generated_Source\PSoC4/ADC_ISR.c **** * Function Name: ADC_ISR_ClearPending
 385:.\Generated_Source\PSoC4/ADC_ISR.c **** ********************************************************************************
 386:.\Generated_Source\PSoC4/ADC_ISR.c **** *
 387:.\Generated_Source\PSoC4/ADC_ISR.c **** * Summary:
 388:.\Generated_Source\PSoC4/ADC_ISR.c **** *   Clears a pending interrupt in the interrupt controller.
 389:.\Generated_Source\PSoC4/ADC_ISR.c **** *
 390:.\Generated_Source\PSoC4/ADC_ISR.c **** *   Note Some interrupt sources are clear-on-read and require the block 
ARM GAS  C:\Users\faithc\AppData\Local\Temp\ccitAhLJ.s 			page 17


 391:.\Generated_Source\PSoC4/ADC_ISR.c **** *   interrupt/status register to be read/cleared with the appropriate block API 
 392:.\Generated_Source\PSoC4/ADC_ISR.c **** *   (GPIO, UART, and so on). Otherwise the ISR will continue to remain in 
 393:.\Generated_Source\PSoC4/ADC_ISR.c **** *   pending state even though the interrupt itself is cleared using this API.
 394:.\Generated_Source\PSoC4/ADC_ISR.c **** *
 395:.\Generated_Source\PSoC4/ADC_ISR.c **** * Parameters:
 396:.\Generated_Source\PSoC4/ADC_ISR.c **** *   None
 397:.\Generated_Source\PSoC4/ADC_ISR.c **** *
 398:.\Generated_Source\PSoC4/ADC_ISR.c **** * Return:
 399:.\Generated_Source\PSoC4/ADC_ISR.c **** *   None
 400:.\Generated_Source\PSoC4/ADC_ISR.c **** *
 401:.\Generated_Source\PSoC4/ADC_ISR.c **** *******************************************************************************/
 402:.\Generated_Source\PSoC4/ADC_ISR.c **** void ADC_ISR_ClearPending(void)
 403:.\Generated_Source\PSoC4/ADC_ISR.c **** {
 464              		.loc 1 403 0
 465              		.cfi_startproc
 404:.\Generated_Source\PSoC4/ADC_ISR.c ****     *ADC_ISR_INTC_CLR_PD = ADC_ISR__INTC_MASK;
 466              		.loc 1 404 0
 467 0000 0122     		mov	r2, #1
 468 0002 014B     		ldr	r3, .L36
 405:.\Generated_Source\PSoC4/ADC_ISR.c **** }
 469              		.loc 1 405 0
 470              		@ sp needed
 404:.\Generated_Source\PSoC4/ADC_ISR.c ****     *ADC_ISR_INTC_CLR_PD = ADC_ISR__INTC_MASK;
 471              		.loc 1 404 0
 472 0004 1A60     		str	r2, [r3]
 473              		.loc 1 405 0
 474 0006 7047     		bx	lr
 475              	.L37:
 476              		.align	2
 477              	.L36:
 478 0008 80E200E0 		.word	-536812928
 479              		.cfi_endproc
 480              	.LFE46:
 481              		.size	ADC_ISR_ClearPending, .-ADC_ISR_ClearPending
 482              		.text
 483              	.Letext0:
 484              		.file 2 "Generated_Source\\PSoC4/cytypes.h"
 485              		.file 3 "./IO_Control.h"
 486              		.file 4 "Generated_Source\\PSoC4/CyLib.h"