ARM GAS  C:\Users\kylep\AppData\Local\Temp\ccBsM5w3.s 			page 1


   1              		.cpu cortex-m0
   2              		.fpu softvfp
   3              		.eabi_attribute 20, 1
   4              		.eabi_attribute 21, 1
   5              		.eabi_attribute 23, 3
   6              		.eabi_attribute 24, 1
   7              		.eabi_attribute 25, 1
   8              		.eabi_attribute 26, 1
   9              		.eabi_attribute 30, 6
  10              		.eabi_attribute 34, 0
  11              		.eabi_attribute 18, 4
  12              		.code	16
  13              		.file	"cyfitter_cfg.c"
  14              		.text
  15              	.Ltext0:
  16              		.cfi_sections	.debug_frame
  17              		.section	.text.CYMEMZERO,"ax",%progbits
  18              		.align	2
  19              		.code	16
  20              		.thumb_func
  21              		.type	CYMEMZERO, %function
  22              	CYMEMZERO:
  23              	.LFB0:
  24              		.file 1 ".\\Generated_Source\\PSoC4\\cyfitter_cfg.c"
   1:.\Generated_Source\PSoC4/cyfitter_cfg.c **** /*******************************************************************************
   2:.\Generated_Source\PSoC4/cyfitter_cfg.c **** * File Name: cyfitter_cfg.c
   3:.\Generated_Source\PSoC4/cyfitter_cfg.c **** * 
   4:.\Generated_Source\PSoC4/cyfitter_cfg.c **** * PSoC Creator  3.3 CP3
   5:.\Generated_Source\PSoC4/cyfitter_cfg.c **** *
   6:.\Generated_Source\PSoC4/cyfitter_cfg.c **** * Description:
   7:.\Generated_Source\PSoC4/cyfitter_cfg.c **** * This file contains device initialization code.
   8:.\Generated_Source\PSoC4/cyfitter_cfg.c **** * Except for the user defined sections in CyClockStartupError(), this file should not be modified.
   9:.\Generated_Source\PSoC4/cyfitter_cfg.c **** * This file is automatically generated by PSoC Creator.
  10:.\Generated_Source\PSoC4/cyfitter_cfg.c **** *
  11:.\Generated_Source\PSoC4/cyfitter_cfg.c **** ********************************************************************************
  12:.\Generated_Source\PSoC4/cyfitter_cfg.c **** * Copyright (c) 2007-2016 Cypress Semiconductor.  All rights reserved.
  13:.\Generated_Source\PSoC4/cyfitter_cfg.c **** * You may use this file only in accordance with the license, terms, conditions, 
  14:.\Generated_Source\PSoC4/cyfitter_cfg.c **** * disclaimers, and limitations in the end user license agreement accompanying 
  15:.\Generated_Source\PSoC4/cyfitter_cfg.c **** * the software package with which this file was provided.
  16:.\Generated_Source\PSoC4/cyfitter_cfg.c **** ********************************************************************************/
  17:.\Generated_Source\PSoC4/cyfitter_cfg.c **** 
  18:.\Generated_Source\PSoC4/cyfitter_cfg.c **** #include <string.h>
  19:.\Generated_Source\PSoC4/cyfitter_cfg.c **** #include "cytypes.h"
  20:.\Generated_Source\PSoC4/cyfitter_cfg.c **** #include "cydevice_trm.h"
  21:.\Generated_Source\PSoC4/cyfitter_cfg.c **** #include "cyfitter.h"
  22:.\Generated_Source\PSoC4/cyfitter_cfg.c **** #include "CyLib.h"
  23:.\Generated_Source\PSoC4/cyfitter_cfg.c **** #include "CyLFClk.h"
  24:.\Generated_Source\PSoC4/cyfitter_cfg.c **** #include "cyfitter_cfg.h"
  25:.\Generated_Source\PSoC4/cyfitter_cfg.c **** 
  26:.\Generated_Source\PSoC4/cyfitter_cfg.c **** 
  27:.\Generated_Source\PSoC4/cyfitter_cfg.c **** #if defined(__GNUC__) || defined(__ARMCC_VERSION)
  28:.\Generated_Source\PSoC4/cyfitter_cfg.c ****     #define CYPACKED 
  29:.\Generated_Source\PSoC4/cyfitter_cfg.c ****     #define CYPACKED_ATTR __attribute__ ((packed))
  30:.\Generated_Source\PSoC4/cyfitter_cfg.c ****     #define CYALIGNED __attribute__ ((aligned))
  31:.\Generated_Source\PSoC4/cyfitter_cfg.c ****     #define CY_CFG_UNUSED __attribute__ ((unused))
  32:.\Generated_Source\PSoC4/cyfitter_cfg.c ****     #ifndef CY_CFG_SECTION
  33:.\Generated_Source\PSoC4/cyfitter_cfg.c ****         #define CY_CFG_SECTION __attribute__ ((section(".psocinit")))
ARM GAS  C:\Users\kylep\AppData\Local\Temp\ccBsM5w3.s 			page 2


  34:.\Generated_Source\PSoC4/cyfitter_cfg.c ****     #endif
  35:.\Generated_Source\PSoC4/cyfitter_cfg.c ****     
  36:.\Generated_Source\PSoC4/cyfitter_cfg.c ****     #if defined(__ARMCC_VERSION)
  37:.\Generated_Source\PSoC4/cyfitter_cfg.c ****         #define CY_CFG_MEMORY_BARRIER() __memory_changed()
  38:.\Generated_Source\PSoC4/cyfitter_cfg.c ****     #else
  39:.\Generated_Source\PSoC4/cyfitter_cfg.c ****         #define CY_CFG_MEMORY_BARRIER() __sync_synchronize()
  40:.\Generated_Source\PSoC4/cyfitter_cfg.c ****     #endif
  41:.\Generated_Source\PSoC4/cyfitter_cfg.c ****     
  42:.\Generated_Source\PSoC4/cyfitter_cfg.c **** #elif defined(__ICCARM__)
  43:.\Generated_Source\PSoC4/cyfitter_cfg.c ****     #include <intrinsics.h>
  44:.\Generated_Source\PSoC4/cyfitter_cfg.c **** 
  45:.\Generated_Source\PSoC4/cyfitter_cfg.c ****     #define CYPACKED __packed
  46:.\Generated_Source\PSoC4/cyfitter_cfg.c ****     #define CYPACKED_ATTR 
  47:.\Generated_Source\PSoC4/cyfitter_cfg.c ****     #define CYALIGNED _Pragma("data_alignment=4")
  48:.\Generated_Source\PSoC4/cyfitter_cfg.c ****     #define CY_CFG_UNUSED _Pragma("diag_suppress=Pe177")
  49:.\Generated_Source\PSoC4/cyfitter_cfg.c ****     #define CY_CFG_SECTION _Pragma("location=\".psocinit\"")
  50:.\Generated_Source\PSoC4/cyfitter_cfg.c ****     
  51:.\Generated_Source\PSoC4/cyfitter_cfg.c ****     #define CY_CFG_MEMORY_BARRIER() __DMB()
  52:.\Generated_Source\PSoC4/cyfitter_cfg.c ****     
  53:.\Generated_Source\PSoC4/cyfitter_cfg.c **** #else
  54:.\Generated_Source\PSoC4/cyfitter_cfg.c ****     #error Unsupported toolchain
  55:.\Generated_Source\PSoC4/cyfitter_cfg.c **** #endif
  56:.\Generated_Source\PSoC4/cyfitter_cfg.c **** 
  57:.\Generated_Source\PSoC4/cyfitter_cfg.c **** 
  58:.\Generated_Source\PSoC4/cyfitter_cfg.c **** CY_CFG_UNUSED
  59:.\Generated_Source\PSoC4/cyfitter_cfg.c **** static void CYMEMZERO(void *s, size_t n);
  60:.\Generated_Source\PSoC4/cyfitter_cfg.c **** CY_CFG_UNUSED
  61:.\Generated_Source\PSoC4/cyfitter_cfg.c **** static void CYMEMZERO(void *s, size_t n)
  62:.\Generated_Source\PSoC4/cyfitter_cfg.c **** {
  25              		.loc 1 62 0
  26              		.cfi_startproc
  27 0000 80B5     		push	{r7, lr}
  28              		.cfi_def_cfa_offset 8
  29              		.cfi_offset 7, -8
  30              		.cfi_offset 14, -4
  31 0002 82B0     		sub	sp, sp, #8
  32              		.cfi_def_cfa_offset 16
  33 0004 00AF     		add	r7, sp, #0
  34              		.cfi_def_cfa_register 7
  35 0006 7860     		str	r0, [r7, #4]
  36 0008 3960     		str	r1, [r7]
  63:.\Generated_Source\PSoC4/cyfitter_cfg.c **** 	(void)memset(s, 0, n);
  37              		.loc 1 63 0
  38 000a 7A68     		ldr	r2, [r7, #4]
  39 000c 3B68     		ldr	r3, [r7]
  40 000e 101C     		mov	r0, r2
  41 0010 0021     		mov	r1, #0
  42 0012 1A1C     		mov	r2, r3
  43 0014 FFF7FEFF 		bl	memset
  64:.\Generated_Source\PSoC4/cyfitter_cfg.c **** }
  44              		.loc 1 64 0
  45 0018 BD46     		mov	sp, r7
  46 001a 02B0     		add	sp, sp, #8
  47              		@ sp needed
  48 001c 80BD     		pop	{r7, pc}
  49              		.cfi_endproc
  50              	.LFE0:
ARM GAS  C:\Users\kylep\AppData\Local\Temp\ccBsM5w3.s 			page 3


  51              		.size	CYMEMZERO, .-CYMEMZERO
  52 001e C046     		.section	.text.CYCONFIGCPY,"ax",%progbits
  53              		.align	2
  54              		.code	16
  55              		.thumb_func
  56              		.type	CYCONFIGCPY, %function
  57              	CYCONFIGCPY:
  58              	.LFB1:
  65:.\Generated_Source\PSoC4/cyfitter_cfg.c **** CY_CFG_UNUSED
  66:.\Generated_Source\PSoC4/cyfitter_cfg.c **** static void CYCONFIGCPY(void *dest, const void *src, size_t n);
  67:.\Generated_Source\PSoC4/cyfitter_cfg.c **** CY_CFG_UNUSED
  68:.\Generated_Source\PSoC4/cyfitter_cfg.c **** static void CYCONFIGCPY(void *dest, const void *src, size_t n)
  69:.\Generated_Source\PSoC4/cyfitter_cfg.c **** {
  59              		.loc 1 69 0
  60              		.cfi_startproc
  61 0000 80B5     		push	{r7, lr}
  62              		.cfi_def_cfa_offset 8
  63              		.cfi_offset 7, -8
  64              		.cfi_offset 14, -4
  65 0002 84B0     		sub	sp, sp, #16
  66              		.cfi_def_cfa_offset 24
  67 0004 00AF     		add	r7, sp, #0
  68              		.cfi_def_cfa_register 7
  69 0006 F860     		str	r0, [r7, #12]
  70 0008 B960     		str	r1, [r7, #8]
  71 000a 7A60     		str	r2, [r7, #4]
  70:.\Generated_Source\PSoC4/cyfitter_cfg.c **** 	(void)memcpy(dest, src, n);
  72              		.loc 1 70 0
  73 000c F968     		ldr	r1, [r7, #12]
  74 000e BA68     		ldr	r2, [r7, #8]
  75 0010 7B68     		ldr	r3, [r7, #4]
  76 0012 081C     		mov	r0, r1
  77 0014 111C     		mov	r1, r2
  78 0016 1A1C     		mov	r2, r3
  79 0018 FFF7FEFF 		bl	memcpy
  71:.\Generated_Source\PSoC4/cyfitter_cfg.c **** }
  80              		.loc 1 71 0
  81 001c BD46     		mov	sp, r7
  82 001e 04B0     		add	sp, sp, #16
  83              		@ sp needed
  84 0020 80BD     		pop	{r7, pc}
  85              		.cfi_endproc
  86              	.LFE1:
  87              		.size	CYCONFIGCPY, .-CYCONFIGCPY
  88 0022 C046     		.section	.text.CYCONFIGCPYCODE,"ax",%progbits
  89              		.align	2
  90              		.code	16
  91              		.thumb_func
  92              		.type	CYCONFIGCPYCODE, %function
  93              	CYCONFIGCPYCODE:
  94              	.LFB2:
  72:.\Generated_Source\PSoC4/cyfitter_cfg.c **** CY_CFG_UNUSED
  73:.\Generated_Source\PSoC4/cyfitter_cfg.c **** static void CYCONFIGCPYCODE(void *dest, const void *src, size_t n);
  74:.\Generated_Source\PSoC4/cyfitter_cfg.c **** CY_CFG_UNUSED
  75:.\Generated_Source\PSoC4/cyfitter_cfg.c **** static void CYCONFIGCPYCODE(void *dest, const void *src, size_t n)
  76:.\Generated_Source\PSoC4/cyfitter_cfg.c **** {
  95              		.loc 1 76 0
ARM GAS  C:\Users\kylep\AppData\Local\Temp\ccBsM5w3.s 			page 4


  96              		.cfi_startproc
  97 0000 80B5     		push	{r7, lr}
  98              		.cfi_def_cfa_offset 8
  99              		.cfi_offset 7, -8
 100              		.cfi_offset 14, -4
 101 0002 84B0     		sub	sp, sp, #16
 102              		.cfi_def_cfa_offset 24
 103 0004 00AF     		add	r7, sp, #0
 104              		.cfi_def_cfa_register 7
 105 0006 F860     		str	r0, [r7, #12]
 106 0008 B960     		str	r1, [r7, #8]
 107 000a 7A60     		str	r2, [r7, #4]
  77:.\Generated_Source\PSoC4/cyfitter_cfg.c **** 	(void)memcpy(dest, src, n);
 108              		.loc 1 77 0
 109 000c F968     		ldr	r1, [r7, #12]
 110 000e BA68     		ldr	r2, [r7, #8]
 111 0010 7B68     		ldr	r3, [r7, #4]
 112 0012 081C     		mov	r0, r1
 113 0014 111C     		mov	r1, r2
 114 0016 1A1C     		mov	r2, r3
 115 0018 FFF7FEFF 		bl	memcpy
  78:.\Generated_Source\PSoC4/cyfitter_cfg.c **** }
 116              		.loc 1 78 0
 117 001c BD46     		mov	sp, r7
 118 001e 04B0     		add	sp, sp, #16
 119              		@ sp needed
 120 0020 80BD     		pop	{r7, pc}
 121              		.cfi_endproc
 122              	.LFE2:
 123              		.size	CYCONFIGCPYCODE, .-CYCONFIGCPYCODE
 124 0022 C046     		.section	.text.cfg_write_bytes32,"ax",%progbits
 125              		.align	2
 126              		.code	16
 127              		.thumb_func
 128              		.type	cfg_write_bytes32, %function
 129              	cfg_write_bytes32:
 130              	.LFB3:
  79:.\Generated_Source\PSoC4/cyfitter_cfg.c **** 
  80:.\Generated_Source\PSoC4/cyfitter_cfg.c **** 
  81:.\Generated_Source\PSoC4/cyfitter_cfg.c **** 
  82:.\Generated_Source\PSoC4/cyfitter_cfg.c **** /* Clock startup error codes                                                   */
  83:.\Generated_Source\PSoC4/cyfitter_cfg.c **** #define CYCLOCKSTART_NO_ERROR    0u
  84:.\Generated_Source\PSoC4/cyfitter_cfg.c **** #define CYCLOCKSTART_XTAL_ERROR  1u
  85:.\Generated_Source\PSoC4/cyfitter_cfg.c **** #define CYCLOCKSTART_32KHZ_ERROR 2u
  86:.\Generated_Source\PSoC4/cyfitter_cfg.c **** #define CYCLOCKSTART_PLL_ERROR   3u
  87:.\Generated_Source\PSoC4/cyfitter_cfg.c **** 
  88:.\Generated_Source\PSoC4/cyfitter_cfg.c **** #ifdef CY_NEED_CYCLOCKSTARTUPERROR
  89:.\Generated_Source\PSoC4/cyfitter_cfg.c **** /*******************************************************************************
  90:.\Generated_Source\PSoC4/cyfitter_cfg.c **** * Function Name: CyClockStartupError
  91:.\Generated_Source\PSoC4/cyfitter_cfg.c **** ********************************************************************************
  92:.\Generated_Source\PSoC4/cyfitter_cfg.c **** * Summary:
  93:.\Generated_Source\PSoC4/cyfitter_cfg.c **** *  If an error is encountered during clock configuration (crystal startup error,
  94:.\Generated_Source\PSoC4/cyfitter_cfg.c **** *  PLL lock error, etc.), the system will end up here.  Unless reimplemented by
  95:.\Generated_Source\PSoC4/cyfitter_cfg.c **** *  the customer, this function will stop in an infinite loop.
  96:.\Generated_Source\PSoC4/cyfitter_cfg.c **** *
  97:.\Generated_Source\PSoC4/cyfitter_cfg.c **** * Parameters:
  98:.\Generated_Source\PSoC4/cyfitter_cfg.c **** *   void
ARM GAS  C:\Users\kylep\AppData\Local\Temp\ccBsM5w3.s 			page 5


  99:.\Generated_Source\PSoC4/cyfitter_cfg.c **** *
 100:.\Generated_Source\PSoC4/cyfitter_cfg.c **** * Return:
 101:.\Generated_Source\PSoC4/cyfitter_cfg.c **** *   void
 102:.\Generated_Source\PSoC4/cyfitter_cfg.c **** *
 103:.\Generated_Source\PSoC4/cyfitter_cfg.c **** *******************************************************************************/
 104:.\Generated_Source\PSoC4/cyfitter_cfg.c **** CY_CFG_UNUSED
 105:.\Generated_Source\PSoC4/cyfitter_cfg.c **** static void CyClockStartupError(uint8 errorCode);
 106:.\Generated_Source\PSoC4/cyfitter_cfg.c **** CY_CFG_UNUSED
 107:.\Generated_Source\PSoC4/cyfitter_cfg.c **** static void CyClockStartupError(uint8 errorCode)
 108:.\Generated_Source\PSoC4/cyfitter_cfg.c **** {
 109:.\Generated_Source\PSoC4/cyfitter_cfg.c ****     /* To remove the compiler warning if errorCode not used.                */
 110:.\Generated_Source\PSoC4/cyfitter_cfg.c ****     errorCode = errorCode;
 111:.\Generated_Source\PSoC4/cyfitter_cfg.c **** 
 112:.\Generated_Source\PSoC4/cyfitter_cfg.c ****     /* `#START CyClockStartupError` */
 113:.\Generated_Source\PSoC4/cyfitter_cfg.c **** 
 114:.\Generated_Source\PSoC4/cyfitter_cfg.c ****     /* If we have a clock startup error (bad MHz crystal, PLL lock, etc.),  */
 115:.\Generated_Source\PSoC4/cyfitter_cfg.c ****     /* we will end up here to allow the customer to implement something to  */
 116:.\Generated_Source\PSoC4/cyfitter_cfg.c ****     /* deal with the clock condition.                                       */
 117:.\Generated_Source\PSoC4/cyfitter_cfg.c **** 
 118:.\Generated_Source\PSoC4/cyfitter_cfg.c ****     /* `#END` */
 119:.\Generated_Source\PSoC4/cyfitter_cfg.c **** 
 120:.\Generated_Source\PSoC4/cyfitter_cfg.c ****     /* If nothing else, stop here since the clocks have not started         */
 121:.\Generated_Source\PSoC4/cyfitter_cfg.c ****     /* correctly.                                                           */
 122:.\Generated_Source\PSoC4/cyfitter_cfg.c ****     while(1) {}
 123:.\Generated_Source\PSoC4/cyfitter_cfg.c **** }
 124:.\Generated_Source\PSoC4/cyfitter_cfg.c **** #endif
 125:.\Generated_Source\PSoC4/cyfitter_cfg.c **** 
 126:.\Generated_Source\PSoC4/cyfitter_cfg.c **** #define CY_CFG_BASE_ADDR_COUNT 8u
 127:.\Generated_Source\PSoC4/cyfitter_cfg.c **** CYPACKED typedef struct
 128:.\Generated_Source\PSoC4/cyfitter_cfg.c **** {
 129:.\Generated_Source\PSoC4/cyfitter_cfg.c **** 	uint8 offset;
 130:.\Generated_Source\PSoC4/cyfitter_cfg.c **** 	uint8 value;
 131:.\Generated_Source\PSoC4/cyfitter_cfg.c **** } CYPACKED_ATTR cy_cfg_addrvalue_t;
 132:.\Generated_Source\PSoC4/cyfitter_cfg.c **** 
 133:.\Generated_Source\PSoC4/cyfitter_cfg.c **** 
 134:.\Generated_Source\PSoC4/cyfitter_cfg.c **** 
 135:.\Generated_Source\PSoC4/cyfitter_cfg.c **** /*******************************************************************************
 136:.\Generated_Source\PSoC4/cyfitter_cfg.c **** * Function Name: cfg_write_bytes32
 137:.\Generated_Source\PSoC4/cyfitter_cfg.c **** ********************************************************************************
 138:.\Generated_Source\PSoC4/cyfitter_cfg.c **** * Summary:
 139:.\Generated_Source\PSoC4/cyfitter_cfg.c **** *  This function is used for setting up the chip configuration areas that
 140:.\Generated_Source\PSoC4/cyfitter_cfg.c **** *  contain relatively sparse data.
 141:.\Generated_Source\PSoC4/cyfitter_cfg.c **** *
 142:.\Generated_Source\PSoC4/cyfitter_cfg.c **** * Parameters:
 143:.\Generated_Source\PSoC4/cyfitter_cfg.c **** *   void
 144:.\Generated_Source\PSoC4/cyfitter_cfg.c **** *
 145:.\Generated_Source\PSoC4/cyfitter_cfg.c **** * Return:
 146:.\Generated_Source\PSoC4/cyfitter_cfg.c **** *   void
 147:.\Generated_Source\PSoC4/cyfitter_cfg.c **** *
 148:.\Generated_Source\PSoC4/cyfitter_cfg.c **** *******************************************************************************/
 149:.\Generated_Source\PSoC4/cyfitter_cfg.c **** static void cfg_write_bytes32(const uint32 addr_table[], const cy_cfg_addrvalue_t data_table[]);
 150:.\Generated_Source\PSoC4/cyfitter_cfg.c **** static void cfg_write_bytes32(const uint32 addr_table[], const cy_cfg_addrvalue_t data_table[])
 151:.\Generated_Source\PSoC4/cyfitter_cfg.c **** {
 131              		.loc 1 151 0
 132              		.cfi_startproc
 133 0000 80B5     		push	{r7, lr}
 134              		.cfi_def_cfa_offset 8
ARM GAS  C:\Users\kylep\AppData\Local\Temp\ccBsM5w3.s 			page 6


 135              		.cfi_offset 7, -8
 136              		.cfi_offset 14, -4
 137 0002 86B0     		sub	sp, sp, #24
 138              		.cfi_def_cfa_offset 32
 139 0004 00AF     		add	r7, sp, #0
 140              		.cfi_def_cfa_register 7
 141 0006 7860     		str	r0, [r7, #4]
 142 0008 3960     		str	r1, [r7]
 152:.\Generated_Source\PSoC4/cyfitter_cfg.c **** 	/* For 32-bit little-endian architectures */
 153:.\Generated_Source\PSoC4/cyfitter_cfg.c **** 	uint32 i, j = 0u;
 143              		.loc 1 153 0
 144 000a 0023     		mov	r3, #0
 145 000c 3B61     		str	r3, [r7, #16]
 154:.\Generated_Source\PSoC4/cyfitter_cfg.c **** 	for (i = 0u; i < CY_CFG_BASE_ADDR_COUNT; i++)
 146              		.loc 1 154 0
 147 000e 0023     		mov	r3, #0
 148 0010 7B61     		str	r3, [r7, #20]
 149 0012 2FE0     		b	.L5
 150              	.L8:
 151              	.LBB2:
 155:.\Generated_Source\PSoC4/cyfitter_cfg.c **** 	{
 156:.\Generated_Source\PSoC4/cyfitter_cfg.c **** 		uint32 baseAddr = addr_table[i];
 152              		.loc 1 156 0
 153 0014 7B69     		ldr	r3, [r7, #20]
 154 0016 9B00     		lsl	r3, r3, #2
 155 0018 7A68     		ldr	r2, [r7, #4]
 156 001a D318     		add	r3, r2, r3
 157 001c 1B68     		ldr	r3, [r3]
 158 001e BB60     		str	r3, [r7, #8]
 157:.\Generated_Source\PSoC4/cyfitter_cfg.c **** 		uint8 count = (uint8)baseAddr;
 159              		.loc 1 157 0
 160 0020 0F23     		mov	r3, #15
 161 0022 FB18     		add	r3, r7, r3
 162 0024 BA68     		ldr	r2, [r7, #8]
 163 0026 1A70     		strb	r2, [r3]
 158:.\Generated_Source\PSoC4/cyfitter_cfg.c **** 		baseAddr &= 0xFFFFFF00u;
 164              		.loc 1 158 0
 165 0028 BB68     		ldr	r3, [r7, #8]
 166 002a FF22     		mov	r2, #255
 167 002c 9343     		bic	r3, r2
 168 002e BB60     		str	r3, [r7, #8]
 159:.\Generated_Source\PSoC4/cyfitter_cfg.c **** 		while (count != 0u)
 169              		.loc 1 159 0
 170 0030 18E0     		b	.L6
 171              	.L7:
 160:.\Generated_Source\PSoC4/cyfitter_cfg.c **** 		{
 161:.\Generated_Source\PSoC4/cyfitter_cfg.c **** 			CY_SET_XTND_REG8((void CYFAR *)(baseAddr + data_table[j].offset), data_table[j].value);
 172              		.loc 1 161 0
 173 0032 3B69     		ldr	r3, [r7, #16]
 174 0034 5B00     		lsl	r3, r3, #1
 175 0036 3A68     		ldr	r2, [r7]
 176 0038 D318     		add	r3, r2, r3
 177 003a 1B78     		ldrb	r3, [r3]
 178 003c 1A1C     		mov	r2, r3
 179 003e BB68     		ldr	r3, [r7, #8]
 180 0040 D318     		add	r3, r2, r3
 181 0042 191C     		mov	r1, r3
ARM GAS  C:\Users\kylep\AppData\Local\Temp\ccBsM5w3.s 			page 7


 182 0044 3B69     		ldr	r3, [r7, #16]
 183 0046 5B00     		lsl	r3, r3, #1
 184 0048 3A68     		ldr	r2, [r7]
 185 004a D318     		add	r3, r2, r3
 186 004c 5B78     		ldrb	r3, [r3, #1]
 187 004e 0B70     		strb	r3, [r1]
 162:.\Generated_Source\PSoC4/cyfitter_cfg.c **** 			j++;
 188              		.loc 1 162 0
 189 0050 3B69     		ldr	r3, [r7, #16]
 190 0052 0133     		add	r3, r3, #1
 191 0054 3B61     		str	r3, [r7, #16]
 163:.\Generated_Source\PSoC4/cyfitter_cfg.c **** 			count--;
 192              		.loc 1 163 0
 193 0056 0F23     		mov	r3, #15
 194 0058 FB18     		add	r3, r7, r3
 195 005a 1A78     		ldrb	r2, [r3]
 196 005c 0F23     		mov	r3, #15
 197 005e FB18     		add	r3, r7, r3
 198 0060 013A     		sub	r2, r2, #1
 199 0062 1A70     		strb	r2, [r3]
 200              	.L6:
 159:.\Generated_Source\PSoC4/cyfitter_cfg.c **** 		{
 201              		.loc 1 159 0
 202 0064 0F23     		mov	r3, #15
 203 0066 FB18     		add	r3, r7, r3
 204 0068 1B78     		ldrb	r3, [r3]
 205 006a 002B     		cmp	r3, #0
 206 006c E1D1     		bne	.L7
 207              	.LBE2:
 154:.\Generated_Source\PSoC4/cyfitter_cfg.c **** 	{
 208              		.loc 1 154 0 discriminator 2
 209 006e 7B69     		ldr	r3, [r7, #20]
 210 0070 0133     		add	r3, r3, #1
 211 0072 7B61     		str	r3, [r7, #20]
 212              	.L5:
 154:.\Generated_Source\PSoC4/cyfitter_cfg.c **** 	{
 213              		.loc 1 154 0 is_stmt 0 discriminator 1
 214 0074 7B69     		ldr	r3, [r7, #20]
 215 0076 072B     		cmp	r3, #7
 216 0078 CCD9     		bls	.L8
 164:.\Generated_Source\PSoC4/cyfitter_cfg.c **** 		}
 165:.\Generated_Source\PSoC4/cyfitter_cfg.c **** 	}
 166:.\Generated_Source\PSoC4/cyfitter_cfg.c **** }
 217              		.loc 1 166 0 is_stmt 1
 218 007a BD46     		mov	sp, r7
 219 007c 06B0     		add	sp, sp, #24
 220              		@ sp needed
 221 007e 80BD     		pop	{r7, pc}
 222              		.cfi_endproc
 223              	.LFE3:
 224              		.size	cfg_write_bytes32, .-cfg_write_bytes32
 225              		.section	.psocinit,"ax",%progbits
 226              		.align	2
 227              		.code	16
 228              		.thumb_func
 229              		.type	ClockSetup, %function
 230              	ClockSetup:
ARM GAS  C:\Users\kylep\AppData\Local\Temp\ccBsM5w3.s 			page 8


 231              	.LFB4:
 167:.\Generated_Source\PSoC4/cyfitter_cfg.c **** 
 168:.\Generated_Source\PSoC4/cyfitter_cfg.c **** 
 169:.\Generated_Source\PSoC4/cyfitter_cfg.c **** /*******************************************************************************
 170:.\Generated_Source\PSoC4/cyfitter_cfg.c **** * Function Name: ClockSetup
 171:.\Generated_Source\PSoC4/cyfitter_cfg.c **** ********************************************************************************
 172:.\Generated_Source\PSoC4/cyfitter_cfg.c **** *
 173:.\Generated_Source\PSoC4/cyfitter_cfg.c **** * Summary:
 174:.\Generated_Source\PSoC4/cyfitter_cfg.c **** *   Performs the initialization of all of the clocks in the device based on the
 175:.\Generated_Source\PSoC4/cyfitter_cfg.c **** *   settings in the Clock tab of the DWR.  This includes enabling the requested
 176:.\Generated_Source\PSoC4/cyfitter_cfg.c **** *   clocks and setting the necessary dividers to produce the desired frequency. 
 177:.\Generated_Source\PSoC4/cyfitter_cfg.c **** *
 178:.\Generated_Source\PSoC4/cyfitter_cfg.c **** * Parameters:
 179:.\Generated_Source\PSoC4/cyfitter_cfg.c **** *   void
 180:.\Generated_Source\PSoC4/cyfitter_cfg.c **** *
 181:.\Generated_Source\PSoC4/cyfitter_cfg.c **** * Return:
 182:.\Generated_Source\PSoC4/cyfitter_cfg.c **** *   void
 183:.\Generated_Source\PSoC4/cyfitter_cfg.c **** *
 184:.\Generated_Source\PSoC4/cyfitter_cfg.c **** *******************************************************************************/
 185:.\Generated_Source\PSoC4/cyfitter_cfg.c **** static void ClockSetup(void);
 186:.\Generated_Source\PSoC4/cyfitter_cfg.c **** CY_CFG_SECTION
 187:.\Generated_Source\PSoC4/cyfitter_cfg.c **** static void ClockSetup(void)
 188:.\Generated_Source\PSoC4/cyfitter_cfg.c **** {
 232              		.loc 1 188 0
 233              		.cfi_startproc
 234 0000 80B5     		push	{r7, lr}
 235              		.cfi_def_cfa_offset 8
 236              		.cfi_offset 7, -8
 237              		.cfi_offset 14, -4
 238 0002 00AF     		add	r7, sp, #0
 239              		.cfi_def_cfa_register 7
 189:.\Generated_Source\PSoC4/cyfitter_cfg.c **** 	/* Enable HALF_EN before trimming for the flash accelerator. */
 190:.\Generated_Source\PSoC4/cyfitter_cfg.c **** 	CY_SET_REG32((void CYXDATA *)(CYREG_CLK_SELECT), (CY_GET_REG32((void *)CYREG_CLK_SELECT) | 0x00040
 240              		.loc 1 190 0
 241 0004 2A4B     		ldr	r3, .L10
 242 0006 2A4A     		ldr	r2, .L10
 243 0008 1268     		ldr	r2, [r2]
 244 000a 8021     		mov	r1, #128
 245 000c C902     		lsl	r1, r1, #11
 246 000e 0A43     		orr	r2, r1
 247 0010 1A60     		str	r2, [r3]
 191:.\Generated_Source\PSoC4/cyfitter_cfg.c **** 
 192:.\Generated_Source\PSoC4/cyfitter_cfg.c **** 	/* Setup and trim IMO based on desired frequency. */
 193:.\Generated_Source\PSoC4/cyfitter_cfg.c **** 	CySysClkWriteImoFreq(48u);
 248              		.loc 1 193 0
 249 0012 3020     		mov	r0, #48
 250 0014 FFF7FEFF 		bl	CySysClkWriteImoFreq
 194:.\Generated_Source\PSoC4/cyfitter_cfg.c **** 	/* CYDEV_CLK_ILO_CONFIG Starting address: CYDEV_CLK_ILO_CONFIG */
 195:.\Generated_Source\PSoC4/cyfitter_cfg.c **** 	CY_SET_XTND_REG32((void CYFAR *)(CYREG_CLK_ILO_CONFIG), 0x80000006u);
 251              		.loc 1 195 0
 252 0018 264B     		ldr	r3, .L10+4
 253 001a 274A     		ldr	r2, .L10+8
 254 001c 1A60     		str	r2, [r3]
 196:.\Generated_Source\PSoC4/cyfitter_cfg.c **** 
 197:.\Generated_Source\PSoC4/cyfitter_cfg.c **** 
 198:.\Generated_Source\PSoC4/cyfitter_cfg.c **** 	/* CYDEV_CLK_SELECT00 Starting address: CYDEV_CLK_SELECT00 */
 199:.\Generated_Source\PSoC4/cyfitter_cfg.c **** 	CY_SET_XTND_REG32((void CYFAR *)(CYREG_CLK_SELECT03), 0x00000011u);
ARM GAS  C:\Users\kylep\AppData\Local\Temp\ccBsM5w3.s 			page 9


 255              		.loc 1 199 0
 256 001e 274B     		ldr	r3, .L10+12
 257 0020 1122     		mov	r2, #17
 258 0022 1A60     		str	r2, [r3]
 200:.\Generated_Source\PSoC4/cyfitter_cfg.c **** 	CY_SET_XTND_REG32((void CYFAR *)(CYREG_CLK_SELECT07), 0x00000020u);
 259              		.loc 1 200 0
 260 0024 264B     		ldr	r3, .L10+16
 261 0026 2022     		mov	r2, #32
 262 0028 1A60     		str	r2, [r3]
 201:.\Generated_Source\PSoC4/cyfitter_cfg.c **** 	CY_SET_XTND_REG32((void CYFAR *)(CYREG_CLK_SELECT08), 0x00000032u);
 263              		.loc 1 201 0
 264 002a 264B     		ldr	r3, .L10+20
 265 002c 3222     		mov	r2, #50
 266 002e 1A60     		str	r2, [r3]
 202:.\Generated_Source\PSoC4/cyfitter_cfg.c **** 	CY_SET_XTND_REG32((void CYFAR *)(CYREG_CLK_SELECT09), 0x00000021u);
 267              		.loc 1 202 0
 268 0030 254B     		ldr	r3, .L10+24
 269 0032 2122     		mov	r2, #33
 270 0034 1A60     		str	r2, [r3]
 203:.\Generated_Source\PSoC4/cyfitter_cfg.c **** 	CY_SET_XTND_REG32((void CYFAR *)(CYREG_CLK_SELECT10), 0x00000012u);
 271              		.loc 1 203 0
 272 0036 254B     		ldr	r3, .L10+28
 273 0038 1222     		mov	r2, #18
 274 003a 1A60     		str	r2, [r3]
 204:.\Generated_Source\PSoC4/cyfitter_cfg.c **** 	CY_SET_XTND_REG32((void CYFAR *)(CYREG_CLK_SELECT11), 0x00000031u);
 275              		.loc 1 204 0
 276 003c 244B     		ldr	r3, .L10+32
 277 003e 3122     		mov	r2, #49
 278 0040 1A60     		str	r2, [r3]
 205:.\Generated_Source\PSoC4/cyfitter_cfg.c **** 	CY_SET_XTND_REG32((void CYFAR *)(CYREG_CLK_SELECT13), 0x00000030u);
 279              		.loc 1 205 0
 280 0042 244B     		ldr	r3, .L10+36
 281 0044 3022     		mov	r2, #48
 282 0046 1A60     		str	r2, [r3]
 206:.\Generated_Source\PSoC4/cyfitter_cfg.c **** 	CY_SET_XTND_REG32((void CYFAR *)(CYREG_CLK_SELECT15), 0x00000022u);
 283              		.loc 1 206 0
 284 0048 234B     		ldr	r3, .L10+40
 285 004a 2222     		mov	r2, #34
 286 004c 1A60     		str	r2, [r3]
 207:.\Generated_Source\PSoC4/cyfitter_cfg.c **** 
 208:.\Generated_Source\PSoC4/cyfitter_cfg.c **** 	/* CYDEV_CLK_IMO_CONFIG Starting address: CYDEV_CLK_IMO_CONFIG */
 209:.\Generated_Source\PSoC4/cyfitter_cfg.c **** 	CY_SET_XTND_REG32((void CYFAR *)(CYREG_CLK_IMO_CONFIG), 0x82000000u);
 287              		.loc 1 209 0
 288 004e 234B     		ldr	r3, .L10+44
 289 0050 8222     		mov	r2, #130
 290 0052 1206     		lsl	r2, r2, #24
 291 0054 1A60     		str	r2, [r3]
 210:.\Generated_Source\PSoC4/cyfitter_cfg.c **** 
 211:.\Generated_Source\PSoC4/cyfitter_cfg.c **** 	/* CYDEV_CLK_SELECT Starting address: CYDEV_CLK_SELECT */
 212:.\Generated_Source\PSoC4/cyfitter_cfg.c **** 	CY_SET_XTND_REG32((void CYFAR *)(CYREG_CLK_SELECT), 0x00040000u);
 292              		.loc 1 212 0
 293 0056 164B     		ldr	r3, .L10
 294 0058 8022     		mov	r2, #128
 295 005a D202     		lsl	r2, r2, #11
 296 005c 1A60     		str	r2, [r3]
 213:.\Generated_Source\PSoC4/cyfitter_cfg.c **** 
 214:.\Generated_Source\PSoC4/cyfitter_cfg.c **** 	/* CYDEV_CLK_DIVIDER_A00 Starting address: CYDEV_CLK_DIVIDER_A00 */
ARM GAS  C:\Users\kylep\AppData\Local\Temp\ccBsM5w3.s 			page 10


 215:.\Generated_Source\PSoC4/cyfitter_cfg.c **** 	CY_SET_XTND_REG32((void CYFAR *)(CYREG_CLK_DIVIDER_A00), 0x8000BB7Fu);
 297              		.loc 1 215 0
 298 005e 204B     		ldr	r3, .L10+48
 299 0060 204A     		ldr	r2, .L10+52
 300 0062 1A60     		str	r2, [r3]
 216:.\Generated_Source\PSoC4/cyfitter_cfg.c **** 
 217:.\Generated_Source\PSoC4/cyfitter_cfg.c **** 	/* CYDEV_CLK_DIVIDER_B00 Starting address: CYDEV_CLK_DIVIDER_B00 */
 218:.\Generated_Source\PSoC4/cyfitter_cfg.c **** 	CY_SET_XTND_REG32((void CYFAR *)(CYREG_CLK_DIVIDER_B00), 0x80000005u);
 301              		.loc 1 218 0
 302 0064 204B     		ldr	r3, .L10+56
 303 0066 214A     		ldr	r2, .L10+60
 304 0068 1A60     		str	r2, [r3]
 219:.\Generated_Source\PSoC4/cyfitter_cfg.c **** 
 220:.\Generated_Source\PSoC4/cyfitter_cfg.c **** 	/* CYDEV_CLK_DIVIDER_C00 Starting address: CYDEV_CLK_DIVIDER_C00 */
 221:.\Generated_Source\PSoC4/cyfitter_cfg.c **** 	CY_SET_XTND_REG32((void CYFAR *)(CYREG_CLK_DIVIDER_C00), 0x80000008u);
 305              		.loc 1 221 0
 306 006a 214B     		ldr	r3, .L10+64
 307 006c 214A     		ldr	r2, .L10+68
 308 006e 1A60     		str	r2, [r3]
 222:.\Generated_Source\PSoC4/cyfitter_cfg.c **** 
 223:.\Generated_Source\PSoC4/cyfitter_cfg.c **** 	/* CYDEV_CLK_DIVIDER_A01 Starting address: CYDEV_CLK_DIVIDER_A01 */
 224:.\Generated_Source\PSoC4/cyfitter_cfg.c **** 	CY_SET_XTND_REG32((void CYFAR *)(CYREG_CLK_DIVIDER_A01), 0x80000022u);
 309              		.loc 1 224 0
 310 0070 214B     		ldr	r3, .L10+72
 311 0072 224A     		ldr	r2, .L10+76
 312 0074 1A60     		str	r2, [r3]
 225:.\Generated_Source\PSoC4/cyfitter_cfg.c **** 
 226:.\Generated_Source\PSoC4/cyfitter_cfg.c **** 	/* CYDEV_CLK_DIVIDER_B01 Starting address: CYDEV_CLK_DIVIDER_B01 */
 227:.\Generated_Source\PSoC4/cyfitter_cfg.c **** 	CY_SET_XTND_REG32((void CYFAR *)(CYREG_CLK_DIVIDER_B01), 0x8000002Fu);
 313              		.loc 1 227 0
 314 0076 224B     		ldr	r3, .L10+80
 315 0078 224A     		ldr	r2, .L10+84
 316 007a 1A60     		str	r2, [r3]
 228:.\Generated_Source\PSoC4/cyfitter_cfg.c **** 
 229:.\Generated_Source\PSoC4/cyfitter_cfg.c **** 	/* CYDEV_CLK_DIVIDER_C01 Starting address: CYDEV_CLK_DIVIDER_C01 */
 230:.\Generated_Source\PSoC4/cyfitter_cfg.c **** 	CY_SET_XTND_REG32((void CYFAR *)(CYREG_CLK_DIVIDER_C01), 0x8000002Fu);
 317              		.loc 1 230 0
 318 007c 224B     		ldr	r3, .L10+88
 319 007e 214A     		ldr	r2, .L10+84
 320 0080 1A60     		str	r2, [r3]
 231:.\Generated_Source\PSoC4/cyfitter_cfg.c **** 
 232:.\Generated_Source\PSoC4/cyfitter_cfg.c **** 	/* CYDEV_CLK_DIVIDER_A02 Starting address: CYDEV_CLK_DIVIDER_A02 */
 233:.\Generated_Source\PSoC4/cyfitter_cfg.c **** 	CY_SET_XTND_REG32((void CYFAR *)(CYREG_CLK_DIVIDER_A02), 0x8000002Fu);
 321              		.loc 1 233 0
 322 0082 224B     		ldr	r3, .L10+92
 323 0084 1F4A     		ldr	r2, .L10+84
 324 0086 1A60     		str	r2, [r3]
 234:.\Generated_Source\PSoC4/cyfitter_cfg.c **** 
 235:.\Generated_Source\PSoC4/cyfitter_cfg.c **** 	/* CYDEV_CLK_DIVIDER_B02 Starting address: CYDEV_CLK_DIVIDER_B02 */
 236:.\Generated_Source\PSoC4/cyfitter_cfg.c **** 	CY_SET_XTND_REG32((void CYFAR *)(CYREG_CLK_DIVIDER_B02), 0x800003ACu);
 325              		.loc 1 236 0
 326 0088 214B     		ldr	r3, .L10+96
 327 008a 224A     		ldr	r2, .L10+100
 328 008c 1A60     		str	r2, [r3]
 237:.\Generated_Source\PSoC4/cyfitter_cfg.c **** 
 238:.\Generated_Source\PSoC4/cyfitter_cfg.c **** 	/* CYDEV_CLK_DIVIDER_C02 Starting address: CYDEV_CLK_DIVIDER_C02 */
 239:.\Generated_Source\PSoC4/cyfitter_cfg.c **** 	CY_SET_XTND_REG32((void CYFAR *)(CYREG_CLK_DIVIDER_C02), 0x8000BB7Fu);
ARM GAS  C:\Users\kylep\AppData\Local\Temp\ccBsM5w3.s 			page 11


 329              		.loc 1 239 0
 330 008e 224B     		ldr	r3, .L10+104
 331 0090 144A     		ldr	r2, .L10+52
 332 0092 1A60     		str	r2, [r3]
 240:.\Generated_Source\PSoC4/cyfitter_cfg.c **** 
 241:.\Generated_Source\PSoC4/cyfitter_cfg.c **** 	(void)CyIntSetVector(9u, &CySysWdtIsr);
 333              		.loc 1 241 0
 334 0094 214B     		ldr	r3, .L10+108
 335 0096 0920     		mov	r0, #9
 336 0098 191C     		mov	r1, r3
 337 009a FFF7FEFF 		bl	CyIntSetVector
 242:.\Generated_Source\PSoC4/cyfitter_cfg.c **** 	CyIntEnable(9u);
 338              		.loc 1 242 0
 339 009e 0920     		mov	r0, #9
 340 00a0 FFF7FEFF 		bl	CyIntEnable
 243:.\Generated_Source\PSoC4/cyfitter_cfg.c **** 	CY_SET_XTND_REG32((void CYFAR *)(CYREG_WDT_CONFIG), 0x00000000u);
 341              		.loc 1 243 0
 342 00a4 1E4B     		ldr	r3, .L10+112
 343 00a6 0022     		mov	r2, #0
 344 00a8 1A60     		str	r2, [r3]
 244:.\Generated_Source\PSoC4/cyfitter_cfg.c **** }
 345              		.loc 1 244 0
 346 00aa BD46     		mov	sp, r7
 347              		@ sp needed
 348 00ac 80BD     		pop	{r7, pc}
 349              	.L11:
 350 00ae C046     		.align	2
 351              	.L10:
 352 00b0 00010B40 		.word	1074462976
 353 00b4 04010B40 		.word	1074462980
 354 00b8 06000080 		.word	-2147483642
 355 00bc 0C020240 		.word	1073873420
 356 00c0 1C020240 		.word	1073873436
 357 00c4 20020240 		.word	1073873440
 358 00c8 24020240 		.word	1073873444
 359 00cc 28020240 		.word	1073873448
 360 00d0 2C020240 		.word	1073873452
 361 00d4 34020240 		.word	1073873460
 362 00d8 3C020240 		.word	1073873468
 363 00dc 08010B40 		.word	1074462984
 364 00e0 00000240 		.word	1073872896
 365 00e4 7FBB0080 		.word	-2147435649
 366 00e8 40000240 		.word	1073872960
 367 00ec 05000080 		.word	-2147483643
 368 00f0 80000240 		.word	1073873024
 369 00f4 08000080 		.word	-2147483640
 370 00f8 04000240 		.word	1073872900
 371 00fc 22000080 		.word	-2147483614
 372 0100 44000240 		.word	1073872964
 373 0104 2F000080 		.word	-2147483601
 374 0108 84000240 		.word	1073873028
 375 010c 08000240 		.word	1073872904
 376 0110 48000240 		.word	1073872968
 377 0114 AC030080 		.word	-2147482708
 378 0118 88000240 		.word	1073873032
 379 011c 00000000 		.word	CySysWdtIsr
 380 0120 0C020B40 		.word	1074463244
ARM GAS  C:\Users\kylep\AppData\Local\Temp\ccBsM5w3.s 			page 12


 381              		.cfi_endproc
 382              	.LFE4:
 383              		.size	ClockSetup, .-ClockSetup
 384              		.section	.text.AnalogSetDefault,"ax",%progbits
 385              		.align	2
 386              		.code	16
 387              		.thumb_func
 388              		.type	AnalogSetDefault, %function
 389              	AnalogSetDefault:
 390              	.LFB5:
 245:.\Generated_Source\PSoC4/cyfitter_cfg.c **** 
 246:.\Generated_Source\PSoC4/cyfitter_cfg.c **** 
 247:.\Generated_Source\PSoC4/cyfitter_cfg.c **** /* Analog API Functions */
 248:.\Generated_Source\PSoC4/cyfitter_cfg.c **** 
 249:.\Generated_Source\PSoC4/cyfitter_cfg.c **** 
 250:.\Generated_Source\PSoC4/cyfitter_cfg.c **** /*******************************************************************************
 251:.\Generated_Source\PSoC4/cyfitter_cfg.c **** * Function Name: AnalogSetDefault
 252:.\Generated_Source\PSoC4/cyfitter_cfg.c **** ********************************************************************************
 253:.\Generated_Source\PSoC4/cyfitter_cfg.c **** *
 254:.\Generated_Source\PSoC4/cyfitter_cfg.c **** * Summary:
 255:.\Generated_Source\PSoC4/cyfitter_cfg.c **** *  Sets up the analog portions of the chip to default values based on chip
 256:.\Generated_Source\PSoC4/cyfitter_cfg.c **** *  configuration options from the project.
 257:.\Generated_Source\PSoC4/cyfitter_cfg.c **** *
 258:.\Generated_Source\PSoC4/cyfitter_cfg.c **** * Parameters:
 259:.\Generated_Source\PSoC4/cyfitter_cfg.c **** *  void
 260:.\Generated_Source\PSoC4/cyfitter_cfg.c **** *
 261:.\Generated_Source\PSoC4/cyfitter_cfg.c **** * Return:
 262:.\Generated_Source\PSoC4/cyfitter_cfg.c **** *  void
 263:.\Generated_Source\PSoC4/cyfitter_cfg.c **** *
 264:.\Generated_Source\PSoC4/cyfitter_cfg.c **** *******************************************************************************/
 265:.\Generated_Source\PSoC4/cyfitter_cfg.c **** static void AnalogSetDefault(void);
 266:.\Generated_Source\PSoC4/cyfitter_cfg.c **** static void AnalogSetDefault(void)
 267:.\Generated_Source\PSoC4/cyfitter_cfg.c **** {
 391              		.loc 1 267 0
 392              		.cfi_startproc
 393 0000 80B5     		push	{r7, lr}
 394              		.cfi_def_cfa_offset 8
 395              		.cfi_offset 7, -8
 396              		.cfi_offset 14, -4
 397 0002 00AF     		add	r7, sp, #0
 398              		.cfi_def_cfa_register 7
 268:.\Generated_Source\PSoC4/cyfitter_cfg.c **** 	CY_SET_XTND_REG32((void CYFAR *)CYREG_SAR_MUX_SWITCH0, 0x000300E0u);
 399              		.loc 1 268 0
 400 0004 034B     		ldr	r3, .L13
 401 0006 044A     		ldr	r2, .L13+4
 402 0008 1A60     		str	r2, [r3]
 269:.\Generated_Source\PSoC4/cyfitter_cfg.c **** 	CY_SET_XTND_REG32((void CYFAR *)CYREG_SAR_MUX_SWITCH_HW_CTRL, 0x000300E0u);
 403              		.loc 1 269 0
 404 000a 044B     		ldr	r3, .L13+8
 405 000c 024A     		ldr	r2, .L13+4
 406 000e 1A60     		str	r2, [r3]
 270:.\Generated_Source\PSoC4/cyfitter_cfg.c **** 	/* Variable VDDA is selected; no pumps are enabled by default */
 271:.\Generated_Source\PSoC4/cyfitter_cfg.c **** }
 407              		.loc 1 271 0
 408 0010 BD46     		mov	sp, r7
 409              		@ sp needed
 410 0012 80BD     		pop	{r7, pc}
ARM GAS  C:\Users\kylep\AppData\Local\Temp\ccBsM5w3.s 			page 13


 411              	.L14:
 412              		.align	2
 413              	.L13:
 414 0014 00031A40 		.word	1075446528
 415 0018 E0000300 		.word	196832
 416 001c 40031A40 		.word	1075446592
 417              		.cfi_endproc
 418              	.LFE5:
 419              		.size	AnalogSetDefault, .-AnalogSetDefault
 420              		.section	.text.SetAnalogRoutingPumps,"ax",%progbits
 421              		.align	2
 422              		.global	SetAnalogRoutingPumps
 423              		.code	16
 424              		.thumb_func
 425              		.type	SetAnalogRoutingPumps, %function
 426              	SetAnalogRoutingPumps:
 427              	.LFB6:
 272:.\Generated_Source\PSoC4/cyfitter_cfg.c **** 
 273:.\Generated_Source\PSoC4/cyfitter_cfg.c **** 
 274:.\Generated_Source\PSoC4/cyfitter_cfg.c **** /*******************************************************************************
 275:.\Generated_Source\PSoC4/cyfitter_cfg.c **** * Function Name: SetAnalogRoutingPumps
 276:.\Generated_Source\PSoC4/cyfitter_cfg.c **** ********************************************************************************
 277:.\Generated_Source\PSoC4/cyfitter_cfg.c **** *
 278:.\Generated_Source\PSoC4/cyfitter_cfg.c **** * Summary:
 279:.\Generated_Source\PSoC4/cyfitter_cfg.c **** * Enables or disables the analog pumps feeding analog routing switches.
 280:.\Generated_Source\PSoC4/cyfitter_cfg.c **** * Intended to be called at startup, based on the Vdda system configuration;
 281:.\Generated_Source\PSoC4/cyfitter_cfg.c **** * may be called during operation when the user informs us that the Vdda voltage crossed the pump th
 282:.\Generated_Source\PSoC4/cyfitter_cfg.c **** *
 283:.\Generated_Source\PSoC4/cyfitter_cfg.c **** * Parameters:
 284:.\Generated_Source\PSoC4/cyfitter_cfg.c **** *  enabled - 1 to enable the pumps, 0 to disable the pumps
 285:.\Generated_Source\PSoC4/cyfitter_cfg.c **** *
 286:.\Generated_Source\PSoC4/cyfitter_cfg.c **** * Return:
 287:.\Generated_Source\PSoC4/cyfitter_cfg.c **** *  void
 288:.\Generated_Source\PSoC4/cyfitter_cfg.c **** *
 289:.\Generated_Source\PSoC4/cyfitter_cfg.c **** *******************************************************************************/
 290:.\Generated_Source\PSoC4/cyfitter_cfg.c **** void SetAnalogRoutingPumps(uint8 enabled)
 291:.\Generated_Source\PSoC4/cyfitter_cfg.c **** {
 428              		.loc 1 291 0
 429              		.cfi_startproc
 430 0000 80B5     		push	{r7, lr}
 431              		.cfi_def_cfa_offset 8
 432              		.cfi_offset 7, -8
 433              		.cfi_offset 14, -4
 434 0002 84B0     		sub	sp, sp, #16
 435              		.cfi_def_cfa_offset 24
 436 0004 00AF     		add	r7, sp, #0
 437              		.cfi_def_cfa_register 7
 438 0006 021C     		mov	r2, r0
 439 0008 FB1D     		add	r3, r7, #7
 440 000a 1A70     		strb	r2, [r3]
 292:.\Generated_Source\PSoC4/cyfitter_cfg.c **** 	uint32 regValue = CY_GET_XTND_REG32((void *)(CYREG_SAR_PUMP_CTRL));
 441              		.loc 1 292 0
 442 000c 0B4B     		ldr	r3, .L18
 443 000e 1B68     		ldr	r3, [r3]
 444 0010 FB60     		str	r3, [r7, #12]
 293:.\Generated_Source\PSoC4/cyfitter_cfg.c **** 	if (enabled != 0u)
 445              		.loc 1 293 0
ARM GAS  C:\Users\kylep\AppData\Local\Temp\ccBsM5w3.s 			page 14


 446 0012 FB1D     		add	r3, r7, #7
 447 0014 1B78     		ldrb	r3, [r3]
 448 0016 002B     		cmp	r3, #0
 449 0018 05D0     		beq	.L16
 294:.\Generated_Source\PSoC4/cyfitter_cfg.c **** 	{
 295:.\Generated_Source\PSoC4/cyfitter_cfg.c **** 		regValue |= 0x80000000u;
 450              		.loc 1 295 0
 451 001a FB68     		ldr	r3, [r7, #12]
 452 001c 8022     		mov	r2, #128
 453 001e 1206     		lsl	r2, r2, #24
 454 0020 1343     		orr	r3, r2
 455 0022 FB60     		str	r3, [r7, #12]
 456 0024 03E0     		b	.L17
 457              	.L16:
 296:.\Generated_Source\PSoC4/cyfitter_cfg.c **** 	}
 297:.\Generated_Source\PSoC4/cyfitter_cfg.c **** 	else
 298:.\Generated_Source\PSoC4/cyfitter_cfg.c **** 	{
 299:.\Generated_Source\PSoC4/cyfitter_cfg.c **** 		regValue &= ~0x80000000u;
 458              		.loc 1 299 0
 459 0026 FB68     		ldr	r3, [r7, #12]
 460 0028 5B00     		lsl	r3, r3, #1
 461 002a 5B08     		lsr	r3, r3, #1
 462 002c FB60     		str	r3, [r7, #12]
 463              	.L17:
 300:.\Generated_Source\PSoC4/cyfitter_cfg.c **** 	}
 301:.\Generated_Source\PSoC4/cyfitter_cfg.c **** 	CY_SET_XTND_REG32((void *)(CYREG_SAR_PUMP_CTRL), regValue);
 464              		.loc 1 301 0
 465 002e 034B     		ldr	r3, .L18
 466 0030 FA68     		ldr	r2, [r7, #12]
 467 0032 1A60     		str	r2, [r3]
 302:.\Generated_Source\PSoC4/cyfitter_cfg.c **** }
 468              		.loc 1 302 0
 469 0034 BD46     		mov	sp, r7
 470 0036 04B0     		add	sp, sp, #16
 471              		@ sp needed
 472 0038 80BD     		pop	{r7, pc}
 473              	.L19:
 474 003a C046     		.align	2
 475              	.L18:
 476 003c 80031A40 		.word	1075446656
 477              		.cfi_endproc
 478              	.LFE6:
 479              		.size	SetAnalogRoutingPumps, .-SetAnalogRoutingPumps
 480              		.section	.psocinit
 481              		.align	2
 482              		.global	cyfitter_cfg
 483              		.code	16
 484              		.thumb_func
 485              		.type	cyfitter_cfg, %function
 486              	cyfitter_cfg:
 487              	.LFB7:
 303:.\Generated_Source\PSoC4/cyfitter_cfg.c **** 
 304:.\Generated_Source\PSoC4/cyfitter_cfg.c **** #define CY_AMUX_UNUSED CYREG_CM0_ROM_DWT
 305:.\Generated_Source\PSoC4/cyfitter_cfg.c **** 
 306:.\Generated_Source\PSoC4/cyfitter_cfg.c **** 
 307:.\Generated_Source\PSoC4/cyfitter_cfg.c **** /*******************************************************************************
 308:.\Generated_Source\PSoC4/cyfitter_cfg.c **** * Function Name: cyfitter_cfg
ARM GAS  C:\Users\kylep\AppData\Local\Temp\ccBsM5w3.s 			page 15


 309:.\Generated_Source\PSoC4/cyfitter_cfg.c **** ********************************************************************************
 310:.\Generated_Source\PSoC4/cyfitter_cfg.c **** * Summary:
 311:.\Generated_Source\PSoC4/cyfitter_cfg.c **** *  This function is called by the start-up code for the selected device. It
 312:.\Generated_Source\PSoC4/cyfitter_cfg.c **** *  performs all of the necessary device configuration based on the design
 313:.\Generated_Source\PSoC4/cyfitter_cfg.c **** *  settings.  This includes settings from the Design Wide Resources (DWR) such
 314:.\Generated_Source\PSoC4/cyfitter_cfg.c **** *  as Clocks and Pins as well as any component configuration that is necessary.
 315:.\Generated_Source\PSoC4/cyfitter_cfg.c **** *
 316:.\Generated_Source\PSoC4/cyfitter_cfg.c **** * Parameters:  
 317:.\Generated_Source\PSoC4/cyfitter_cfg.c **** *   void
 318:.\Generated_Source\PSoC4/cyfitter_cfg.c **** *
 319:.\Generated_Source\PSoC4/cyfitter_cfg.c **** * Return:
 320:.\Generated_Source\PSoC4/cyfitter_cfg.c **** *   void
 321:.\Generated_Source\PSoC4/cyfitter_cfg.c **** *
 322:.\Generated_Source\PSoC4/cyfitter_cfg.c **** *******************************************************************************/
 323:.\Generated_Source\PSoC4/cyfitter_cfg.c **** CY_CFG_SECTION
 324:.\Generated_Source\PSoC4/cyfitter_cfg.c **** void cyfitter_cfg(void)
 325:.\Generated_Source\PSoC4/cyfitter_cfg.c **** {
 488              		.loc 1 325 0
 489              		.cfi_startproc
 490 0124 80B5     		push	{r7, lr}
 491              		.cfi_def_cfa_offset 8
 492              		.cfi_offset 7, -8
 493              		.cfi_offset 14, -4
 494 0126 82B0     		sub	sp, sp, #8
 495              		.cfi_def_cfa_offset 16
 496 0128 00AF     		add	r7, sp, #0
 497              		.cfi_def_cfa_register 7
 326:.\Generated_Source\PSoC4/cyfitter_cfg.c **** 	/* Disable interrupts by default. Let user enable if/when they want. */
 327:.\Generated_Source\PSoC4/cyfitter_cfg.c **** 	CyGlobalIntDisable;
 498              		.loc 1 327 0
 499              	@ 327 ".\Generated_Source\PSoC4\cyfitter_cfg.c" 1
 500 012a 72B6     		CPSID   i
 501              	@ 0 "" 2
 328:.\Generated_Source\PSoC4/cyfitter_cfg.c **** 
 329:.\Generated_Source\PSoC4/cyfitter_cfg.c **** 	/* Enable the clock in the interrupt controller for the routed interrupts */
 330:.\Generated_Source\PSoC4/cyfitter_cfg.c **** 	CY_SET_REG8((void *)CYREG_UDB_UDBIF_INT_CLK_CTL, 0x01u);
 502              		.loc 1 330 0
 503              		.code	16
 504 012c 494B     		ldr	r3, .L23
 505 012e 0122     		mov	r2, #1
 506 0130 1A70     		strb	r2, [r3]
 507              	.LBB3:
 331:.\Generated_Source\PSoC4/cyfitter_cfg.c **** 	{
 332:.\Generated_Source\PSoC4/cyfitter_cfg.c **** 		static const uint32 CYCODE cy_cfg_addr_table[] = {
 333:.\Generated_Source\PSoC4/cyfitter_cfg.c **** 			0x400F0001u, /* Base address: 0x400F0000 Count: 1 */
 334:.\Generated_Source\PSoC4/cyfitter_cfg.c **** 			0x400F3032u, /* Base address: 0x400F3000 Count: 50 */
 335:.\Generated_Source\PSoC4/cyfitter_cfg.c **** 			0x400F3116u, /* Base address: 0x400F3100 Count: 22 */
 336:.\Generated_Source\PSoC4/cyfitter_cfg.c **** 			0x400F322Cu, /* Base address: 0x400F3200 Count: 44 */
 337:.\Generated_Source\PSoC4/cyfitter_cfg.c **** 			0x400F3320u, /* Base address: 0x400F3300 Count: 32 */
 338:.\Generated_Source\PSoC4/cyfitter_cfg.c **** 			0x400F4009u, /* Base address: 0x400F4000 Count: 9 */
 339:.\Generated_Source\PSoC4/cyfitter_cfg.c **** 			0x400F410Bu, /* Base address: 0x400F4100 Count: 11 */
 340:.\Generated_Source\PSoC4/cyfitter_cfg.c **** 			0x400F6002u, /* Base address: 0x400F6000 Count: 2 */
 341:.\Generated_Source\PSoC4/cyfitter_cfg.c **** 		};
 342:.\Generated_Source\PSoC4/cyfitter_cfg.c **** 
 343:.\Generated_Source\PSoC4/cyfitter_cfg.c **** 		static const cy_cfg_addrvalue_t CYCODE cy_cfg_data_table[] = {
 344:.\Generated_Source\PSoC4/cyfitter_cfg.c **** 			{0x82u, 0x0Du},
 345:.\Generated_Source\PSoC4/cyfitter_cfg.c **** 			{0x5Bu, 0x04u},
ARM GAS  C:\Users\kylep\AppData\Local\Temp\ccBsM5w3.s 			page 16


 346:.\Generated_Source\PSoC4/cyfitter_cfg.c **** 			{0x5Fu, 0x01u},
 347:.\Generated_Source\PSoC4/cyfitter_cfg.c **** 			{0x82u, 0x40u},
 348:.\Generated_Source\PSoC4/cyfitter_cfg.c **** 			{0x84u, 0x10u},
 349:.\Generated_Source\PSoC4/cyfitter_cfg.c **** 			{0x86u, 0x04u},
 350:.\Generated_Source\PSoC4/cyfitter_cfg.c **** 			{0x8Au, 0x80u},
 351:.\Generated_Source\PSoC4/cyfitter_cfg.c **** 			{0x92u, 0x20u},
 352:.\Generated_Source\PSoC4/cyfitter_cfg.c **** 			{0x96u, 0x1Fu},
 353:.\Generated_Source\PSoC4/cyfitter_cfg.c **** 			{0x9Au, 0x80u},
 354:.\Generated_Source\PSoC4/cyfitter_cfg.c **** 			{0x9Cu, 0x18u},
 355:.\Generated_Source\PSoC4/cyfitter_cfg.c **** 			{0x9Eu, 0x03u},
 356:.\Generated_Source\PSoC4/cyfitter_cfg.c **** 			{0xA0u, 0x06u},
 357:.\Generated_Source\PSoC4/cyfitter_cfg.c **** 			{0xA2u, 0x11u},
 358:.\Generated_Source\PSoC4/cyfitter_cfg.c **** 			{0xA4u, 0x01u},
 359:.\Generated_Source\PSoC4/cyfitter_cfg.c **** 			{0xA6u, 0x12u},
 360:.\Generated_Source\PSoC4/cyfitter_cfg.c **** 			{0xA8u, 0x07u},
 361:.\Generated_Source\PSoC4/cyfitter_cfg.c **** 			{0xAAu, 0x08u},
 362:.\Generated_Source\PSoC4/cyfitter_cfg.c **** 			{0xAEu, 0x40u},
 363:.\Generated_Source\PSoC4/cyfitter_cfg.c **** 			{0xB0u, 0x1Fu},
 364:.\Generated_Source\PSoC4/cyfitter_cfg.c **** 			{0xB2u, 0x20u},
 365:.\Generated_Source\PSoC4/cyfitter_cfg.c **** 			{0xB4u, 0x80u},
 366:.\Generated_Source\PSoC4/cyfitter_cfg.c **** 			{0xB6u, 0x40u},
 367:.\Generated_Source\PSoC4/cyfitter_cfg.c **** 			{0xBEu, 0x50u},
 368:.\Generated_Source\PSoC4/cyfitter_cfg.c **** 			{0xC0u, 0x30u},
 369:.\Generated_Source\PSoC4/cyfitter_cfg.c **** 			{0xC1u, 0x05u},
 370:.\Generated_Source\PSoC4/cyfitter_cfg.c **** 			{0xC5u, 0x10u},
 371:.\Generated_Source\PSoC4/cyfitter_cfg.c **** 			{0xC6u, 0x02u},
 372:.\Generated_Source\PSoC4/cyfitter_cfg.c **** 			{0xC8u, 0x0Eu},
 373:.\Generated_Source\PSoC4/cyfitter_cfg.c **** 			{0xC9u, 0xFFu},
 374:.\Generated_Source\PSoC4/cyfitter_cfg.c **** 			{0xCAu, 0xFFu},
 375:.\Generated_Source\PSoC4/cyfitter_cfg.c **** 			{0xCBu, 0xFFu},
 376:.\Generated_Source\PSoC4/cyfitter_cfg.c **** 			{0xCDu, 0xA0u},
 377:.\Generated_Source\PSoC4/cyfitter_cfg.c **** 			{0xCFu, 0x04u},
 378:.\Generated_Source\PSoC4/cyfitter_cfg.c **** 			{0xD0u, 0x18u},
 379:.\Generated_Source\PSoC4/cyfitter_cfg.c **** 			{0xD2u, 0x87u},
 380:.\Generated_Source\PSoC4/cyfitter_cfg.c **** 			{0xD8u, 0x04u},
 381:.\Generated_Source\PSoC4/cyfitter_cfg.c **** 			{0xDAu, 0x04u},
 382:.\Generated_Source\PSoC4/cyfitter_cfg.c **** 			{0xDBu, 0x04u},
 383:.\Generated_Source\PSoC4/cyfitter_cfg.c **** 			{0xDCu, 0x01u},
 384:.\Generated_Source\PSoC4/cyfitter_cfg.c **** 			{0xDDu, 0x11u},
 385:.\Generated_Source\PSoC4/cyfitter_cfg.c **** 			{0xDFu, 0x01u},
 386:.\Generated_Source\PSoC4/cyfitter_cfg.c **** 			{0xE0u, 0x40u},
 387:.\Generated_Source\PSoC4/cyfitter_cfg.c **** 			{0xE2u, 0xC0u},
 388:.\Generated_Source\PSoC4/cyfitter_cfg.c **** 			{0xE4u, 0x40u},
 389:.\Generated_Source\PSoC4/cyfitter_cfg.c **** 			{0xE5u, 0x40u},
 390:.\Generated_Source\PSoC4/cyfitter_cfg.c **** 			{0xE6u, 0xC0u},
 391:.\Generated_Source\PSoC4/cyfitter_cfg.c **** 			{0xE8u, 0xC0u},
 392:.\Generated_Source\PSoC4/cyfitter_cfg.c **** 			{0xEAu, 0xC0u},
 393:.\Generated_Source\PSoC4/cyfitter_cfg.c **** 			{0xECu, 0xC0u},
 394:.\Generated_Source\PSoC4/cyfitter_cfg.c **** 			{0xEEu, 0xC0u},
 395:.\Generated_Source\PSoC4/cyfitter_cfg.c **** 			{0x05u, 0x21u},
 396:.\Generated_Source\PSoC4/cyfitter_cfg.c **** 			{0x06u, 0x20u},
 397:.\Generated_Source\PSoC4/cyfitter_cfg.c **** 			{0x0Cu, 0x02u},
 398:.\Generated_Source\PSoC4/cyfitter_cfg.c **** 			{0x0Du, 0x28u},
 399:.\Generated_Source\PSoC4/cyfitter_cfg.c **** 			{0x0Fu, 0x02u},
 400:.\Generated_Source\PSoC4/cyfitter_cfg.c **** 			{0x15u, 0x40u},
 401:.\Generated_Source\PSoC4/cyfitter_cfg.c **** 			{0x17u, 0x15u},
 402:.\Generated_Source\PSoC4/cyfitter_cfg.c **** 			{0x1Cu, 0x01u},
ARM GAS  C:\Users\kylep\AppData\Local\Temp\ccBsM5w3.s 			page 17


 403:.\Generated_Source\PSoC4/cyfitter_cfg.c **** 			{0x1Du, 0x0Au},
 404:.\Generated_Source\PSoC4/cyfitter_cfg.c **** 			{0x1Eu, 0x08u},
 405:.\Generated_Source\PSoC4/cyfitter_cfg.c **** 			{0x45u, 0x08u},
 406:.\Generated_Source\PSoC4/cyfitter_cfg.c **** 			{0x4Fu, 0x82u},
 407:.\Generated_Source\PSoC4/cyfitter_cfg.c **** 			{0x56u, 0x20u},
 408:.\Generated_Source\PSoC4/cyfitter_cfg.c **** 			{0x57u, 0x40u},
 409:.\Generated_Source\PSoC4/cyfitter_cfg.c **** 			{0x69u, 0x40u},
 410:.\Generated_Source\PSoC4/cyfitter_cfg.c **** 			{0x6Fu, 0x15u},
 411:.\Generated_Source\PSoC4/cyfitter_cfg.c **** 			{0x74u, 0x02u},
 412:.\Generated_Source\PSoC4/cyfitter_cfg.c **** 			{0xC0u, 0x70u},
 413:.\Generated_Source\PSoC4/cyfitter_cfg.c **** 			{0xC2u, 0xF0u},
 414:.\Generated_Source\PSoC4/cyfitter_cfg.c **** 			{0xC4u, 0xF0u},
 415:.\Generated_Source\PSoC4/cyfitter_cfg.c **** 			{0xD0u, 0x40u},
 416:.\Generated_Source\PSoC4/cyfitter_cfg.c **** 			{0xD2u, 0x10u},
 417:.\Generated_Source\PSoC4/cyfitter_cfg.c **** 			{0x03u, 0x02u},
 418:.\Generated_Source\PSoC4/cyfitter_cfg.c **** 			{0x07u, 0x01u},
 419:.\Generated_Source\PSoC4/cyfitter_cfg.c **** 			{0x0Au, 0x03u},
 420:.\Generated_Source\PSoC4/cyfitter_cfg.c **** 			{0x1Cu, 0x04u},
 421:.\Generated_Source\PSoC4/cyfitter_cfg.c **** 			{0x1Eu, 0x02u},
 422:.\Generated_Source\PSoC4/cyfitter_cfg.c **** 			{0x28u, 0x04u},
 423:.\Generated_Source\PSoC4/cyfitter_cfg.c **** 			{0x29u, 0x03u},
 424:.\Generated_Source\PSoC4/cyfitter_cfg.c **** 			{0x2Au, 0x01u},
 425:.\Generated_Source\PSoC4/cyfitter_cfg.c **** 			{0x2Eu, 0x08u},
 426:.\Generated_Source\PSoC4/cyfitter_cfg.c **** 			{0x30u, 0x03u},
 427:.\Generated_Source\PSoC4/cyfitter_cfg.c **** 			{0x32u, 0x04u},
 428:.\Generated_Source\PSoC4/cyfitter_cfg.c **** 			{0x34u, 0x08u},
 429:.\Generated_Source\PSoC4/cyfitter_cfg.c **** 			{0x37u, 0x03u},
 430:.\Generated_Source\PSoC4/cyfitter_cfg.c **** 			{0x38u, 0x08u},
 431:.\Generated_Source\PSoC4/cyfitter_cfg.c **** 			{0x40u, 0x20u},
 432:.\Generated_Source\PSoC4/cyfitter_cfg.c **** 			{0x41u, 0x06u},
 433:.\Generated_Source\PSoC4/cyfitter_cfg.c **** 			{0x45u, 0xD0u},
 434:.\Generated_Source\PSoC4/cyfitter_cfg.c **** 			{0x46u, 0x20u},
 435:.\Generated_Source\PSoC4/cyfitter_cfg.c **** 			{0x47u, 0x10u},
 436:.\Generated_Source\PSoC4/cyfitter_cfg.c **** 			{0x48u, 0x3Au},
 437:.\Generated_Source\PSoC4/cyfitter_cfg.c **** 			{0x49u, 0xFFu},
 438:.\Generated_Source\PSoC4/cyfitter_cfg.c **** 			{0x4Au, 0xFFu},
 439:.\Generated_Source\PSoC4/cyfitter_cfg.c **** 			{0x4Bu, 0xFFu},
 440:.\Generated_Source\PSoC4/cyfitter_cfg.c **** 			{0x4Du, 0xA0u},
 441:.\Generated_Source\PSoC4/cyfitter_cfg.c **** 			{0x4Fu, 0x04u},
 442:.\Generated_Source\PSoC4/cyfitter_cfg.c **** 			{0x50u, 0x18u},
 443:.\Generated_Source\PSoC4/cyfitter_cfg.c **** 			{0x52u, 0x80u},
 444:.\Generated_Source\PSoC4/cyfitter_cfg.c **** 			{0x54u, 0x05u},
 445:.\Generated_Source\PSoC4/cyfitter_cfg.c **** 			{0x58u, 0x04u},
 446:.\Generated_Source\PSoC4/cyfitter_cfg.c **** 			{0x59u, 0x04u},
 447:.\Generated_Source\PSoC4/cyfitter_cfg.c **** 			{0x5Au, 0x04u},
 448:.\Generated_Source\PSoC4/cyfitter_cfg.c **** 			{0x5Bu, 0x04u},
 449:.\Generated_Source\PSoC4/cyfitter_cfg.c **** 			{0x5Cu, 0x33u},
 450:.\Generated_Source\PSoC4/cyfitter_cfg.c **** 			{0x5Du, 0x33u},
 451:.\Generated_Source\PSoC4/cyfitter_cfg.c **** 			{0x5Fu, 0x01u},
 452:.\Generated_Source\PSoC4/cyfitter_cfg.c **** 			{0x60u, 0x40u},
 453:.\Generated_Source\PSoC4/cyfitter_cfg.c **** 			{0x62u, 0xC0u},
 454:.\Generated_Source\PSoC4/cyfitter_cfg.c **** 			{0x64u, 0x40u},
 455:.\Generated_Source\PSoC4/cyfitter_cfg.c **** 			{0x65u, 0x40u},
 456:.\Generated_Source\PSoC4/cyfitter_cfg.c **** 			{0x66u, 0xC0u},
 457:.\Generated_Source\PSoC4/cyfitter_cfg.c **** 			{0x68u, 0xC0u},
 458:.\Generated_Source\PSoC4/cyfitter_cfg.c **** 			{0x6Au, 0xC0u},
 459:.\Generated_Source\PSoC4/cyfitter_cfg.c **** 			{0x6Cu, 0xC0u},
ARM GAS  C:\Users\kylep\AppData\Local\Temp\ccBsM5w3.s 			page 18


 460:.\Generated_Source\PSoC4/cyfitter_cfg.c **** 			{0x6Eu, 0xC0u},
 461:.\Generated_Source\PSoC4/cyfitter_cfg.c **** 			{0x05u, 0x10u},
 462:.\Generated_Source\PSoC4/cyfitter_cfg.c **** 			{0x0Fu, 0x02u},
 463:.\Generated_Source\PSoC4/cyfitter_cfg.c **** 			{0x16u, 0x08u},
 464:.\Generated_Source\PSoC4/cyfitter_cfg.c **** 			{0x17u, 0x40u},
 465:.\Generated_Source\PSoC4/cyfitter_cfg.c **** 			{0x1Du, 0x31u},
 466:.\Generated_Source\PSoC4/cyfitter_cfg.c **** 			{0x1Fu, 0x08u},
 467:.\Generated_Source\PSoC4/cyfitter_cfg.c **** 			{0x26u, 0x40u},
 468:.\Generated_Source\PSoC4/cyfitter_cfg.c **** 			{0x2Fu, 0x08u},
 469:.\Generated_Source\PSoC4/cyfitter_cfg.c **** 			{0x3Eu, 0x08u},
 470:.\Generated_Source\PSoC4/cyfitter_cfg.c **** 			{0x3Fu, 0x02u},
 471:.\Generated_Source\PSoC4/cyfitter_cfg.c **** 			{0x45u, 0x20u},
 472:.\Generated_Source\PSoC4/cyfitter_cfg.c **** 			{0x4Du, 0x20u},
 473:.\Generated_Source\PSoC4/cyfitter_cfg.c **** 			{0x4Fu, 0x21u},
 474:.\Generated_Source\PSoC4/cyfitter_cfg.c **** 			{0x56u, 0x08u},
 475:.\Generated_Source\PSoC4/cyfitter_cfg.c **** 			{0x57u, 0x11u},
 476:.\Generated_Source\PSoC4/cyfitter_cfg.c **** 			{0x5Eu, 0x88u},
 477:.\Generated_Source\PSoC4/cyfitter_cfg.c **** 			{0x5Fu, 0x01u},
 478:.\Generated_Source\PSoC4/cyfitter_cfg.c **** 			{0x77u, 0x40u},
 479:.\Generated_Source\PSoC4/cyfitter_cfg.c **** 			{0x9Du, 0x21u},
 480:.\Generated_Source\PSoC4/cyfitter_cfg.c **** 			{0xA2u, 0x04u},
 481:.\Generated_Source\PSoC4/cyfitter_cfg.c **** 			{0xA5u, 0x20u},
 482:.\Generated_Source\PSoC4/cyfitter_cfg.c **** 			{0xA9u, 0x02u},
 483:.\Generated_Source\PSoC4/cyfitter_cfg.c **** 			{0xB4u, 0x01u},
 484:.\Generated_Source\PSoC4/cyfitter_cfg.c **** 			{0xC0u, 0x40u},
 485:.\Generated_Source\PSoC4/cyfitter_cfg.c **** 			{0xC2u, 0x80u},
 486:.\Generated_Source\PSoC4/cyfitter_cfg.c **** 			{0xC4u, 0xC0u},
 487:.\Generated_Source\PSoC4/cyfitter_cfg.c **** 			{0xCAu, 0x20u},
 488:.\Generated_Source\PSoC4/cyfitter_cfg.c **** 			{0xCEu, 0xC0u},
 489:.\Generated_Source\PSoC4/cyfitter_cfg.c **** 			{0xD0u, 0x20u},
 490:.\Generated_Source\PSoC4/cyfitter_cfg.c **** 			{0xD2u, 0x20u},
 491:.\Generated_Source\PSoC4/cyfitter_cfg.c **** 			{0xD6u, 0xD0u},
 492:.\Generated_Source\PSoC4/cyfitter_cfg.c **** 			{0xEEu, 0x10u},
 493:.\Generated_Source\PSoC4/cyfitter_cfg.c **** 			{0x5Bu, 0x20u},
 494:.\Generated_Source\PSoC4/cyfitter_cfg.c **** 			{0x5Fu, 0x80u},
 495:.\Generated_Source\PSoC4/cyfitter_cfg.c **** 			{0x6Fu, 0x42u},
 496:.\Generated_Source\PSoC4/cyfitter_cfg.c **** 			{0x73u, 0x08u},
 497:.\Generated_Source\PSoC4/cyfitter_cfg.c **** 			{0x79u, 0x80u},
 498:.\Generated_Source\PSoC4/cyfitter_cfg.c **** 			{0xD4u, 0x80u},
 499:.\Generated_Source\PSoC4/cyfitter_cfg.c **** 			{0xD6u, 0x20u},
 500:.\Generated_Source\PSoC4/cyfitter_cfg.c **** 			{0xDAu, 0x80u},
 501:.\Generated_Source\PSoC4/cyfitter_cfg.c **** 			{0xDCu, 0xE0u},
 502:.\Generated_Source\PSoC4/cyfitter_cfg.c **** 			{0x21u, 0x40u},
 503:.\Generated_Source\PSoC4/cyfitter_cfg.c **** 			{0x23u, 0x10u},
 504:.\Generated_Source\PSoC4/cyfitter_cfg.c **** 			{0x27u, 0x48u},
 505:.\Generated_Source\PSoC4/cyfitter_cfg.c **** 			{0x87u, 0x12u},
 506:.\Generated_Source\PSoC4/cyfitter_cfg.c **** 			{0x95u, 0x80u},
 507:.\Generated_Source\PSoC4/cyfitter_cfg.c **** 			{0x9Fu, 0x48u},
 508:.\Generated_Source\PSoC4/cyfitter_cfg.c **** 			{0xA7u, 0x02u},
 509:.\Generated_Source\PSoC4/cyfitter_cfg.c **** 			{0xABu, 0x80u},
 510:.\Generated_Source\PSoC4/cyfitter_cfg.c **** 			{0xB7u, 0x20u},
 511:.\Generated_Source\PSoC4/cyfitter_cfg.c **** 			{0xC8u, 0xF0u},
 512:.\Generated_Source\PSoC4/cyfitter_cfg.c **** 			{0xEAu, 0x80u},
 513:.\Generated_Source\PSoC4/cyfitter_cfg.c **** 			{0x01u, 0x0Au},
 514:.\Generated_Source\PSoC4/cyfitter_cfg.c **** 			{0x10u, 0x0Au},
 515:.\Generated_Source\PSoC4/cyfitter_cfg.c **** 		};
 516:.\Generated_Source\PSoC4/cyfitter_cfg.c **** 
ARM GAS  C:\Users\kylep\AppData\Local\Temp\ccBsM5w3.s 			page 19


 517:.\Generated_Source\PSoC4/cyfitter_cfg.c **** 
 518:.\Generated_Source\PSoC4/cyfitter_cfg.c **** 
 519:.\Generated_Source\PSoC4/cyfitter_cfg.c **** 		CYPACKED typedef struct {
 520:.\Generated_Source\PSoC4/cyfitter_cfg.c **** 			void CYFAR *address;
 521:.\Generated_Source\PSoC4/cyfitter_cfg.c **** 			uint16 size;
 522:.\Generated_Source\PSoC4/cyfitter_cfg.c **** 		} CYPACKED_ATTR cfg_memset_t;
 523:.\Generated_Source\PSoC4/cyfitter_cfg.c **** 
 524:.\Generated_Source\PSoC4/cyfitter_cfg.c **** 		static const cfg_memset_t CYCODE cfg_memset_list [] = {
 525:.\Generated_Source\PSoC4/cyfitter_cfg.c **** 			/* address, size */
 526:.\Generated_Source\PSoC4/cyfitter_cfg.c **** 			{(void CYFAR *)(CYDEV_UDB_P0_U0_BASE), 1024u},
 527:.\Generated_Source\PSoC4/cyfitter_cfg.c **** 			{(void CYFAR *)(CYDEV_UDB_DSI0_BASE), 1024u},
 528:.\Generated_Source\PSoC4/cyfitter_cfg.c **** 		};
 529:.\Generated_Source\PSoC4/cyfitter_cfg.c **** 
 530:.\Generated_Source\PSoC4/cyfitter_cfg.c **** 		uint8 CYDATA i;
 531:.\Generated_Source\PSoC4/cyfitter_cfg.c **** 
 532:.\Generated_Source\PSoC4/cyfitter_cfg.c **** 		/* Zero out critical memory blocks before beginning configuration */
 533:.\Generated_Source\PSoC4/cyfitter_cfg.c **** 		for (i = 0u; i < (sizeof(cfg_memset_list)/sizeof(cfg_memset_list[0])); i++)
 508              		.loc 1 533 0
 509 0132 FB1D     		add	r3, r7, #7
 510 0134 0022     		mov	r2, #0
 511 0136 1A70     		strb	r2, [r3]
 512 0138 23E0     		b	.L21
 513              	.L22:
 514              	.LBB4:
 534:.\Generated_Source\PSoC4/cyfitter_cfg.c **** 		{
 535:.\Generated_Source\PSoC4/cyfitter_cfg.c **** 			const cfg_memset_t CYCODE * CYDATA ms = &cfg_memset_list[i];
 515              		.loc 1 535 0 discriminator 3
 516 013a FB1D     		add	r3, r7, #7
 517 013c 1A78     		ldrb	r2, [r3]
 518 013e 131C     		mov	r3, r2
 519 0140 5B00     		lsl	r3, r3, #1
 520 0142 9B18     		add	r3, r3, r2
 521 0144 5B00     		lsl	r3, r3, #1
 522 0146 444A     		ldr	r2, .L23+4
 523 0148 9B18     		add	r3, r3, r2
 524 014a 3B60     		str	r3, [r7]
 536:.\Generated_Source\PSoC4/cyfitter_cfg.c **** 			CYMEMZERO(ms->address, (size_t)(uint32)(ms->size));
 525              		.loc 1 536 0 discriminator 3
 526 014c 3B68     		ldr	r3, [r7]
 527 014e 1A78     		ldrb	r2, [r3]
 528 0150 5978     		ldrb	r1, [r3, #1]
 529 0152 0902     		lsl	r1, r1, #8
 530 0154 0A43     		orr	r2, r1
 531 0156 9978     		ldrb	r1, [r3, #2]
 532 0158 0904     		lsl	r1, r1, #16
 533 015a 0A43     		orr	r2, r1
 534 015c DB78     		ldrb	r3, [r3, #3]
 535 015e 1B06     		lsl	r3, r3, #24
 536 0160 1343     		orr	r3, r2
 537 0162 191C     		mov	r1, r3
 538 0164 3B68     		ldr	r3, [r7]
 539 0166 1A79     		ldrb	r2, [r3, #4]
 540 0168 5B79     		ldrb	r3, [r3, #5]
 541 016a 1B02     		lsl	r3, r3, #8
 542 016c 1343     		orr	r3, r2
 543 016e 9BB2     		uxth	r3, r3
 544 0170 081C     		mov	r0, r1
ARM GAS  C:\Users\kylep\AppData\Local\Temp\ccBsM5w3.s 			page 20


 545 0172 191C     		mov	r1, r3
 546 0174 FFF7FEFF 		bl	CYMEMZERO
 547              	.LBE4:
 533:.\Generated_Source\PSoC4/cyfitter_cfg.c **** 		{
 548              		.loc 1 533 0 discriminator 3
 549 0178 FB1D     		add	r3, r7, #7
 550 017a 1A78     		ldrb	r2, [r3]
 551 017c FB1D     		add	r3, r7, #7
 552 017e 0132     		add	r2, r2, #1
 553 0180 1A70     		strb	r2, [r3]
 554              	.L21:
 533:.\Generated_Source\PSoC4/cyfitter_cfg.c **** 		{
 555              		.loc 1 533 0 is_stmt 0 discriminator 1
 556 0182 FB1D     		add	r3, r7, #7
 557 0184 1B78     		ldrb	r3, [r3]
 558 0186 012B     		cmp	r3, #1
 559 0188 D7D9     		bls	.L22
 537:.\Generated_Source\PSoC4/cyfitter_cfg.c **** 		}
 538:.\Generated_Source\PSoC4/cyfitter_cfg.c **** 
 539:.\Generated_Source\PSoC4/cyfitter_cfg.c **** 		cfg_write_bytes32(cy_cfg_addr_table, cy_cfg_data_table);
 560              		.loc 1 539 0 is_stmt 1
 561 018a 344A     		ldr	r2, .L23+8
 562 018c 344B     		ldr	r3, .L23+12
 563 018e 101C     		mov	r0, r2
 564 0190 191C     		mov	r1, r3
 565 0192 FFF7FEFF 		bl	cfg_write_bytes32
 540:.\Generated_Source\PSoC4/cyfitter_cfg.c **** 
 541:.\Generated_Source\PSoC4/cyfitter_cfg.c **** 		/* HSIOM Starting address: CYDEV_HSIOM_BASE */
 542:.\Generated_Source\PSoC4/cyfitter_cfg.c **** 		CY_SET_XTND_REG32((void CYFAR *)(CYDEV_HSIOM_BASE), 0x00003030u);
 566              		.loc 1 542 0
 567 0196 334B     		ldr	r3, .L23+16
 568 0198 334A     		ldr	r2, .L23+20
 569 019a 1A60     		str	r2, [r3]
 543:.\Generated_Source\PSoC4/cyfitter_cfg.c **** 		CY_SET_XTND_REG32((void CYFAR *)(CYREG_HSIOM_PORT_SEL3), 0x0000EE99u);
 570              		.loc 1 543 0
 571 019c 334B     		ldr	r3, .L23+24
 572 019e 344A     		ldr	r2, .L23+28
 573 01a0 1A60     		str	r2, [r3]
 544:.\Generated_Source\PSoC4/cyfitter_cfg.c **** 
 545:.\Generated_Source\PSoC4/cyfitter_cfg.c **** 		/* UDB_PA_0 Starting address: CYDEV_UDB_PA0_BASE */
 546:.\Generated_Source\PSoC4/cyfitter_cfg.c **** 		CY_SET_XTND_REG32((void CYFAR *)(CYDEV_UDB_PA0_BASE), 0x00990000u);
 574              		.loc 1 546 0
 575 01a2 344B     		ldr	r3, .L23+32
 576 01a4 9922     		mov	r2, #153
 577 01a6 1204     		lsl	r2, r2, #16
 578 01a8 1A60     		str	r2, [r3]
 547:.\Generated_Source\PSoC4/cyfitter_cfg.c **** 		CY_SET_XTND_REG32((void CYFAR *)(CYREG_UDB_PA0_CFG8), 0x00C80000u);
 579              		.loc 1 547 0
 580 01aa 334B     		ldr	r3, .L23+36
 581 01ac C822     		mov	r2, #200
 582 01ae 1204     		lsl	r2, r2, #16
 583 01b0 1A60     		str	r2, [r3]
 548:.\Generated_Source\PSoC4/cyfitter_cfg.c **** 
 549:.\Generated_Source\PSoC4/cyfitter_cfg.c **** 		/* UDB_PA_1 Starting address: CYDEV_UDB_PA1_BASE */
 550:.\Generated_Source\PSoC4/cyfitter_cfg.c **** 		CY_SET_XTND_REG32((void CYFAR *)(CYDEV_UDB_PA1_BASE), 0x00990000u);
 584              		.loc 1 550 0
 585 01b2 324B     		ldr	r3, .L23+40
ARM GAS  C:\Users\kylep\AppData\Local\Temp\ccBsM5w3.s 			page 21


 586 01b4 9922     		mov	r2, #153
 587 01b6 1204     		lsl	r2, r2, #16
 588 01b8 1A60     		str	r2, [r3]
 551:.\Generated_Source\PSoC4/cyfitter_cfg.c **** 
 552:.\Generated_Source\PSoC4/cyfitter_cfg.c **** 		/* UDB_PA_2 Starting address: CYDEV_UDB_PA2_BASE */
 553:.\Generated_Source\PSoC4/cyfitter_cfg.c **** 		CY_SET_XTND_REG32((void CYFAR *)(CYDEV_UDB_PA2_BASE), 0x00990000u);
 589              		.loc 1 553 0
 590 01ba 314B     		ldr	r3, .L23+44
 591 01bc 9922     		mov	r2, #153
 592 01be 1204     		lsl	r2, r2, #16
 593 01c0 1A60     		str	r2, [r3]
 554:.\Generated_Source\PSoC4/cyfitter_cfg.c **** 
 555:.\Generated_Source\PSoC4/cyfitter_cfg.c **** 		/* UDB_PA_3 Starting address: CYDEV_UDB_PA3_BASE */
 556:.\Generated_Source\PSoC4/cyfitter_cfg.c **** 		CY_SET_XTND_REG32((void CYFAR *)(CYDEV_UDB_PA3_BASE), 0x00990000u);
 594              		.loc 1 556 0
 595 01c2 304B     		ldr	r3, .L23+48
 596 01c4 9922     		mov	r2, #153
 597 01c6 1204     		lsl	r2, r2, #16
 598 01c8 1A60     		str	r2, [r3]
 557:.\Generated_Source\PSoC4/cyfitter_cfg.c **** 
 558:.\Generated_Source\PSoC4/cyfitter_cfg.c **** 		/* INT_SELECT Starting address: CYDEV_CPUSS_INTR_SELECT */
 559:.\Generated_Source\PSoC4/cyfitter_cfg.c **** 		CY_SET_XTND_REG32((void CYFAR *)(CYREG_CPUSS_INTR_SELECT), 0x0000001Du);
 599              		.loc 1 559 0
 600 01ca 2F4B     		ldr	r3, .L23+52
 601 01cc 1D22     		mov	r2, #29
 602 01ce 1A60     		str	r2, [r3]
 560:.\Generated_Source\PSoC4/cyfitter_cfg.c **** 
 561:.\Generated_Source\PSoC4/cyfitter_cfg.c **** 		/* INT_CONFIG Starting address: CYDEV_UDB_INT_CFG */
 562:.\Generated_Source\PSoC4/cyfitter_cfg.c **** 		CY_SET_XTND_REG32((void CYFAR *)(CYREG_UDB_INT_CFG), 0x00000008u);
 603              		.loc 1 562 0
 604 01d0 2E4B     		ldr	r3, .L23+56
 605 01d2 0822     		mov	r2, #8
 606 01d4 1A60     		str	r2, [r3]
 563:.\Generated_Source\PSoC4/cyfitter_cfg.c **** 
 564:.\Generated_Source\PSoC4/cyfitter_cfg.c **** 		/* Enable digital routing */
 565:.\Generated_Source\PSoC4/cyfitter_cfg.c **** 		CY_SET_XTND_REG8((void *)CYREG_UDB_UDBIF_BANK_CTL, CY_GET_XTND_REG8((void *)CYREG_UDB_UDBIF_BANK_
 607              		.loc 1 565 0
 608 01d6 2E4A     		ldr	r2, .L23+60
 609 01d8 2D4B     		ldr	r3, .L23+60
 610 01da 1B78     		ldrb	r3, [r3]
 611 01dc DBB2     		uxtb	r3, r3
 612 01de 0221     		mov	r1, #2
 613 01e0 0B43     		orr	r3, r1
 614 01e2 DBB2     		uxtb	r3, r3
 615 01e4 1370     		strb	r3, [r2]
 566:.\Generated_Source\PSoC4/cyfitter_cfg.c **** 
 567:.\Generated_Source\PSoC4/cyfitter_cfg.c **** 		/* Enable UDB array */
 568:.\Generated_Source\PSoC4/cyfitter_cfg.c **** 		CY_SET_XTND_REG8((void *)CYREG_UDB_UDBIF_WAIT_CFG, (uint8)((CY_GET_XTND_REG8((void *)CYREG_UDB_UD
 616              		.loc 1 568 0
 617 01e6 2B4A     		ldr	r2, .L23+64
 618 01e8 2A4B     		ldr	r3, .L23+64
 619 01ea 1B78     		ldrb	r3, [r3]
 620 01ec DBB2     		uxtb	r3, r3
 621 01ee 3C21     		mov	r1, #60
 622 01f0 8B43     		bic	r3, r1
 623 01f2 DBB2     		uxtb	r3, r3
 624 01f4 1421     		mov	r1, #20
ARM GAS  C:\Users\kylep\AppData\Local\Temp\ccBsM5w3.s 			page 22


 625 01f6 0B43     		orr	r3, r1
 626 01f8 DBB2     		uxtb	r3, r3
 627 01fa 1370     		strb	r3, [r2]
 569:.\Generated_Source\PSoC4/cyfitter_cfg.c **** 		CY_SET_XTND_REG8((void *)CYREG_UDB_UDBIF_BANK_CTL, (uint8)(CY_GET_XTND_REG8((void *)CYREG_UDB_UDB
 628              		.loc 1 569 0
 629 01fc 244A     		ldr	r2, .L23+60
 630 01fe 244B     		ldr	r3, .L23+60
 631 0200 1B78     		ldrb	r3, [r3]
 632 0202 DBB2     		uxtb	r3, r3
 633 0204 1621     		mov	r1, #22
 634 0206 0B43     		orr	r3, r1
 635 0208 DBB2     		uxtb	r3, r3
 636 020a 1370     		strb	r3, [r2]
 637              	.LBE3:
 570:.\Generated_Source\PSoC4/cyfitter_cfg.c **** 	}
 571:.\Generated_Source\PSoC4/cyfitter_cfg.c **** 
 572:.\Generated_Source\PSoC4/cyfitter_cfg.c **** 	/* Perform second pass device configuration. These items must be configured in specific order afte
 573:.\Generated_Source\PSoC4/cyfitter_cfg.c **** 	/* IOPINS0_0 Starting address: CYDEV_PRT0_BASE */
 574:.\Generated_Source\PSoC4/cyfitter_cfg.c **** 	CY_SET_XTND_REG32((void CYFAR *)(CYDEV_PRT0_BASE), 0x0000000Au);
 638              		.loc 1 574 0
 639 020c 224B     		ldr	r3, .L23+68
 640 020e 0A22     		mov	r2, #10
 641 0210 1A60     		str	r2, [r3]
 575:.\Generated_Source\PSoC4/cyfitter_cfg.c **** 	CY_SET_XTND_REG32((void CYFAR *)(CYREG_PRT0_PC), 0x000C0CD8u);
 642              		.loc 1 575 0
 643 0212 224B     		ldr	r3, .L23+72
 644 0214 224A     		ldr	r2, .L23+76
 645 0216 1A60     		str	r2, [r3]
 576:.\Generated_Source\PSoC4/cyfitter_cfg.c **** 
 577:.\Generated_Source\PSoC4/cyfitter_cfg.c **** 	/* IOPINS0_1 Starting address: CYDEV_PRT1_BASE */
 578:.\Generated_Source\PSoC4/cyfitter_cfg.c **** 	CY_SET_XTND_REG32((void CYFAR *)(CYREG_PRT1_PC), 0x00000180u);
 646              		.loc 1 578 0
 647 0218 224B     		ldr	r3, .L23+80
 648 021a C022     		mov	r2, #192
 649 021c 5200     		lsl	r2, r2, #1
 650 021e 1A60     		str	r2, [r3]
 579:.\Generated_Source\PSoC4/cyfitter_cfg.c **** 
 580:.\Generated_Source\PSoC4/cyfitter_cfg.c **** 	/* IOPINS0_2 Starting address: CYDEV_PRT2_BASE */
 581:.\Generated_Source\PSoC4/cyfitter_cfg.c **** 	CY_SET_XTND_REG32((void CYFAR *)(CYDEV_PRT2_BASE), 0x000000E0u);
 651              		.loc 1 581 0
 652 0220 214B     		ldr	r3, .L23+84
 653 0222 E022     		mov	r2, #224
 654 0224 1A60     		str	r2, [r3]
 582:.\Generated_Source\PSoC4/cyfitter_cfg.c **** 	CY_SET_XTND_REG32((void CYFAR *)(CYREG_PRT2_PC2), 0x000000E0u);
 655              		.loc 1 582 0
 656 0226 214B     		ldr	r3, .L23+88
 657 0228 E022     		mov	r2, #224
 658 022a 1A60     		str	r2, [r3]
 583:.\Generated_Source\PSoC4/cyfitter_cfg.c **** 
 584:.\Generated_Source\PSoC4/cyfitter_cfg.c **** 	/* IOPINS0_3 Starting address: CYDEV_PRT3_BASE */
 585:.\Generated_Source\PSoC4/cyfitter_cfg.c **** 	CY_SET_XTND_REG32((void CYFAR *)(CYDEV_PRT3_BASE), 0x00000002u);
 659              		.loc 1 585 0
 660 022c 204B     		ldr	r3, .L23+92
 661 022e 0222     		mov	r2, #2
 662 0230 1A60     		str	r2, [r3]
 586:.\Generated_Source\PSoC4/cyfitter_cfg.c **** 	CY_SET_XTND_REG32((void CYFAR *)(CYREG_PRT3_PC), 0x00000DB1u);
 663              		.loc 1 586 0
ARM GAS  C:\Users\kylep\AppData\Local\Temp\ccBsM5w3.s 			page 23


 664 0232 204B     		ldr	r3, .L23+96
 665 0234 204A     		ldr	r2, .L23+100
 666 0236 1A60     		str	r2, [r3]
 587:.\Generated_Source\PSoC4/cyfitter_cfg.c **** 	CY_SET_XTND_REG32((void CYFAR *)(CYREG_PRT3_PC2), 0x00000002u);
 667              		.loc 1 587 0
 668 0238 204B     		ldr	r3, .L23+104
 669 023a 0222     		mov	r2, #2
 670 023c 1A60     		str	r2, [r3]
 588:.\Generated_Source\PSoC4/cyfitter_cfg.c **** 
 589:.\Generated_Source\PSoC4/cyfitter_cfg.c **** 	/* IOPINS0_4 Starting address: CYDEV_PRT4_BASE */
 590:.\Generated_Source\PSoC4/cyfitter_cfg.c **** 	CY_SET_XTND_REG32((void CYFAR *)(CYREG_PRT4_PC), 0x00000006u);
 671              		.loc 1 590 0
 672 023e 204B     		ldr	r3, .L23+108
 673 0240 0622     		mov	r2, #6
 674 0242 1A60     		str	r2, [r3]
 591:.\Generated_Source\PSoC4/cyfitter_cfg.c **** 
 592:.\Generated_Source\PSoC4/cyfitter_cfg.c **** 
 593:.\Generated_Source\PSoC4/cyfitter_cfg.c **** 	/* Setup clocks based on selections from Clock DWR */
 594:.\Generated_Source\PSoC4/cyfitter_cfg.c **** 	ClockSetup();
 675              		.loc 1 594 0
 676 0244 FFF7DCFE 		bl	ClockSetup
 595:.\Generated_Source\PSoC4/cyfitter_cfg.c **** 
 596:.\Generated_Source\PSoC4/cyfitter_cfg.c **** 	/* Perform basic analog initialization to defaults */
 597:.\Generated_Source\PSoC4/cyfitter_cfg.c **** 	AnalogSetDefault();
 677              		.loc 1 597 0
 678 0248 FFF7FEFF 		bl	AnalogSetDefault
 598:.\Generated_Source\PSoC4/cyfitter_cfg.c **** 
 599:.\Generated_Source\PSoC4/cyfitter_cfg.c **** }
 679              		.loc 1 599 0
 680 024c BD46     		mov	sp, r7
 681 024e 02B0     		add	sp, sp, #8
 682              		@ sp needed
 683 0250 80BD     		pop	{r7, pc}
 684              	.L24:
 685 0252 C046     		.align	2
 686              	.L23:
 687 0254 1C700F40 		.word	1074753564
 688 0258 00000000 		.word	cfg_memset_list.4745
 689 025c 0C000000 		.word	cy_cfg_addr_table.4739
 690 0260 2C000000 		.word	cy_cfg_data_table.4740
 691 0264 00000140 		.word	1073807360
 692 0268 30300000 		.word	12336
 693 026c 0C000140 		.word	1073807372
 694 0270 99EE0000 		.word	61081
 695 0274 00500F40 		.word	1074745344
 696 0278 08500F40 		.word	1074745352
 697 027c 10500F40 		.word	1074745360
 698 0280 20500F40 		.word	1074745376
 699 0284 30500F40 		.word	1074745392
 700 0288 20000040 		.word	1073741856
 701 028c 00800F40 		.word	1074757632
 702 0290 00700F40 		.word	1074753536
 703 0294 01700F40 		.word	1074753537
 704 0298 00000440 		.word	1074003968
 705 029c 08000440 		.word	1074003976
 706 02a0 D80C0C00 		.word	789720
 707 02a4 08010440 		.word	1074004232
ARM GAS  C:\Users\kylep\AppData\Local\Temp\ccBsM5w3.s 			page 24


 708 02a8 00020440 		.word	1074004480
 709 02ac 18020440 		.word	1074004504
 710 02b0 00030440 		.word	1074004736
 711 02b4 08030440 		.word	1074004744
 712 02b8 B10D0000 		.word	3505
 713 02bc 18030440 		.word	1074004760
 714 02c0 08040440 		.word	1074005000
 715              		.cfi_endproc
 716              	.LFE7:
 717              		.size	cyfitter_cfg, .-cyfitter_cfg
 718              		.section	.rodata
 719              		.align	2
 720              		.type	cfg_memset_list.4745, %object
 721              		.size	cfg_memset_list.4745, 12
 722              	cfg_memset_list.4745:
 723 0000 00300F40 		.word	1074737152
 724 0004 0004     		.short	1024
 725 0006 00400F40 		.4byte	1074741248
 726 000a 0004     		.short	1024
 727              		.align	2
 728              		.type	cy_cfg_addr_table.4739, %object
 729              		.size	cy_cfg_addr_table.4739, 32
 730              	cy_cfg_addr_table.4739:
 731 000c 01000F40 		.word	1074724865
 732 0010 32300F40 		.word	1074737202
 733 0014 16310F40 		.word	1074737430
 734 0018 2C320F40 		.word	1074737708
 735 001c 20330F40 		.word	1074737952
 736 0020 09400F40 		.word	1074741257
 737 0024 0B410F40 		.word	1074741515
 738 0028 02600F40 		.word	1074749442
 739              		.align	2
 740              		.type	cy_cfg_data_table.4740, %object
 741              		.size	cy_cfg_data_table.4740, 342
 742              	cy_cfg_data_table.4740:
 743 002c 82       		.byte	-126
 744 002d 0D       		.byte	13
 745 002e 5B       		.byte	91
 746 002f 04       		.byte	4
 747 0030 5F       		.byte	95
 748 0031 01       		.byte	1
 749 0032 82       		.byte	-126
 750 0033 40       		.byte	64
 751 0034 84       		.byte	-124
 752 0035 10       		.byte	16
 753 0036 86       		.byte	-122
 754 0037 04       		.byte	4
 755 0038 8A       		.byte	-118
 756 0039 80       		.byte	-128
 757 003a 92       		.byte	-110
 758 003b 20       		.byte	32
 759 003c 96       		.byte	-106
 760 003d 1F       		.byte	31
 761 003e 9A       		.byte	-102
 762 003f 80       		.byte	-128
 763 0040 9C       		.byte	-100
 764 0041 18       		.byte	24
ARM GAS  C:\Users\kylep\AppData\Local\Temp\ccBsM5w3.s 			page 25


 765 0042 9E       		.byte	-98
 766 0043 03       		.byte	3
 767 0044 A0       		.byte	-96
 768 0045 06       		.byte	6
 769 0046 A2       		.byte	-94
 770 0047 11       		.byte	17
 771 0048 A4       		.byte	-92
 772 0049 01       		.byte	1
 773 004a A6       		.byte	-90
 774 004b 12       		.byte	18
 775 004c A8       		.byte	-88
 776 004d 07       		.byte	7
 777 004e AA       		.byte	-86
 778 004f 08       		.byte	8
 779 0050 AE       		.byte	-82
 780 0051 40       		.byte	64
 781 0052 B0       		.byte	-80
 782 0053 1F       		.byte	31
 783 0054 B2       		.byte	-78
 784 0055 20       		.byte	32
 785 0056 B4       		.byte	-76
 786 0057 80       		.byte	-128
 787 0058 B6       		.byte	-74
 788 0059 40       		.byte	64
 789 005a BE       		.byte	-66
 790 005b 50       		.byte	80
 791 005c C0       		.byte	-64
 792 005d 30       		.byte	48
 793 005e C1       		.byte	-63
 794 005f 05       		.byte	5
 795 0060 C5       		.byte	-59
 796 0061 10       		.byte	16
 797 0062 C6       		.byte	-58
 798 0063 02       		.byte	2
 799 0064 C8       		.byte	-56
 800 0065 0E       		.byte	14
 801 0066 C9       		.byte	-55
 802 0067 FF       		.byte	-1
 803 0068 CA       		.byte	-54
 804 0069 FF       		.byte	-1
 805 006a CB       		.byte	-53
 806 006b FF       		.byte	-1
 807 006c CD       		.byte	-51
 808 006d A0       		.byte	-96
 809 006e CF       		.byte	-49
 810 006f 04       		.byte	4
 811 0070 D0       		.byte	-48
 812 0071 18       		.byte	24
 813 0072 D2       		.byte	-46
 814 0073 87       		.byte	-121
 815 0074 D8       		.byte	-40
 816 0075 04       		.byte	4
 817 0076 DA       		.byte	-38
 818 0077 04       		.byte	4
 819 0078 DB       		.byte	-37
 820 0079 04       		.byte	4
 821 007a DC       		.byte	-36
ARM GAS  C:\Users\kylep\AppData\Local\Temp\ccBsM5w3.s 			page 26


 822 007b 01       		.byte	1
 823 007c DD       		.byte	-35
 824 007d 11       		.byte	17
 825 007e DF       		.byte	-33
 826 007f 01       		.byte	1
 827 0080 E0       		.byte	-32
 828 0081 40       		.byte	64
 829 0082 E2       		.byte	-30
 830 0083 C0       		.byte	-64
 831 0084 E4       		.byte	-28
 832 0085 40       		.byte	64
 833 0086 E5       		.byte	-27
 834 0087 40       		.byte	64
 835 0088 E6       		.byte	-26
 836 0089 C0       		.byte	-64
 837 008a E8       		.byte	-24
 838 008b C0       		.byte	-64
 839 008c EA       		.byte	-22
 840 008d C0       		.byte	-64
 841 008e EC       		.byte	-20
 842 008f C0       		.byte	-64
 843 0090 EE       		.byte	-18
 844 0091 C0       		.byte	-64
 845 0092 05       		.byte	5
 846 0093 21       		.byte	33
 847 0094 06       		.byte	6
 848 0095 20       		.byte	32
 849 0096 0C       		.byte	12
 850 0097 02       		.byte	2
 851 0098 0D       		.byte	13
 852 0099 28       		.byte	40
 853 009a 0F       		.byte	15
 854 009b 02       		.byte	2
 855 009c 15       		.byte	21
 856 009d 40       		.byte	64
 857 009e 17       		.byte	23
 858 009f 15       		.byte	21
 859 00a0 1C       		.byte	28
 860 00a1 01       		.byte	1
 861 00a2 1D       		.byte	29
 862 00a3 0A       		.byte	10
 863 00a4 1E       		.byte	30
 864 00a5 08       		.byte	8
 865 00a6 45       		.byte	69
 866 00a7 08       		.byte	8
 867 00a8 4F       		.byte	79
 868 00a9 82       		.byte	-126
 869 00aa 56       		.byte	86
 870 00ab 20       		.byte	32
 871 00ac 57       		.byte	87
 872 00ad 40       		.byte	64
 873 00ae 69       		.byte	105
 874 00af 40       		.byte	64
 875 00b0 6F       		.byte	111
 876 00b1 15       		.byte	21
 877 00b2 74       		.byte	116
 878 00b3 02       		.byte	2
ARM GAS  C:\Users\kylep\AppData\Local\Temp\ccBsM5w3.s 			page 27


 879 00b4 C0       		.byte	-64
 880 00b5 70       		.byte	112
 881 00b6 C2       		.byte	-62
 882 00b7 F0       		.byte	-16
 883 00b8 C4       		.byte	-60
 884 00b9 F0       		.byte	-16
 885 00ba D0       		.byte	-48
 886 00bb 40       		.byte	64
 887 00bc D2       		.byte	-46
 888 00bd 10       		.byte	16
 889 00be 03       		.byte	3
 890 00bf 02       		.byte	2
 891 00c0 07       		.byte	7
 892 00c1 01       		.byte	1
 893 00c2 0A       		.byte	10
 894 00c3 03       		.byte	3
 895 00c4 1C       		.byte	28
 896 00c5 04       		.byte	4
 897 00c6 1E       		.byte	30
 898 00c7 02       		.byte	2
 899 00c8 28       		.byte	40
 900 00c9 04       		.byte	4
 901 00ca 29       		.byte	41
 902 00cb 03       		.byte	3
 903 00cc 2A       		.byte	42
 904 00cd 01       		.byte	1
 905 00ce 2E       		.byte	46
 906 00cf 08       		.byte	8
 907 00d0 30       		.byte	48
 908 00d1 03       		.byte	3
 909 00d2 32       		.byte	50
 910 00d3 04       		.byte	4
 911 00d4 34       		.byte	52
 912 00d5 08       		.byte	8
 913 00d6 37       		.byte	55
 914 00d7 03       		.byte	3
 915 00d8 38       		.byte	56
 916 00d9 08       		.byte	8
 917 00da 40       		.byte	64
 918 00db 20       		.byte	32
 919 00dc 41       		.byte	65
 920 00dd 06       		.byte	6
 921 00de 45       		.byte	69
 922 00df D0       		.byte	-48
 923 00e0 46       		.byte	70
 924 00e1 20       		.byte	32
 925 00e2 47       		.byte	71
 926 00e3 10       		.byte	16
 927 00e4 48       		.byte	72
 928 00e5 3A       		.byte	58
 929 00e6 49       		.byte	73
 930 00e7 FF       		.byte	-1
 931 00e8 4A       		.byte	74
 932 00e9 FF       		.byte	-1
 933 00ea 4B       		.byte	75
 934 00eb FF       		.byte	-1
 935 00ec 4D       		.byte	77
ARM GAS  C:\Users\kylep\AppData\Local\Temp\ccBsM5w3.s 			page 28


 936 00ed A0       		.byte	-96
 937 00ee 4F       		.byte	79
 938 00ef 04       		.byte	4
 939 00f0 50       		.byte	80
 940 00f1 18       		.byte	24
 941 00f2 52       		.byte	82
 942 00f3 80       		.byte	-128
 943 00f4 54       		.byte	84
 944 00f5 05       		.byte	5
 945 00f6 58       		.byte	88
 946 00f7 04       		.byte	4
 947 00f8 59       		.byte	89
 948 00f9 04       		.byte	4
 949 00fa 5A       		.byte	90
 950 00fb 04       		.byte	4
 951 00fc 5B       		.byte	91
 952 00fd 04       		.byte	4
 953 00fe 5C       		.byte	92
 954 00ff 33       		.byte	51
 955 0100 5D       		.byte	93
 956 0101 33       		.byte	51
 957 0102 5F       		.byte	95
 958 0103 01       		.byte	1
 959 0104 60       		.byte	96
 960 0105 40       		.byte	64
 961 0106 62       		.byte	98
 962 0107 C0       		.byte	-64
 963 0108 64       		.byte	100
 964 0109 40       		.byte	64
 965 010a 65       		.byte	101
 966 010b 40       		.byte	64
 967 010c 66       		.byte	102
 968 010d C0       		.byte	-64
 969 010e 68       		.byte	104
 970 010f C0       		.byte	-64
 971 0110 6A       		.byte	106
 972 0111 C0       		.byte	-64
 973 0112 6C       		.byte	108
 974 0113 C0       		.byte	-64
 975 0114 6E       		.byte	110
 976 0115 C0       		.byte	-64
 977 0116 05       		.byte	5
 978 0117 10       		.byte	16
 979 0118 0F       		.byte	15
 980 0119 02       		.byte	2
 981 011a 16       		.byte	22
 982 011b 08       		.byte	8
 983 011c 17       		.byte	23
 984 011d 40       		.byte	64
 985 011e 1D       		.byte	29
 986 011f 31       		.byte	49
 987 0120 1F       		.byte	31
 988 0121 08       		.byte	8
 989 0122 26       		.byte	38
 990 0123 40       		.byte	64
 991 0124 2F       		.byte	47
 992 0125 08       		.byte	8
ARM GAS  C:\Users\kylep\AppData\Local\Temp\ccBsM5w3.s 			page 29


 993 0126 3E       		.byte	62
 994 0127 08       		.byte	8
 995 0128 3F       		.byte	63
 996 0129 02       		.byte	2
 997 012a 45       		.byte	69
 998 012b 20       		.byte	32
 999 012c 4D       		.byte	77
 1000 012d 20       		.byte	32
 1001 012e 4F       		.byte	79
 1002 012f 21       		.byte	33
 1003 0130 56       		.byte	86
 1004 0131 08       		.byte	8
 1005 0132 57       		.byte	87
 1006 0133 11       		.byte	17
 1007 0134 5E       		.byte	94
 1008 0135 88       		.byte	-120
 1009 0136 5F       		.byte	95
 1010 0137 01       		.byte	1
 1011 0138 77       		.byte	119
 1012 0139 40       		.byte	64
 1013 013a 9D       		.byte	-99
 1014 013b 21       		.byte	33
 1015 013c A2       		.byte	-94
 1016 013d 04       		.byte	4
 1017 013e A5       		.byte	-91
 1018 013f 20       		.byte	32
 1019 0140 A9       		.byte	-87
 1020 0141 02       		.byte	2
 1021 0142 B4       		.byte	-76
 1022 0143 01       		.byte	1
 1023 0144 C0       		.byte	-64
 1024 0145 40       		.byte	64
 1025 0146 C2       		.byte	-62
 1026 0147 80       		.byte	-128
 1027 0148 C4       		.byte	-60
 1028 0149 C0       		.byte	-64
 1029 014a CA       		.byte	-54
 1030 014b 20       		.byte	32
 1031 014c CE       		.byte	-50
 1032 014d C0       		.byte	-64
 1033 014e D0       		.byte	-48
 1034 014f 20       		.byte	32
 1035 0150 D2       		.byte	-46
 1036 0151 20       		.byte	32
 1037 0152 D6       		.byte	-42
 1038 0153 D0       		.byte	-48
 1039 0154 EE       		.byte	-18
 1040 0155 10       		.byte	16
 1041 0156 5B       		.byte	91
 1042 0157 20       		.byte	32
 1043 0158 5F       		.byte	95
 1044 0159 80       		.byte	-128
 1045 015a 6F       		.byte	111
 1046 015b 42       		.byte	66
 1047 015c 73       		.byte	115
 1048 015d 08       		.byte	8
 1049 015e 79       		.byte	121
ARM GAS  C:\Users\kylep\AppData\Local\Temp\ccBsM5w3.s 			page 30


 1050 015f 80       		.byte	-128
 1051 0160 D4       		.byte	-44
 1052 0161 80       		.byte	-128
 1053 0162 D6       		.byte	-42
 1054 0163 20       		.byte	32
 1055 0164 DA       		.byte	-38
 1056 0165 80       		.byte	-128
 1057 0166 DC       		.byte	-36
 1058 0167 E0       		.byte	-32
 1059 0168 21       		.byte	33
 1060 0169 40       		.byte	64
 1061 016a 23       		.byte	35
 1062 016b 10       		.byte	16
 1063 016c 27       		.byte	39
 1064 016d 48       		.byte	72
 1065 016e 87       		.byte	-121
 1066 016f 12       		.byte	18
 1067 0170 95       		.byte	-107
 1068 0171 80       		.byte	-128
 1069 0172 9F       		.byte	-97
 1070 0173 48       		.byte	72
 1071 0174 A7       		.byte	-89
 1072 0175 02       		.byte	2
 1073 0176 AB       		.byte	-85
 1074 0177 80       		.byte	-128
 1075 0178 B7       		.byte	-73
 1076 0179 20       		.byte	32
 1077 017a C8       		.byte	-56
 1078 017b F0       		.byte	-16
 1079 017c EA       		.byte	-22
 1080 017d 80       		.byte	-128
 1081 017e 01       		.byte	1
 1082 017f 0A       		.byte	10
 1083 0180 10       		.byte	16
 1084 0181 0A       		.byte	10
 1085 0182 0000     		.text
 1086              	.Letext0:
 1087              		.file 2 "c:\\program files (x86)\\cypress\\psoc creator\\3.3\\psoc creator\\import\\gnu\\arm\\4.9.
 1088              		.file 3 ".\\Generated_Source\\PSoC4\\cytypes.h"