ARM GAS  C:\Users\kylep\AppData\Local\Temp\ccxh0xLd.s 			page 1


   1              		.cpu cortex-m0
   2              		.fpu softvfp
   3              		.eabi_attribute 20, 1
   4              		.eabi_attribute 21, 1
   5              		.eabi_attribute 23, 3
   6              		.eabi_attribute 24, 1
   7              		.eabi_attribute 25, 1
   8              		.eabi_attribute 26, 1
   9              		.eabi_attribute 30, 6
  10              		.eabi_attribute 34, 0
  11              		.eabi_attribute 18, 4
  12              		.code	16
  13              		.file	"CyLFClk.c"
  14              		.text
  15              	.Ltext0:
  16              		.cfi_sections	.debug_frame
  17              		.bss
  18              		.align	2
  19              	lfclkPosedgeWdtCounter0Enabled:
  20 0000 00000000 		.space	4
  21              		.align	2
  22              	lfclkPosedgeWdtCounter0Mode:
  23 0004 00000000 		.space	4
  24              		.align	2
  25              	disableServicedIsr:
  26 0008 00000000 		.space	4
  27              		.data
  28              		.align	2
  29              		.type	wdtIsrMask, %object
  30              		.size	wdtIsrMask, 4
  31              	wdtIsrMask:
  32 0000 04040400 		.word	263172
  33              		.section	.rodata
  34              		.align	2
  35              		.type	counterIntMaskTbl, %object
  36              		.size	counterIntMaskTbl, 12
  37              	counterIntMaskTbl:
  38 0000 04000000 		.word	4
  39 0004 00040000 		.word	1024
  40 0008 00000400 		.word	262144
  41              		.bss
  42              		.align	2
  43              	cySysWdtCallback:
  44 000c 00000000 		.space	12
  44      00000000 
  44      00000000 
  45              		.section	.text.CySysClkIloStart,"ax",%progbits
  46              		.align	2
  47              		.global	CySysClkIloStart
  48              		.code	16
  49              		.thumb_func
  50              		.type	CySysClkIloStart, %function
  51              	CySysClkIloStart:
  52              	.LFB0:
  53              		.file 1 ".\\Generated_Source\\PSoC4\\CyLFClk.c"
   1:.\Generated_Source\PSoC4/CyLFClk.c **** /*******************************************************************************
   2:.\Generated_Source\PSoC4/CyLFClk.c **** * File Name: .c
ARM GAS  C:\Users\kylep\AppData\Local\Temp\ccxh0xLd.s 			page 2


   3:.\Generated_Source\PSoC4/CyLFClk.c **** * Version 1.0
   4:.\Generated_Source\PSoC4/CyLFClk.c **** *
   5:.\Generated_Source\PSoC4/CyLFClk.c **** * Description:
   6:.\Generated_Source\PSoC4/CyLFClk.c **** *  This file provides the source code to API for the cy_lfclk Component.
   7:.\Generated_Source\PSoC4/CyLFClk.c **** *
   8:.\Generated_Source\PSoC4/CyLFClk.c **** ********************************************************************************
   9:.\Generated_Source\PSoC4/CyLFClk.c **** * Copyright 2008-2015, Cypress Semiconductor Corporation.  All rights reserved.
  10:.\Generated_Source\PSoC4/CyLFClk.c **** * You may use this file only in accordance with the license, terms, conditions,
  11:.\Generated_Source\PSoC4/CyLFClk.c **** * disclaimers, and limitations in the end user license agreement accompanying
  12:.\Generated_Source\PSoC4/CyLFClk.c **** * the software package with which this file was provided.
  13:.\Generated_Source\PSoC4/CyLFClk.c **** *******************************************************************************/
  14:.\Generated_Source\PSoC4/CyLFClk.c **** 
  15:.\Generated_Source\PSoC4/CyLFClk.c **** 
  16:.\Generated_Source\PSoC4/CyLFClk.c **** #include "CyLFClk.h"
  17:.\Generated_Source\PSoC4/CyLFClk.c **** #include "CyLib.h"
  18:.\Generated_Source\PSoC4/CyLFClk.c **** 
  19:.\Generated_Source\PSoC4/CyLFClk.c **** 
  20:.\Generated_Source\PSoC4/CyLFClk.c **** #if (CY_IP_WCO)
  21:.\Generated_Source\PSoC4/CyLFClk.c ****     static uint32 CySysClkGetLfclkSource(void);
  22:.\Generated_Source\PSoC4/CyLFClk.c **** #endif /* (CY_IP_WCO) */
  23:.\Generated_Source\PSoC4/CyLFClk.c **** 
  24:.\Generated_Source\PSoC4/CyLFClk.c **** #if(CY_IP_SRSSV2)
  25:.\Generated_Source\PSoC4/CyLFClk.c ****     /* CySysClkLfclkPosedgeCatch() / CySysClkLfclkPosedgeRestore() */
  26:.\Generated_Source\PSoC4/CyLFClk.c ****     static uint32 lfclkPosedgeWdtCounter0Enabled = 0u;
  27:.\Generated_Source\PSoC4/CyLFClk.c ****     static uint32 lfclkPosedgeWdtCounter0Mode    = CY_SYS_WDT_MODE_NONE;
  28:.\Generated_Source\PSoC4/CyLFClk.c **** 
  29:.\Generated_Source\PSoC4/CyLFClk.c ****     static volatile uint32 disableServicedIsr = 0uL;
  30:.\Generated_Source\PSoC4/CyLFClk.c ****     static volatile uint32 wdtIsrMask = CY_SYS_WDT_COUNTER0_INT |\
  31:.\Generated_Source\PSoC4/CyLFClk.c ****                                         CY_SYS_WDT_COUNTER1_INT |\
  32:.\Generated_Source\PSoC4/CyLFClk.c ****                                         CY_SYS_WDT_COUNTER2_INT;
  33:.\Generated_Source\PSoC4/CyLFClk.c **** 
  34:.\Generated_Source\PSoC4/CyLFClk.c ****     static const uint32 counterIntMaskTbl[CY_WDT_NUM_OF_WDT] = {CY_SYS_WDT_COUNTER0_INT,
  35:.\Generated_Source\PSoC4/CyLFClk.c ****                                                                 CY_SYS_WDT_COUNTER1_INT,
  36:.\Generated_Source\PSoC4/CyLFClk.c ****                                                                 CY_SYS_WDT_COUNTER2_INT};
  37:.\Generated_Source\PSoC4/CyLFClk.c **** 
  38:.\Generated_Source\PSoC4/CyLFClk.c ****     static void CySysClkLfclkPosedgeCatch(void);
  39:.\Generated_Source\PSoC4/CyLFClk.c ****     static void CySysClkLfclkPosedgeRestore(void);
  40:.\Generated_Source\PSoC4/CyLFClk.c **** 
  41:.\Generated_Source\PSoC4/CyLFClk.c ****     static uint32 CySysWdtLocked(void);
  42:.\Generated_Source\PSoC4/CyLFClk.c ****     static uint32 CySysClkIloEnabled(void);
  43:.\Generated_Source\PSoC4/CyLFClk.c **** #endif /* (CY_IP_SRSSV2) */
  44:.\Generated_Source\PSoC4/CyLFClk.c **** 
  45:.\Generated_Source\PSoC4/CyLFClk.c **** #if(CY_IP_SRSSV2)
  46:.\Generated_Source\PSoC4/CyLFClk.c ****     static cyWdtCallback cySysWdtCallback[CY_WDT_NUM_OF_WDT] = {(void *)0, (void *)0, (void *)0};
  47:.\Generated_Source\PSoC4/CyLFClk.c **** #else
  48:.\Generated_Source\PSoC4/CyLFClk.c ****     static cyWdtCallback cySysWdtCallback = (void *)0;
  49:.\Generated_Source\PSoC4/CyLFClk.c **** #endif /* (CY_IP_SRSSV2) */
  50:.\Generated_Source\PSoC4/CyLFClk.c **** 
  51:.\Generated_Source\PSoC4/CyLFClk.c **** /*******************************************************************************
  52:.\Generated_Source\PSoC4/CyLFClk.c **** * Function Name: CySysClkIloStart
  53:.\Generated_Source\PSoC4/CyLFClk.c **** ********************************************************************************
  54:.\Generated_Source\PSoC4/CyLFClk.c **** *
  55:.\Generated_Source\PSoC4/CyLFClk.c **** * Summary:
  56:.\Generated_Source\PSoC4/CyLFClk.c **** *  Enables ILO. Refer to the device datasheet for the ILO startup time.
  57:.\Generated_Source\PSoC4/CyLFClk.c **** *
  58:.\Generated_Source\PSoC4/CyLFClk.c **** * Parameters:
  59:.\Generated_Source\PSoC4/CyLFClk.c **** *  None
ARM GAS  C:\Users\kylep\AppData\Local\Temp\ccxh0xLd.s 			page 3


  60:.\Generated_Source\PSoC4/CyLFClk.c **** *
  61:.\Generated_Source\PSoC4/CyLFClk.c **** * Return:
  62:.\Generated_Source\PSoC4/CyLFClk.c **** *  None
  63:.\Generated_Source\PSoC4/CyLFClk.c **** *
  64:.\Generated_Source\PSoC4/CyLFClk.c **** *******************************************************************************/
  65:.\Generated_Source\PSoC4/CyLFClk.c **** void CySysClkIloStart(void)
  66:.\Generated_Source\PSoC4/CyLFClk.c **** {
  54              		.loc 1 66 0
  55              		.cfi_startproc
  56 0000 80B5     		push	{r7, lr}
  57              		.cfi_def_cfa_offset 8
  58              		.cfi_offset 7, -8
  59              		.cfi_offset 14, -4
  60 0002 00AF     		add	r7, sp, #0
  61              		.cfi_def_cfa_register 7
  67:.\Generated_Source\PSoC4/CyLFClk.c ****     CY_SYS_CLK_ILO_CONFIG_REG |= CY_SYS_CLK_ILO_CONFIG_ENABLE;
  62              		.loc 1 67 0
  63 0004 044B     		ldr	r3, .L2
  64 0006 044A     		ldr	r2, .L2
  65 0008 1268     		ldr	r2, [r2]
  66 000a 8021     		mov	r1, #128
  67 000c 0906     		lsl	r1, r1, #24
  68 000e 0A43     		orr	r2, r1
  69 0010 1A60     		str	r2, [r3]
  68:.\Generated_Source\PSoC4/CyLFClk.c **** }
  70              		.loc 1 68 0
  71 0012 BD46     		mov	sp, r7
  72              		@ sp needed
  73 0014 80BD     		pop	{r7, pc}
  74              	.L3:
  75 0016 C046     		.align	2
  76              	.L2:
  77 0018 04010B40 		.word	1074462980
  78              		.cfi_endproc
  79              	.LFE0:
  80              		.size	CySysClkIloStart, .-CySysClkIloStart
  81              		.section	.text.CySysClkIloStop,"ax",%progbits
  82              		.align	2
  83              		.global	CySysClkIloStop
  84              		.code	16
  85              		.thumb_func
  86              		.type	CySysClkIloStop, %function
  87              	CySysClkIloStop:
  88              	.LFB1:
  69:.\Generated_Source\PSoC4/CyLFClk.c **** 
  70:.\Generated_Source\PSoC4/CyLFClk.c **** 
  71:.\Generated_Source\PSoC4/CyLFClk.c **** /*******************************************************************************
  72:.\Generated_Source\PSoC4/CyLFClk.c **** * Function Name: CySysClkIloStop
  73:.\Generated_Source\PSoC4/CyLFClk.c **** ********************************************************************************
  74:.\Generated_Source\PSoC4/CyLFClk.c **** *
  75:.\Generated_Source\PSoC4/CyLFClk.c **** * Summary:
  76:.\Generated_Source\PSoC4/CyLFClk.c **** *  Disables ILO.
  77:.\Generated_Source\PSoC4/CyLFClk.c **** *
  78:.\Generated_Source\PSoC4/CyLFClk.c **** * Parameters:
  79:.\Generated_Source\PSoC4/CyLFClk.c **** *  None.
  80:.\Generated_Source\PSoC4/CyLFClk.c **** *
  81:.\Generated_Source\PSoC4/CyLFClk.c **** * Return:
ARM GAS  C:\Users\kylep\AppData\Local\Temp\ccxh0xLd.s 			page 4


  82:.\Generated_Source\PSoC4/CyLFClk.c **** *  None.
  83:.\Generated_Source\PSoC4/CyLFClk.c **** *
  84:.\Generated_Source\PSoC4/CyLFClk.c **** * Side Effects:
  85:.\Generated_Source\PSoC4/CyLFClk.c **** *  This function has no effect if WDT is locked (CySysWdtLock() is
  86:.\Generated_Source\PSoC4/CyLFClk.c **** *  called). Call CySysWdtUnlock() to unlock WDT and stop ILO.
  87:.\Generated_Source\PSoC4/CyLFClk.c **** *
  88:.\Generated_Source\PSoC4/CyLFClk.c **** *  PSoC 4100 / PSoC 4200: Note that ILO is required for WDT's operation.
  89:.\Generated_Source\PSoC4/CyLFClk.c **** *  ILO is required for WDT operation.
  90:.\Generated_Source\PSoC4/CyLFClk.c **** *
  91:.\Generated_Source\PSoC4/CyLFClk.c **** *  PSoC 4100-BL / PSoC 4200-BL and PSoC 4100M / PSoC 4200M:
  92:.\Generated_Source\PSoC4/CyLFClk.c **** *  Stopping ILO affects the peripheral clocked by LFCLK, if
  93:.\Generated_Source\PSoC4/CyLFClk.c **** *  LFCLK is configured to be sourced by ILO.
  94:.\Generated_Source\PSoC4/CyLFClk.c **** *
  95:.\Generated_Source\PSoC4/CyLFClk.c **** *******************************************************************************/
  96:.\Generated_Source\PSoC4/CyLFClk.c **** void CySysClkIloStop(void)
  97:.\Generated_Source\PSoC4/CyLFClk.c **** {
  89              		.loc 1 97 0
  90              		.cfi_startproc
  91 0000 90B5     		push	{r4, r7, lr}
  92              		.cfi_def_cfa_offset 12
  93              		.cfi_offset 4, -12
  94              		.cfi_offset 7, -8
  95              		.cfi_offset 14, -4
  96 0002 83B0     		sub	sp, sp, #12
  97              		.cfi_def_cfa_offset 24
  98 0004 00AF     		add	r7, sp, #0
  99              		.cfi_def_cfa_register 7
  98:.\Generated_Source\PSoC4/CyLFClk.c ****     #if(CY_IP_SRSSV2)
  99:.\Generated_Source\PSoC4/CyLFClk.c ****         uint8  interruptState;
 100:.\Generated_Source\PSoC4/CyLFClk.c **** 
 101:.\Generated_Source\PSoC4/CyLFClk.c ****         /* Do nothing if WDT is locked or ILO is disabled */
 102:.\Generated_Source\PSoC4/CyLFClk.c ****         if (0u == CySysWdtLocked())
 100              		.loc 1 102 0
 101 0006 FFF7FEFF 		bl	CySysWdtLocked
 102 000a 031E     		sub	r3, r0, #0
 103 000c 17D1     		bne	.L4
 103:.\Generated_Source\PSoC4/CyLFClk.c ****         {
 104:.\Generated_Source\PSoC4/CyLFClk.c ****             if (0u != CySysClkIloEnabled())
 104              		.loc 1 104 0
 105 000e FFF7FEFF 		bl	CySysClkIloEnabled
 106 0012 031E     		sub	r3, r0, #0
 107 0014 13D0     		beq	.L4
 105:.\Generated_Source\PSoC4/CyLFClk.c ****             {
 106:.\Generated_Source\PSoC4/CyLFClk.c **** 
 107:.\Generated_Source\PSoC4/CyLFClk.c ****             #if (CY_IP_WCO)
 108:.\Generated_Source\PSoC4/CyLFClk.c ****                 if (CY_SYS_CLK_LFCLK_SRC_ILO == CySysClkGetLfclkSource())
 109:.\Generated_Source\PSoC4/CyLFClk.c ****                 {
 110:.\Generated_Source\PSoC4/CyLFClk.c ****             #endif /* (CY_IP_WCO) */
 111:.\Generated_Source\PSoC4/CyLFClk.c **** 
 112:.\Generated_Source\PSoC4/CyLFClk.c ****                 interruptState = CyEnterCriticalSection();
 108              		.loc 1 112 0
 109 0016 FC1D     		add	r4, r7, #7
 110 0018 FFF7FEFF 		bl	CyEnterCriticalSection
 111 001c 031C     		mov	r3, r0
 112 001e 2370     		strb	r3, [r4]
 113:.\Generated_Source\PSoC4/CyLFClk.c ****                 CySysClkLfclkPosedgeCatch();
 113              		.loc 1 113 0
ARM GAS  C:\Users\kylep\AppData\Local\Temp\ccxh0xLd.s 			page 5


 114 0020 FFF7FEFF 		bl	CySysClkLfclkPosedgeCatch
 114:.\Generated_Source\PSoC4/CyLFClk.c ****                 CY_SYS_CLK_ILO_CONFIG_REG &= ( uint32 ) ( ~( uint32 )CY_SYS_CLK_ILO_CONFIG_ENABLE);
 115              		.loc 1 114 0
 116 0024 074B     		ldr	r3, .L6
 117 0026 074A     		ldr	r2, .L6
 118 0028 1268     		ldr	r2, [r2]
 119 002a 5200     		lsl	r2, r2, #1
 120 002c 5208     		lsr	r2, r2, #1
 121 002e 1A60     		str	r2, [r3]
 115:.\Generated_Source\PSoC4/CyLFClk.c ****                 CySysClkLfclkPosedgeRestore();
 122              		.loc 1 115 0
 123 0030 FFF7FEFF 		bl	CySysClkLfclkPosedgeRestore
 116:.\Generated_Source\PSoC4/CyLFClk.c ****                 CyExitCriticalSection(interruptState);
 124              		.loc 1 116 0
 125 0034 FB1D     		add	r3, r7, #7
 126 0036 1B78     		ldrb	r3, [r3]
 127 0038 181C     		mov	r0, r3
 128 003a FFF7FEFF 		bl	CyExitCriticalSection
 129              	.L4:
 117:.\Generated_Source\PSoC4/CyLFClk.c **** 
 118:.\Generated_Source\PSoC4/CyLFClk.c ****             #if (CY_IP_WCO)
 119:.\Generated_Source\PSoC4/CyLFClk.c ****                 }
 120:.\Generated_Source\PSoC4/CyLFClk.c ****                 else /* Safe to disable - shortened pulse does not impact peripheral */
 121:.\Generated_Source\PSoC4/CyLFClk.c ****                 {
 122:.\Generated_Source\PSoC4/CyLFClk.c ****                     CY_SYS_CLK_ILO_CONFIG_REG &= ( uint32 ) ( ~( uint32 )CY_SYS_CLK_ILO_CONFIG_ENAB
 123:.\Generated_Source\PSoC4/CyLFClk.c ****                 }
 124:.\Generated_Source\PSoC4/CyLFClk.c ****             #endif /* (CY_IP_WCO) */
 125:.\Generated_Source\PSoC4/CyLFClk.c **** 
 126:.\Generated_Source\PSoC4/CyLFClk.c ****             }
 127:.\Generated_Source\PSoC4/CyLFClk.c ****         }
 128:.\Generated_Source\PSoC4/CyLFClk.c ****     #else
 129:.\Generated_Source\PSoC4/CyLFClk.c ****         CY_SYS_CLK_ILO_CONFIG_REG &= ( uint32 ) ( ~( uint32 )CY_SYS_CLK_ILO_CONFIG_ENABLE);
 130:.\Generated_Source\PSoC4/CyLFClk.c ****     #endif /* (CY_IP_SRSSV2) */
 131:.\Generated_Source\PSoC4/CyLFClk.c **** }
 130              		.loc 1 131 0
 131 003e BD46     		mov	sp, r7
 132 0040 03B0     		add	sp, sp, #12
 133              		@ sp needed
 134 0042 90BD     		pop	{r4, r7, pc}
 135              	.L7:
 136              		.align	2
 137              	.L6:
 138 0044 04010B40 		.word	1074462980
 139              		.cfi_endproc
 140              	.LFE1:
 141              		.size	CySysClkIloStop, .-CySysClkIloStop
 142              		.section	.text.CySysClkIloEnabled,"ax",%progbits
 143              		.align	2
 144              		.code	16
 145              		.thumb_func
 146              		.type	CySysClkIloEnabled, %function
 147              	CySysClkIloEnabled:
 148              	.LFB2:
 132:.\Generated_Source\PSoC4/CyLFClk.c **** 
 133:.\Generated_Source\PSoC4/CyLFClk.c **** #if(CY_IP_SRSSV2)
 134:.\Generated_Source\PSoC4/CyLFClk.c ****     /*******************************************************************************
 135:.\Generated_Source\PSoC4/CyLFClk.c ****     * Function Name: CySysClkIloEnabled
ARM GAS  C:\Users\kylep\AppData\Local\Temp\ccxh0xLd.s 			page 6


 136:.\Generated_Source\PSoC4/CyLFClk.c ****     ********************************************************************************
 137:.\Generated_Source\PSoC4/CyLFClk.c ****     *
 138:.\Generated_Source\PSoC4/CyLFClk.c ****     * Summary:
 139:.\Generated_Source\PSoC4/CyLFClk.c ****     *  Reports the ILO enable state.
 140:.\Generated_Source\PSoC4/CyLFClk.c ****     *
 141:.\Generated_Source\PSoC4/CyLFClk.c ****     * Parameters:
 142:.\Generated_Source\PSoC4/CyLFClk.c ****     *  None.
 143:.\Generated_Source\PSoC4/CyLFClk.c ****     *
 144:.\Generated_Source\PSoC4/CyLFClk.c ****     * Return:
 145:.\Generated_Source\PSoC4/CyLFClk.c ****     *  1 if ILO is enabled, and 0 if ILO is disabled.
 146:.\Generated_Source\PSoC4/CyLFClk.c ****     *
 147:.\Generated_Source\PSoC4/CyLFClk.c ****     *******************************************************************************/
 148:.\Generated_Source\PSoC4/CyLFClk.c ****     static uint32 CySysClkIloEnabled(void)
 149:.\Generated_Source\PSoC4/CyLFClk.c ****     {
 149              		.loc 1 149 0
 150              		.cfi_startproc
 151 0000 80B5     		push	{r7, lr}
 152              		.cfi_def_cfa_offset 8
 153              		.cfi_offset 7, -8
 154              		.cfi_offset 14, -4
 155 0002 00AF     		add	r7, sp, #0
 156              		.cfi_def_cfa_register 7
 150:.\Generated_Source\PSoC4/CyLFClk.c ****         /* Prohibits writing to WDT registers and ILO/WCO registers when not equal to 0 */
 151:.\Generated_Source\PSoC4/CyLFClk.c ****         return ((0u != (CY_SYS_CLK_ILO_CONFIG_REG & (uint32)(CY_SYS_CLK_ILO_CONFIG_ENABLE))) ?
 157              		.loc 1 151 0
 158 0004 044B     		ldr	r3, .L12
 159 0006 1B68     		ldr	r3, [r3]
 152:.\Generated_Source\PSoC4/CyLFClk.c ****             (uint32) 1u :
 160              		.loc 1 152 0
 161 0008 002B     		cmp	r3, #0
 162 000a 01DA     		bge	.L9
 163              		.loc 1 152 0 is_stmt 0 discriminator 1
 164 000c 0123     		mov	r3, #1
 165 000e 00E0     		b	.L10
 166              	.L9:
 167              		.loc 1 152 0 discriminator 2
 168 0010 0023     		mov	r3, #0
 169              	.L10:
 153:.\Generated_Source\PSoC4/CyLFClk.c ****             (uint32) 0u);
 154:.\Generated_Source\PSoC4/CyLFClk.c ****     }
 170              		.loc 1 154 0 is_stmt 1
 171 0012 181C     		mov	r0, r3
 172 0014 BD46     		mov	sp, r7
 173              		@ sp needed
 174 0016 80BD     		pop	{r7, pc}
 175              	.L13:
 176              		.align	2
 177              	.L12:
 178 0018 04010B40 		.word	1074462980
 179              		.cfi_endproc
 180              	.LFE2:
 181              		.size	CySysClkIloEnabled, .-CySysClkIloEnabled
 182              		.section	.text.CySysWdtLock,"ax",%progbits
 183              		.align	2
 184              		.global	CySysWdtLock
 185              		.code	16
 186              		.thumb_func
ARM GAS  C:\Users\kylep\AppData\Local\Temp\ccxh0xLd.s 			page 7


 187              		.type	CySysWdtLock, %function
 188              	CySysWdtLock:
 189              	.LFB3:
 155:.\Generated_Source\PSoC4/CyLFClk.c **** #endif /* (CY_IP_SRSSV2) */
 156:.\Generated_Source\PSoC4/CyLFClk.c **** 
 157:.\Generated_Source\PSoC4/CyLFClk.c **** 
 158:.\Generated_Source\PSoC4/CyLFClk.c **** /*******************************************************************************
 159:.\Generated_Source\PSoC4/CyLFClk.c **** * Function Name: CySysClkGetLfclkSource
 160:.\Generated_Source\PSoC4/CyLFClk.c **** ********************************************************************************
 161:.\Generated_Source\PSoC4/CyLFClk.c **** *
 162:.\Generated_Source\PSoC4/CyLFClk.c **** * Summary:
 163:.\Generated_Source\PSoC4/CyLFClk.c **** *  Gets the clock source for the LFCLK clock.
 164:.\Generated_Source\PSoC4/CyLFClk.c **** *  The function is applicable only for PSoC 4100-BL and PSoC 4200-BL.
 165:.\Generated_Source\PSoC4/CyLFClk.c **** *
 166:.\Generated_Source\PSoC4/CyLFClk.c **** * Parameters:
 167:.\Generated_Source\PSoC4/CyLFClk.c **** *  None.
 168:.\Generated_Source\PSoC4/CyLFClk.c **** *
 169:.\Generated_Source\PSoC4/CyLFClk.c **** * Return:
 170:.\Generated_Source\PSoC4/CyLFClk.c **** *  The LFCLK source:
 171:.\Generated_Source\PSoC4/CyLFClk.c **** *   CY_SYS_CLK_LFCLK_SRC_ILO    Internal Low Frequency (32 kHz) Oscillator (ILO)
 172:.\Generated_Source\PSoC4/CyLFClk.c **** *   CY_SYS_CLK_LFCLK_SRC_WCO    Low Frequency Watch Crystal Oscillator (WCO)
 173:.\Generated_Source\PSoC4/CyLFClk.c **** *
 174:.\Generated_Source\PSoC4/CyLFClk.c **** *******************************************************************************/
 175:.\Generated_Source\PSoC4/CyLFClk.c **** #if (CY_IP_WCO)
 176:.\Generated_Source\PSoC4/CyLFClk.c ****     static uint32 CySysClkGetLfclkSource(void)
 177:.\Generated_Source\PSoC4/CyLFClk.c ****     {
 178:.\Generated_Source\PSoC4/CyLFClk.c ****         uint32 lfclkSource;
 179:.\Generated_Source\PSoC4/CyLFClk.c ****         lfclkSource = CY_SYS_WDT_CONFIG_REG & CY_SYS_CLK_LFCLK_SEL_MASK;
 180:.\Generated_Source\PSoC4/CyLFClk.c ****         return (lfclkSource);
 181:.\Generated_Source\PSoC4/CyLFClk.c ****     }
 182:.\Generated_Source\PSoC4/CyLFClk.c **** #endif /* (CY_IP_WCO) */
 183:.\Generated_Source\PSoC4/CyLFClk.c **** 
 184:.\Generated_Source\PSoC4/CyLFClk.c **** 
 185:.\Generated_Source\PSoC4/CyLFClk.c **** /*******************************************************************************
 186:.\Generated_Source\PSoC4/CyLFClk.c **** * Function Name: CySysClkSetLfclkSource
 187:.\Generated_Source\PSoC4/CyLFClk.c **** ********************************************************************************
 188:.\Generated_Source\PSoC4/CyLFClk.c **** *
 189:.\Generated_Source\PSoC4/CyLFClk.c **** * Summary:
 190:.\Generated_Source\PSoC4/CyLFClk.c **** *  Sets the clock source for the LFCLK clock.
 191:.\Generated_Source\PSoC4/CyLFClk.c **** *
 192:.\Generated_Source\PSoC4/CyLFClk.c **** *  The switch between LFCLK sources must be done between the positive edges of
 193:.\Generated_Source\PSoC4/CyLFClk.c **** *  LFCLK, because the glitch risk is around the LFCLK positive edge. To ensure
 194:.\Generated_Source\PSoC4/CyLFClk.c **** *  that the switch can be done safely, the WDT counter value is read until it
 195:.\Generated_Source\PSoC4/CyLFClk.c **** *  changes.
 196:.\Generated_Source\PSoC4/CyLFClk.c **** *
 197:.\Generated_Source\PSoC4/CyLFClk.c **** *  That means that the positive edge just finished and the switch is performed.
 198:.\Generated_Source\PSoC4/CyLFClk.c **** *  The enabled WDT counter is used for that purpose. If no counters are enabled,
 199:.\Generated_Source\PSoC4/CyLFClk.c **** *  counter 0 is enabled. And after the LFCLK source is switched, counter 0
 200:.\Generated_Source\PSoC4/CyLFClk.c **** *  configuration is restored.
 201:.\Generated_Source\PSoC4/CyLFClk.c **** *
 202:.\Generated_Source\PSoC4/CyLFClk.c **** *  The function is applicable only for PSoC 4100-BL and PSoC 4200-BL.
 203:.\Generated_Source\PSoC4/CyLFClk.c **** *
 204:.\Generated_Source\PSoC4/CyLFClk.c **** * Parameters:
 205:.\Generated_Source\PSoC4/CyLFClk.c **** *  source: One of the available LFCLK sources.
 206:.\Generated_Source\PSoC4/CyLFClk.c **** *   CY_SYS_CLK_LFCLK_SRC_ILO    Internal Low Frequency (32 kHz) Oscillator (ILO)
 207:.\Generated_Source\PSoC4/CyLFClk.c **** *   CY_SYS_CLK_LFCLK_SRC_WCO    Low Frequency Watch Crystal Oscillator (WCO)
 208:.\Generated_Source\PSoC4/CyLFClk.c **** *
ARM GAS  C:\Users\kylep\AppData\Local\Temp\ccxh0xLd.s 			page 8


 209:.\Generated_Source\PSoC4/CyLFClk.c **** * Return:
 210:.\Generated_Source\PSoC4/CyLFClk.c **** *  None
 211:.\Generated_Source\PSoC4/CyLFClk.c **** *
 212:.\Generated_Source\PSoC4/CyLFClk.c **** * Side Effects:
 213:.\Generated_Source\PSoC4/CyLFClk.c **** *  This function has no effect if WDT is locked (CySysWdtLock() is
 214:.\Generated_Source\PSoC4/CyLFClk.c **** *  called). Call CySysWdtUnlock() to unlock WDT.
 215:.\Generated_Source\PSoC4/CyLFClk.c **** *
 216:.\Generated_Source\PSoC4/CyLFClk.c **** *  Both the current source and the new source must be running and stable before
 217:.\Generated_Source\PSoC4/CyLFClk.c **** *  calling this function.
 218:.\Generated_Source\PSoC4/CyLFClk.c **** *
 219:.\Generated_Source\PSoC4/CyLFClk.c **** *  Changing the LFCLK clock source may change the LFCLK clock frequency and
 220:.\Generated_Source\PSoC4/CyLFClk.c **** *  affect the functionality that uses this clock. For example, watchdog timer
 221:.\Generated_Source\PSoC4/CyLFClk.c **** *  "uses this clock" or "this clock uses" (WDT) is clocked by LFCLK.
 222:.\Generated_Source\PSoC4/CyLFClk.c **** *
 223:.\Generated_Source\PSoC4/CyLFClk.c **** *******************************************************************************/
 224:.\Generated_Source\PSoC4/CyLFClk.c **** #if (CY_IP_WCO)
 225:.\Generated_Source\PSoC4/CyLFClk.c ****     void CySysClkSetLfclkSource(uint32 source)
 226:.\Generated_Source\PSoC4/CyLFClk.c ****     {
 227:.\Generated_Source\PSoC4/CyLFClk.c ****         uint8  interruptState;
 228:.\Generated_Source\PSoC4/CyLFClk.c **** 
 229:.\Generated_Source\PSoC4/CyLFClk.c ****         if (CySysClkGetLfclkSource() != source)
 230:.\Generated_Source\PSoC4/CyLFClk.c ****         {
 231:.\Generated_Source\PSoC4/CyLFClk.c ****             interruptState = CyEnterCriticalSection();
 232:.\Generated_Source\PSoC4/CyLFClk.c **** 
 233:.\Generated_Source\PSoC4/CyLFClk.c ****             CySysClkLfclkPosedgeCatch();
 234:.\Generated_Source\PSoC4/CyLFClk.c **** 
 235:.\Generated_Source\PSoC4/CyLFClk.c ****             CY_SYS_WDT_CONFIG_REG = (CY_SYS_WDT_CONFIG_REG & (uint32)(~CY_SYS_CLK_LFCLK_SEL_MASK)) 
 236:.\Generated_Source\PSoC4/CyLFClk.c ****                                     (source & CY_SYS_CLK_LFCLK_SEL_MASK);
 237:.\Generated_Source\PSoC4/CyLFClk.c **** 
 238:.\Generated_Source\PSoC4/CyLFClk.c ****             CySysClkLfclkPosedgeRestore();
 239:.\Generated_Source\PSoC4/CyLFClk.c **** 
 240:.\Generated_Source\PSoC4/CyLFClk.c ****             CyExitCriticalSection(interruptState);
 241:.\Generated_Source\PSoC4/CyLFClk.c ****         }
 242:.\Generated_Source\PSoC4/CyLFClk.c ****     }
 243:.\Generated_Source\PSoC4/CyLFClk.c **** #endif /* (CY_IP_WCO) */
 244:.\Generated_Source\PSoC4/CyLFClk.c **** 
 245:.\Generated_Source\PSoC4/CyLFClk.c **** 
 246:.\Generated_Source\PSoC4/CyLFClk.c **** #if (CY_IP_WCO)
 247:.\Generated_Source\PSoC4/CyLFClk.c ****     /*******************************************************************************
 248:.\Generated_Source\PSoC4/CyLFClk.c ****     * Function Name: CySysClkWcoStart
 249:.\Generated_Source\PSoC4/CyLFClk.c ****     ********************************************************************************
 250:.\Generated_Source\PSoC4/CyLFClk.c ****     *
 251:.\Generated_Source\PSoC4/CyLFClk.c ****     * Summary:
 252:.\Generated_Source\PSoC4/CyLFClk.c ****     *  Enables Watch Crystal Oscillator (WCO). WCO is used as a source for
 253:.\Generated_Source\PSoC4/CyLFClk.c ****     *  LFCLK.  Similar to ILO, WCO is also available in all modes except Hibernate
 254:.\Generated_Source\PSoC4/CyLFClk.c ****     *  and Stop modes.
 255:.\Generated_Source\PSoC4/CyLFClk.c ****     *
 256:.\Generated_Source\PSoC4/CyLFClk.c ****     *  WCO is always enabled in High Power Mode (HPM). Refer to the device
 257:.\Generated_Source\PSoC4/CyLFClk.c ****     *  datasheet for the  WCO startup time. Once WCO becomes stable it can be
 258:.\Generated_Source\PSoC4/CyLFClk.c ****     *  switched to Low Power Mode (LPM). Note that oscillator can be unstable
 259:.\Generated_Source\PSoC4/CyLFClk.c ****     *  during a switch and hence its output should not be used at that moment.
 260:.\Generated_Source\PSoC4/CyLFClk.c ****     *
 261:.\Generated_Source\PSoC4/CyLFClk.c ****     *  The CySysClkWcoSetPowerMode() function configures the WCO power mode.
 262:.\Generated_Source\PSoC4/CyLFClk.c ****     *
 263:.\Generated_Source\PSoC4/CyLFClk.c ****     * Parameters:
 264:.\Generated_Source\PSoC4/CyLFClk.c ****     *  None.
 265:.\Generated_Source\PSoC4/CyLFClk.c ****     *
ARM GAS  C:\Users\kylep\AppData\Local\Temp\ccxh0xLd.s 			page 9


 266:.\Generated_Source\PSoC4/CyLFClk.c ****     * Return:
 267:.\Generated_Source\PSoC4/CyLFClk.c ****     *  None.
 268:.\Generated_Source\PSoC4/CyLFClk.c ****     *
 269:.\Generated_Source\PSoC4/CyLFClk.c ****     *******************************************************************************/
 270:.\Generated_Source\PSoC4/CyLFClk.c ****     void CySysClkWcoStart(void)
 271:.\Generated_Source\PSoC4/CyLFClk.c ****     {
 272:.\Generated_Source\PSoC4/CyLFClk.c ****         CySysClkWcoSetHighPowerMode();
 273:.\Generated_Source\PSoC4/CyLFClk.c ****         CY_SYS_CLK_WCO_CONFIG_REG |= CY_SYS_CLK_WCO_CONFIG_LPM_ENABLE;
 274:.\Generated_Source\PSoC4/CyLFClk.c ****     }
 275:.\Generated_Source\PSoC4/CyLFClk.c **** 
 276:.\Generated_Source\PSoC4/CyLFClk.c **** 
 277:.\Generated_Source\PSoC4/CyLFClk.c ****     /*******************************************************************************
 278:.\Generated_Source\PSoC4/CyLFClk.c ****     * Function Name: CySysClkWcoStop
 279:.\Generated_Source\PSoC4/CyLFClk.c ****     ********************************************************************************
 280:.\Generated_Source\PSoC4/CyLFClk.c ****     *
 281:.\Generated_Source\PSoC4/CyLFClk.c ****     * Summary:
 282:.\Generated_Source\PSoC4/CyLFClk.c ****     *  Disables the 32KHz Crystal Oscillator.
 283:.\Generated_Source\PSoC4/CyLFClk.c ****     *
 284:.\Generated_Source\PSoC4/CyLFClk.c ****     * Parameters:
 285:.\Generated_Source\PSoC4/CyLFClk.c ****     *  None.
 286:.\Generated_Source\PSoC4/CyLFClk.c ****     *
 287:.\Generated_Source\PSoC4/CyLFClk.c ****     * Return:
 288:.\Generated_Source\PSoC4/CyLFClk.c ****     *  None.
 289:.\Generated_Source\PSoC4/CyLFClk.c ****     *
 290:.\Generated_Source\PSoC4/CyLFClk.c ****     *******************************************************************************/
 291:.\Generated_Source\PSoC4/CyLFClk.c ****     void  CySysClkWcoStop(void)
 292:.\Generated_Source\PSoC4/CyLFClk.c ****     {
 293:.\Generated_Source\PSoC4/CyLFClk.c ****         uint8  interruptState;
 294:.\Generated_Source\PSoC4/CyLFClk.c **** 
 295:.\Generated_Source\PSoC4/CyLFClk.c ****         if (0u != CySysClkWcoEnabled())
 296:.\Generated_Source\PSoC4/CyLFClk.c ****         {
 297:.\Generated_Source\PSoC4/CyLFClk.c **** 
 298:.\Generated_Source\PSoC4/CyLFClk.c ****             if (CY_SYS_CLK_LFCLK_SRC_WCO == CySysClkGetLfclkSource())
 299:.\Generated_Source\PSoC4/CyLFClk.c ****             {
 300:.\Generated_Source\PSoC4/CyLFClk.c ****                 interruptState = CyEnterCriticalSection();
 301:.\Generated_Source\PSoC4/CyLFClk.c ****                 CySysClkLfclkPosedgeCatch();
 302:.\Generated_Source\PSoC4/CyLFClk.c ****                 CY_SYS_CLK_WCO_CONFIG_REG &= (uint32) ~CY_SYS_CLK_WCO_CONFIG_LPM_ENABLE;
 303:.\Generated_Source\PSoC4/CyLFClk.c ****                 CySysClkLfclkPosedgeRestore();
 304:.\Generated_Source\PSoC4/CyLFClk.c ****                 CyExitCriticalSection(interruptState);
 305:.\Generated_Source\PSoC4/CyLFClk.c ****             }
 306:.\Generated_Source\PSoC4/CyLFClk.c ****             else /* Safe to disable - shortened pulse does not impact peripheral */
 307:.\Generated_Source\PSoC4/CyLFClk.c ****             {
 308:.\Generated_Source\PSoC4/CyLFClk.c ****                 CY_SYS_CLK_WCO_CONFIG_REG &= (uint32) ~CY_SYS_CLK_WCO_CONFIG_LPM_ENABLE;
 309:.\Generated_Source\PSoC4/CyLFClk.c ****             }
 310:.\Generated_Source\PSoC4/CyLFClk.c ****         } /* Otherwise do nothing. WCO configuration cannot be changed. */
 311:.\Generated_Source\PSoC4/CyLFClk.c ****     }
 312:.\Generated_Source\PSoC4/CyLFClk.c **** 
 313:.\Generated_Source\PSoC4/CyLFClk.c **** 
 314:.\Generated_Source\PSoC4/CyLFClk.c ****     /*******************************************************************************
 315:.\Generated_Source\PSoC4/CyLFClk.c ****     * Function Name: CySysClkWcoEnabled
 316:.\Generated_Source\PSoC4/CyLFClk.c ****     ********************************************************************************
 317:.\Generated_Source\PSoC4/CyLFClk.c ****     *
 318:.\Generated_Source\PSoC4/CyLFClk.c ****     * Summary:
 319:.\Generated_Source\PSoC4/CyLFClk.c ****     *  Reports the WCO enable state.
 320:.\Generated_Source\PSoC4/CyLFClk.c ****     *
 321:.\Generated_Source\PSoC4/CyLFClk.c ****     * Parameters:
 322:.\Generated_Source\PSoC4/CyLFClk.c ****     *  None.
ARM GAS  C:\Users\kylep\AppData\Local\Temp\ccxh0xLd.s 			page 10


 323:.\Generated_Source\PSoC4/CyLFClk.c ****     *
 324:.\Generated_Source\PSoC4/CyLFClk.c ****     * Return:
 325:.\Generated_Source\PSoC4/CyLFClk.c ****     *  1 if WCO is enabled, and 0 if WCO is disabled.
 326:.\Generated_Source\PSoC4/CyLFClk.c ****     *
 327:.\Generated_Source\PSoC4/CyLFClk.c ****     *******************************************************************************/
 328:.\Generated_Source\PSoC4/CyLFClk.c ****     uint32 CySysClkWcoEnabled(void)
 329:.\Generated_Source\PSoC4/CyLFClk.c ****     {
 330:.\Generated_Source\PSoC4/CyLFClk.c ****         return ((0u != (CY_SYS_CLK_WCO_CONFIG_REG & (uint32)(CY_SYS_CLK_WCO_CONFIG_LPM_ENABLE))) ?
 331:.\Generated_Source\PSoC4/CyLFClk.c ****                 (uint32) 1u :
 332:.\Generated_Source\PSoC4/CyLFClk.c ****                 (uint32) 0u);
 333:.\Generated_Source\PSoC4/CyLFClk.c ****     }
 334:.\Generated_Source\PSoC4/CyLFClk.c **** 
 335:.\Generated_Source\PSoC4/CyLFClk.c **** 
 336:.\Generated_Source\PSoC4/CyLFClk.c ****     /*******************************************************************************
 337:.\Generated_Source\PSoC4/CyLFClk.c ****     * Function Name: CySysClkWcoSetPowerMode
 338:.\Generated_Source\PSoC4/CyLFClk.c ****     ********************************************************************************
 339:.\Generated_Source\PSoC4/CyLFClk.c ****     *
 340:.\Generated_Source\PSoC4/CyLFClk.c ****     * Summary:
 341:.\Generated_Source\PSoC4/CyLFClk.c ****     *  Sets the power mode for the 32 KHz WCO.
 342:.\Generated_Source\PSoC4/CyLFClk.c ****     *
 343:.\Generated_Source\PSoC4/CyLFClk.c ****     * Parameters:
 344:.\Generated_Source\PSoC4/CyLFClk.c ****     *  uint32 mode:
 345:.\Generated_Source\PSoC4/CyLFClk.c ****     *   CY_SYS_CLK_WCO_HPM  - The High Power mode
 346:.\Generated_Source\PSoC4/CyLFClk.c ****     *   CY_SYS_CLK_WCO_LPM  - The Low Power mode(not applicable for
 347:.\Generated_Source\PSoC4/CyLFClk.c ****     *                         PSoC 4100M / PSoC 4200M devices)
 348:.\Generated_Source\PSoC4/CyLFClk.c ****     *
 349:.\Generated_Source\PSoC4/CyLFClk.c ****     * Return:
 350:.\Generated_Source\PSoC4/CyLFClk.c ****     *  A previous power mode. The same as the parameters.
 351:.\Generated_Source\PSoC4/CyLFClk.c ****     *
 352:.\Generated_Source\PSoC4/CyLFClk.c ****     * Note:
 353:.\Generated_Source\PSoC4/CyLFClk.c ****     *  The WCO Low power mode is not applicable for the PSoC 4100M/PSoC 4200M
 354:.\Generated_Source\PSoC4/CyLFClk.c ****     *  devices.
 355:.\Generated_Source\PSoC4/CyLFClk.c ****     *
 356:.\Generated_Source\PSoC4/CyLFClk.c ****     *******************************************************************************/
 357:.\Generated_Source\PSoC4/CyLFClk.c ****     uint32 CySysClkWcoSetPowerMode(uint32 mode)
 358:.\Generated_Source\PSoC4/CyLFClk.c ****     {
 359:.\Generated_Source\PSoC4/CyLFClk.c ****         uint32 status;
 360:.\Generated_Source\PSoC4/CyLFClk.c **** 
 361:.\Generated_Source\PSoC4/CyLFClk.c ****         status = CY_SYS_CLK_WCO_CONFIG_REG & CY_SYS_CLK_WCO_CONFIG_LPM_EN;
 362:.\Generated_Source\PSoC4/CyLFClk.c **** 
 363:.\Generated_Source\PSoC4/CyLFClk.c ****         switch(mode)
 364:.\Generated_Source\PSoC4/CyLFClk.c ****         {
 365:.\Generated_Source\PSoC4/CyLFClk.c ****         case CY_SYS_CLK_WCO_HPM:
 366:.\Generated_Source\PSoC4/CyLFClk.c ****                 CySysClkWcoSetHighPowerMode();
 367:.\Generated_Source\PSoC4/CyLFClk.c ****             break;
 368:.\Generated_Source\PSoC4/CyLFClk.c **** 
 369:.\Generated_Source\PSoC4/CyLFClk.c ****         #if(!CY_PSOC4_4100M && !CY_PSOC4_4200M)
 370:.\Generated_Source\PSoC4/CyLFClk.c ****             case CY_SYS_CLK_WCO_LPM:
 371:.\Generated_Source\PSoC4/CyLFClk.c ****                     CySysClkWcoSetLowPowerMode();
 372:.\Generated_Source\PSoC4/CyLFClk.c ****                 break;
 373:.\Generated_Source\PSoC4/CyLFClk.c ****         #endif /* (!CY_PSOC4_4100M && !CY_PSOC4_4200M) */
 374:.\Generated_Source\PSoC4/CyLFClk.c **** 
 375:.\Generated_Source\PSoC4/CyLFClk.c ****         default:
 376:.\Generated_Source\PSoC4/CyLFClk.c ****             CYASSERT(0u != 0u);
 377:.\Generated_Source\PSoC4/CyLFClk.c ****             break;
 378:.\Generated_Source\PSoC4/CyLFClk.c ****         }
 379:.\Generated_Source\PSoC4/CyLFClk.c **** 
ARM GAS  C:\Users\kylep\AppData\Local\Temp\ccxh0xLd.s 			page 11


 380:.\Generated_Source\PSoC4/CyLFClk.c ****         return (status);
 381:.\Generated_Source\PSoC4/CyLFClk.c ****     }
 382:.\Generated_Source\PSoC4/CyLFClk.c **** 
 383:.\Generated_Source\PSoC4/CyLFClk.c **** #endif  /* (CY_IP_WCO) */
 384:.\Generated_Source\PSoC4/CyLFClk.c **** 
 385:.\Generated_Source\PSoC4/CyLFClk.c **** 
 386:.\Generated_Source\PSoC4/CyLFClk.c **** #if(CY_IP_SRSSV2)
 387:.\Generated_Source\PSoC4/CyLFClk.c **** 
 388:.\Generated_Source\PSoC4/CyLFClk.c **** 
 389:.\Generated_Source\PSoC4/CyLFClk.c ****     /*******************************************************************************
 390:.\Generated_Source\PSoC4/CyLFClk.c ****     * Function Name: CySysWdtLock
 391:.\Generated_Source\PSoC4/CyLFClk.c ****     ********************************************************************************
 392:.\Generated_Source\PSoC4/CyLFClk.c ****     *
 393:.\Generated_Source\PSoC4/CyLFClk.c ****     * Summary:
 394:.\Generated_Source\PSoC4/CyLFClk.c ****     *  Locks out configuration changes to the Watchdog timer registers and ILO
 395:.\Generated_Source\PSoC4/CyLFClk.c ****     *  configuration register.
 396:.\Generated_Source\PSoC4/CyLFClk.c ****     *
 397:.\Generated_Source\PSoC4/CyLFClk.c ****     * Parameters:
 398:.\Generated_Source\PSoC4/CyLFClk.c ****     *  None.
 399:.\Generated_Source\PSoC4/CyLFClk.c ****     *
 400:.\Generated_Source\PSoC4/CyLFClk.c ****     * Return:
 401:.\Generated_Source\PSoC4/CyLFClk.c ****     *  None.
 402:.\Generated_Source\PSoC4/CyLFClk.c ****     *
 403:.\Generated_Source\PSoC4/CyLFClk.c ****     * Side effects:
 404:.\Generated_Source\PSoC4/CyLFClk.c ****     *  After this function is called, ILO clock can't be disabled until
 405:.\Generated_Source\PSoC4/CyLFClk.c ****     *  CySysWdtUnlock() is called.
 406:.\Generated_Source\PSoC4/CyLFClk.c ****     *
 407:.\Generated_Source\PSoC4/CyLFClk.c ****     *******************************************************************************/
 408:.\Generated_Source\PSoC4/CyLFClk.c ****     void CySysWdtLock(void)
 409:.\Generated_Source\PSoC4/CyLFClk.c ****     {
 190              		.loc 1 409 0
 191              		.cfi_startproc
 192 0000 90B5     		push	{r4, r7, lr}
 193              		.cfi_def_cfa_offset 12
 194              		.cfi_offset 4, -12
 195              		.cfi_offset 7, -8
 196              		.cfi_offset 14, -4
 197 0002 83B0     		sub	sp, sp, #12
 198              		.cfi_def_cfa_offset 24
 199 0004 00AF     		add	r7, sp, #0
 200              		.cfi_def_cfa_register 7
 410:.\Generated_Source\PSoC4/CyLFClk.c ****         uint8 interruptState;
 411:.\Generated_Source\PSoC4/CyLFClk.c ****         interruptState = CyEnterCriticalSection();
 201              		.loc 1 411 0
 202 0006 FC1D     		add	r4, r7, #7
 203 0008 FFF7FEFF 		bl	CyEnterCriticalSection
 204 000c 031C     		mov	r3, r0
 205 000e 2370     		strb	r3, [r4]
 412:.\Generated_Source\PSoC4/CyLFClk.c **** 
 413:.\Generated_Source\PSoC4/CyLFClk.c ****         CY_SYS_CLK_SELECT_REG = (CY_SYS_CLK_SELECT_REG & (uint32)(~CY_SYS_WDT_CLK_LOCK_BITS_MASK)) 
 206              		.loc 1 413 0
 207 0010 074B     		ldr	r3, .L15
 208 0012 074A     		ldr	r2, .L15
 209 0014 1268     		ldr	r2, [r2]
 210 0016 C021     		mov	r1, #192
 211 0018 0902     		lsl	r1, r1, #8
 212 001a 0A43     		orr	r2, r1
ARM GAS  C:\Users\kylep\AppData\Local\Temp\ccxh0xLd.s 			page 12


 213 001c 1A60     		str	r2, [r3]
 414:.\Generated_Source\PSoC4/CyLFClk.c ****                  CY_SYS_WDT_CLK_LOCK_BITS_MASK;
 415:.\Generated_Source\PSoC4/CyLFClk.c **** 
 416:.\Generated_Source\PSoC4/CyLFClk.c ****         CyExitCriticalSection(interruptState);
 214              		.loc 1 416 0
 215 001e FB1D     		add	r3, r7, #7
 216 0020 1B78     		ldrb	r3, [r3]
 217 0022 181C     		mov	r0, r3
 218 0024 FFF7FEFF 		bl	CyExitCriticalSection
 417:.\Generated_Source\PSoC4/CyLFClk.c ****     }
 219              		.loc 1 417 0
 220 0028 BD46     		mov	sp, r7
 221 002a 03B0     		add	sp, sp, #12
 222              		@ sp needed
 223 002c 90BD     		pop	{r4, r7, pc}
 224              	.L16:
 225 002e C046     		.align	2
 226              	.L15:
 227 0030 00010B40 		.word	1074462976
 228              		.cfi_endproc
 229              	.LFE3:
 230              		.size	CySysWdtLock, .-CySysWdtLock
 231              		.section	.text.CySysWdtLocked,"ax",%progbits
 232              		.align	2
 233              		.code	16
 234              		.thumb_func
 235              		.type	CySysWdtLocked, %function
 236              	CySysWdtLocked:
 237              	.LFB4:
 418:.\Generated_Source\PSoC4/CyLFClk.c **** 
 419:.\Generated_Source\PSoC4/CyLFClk.c **** 
 420:.\Generated_Source\PSoC4/CyLFClk.c ****     /*******************************************************************************
 421:.\Generated_Source\PSoC4/CyLFClk.c ****     * Function Name: CySysWdtLocked
 422:.\Generated_Source\PSoC4/CyLFClk.c ****     ********************************************************************************
 423:.\Generated_Source\PSoC4/CyLFClk.c ****     *
 424:.\Generated_Source\PSoC4/CyLFClk.c ****     * Summary:
 425:.\Generated_Source\PSoC4/CyLFClk.c ****     *  Reports the WDT lock state.
 426:.\Generated_Source\PSoC4/CyLFClk.c ****     *
 427:.\Generated_Source\PSoC4/CyLFClk.c ****     * Parameters:
 428:.\Generated_Source\PSoC4/CyLFClk.c ****     *  None
 429:.\Generated_Source\PSoC4/CyLFClk.c ****     *
 430:.\Generated_Source\PSoC4/CyLFClk.c ****     * Return:
 431:.\Generated_Source\PSoC4/CyLFClk.c ****     *  1 - WDT is locked, and 0 - WDT is unlocked.
 432:.\Generated_Source\PSoC4/CyLFClk.c ****     *
 433:.\Generated_Source\PSoC4/CyLFClk.c ****     *******************************************************************************/
 434:.\Generated_Source\PSoC4/CyLFClk.c ****     static uint32 CySysWdtLocked(void)
 435:.\Generated_Source\PSoC4/CyLFClk.c ****     {
 238              		.loc 1 435 0
 239              		.cfi_startproc
 240 0000 80B5     		push	{r7, lr}
 241              		.cfi_def_cfa_offset 8
 242              		.cfi_offset 7, -8
 243              		.cfi_offset 14, -4
 244 0002 00AF     		add	r7, sp, #0
 245              		.cfi_def_cfa_register 7
 436:.\Generated_Source\PSoC4/CyLFClk.c ****         /* Prohibits writing to WDT registers and ILO/WCO registers when not equal 0 */
 437:.\Generated_Source\PSoC4/CyLFClk.c ****         return ((0u != (CY_SYS_CLK_SELECT_REG & (uint32)(CY_SYS_WDT_CLK_LOCK_BITS_MASK))) ? (uint32
ARM GAS  C:\Users\kylep\AppData\Local\Temp\ccxh0xLd.s 			page 13


 246              		.loc 1 437 0
 247 0004 054B     		ldr	r3, .L21
 248 0006 1A68     		ldr	r2, [r3]
 249 0008 C023     		mov	r3, #192
 250 000a 1B02     		lsl	r3, r3, #8
 251 000c 1340     		and	r3, r2
 252 000e 01D0     		beq	.L18
 253              		.loc 1 437 0 is_stmt 0 discriminator 1
 254 0010 0123     		mov	r3, #1
 255 0012 00E0     		b	.L19
 256              	.L18:
 257              		.loc 1 437 0 discriminator 2
 258 0014 0023     		mov	r3, #0
 259              	.L19:
 438:.\Generated_Source\PSoC4/CyLFClk.c ****     }
 260              		.loc 1 438 0 is_stmt 1 discriminator 4
 261 0016 181C     		mov	r0, r3
 262 0018 BD46     		mov	sp, r7
 263              		@ sp needed
 264 001a 80BD     		pop	{r7, pc}
 265              	.L22:
 266              		.align	2
 267              	.L21:
 268 001c 00010B40 		.word	1074462976
 269              		.cfi_endproc
 270              	.LFE4:
 271              		.size	CySysWdtLocked, .-CySysWdtLocked
 272              		.section	.text.CySysWdtUnlock,"ax",%progbits
 273              		.align	2
 274              		.global	CySysWdtUnlock
 275              		.code	16
 276              		.thumb_func
 277              		.type	CySysWdtUnlock, %function
 278              	CySysWdtUnlock:
 279              	.LFB5:
 439:.\Generated_Source\PSoC4/CyLFClk.c **** 
 440:.\Generated_Source\PSoC4/CyLFClk.c **** 
 441:.\Generated_Source\PSoC4/CyLFClk.c ****     /*******************************************************************************
 442:.\Generated_Source\PSoC4/CyLFClk.c ****     * Function Name: CySysWdtUnlock
 443:.\Generated_Source\PSoC4/CyLFClk.c ****     ********************************************************************************
 444:.\Generated_Source\PSoC4/CyLFClk.c ****     *
 445:.\Generated_Source\PSoC4/CyLFClk.c ****     * Summary:
 446:.\Generated_Source\PSoC4/CyLFClk.c ****     *  Unlocks the Watchdog Timer configuration register.
 447:.\Generated_Source\PSoC4/CyLFClk.c ****     *
 448:.\Generated_Source\PSoC4/CyLFClk.c ****     * Parameters:
 449:.\Generated_Source\PSoC4/CyLFClk.c ****     *  None.
 450:.\Generated_Source\PSoC4/CyLFClk.c ****     *
 451:.\Generated_Source\PSoC4/CyLFClk.c ****     * Return:
 452:.\Generated_Source\PSoC4/CyLFClk.c ****     *  None.
 453:.\Generated_Source\PSoC4/CyLFClk.c ****     *
 454:.\Generated_Source\PSoC4/CyLFClk.c ****     *******************************************************************************/
 455:.\Generated_Source\PSoC4/CyLFClk.c ****     void CySysWdtUnlock(void)
 456:.\Generated_Source\PSoC4/CyLFClk.c ****     {
 280              		.loc 1 456 0
 281              		.cfi_startproc
 282 0000 90B5     		push	{r4, r7, lr}
 283              		.cfi_def_cfa_offset 12
ARM GAS  C:\Users\kylep\AppData\Local\Temp\ccxh0xLd.s 			page 14


 284              		.cfi_offset 4, -12
 285              		.cfi_offset 7, -8
 286              		.cfi_offset 14, -4
 287 0002 83B0     		sub	sp, sp, #12
 288              		.cfi_def_cfa_offset 24
 289 0004 00AF     		add	r7, sp, #0
 290              		.cfi_def_cfa_register 7
 457:.\Generated_Source\PSoC4/CyLFClk.c ****         uint8 interruptState;
 458:.\Generated_Source\PSoC4/CyLFClk.c ****         interruptState = CyEnterCriticalSection();
 291              		.loc 1 458 0
 292 0006 FC1D     		add	r4, r7, #7
 293 0008 FFF7FEFF 		bl	CyEnterCriticalSection
 294 000c 031C     		mov	r3, r0
 295 000e 2370     		strb	r3, [r4]
 459:.\Generated_Source\PSoC4/CyLFClk.c **** 
 460:.\Generated_Source\PSoC4/CyLFClk.c ****         /* Removing WDT lock requires two writes */
 461:.\Generated_Source\PSoC4/CyLFClk.c ****         CY_SYS_CLK_SELECT_REG = ((CY_SYS_CLK_SELECT_REG & (uint32)(~CY_SYS_WDT_CLK_LOCK_BITS_MASK))
 296              		.loc 1 461 0
 297 0010 0C4B     		ldr	r3, .L24
 298 0012 0C4A     		ldr	r2, .L24
 299 0014 1268     		ldr	r2, [r2]
 300 0016 0C49     		ldr	r1, .L24+4
 301 0018 0A40     		and	r2, r1
 302 001a 8021     		mov	r1, #128
 303 001c C901     		lsl	r1, r1, #7
 304 001e 0A43     		orr	r2, r1
 305 0020 1A60     		str	r2, [r3]
 462:.\Generated_Source\PSoC4/CyLFClk.c ****                 CY_SYS_WDT_CLK_LOCK_BIT0);
 463:.\Generated_Source\PSoC4/CyLFClk.c **** 
 464:.\Generated_Source\PSoC4/CyLFClk.c ****         CY_SYS_CLK_SELECT_REG = ((CY_SYS_CLK_SELECT_REG & (uint32)(~CY_SYS_WDT_CLK_LOCK_BITS_MASK))
 306              		.loc 1 464 0
 307 0022 084B     		ldr	r3, .L24
 308 0024 074A     		ldr	r2, .L24
 309 0026 1268     		ldr	r2, [r2]
 310 0028 0749     		ldr	r1, .L24+4
 311 002a 0A40     		and	r2, r1
 312 002c 8021     		mov	r1, #128
 313 002e 0902     		lsl	r1, r1, #8
 314 0030 0A43     		orr	r2, r1
 315 0032 1A60     		str	r2, [r3]
 465:.\Generated_Source\PSoC4/CyLFClk.c ****                 CY_SYS_WDT_CLK_LOCK_BIT1);
 466:.\Generated_Source\PSoC4/CyLFClk.c **** 
 467:.\Generated_Source\PSoC4/CyLFClk.c ****         CyExitCriticalSection(interruptState);
 316              		.loc 1 467 0
 317 0034 FB1D     		add	r3, r7, #7
 318 0036 1B78     		ldrb	r3, [r3]
 319 0038 181C     		mov	r0, r3
 320 003a FFF7FEFF 		bl	CyExitCriticalSection
 468:.\Generated_Source\PSoC4/CyLFClk.c ****     }
 321              		.loc 1 468 0
 322 003e BD46     		mov	sp, r7
 323 0040 03B0     		add	sp, sp, #12
 324              		@ sp needed
 325 0042 90BD     		pop	{r4, r7, pc}
 326              	.L25:
 327              		.align	2
 328              	.L24:
ARM GAS  C:\Users\kylep\AppData\Local\Temp\ccxh0xLd.s 			page 15


 329 0044 00010B40 		.word	1074462976
 330 0048 FF3FFFFF 		.word	-49153
 331              		.cfi_endproc
 332              	.LFE5:
 333              		.size	CySysWdtUnlock, .-CySysWdtUnlock
 334              		.section	.text.CySysWdtGetEnabledStatus,"ax",%progbits
 335              		.align	2
 336              		.global	CySysWdtGetEnabledStatus
 337              		.code	16
 338              		.thumb_func
 339              		.type	CySysWdtGetEnabledStatus, %function
 340              	CySysWdtGetEnabledStatus:
 341              	.LFB6:
 469:.\Generated_Source\PSoC4/CyLFClk.c **** 
 470:.\Generated_Source\PSoC4/CyLFClk.c **** 
 471:.\Generated_Source\PSoC4/CyLFClk.c ****     /*******************************************************************************
 472:.\Generated_Source\PSoC4/CyLFClk.c ****     * Function Name: CySysWdtGetEnabledStatus
 473:.\Generated_Source\PSoC4/CyLFClk.c ****     ********************************************************************************
 474:.\Generated_Source\PSoC4/CyLFClk.c ****     *
 475:.\Generated_Source\PSoC4/CyLFClk.c ****     * Summary:
 476:.\Generated_Source\PSoC4/CyLFClk.c ****     *  Reads the enabled status of one of the three WDT counters.
 477:.\Generated_Source\PSoC4/CyLFClk.c ****     *
 478:.\Generated_Source\PSoC4/CyLFClk.c ****     * Parameters:
 479:.\Generated_Source\PSoC4/CyLFClk.c ****     *  counterNum: Valid range [0-2].  the number of the WDT counter.
 480:.\Generated_Source\PSoC4/CyLFClk.c ****     *
 481:.\Generated_Source\PSoC4/CyLFClk.c ****     * Return:
 482:.\Generated_Source\PSoC4/CyLFClk.c ****     *  The status of the WDT counter:
 483:.\Generated_Source\PSoC4/CyLFClk.c ****     *   0 - The counter is disabled.
 484:.\Generated_Source\PSoC4/CyLFClk.c ****     *   1 - The counter is enabled.
 485:.\Generated_Source\PSoC4/CyLFClk.c ****     *
 486:.\Generated_Source\PSoC4/CyLFClk.c ****     * Side Effects:
 487:.\Generated_Source\PSoC4/CyLFClk.c ****     *  This function returns an actual WDT counter status from the status register. It may
 488:.\Generated_Source\PSoC4/CyLFClk.c ****     *  take up to 3 LFCLK cycles for the WDT status register to contain actual data
 489:.\Generated_Source\PSoC4/CyLFClk.c ****     *  after the WDT counter is enabled.
 490:.\Generated_Source\PSoC4/CyLFClk.c ****     *
 491:.\Generated_Source\PSoC4/CyLFClk.c ****     *
 492:.\Generated_Source\PSoC4/CyLFClk.c ****     *******************************************************************************/
 493:.\Generated_Source\PSoC4/CyLFClk.c ****     uint32 CySysWdtGetEnabledStatus(uint32 counterNum)
 494:.\Generated_Source\PSoC4/CyLFClk.c ****     {
 342              		.loc 1 494 0
 343              		.cfi_startproc
 344 0000 80B5     		push	{r7, lr}
 345              		.cfi_def_cfa_offset 8
 346              		.cfi_offset 7, -8
 347              		.cfi_offset 14, -4
 348 0002 82B0     		sub	sp, sp, #8
 349              		.cfi_def_cfa_offset 16
 350 0004 00AF     		add	r7, sp, #0
 351              		.cfi_def_cfa_register 7
 352 0006 7860     		str	r0, [r7, #4]
 495:.\Generated_Source\PSoC4/CyLFClk.c ****         CYASSERT(counterNum < CY_SYS_WDT_COUNTERS_MAX);
 496:.\Generated_Source\PSoC4/CyLFClk.c ****         return ((CY_SYS_WDT_CONTROL_REG >> ((CY_SYS_WDT_CNT_SHIFT * counterNum) + CY_SYS_WDT_CNT_ST
 353              		.loc 1 496 0
 354 0008 054B     		ldr	r3, .L28
 355 000a 1B68     		ldr	r3, [r3]
 356 000c 7A68     		ldr	r2, [r7, #4]
 357 000e D200     		lsl	r2, r2, #3
ARM GAS  C:\Users\kylep\AppData\Local\Temp\ccxh0xLd.s 			page 16


 358 0010 0132     		add	r2, r2, #1
 359 0012 D340     		lsr	r3, r3, r2
 360 0014 0122     		mov	r2, #1
 361 0016 1340     		and	r3, r2
 497:.\Generated_Source\PSoC4/CyLFClk.c ****     }
 362              		.loc 1 497 0
 363 0018 181C     		mov	r0, r3
 364 001a BD46     		mov	sp, r7
 365 001c 02B0     		add	sp, sp, #8
 366              		@ sp needed
 367 001e 80BD     		pop	{r7, pc}
 368              	.L29:
 369              		.align	2
 370              	.L28:
 371 0020 10020B40 		.word	1074463248
 372              		.cfi_endproc
 373              	.LFE6:
 374              		.size	CySysWdtGetEnabledStatus, .-CySysWdtGetEnabledStatus
 375              		.section	.text.CySysWdtSetMode,"ax",%progbits
 376              		.align	2
 377              		.global	CySysWdtSetMode
 378              		.code	16
 379              		.thumb_func
 380              		.type	CySysWdtSetMode, %function
 381              	CySysWdtSetMode:
 382              	.LFB7:
 498:.\Generated_Source\PSoC4/CyLFClk.c **** 
 499:.\Generated_Source\PSoC4/CyLFClk.c **** 
 500:.\Generated_Source\PSoC4/CyLFClk.c ****     /*******************************************************************************
 501:.\Generated_Source\PSoC4/CyLFClk.c ****     * Function Name: CySysWdtSetMode
 502:.\Generated_Source\PSoC4/CyLFClk.c ****     ********************************************************************************
 503:.\Generated_Source\PSoC4/CyLFClk.c ****     *
 504:.\Generated_Source\PSoC4/CyLFClk.c ****     * Summary:
 505:.\Generated_Source\PSoC4/CyLFClk.c ****     *   Writes the mode of one of the three WDT counters.
 506:.\Generated_Source\PSoC4/CyLFClk.c ****     *
 507:.\Generated_Source\PSoC4/CyLFClk.c ****     * Parameters:
 508:.\Generated_Source\PSoC4/CyLFClk.c ****     *   counterNum: Valid range [0-2].  The number of the WDT counter.
 509:.\Generated_Source\PSoC4/CyLFClk.c ****     *   mode:       Mode of operation for the counter.
 510:.\Generated_Source\PSoC4/CyLFClk.c ****     *       Define                     Mode
 511:.\Generated_Source\PSoC4/CyLFClk.c ****     *        CY_SYS_WDT_MODE_NONE       Free running
 512:.\Generated_Source\PSoC4/CyLFClk.c ****     *        CY_SYS_WDT_MODE_INT        The interrupt generated on match for counter 0
 513:.\Generated_Source\PSoC4/CyLFClk.c ****     *                                   and 1, and on bit toggle for counter 2.
 514:.\Generated_Source\PSoC4/CyLFClk.c ****     *        CY_SYS_WDT_MODE_RESET      Reset on match (valid for counter 0 and 1
 515:.\Generated_Source\PSoC4/CyLFClk.c ****     *                                   only)
 516:.\Generated_Source\PSoC4/CyLFClk.c ****     *        CY_SYS_WDT_MODE_INT_RESET  Generate an interrupt.  Generate a reset on
 517:.\Generated_Source\PSoC4/CyLFClk.c ****     *                                   the 3rd non-handled interrupt.
 518:.\Generated_Source\PSoC4/CyLFClk.c ****     *                                   (valid for counter 0 and 1 only)
 519:.\Generated_Source\PSoC4/CyLFClk.c ****     * Return:
 520:.\Generated_Source\PSoC4/CyLFClk.c ****     *   None.
 521:.\Generated_Source\PSoC4/CyLFClk.c ****     *
 522:.\Generated_Source\PSoC4/CyLFClk.c ****     * Side Effects:
 523:.\Generated_Source\PSoC4/CyLFClk.c ****     *   WDT counter counterNum should be disabled to set a mode. Otherwise, this
 524:.\Generated_Source\PSoC4/CyLFClk.c ****     *   function call has no effect. If the specified counter is enabled,
 525:.\Generated_Source\PSoC4/CyLFClk.c ****     *   call the CySysWdtDisable() function with the corresponding parameter to
 526:.\Generated_Source\PSoC4/CyLFClk.c ****     *   disable the specified counter and wait for it to stop.
 527:.\Generated_Source\PSoC4/CyLFClk.c ****     *
 528:.\Generated_Source\PSoC4/CyLFClk.c ****     *******************************************************************************/
ARM GAS  C:\Users\kylep\AppData\Local\Temp\ccxh0xLd.s 			page 17


 529:.\Generated_Source\PSoC4/CyLFClk.c ****     void CySysWdtSetMode(uint32 counterNum, uint32 mode)
 530:.\Generated_Source\PSoC4/CyLFClk.c ****     {
 383              		.loc 1 530 0
 384              		.cfi_startproc
 385 0000 80B5     		push	{r7, lr}
 386              		.cfi_def_cfa_offset 8
 387              		.cfi_offset 7, -8
 388              		.cfi_offset 14, -4
 389 0002 84B0     		sub	sp, sp, #16
 390              		.cfi_def_cfa_offset 24
 391 0004 00AF     		add	r7, sp, #0
 392              		.cfi_def_cfa_register 7
 393 0006 7860     		str	r0, [r7, #4]
 394 0008 3960     		str	r1, [r7]
 531:.\Generated_Source\PSoC4/CyLFClk.c ****         uint32 configRegValue;
 532:.\Generated_Source\PSoC4/CyLFClk.c **** 
 533:.\Generated_Source\PSoC4/CyLFClk.c ****         CYASSERT(counterNum < CY_SYS_WDT_COUNTERS_MAX);
 534:.\Generated_Source\PSoC4/CyLFClk.c **** 
 535:.\Generated_Source\PSoC4/CyLFClk.c ****         if(0u == CySysWdtGetEnabledStatus(counterNum))
 395              		.loc 1 535 0
 396 000a 7B68     		ldr	r3, [r7, #4]
 397 000c 181C     		mov	r0, r3
 398 000e FFF7FEFF 		bl	CySysWdtGetEnabledStatus
 399 0012 031E     		sub	r3, r0, #0
 400 0014 15D1     		bne	.L30
 536:.\Generated_Source\PSoC4/CyLFClk.c ****         {
 537:.\Generated_Source\PSoC4/CyLFClk.c ****             configRegValue = CY_SYS_WDT_CONFIG_REG &
 401              		.loc 1 537 0
 402 0016 0C4B     		ldr	r3, .L32
 403 0018 1B68     		ldr	r3, [r3]
 538:.\Generated_Source\PSoC4/CyLFClk.c ****                                 (uint32)~((uint32)(CY_SYS_WDT_MODE_MASK << (counterNum * CY_SYS_WDT
 404              		.loc 1 538 0
 405 001a 7A68     		ldr	r2, [r7, #4]
 406 001c D200     		lsl	r2, r2, #3
 407 001e 111C     		mov	r1, r2
 408 0020 0322     		mov	r2, #3
 409 0022 8A40     		lsl	r2, r2, r1
 410 0024 D243     		mvn	r2, r2
 537:.\Generated_Source\PSoC4/CyLFClk.c ****                                 (uint32)~((uint32)(CY_SYS_WDT_MODE_MASK << (counterNum * CY_SYS_WDT
 411              		.loc 1 537 0
 412 0026 1340     		and	r3, r2
 413 0028 FB60     		str	r3, [r7, #12]
 539:.\Generated_Source\PSoC4/CyLFClk.c ****             configRegValue |= (uint32)((mode & CY_SYS_WDT_MODE_MASK) << (counterNum * CY_SYS_WDT_CN
 414              		.loc 1 539 0
 415 002a 3B68     		ldr	r3, [r7]
 416 002c 0322     		mov	r2, #3
 417 002e 1340     		and	r3, r2
 418 0030 7A68     		ldr	r2, [r7, #4]
 419 0032 D200     		lsl	r2, r2, #3
 420 0034 9340     		lsl	r3, r3, r2
 421 0036 FA68     		ldr	r2, [r7, #12]
 422 0038 1343     		orr	r3, r2
 423 003a FB60     		str	r3, [r7, #12]
 540:.\Generated_Source\PSoC4/CyLFClk.c ****             CY_SYS_WDT_CONFIG_REG = configRegValue;
 424              		.loc 1 540 0
 425 003c 024B     		ldr	r3, .L32
 426 003e FA68     		ldr	r2, [r7, #12]
ARM GAS  C:\Users\kylep\AppData\Local\Temp\ccxh0xLd.s 			page 18


 427 0040 1A60     		str	r2, [r3]
 428              	.L30:
 541:.\Generated_Source\PSoC4/CyLFClk.c ****         }
 542:.\Generated_Source\PSoC4/CyLFClk.c ****     }
 429              		.loc 1 542 0
 430 0042 BD46     		mov	sp, r7
 431 0044 04B0     		add	sp, sp, #16
 432              		@ sp needed
 433 0046 80BD     		pop	{r7, pc}
 434              	.L33:
 435              		.align	2
 436              	.L32:
 437 0048 0C020B40 		.word	1074463244
 438              		.cfi_endproc
 439              	.LFE7:
 440              		.size	CySysWdtSetMode, .-CySysWdtSetMode
 441              		.section	.text.CySysWdtGetMode,"ax",%progbits
 442              		.align	2
 443              		.global	CySysWdtGetMode
 444              		.code	16
 445              		.thumb_func
 446              		.type	CySysWdtGetMode, %function
 447              	CySysWdtGetMode:
 448              	.LFB8:
 543:.\Generated_Source\PSoC4/CyLFClk.c **** 
 544:.\Generated_Source\PSoC4/CyLFClk.c **** 
 545:.\Generated_Source\PSoC4/CyLFClk.c ****     /*******************************************************************************
 546:.\Generated_Source\PSoC4/CyLFClk.c ****     * Function Name: CySysWdtGetMode
 547:.\Generated_Source\PSoC4/CyLFClk.c ****     ********************************************************************************
 548:.\Generated_Source\PSoC4/CyLFClk.c ****     *
 549:.\Generated_Source\PSoC4/CyLFClk.c ****     * Summary:
 550:.\Generated_Source\PSoC4/CyLFClk.c ****     *  Reads the mode of one of the three WDT counters.
 551:.\Generated_Source\PSoC4/CyLFClk.c ****     *
 552:.\Generated_Source\PSoC4/CyLFClk.c ****     * Parameters:
 553:.\Generated_Source\PSoC4/CyLFClk.c ****     *  counterNum: Valid range [0-2].  The number of the WDT counter.
 554:.\Generated_Source\PSoC4/CyLFClk.c ****     *
 555:.\Generated_Source\PSoC4/CyLFClk.c ****     * Return:
 556:.\Generated_Source\PSoC4/CyLFClk.c ****     *  The mode of the counter.  The same enumerated values as the mode parameter used in
 557:.\Generated_Source\PSoC4/CyLFClk.c ****     *  CySysWdtSetMode().
 558:.\Generated_Source\PSoC4/CyLFClk.c ****     *
 559:.\Generated_Source\PSoC4/CyLFClk.c ****     *******************************************************************************/
 560:.\Generated_Source\PSoC4/CyLFClk.c ****     uint32 CySysWdtGetMode(uint32 counterNum)
 561:.\Generated_Source\PSoC4/CyLFClk.c ****     {
 449              		.loc 1 561 0
 450              		.cfi_startproc
 451 0000 80B5     		push	{r7, lr}
 452              		.cfi_def_cfa_offset 8
 453              		.cfi_offset 7, -8
 454              		.cfi_offset 14, -4
 455 0002 82B0     		sub	sp, sp, #8
 456              		.cfi_def_cfa_offset 16
 457 0004 00AF     		add	r7, sp, #0
 458              		.cfi_def_cfa_register 7
 459 0006 7860     		str	r0, [r7, #4]
 562:.\Generated_Source\PSoC4/CyLFClk.c ****         return ((CY_SYS_WDT_CONFIG_REG >> (counterNum * CY_SYS_WDT_CNT_SHIFT)) & CY_SYS_WDT_MODE_MA
 460              		.loc 1 562 0
 461 0008 054B     		ldr	r3, .L36
ARM GAS  C:\Users\kylep\AppData\Local\Temp\ccxh0xLd.s 			page 19


 462 000a 1B68     		ldr	r3, [r3]
 463 000c 7A68     		ldr	r2, [r7, #4]
 464 000e D200     		lsl	r2, r2, #3
 465 0010 D340     		lsr	r3, r3, r2
 466 0012 0322     		mov	r2, #3
 467 0014 1340     		and	r3, r2
 563:.\Generated_Source\PSoC4/CyLFClk.c ****     }
 468              		.loc 1 563 0
 469 0016 181C     		mov	r0, r3
 470 0018 BD46     		mov	sp, r7
 471 001a 02B0     		add	sp, sp, #8
 472              		@ sp needed
 473 001c 80BD     		pop	{r7, pc}
 474              	.L37:
 475 001e C046     		.align	2
 476              	.L36:
 477 0020 0C020B40 		.word	1074463244
 478              		.cfi_endproc
 479              	.LFE8:
 480              		.size	CySysWdtGetMode, .-CySysWdtGetMode
 481              		.section	.text.CySysWdtSetClearOnMatch,"ax",%progbits
 482              		.align	2
 483              		.global	CySysWdtSetClearOnMatch
 484              		.code	16
 485              		.thumb_func
 486              		.type	CySysWdtSetClearOnMatch, %function
 487              	CySysWdtSetClearOnMatch:
 488              	.LFB9:
 564:.\Generated_Source\PSoC4/CyLFClk.c **** 
 565:.\Generated_Source\PSoC4/CyLFClk.c **** 
 566:.\Generated_Source\PSoC4/CyLFClk.c ****     /*******************************************************************************
 567:.\Generated_Source\PSoC4/CyLFClk.c ****     * Function Name: CySysWdtSetClearOnMatch
 568:.\Generated_Source\PSoC4/CyLFClk.c ****     ********************************************************************************
 569:.\Generated_Source\PSoC4/CyLFClk.c ****     *
 570:.\Generated_Source\PSoC4/CyLFClk.c ****     * Summary:
 571:.\Generated_Source\PSoC4/CyLFClk.c ****     *  Configures the WDT counter "clear on match" setting.  If configured to "clear
 572:.\Generated_Source\PSoC4/CyLFClk.c ****     *  on match", the counter counts from 0 to MatchValue giving it a
 573:.\Generated_Source\PSoC4/CyLFClk.c ****     *  period of (MatchValue + 1).
 574:.\Generated_Source\PSoC4/CyLFClk.c ****     *
 575:.\Generated_Source\PSoC4/CyLFClk.c ****     * Parameters:
 576:.\Generated_Source\PSoC4/CyLFClk.c ****     *  counterNum:
 577:.\Generated_Source\PSoC4/CyLFClk.c ****     *   Valid range [0-1].  The number of the WDT counter.  The match values are not
 578:.\Generated_Source\PSoC4/CyLFClk.c ****     *   supported by counter 2.
 579:.\Generated_Source\PSoC4/CyLFClk.c ****     *
 580:.\Generated_Source\PSoC4/CyLFClk.c ****     * enable:
 581:.\Generated_Source\PSoC4/CyLFClk.c ****     *   0 to disable, 1 to enable
 582:.\Generated_Source\PSoC4/CyLFClk.c ****     *
 583:.\Generated_Source\PSoC4/CyLFClk.c ****     * Return:
 584:.\Generated_Source\PSoC4/CyLFClk.c ****     *   None.
 585:.\Generated_Source\PSoC4/CyLFClk.c ****     *
 586:.\Generated_Source\PSoC4/CyLFClk.c ****     * Side Effects:
 587:.\Generated_Source\PSoC4/CyLFClk.c ****     *   WDT counter counterNum should be disabled. Otherwise this function call
 588:.\Generated_Source\PSoC4/CyLFClk.c ****     *   has no effect. If the specified counter is enabled, call the CySysWdtDisable()
 589:.\Generated_Source\PSoC4/CyLFClk.c ****     *   function with the corresponding parameter to disable the specified counter and
 590:.\Generated_Source\PSoC4/CyLFClk.c ****     *   wait for it to stop. This may take up to three LFCLK cycles.
 591:.\Generated_Source\PSoC4/CyLFClk.c ****     *
 592:.\Generated_Source\PSoC4/CyLFClk.c ****     *******************************************************************************/
ARM GAS  C:\Users\kylep\AppData\Local\Temp\ccxh0xLd.s 			page 20


 593:.\Generated_Source\PSoC4/CyLFClk.c ****     void CySysWdtSetClearOnMatch(uint32 counterNum, uint32 enable)
 594:.\Generated_Source\PSoC4/CyLFClk.c ****     {
 489              		.loc 1 594 0
 490              		.cfi_startproc
 491 0000 80B5     		push	{r7, lr}
 492              		.cfi_def_cfa_offset 8
 493              		.cfi_offset 7, -8
 494              		.cfi_offset 14, -4
 495 0002 84B0     		sub	sp, sp, #16
 496              		.cfi_def_cfa_offset 24
 497 0004 00AF     		add	r7, sp, #0
 498              		.cfi_def_cfa_register 7
 499 0006 7860     		str	r0, [r7, #4]
 500 0008 3960     		str	r1, [r7]
 595:.\Generated_Source\PSoC4/CyLFClk.c ****         uint32 configRegValue;
 596:.\Generated_Source\PSoC4/CyLFClk.c **** 
 597:.\Generated_Source\PSoC4/CyLFClk.c ****         CYASSERT((counterNum == CY_SYS_WDT_COUNTER0) ||
 598:.\Generated_Source\PSoC4/CyLFClk.c ****                  (counterNum == CY_SYS_WDT_COUNTER1));
 599:.\Generated_Source\PSoC4/CyLFClk.c **** 
 600:.\Generated_Source\PSoC4/CyLFClk.c ****         if(0u == CySysWdtGetEnabledStatus(counterNum))
 501              		.loc 1 600 0
 502 000a 7B68     		ldr	r3, [r7, #4]
 503 000c 181C     		mov	r0, r3
 504 000e FFF7FEFF 		bl	CySysWdtGetEnabledStatus
 505 0012 031E     		sub	r3, r0, #0
 506 0014 16D1     		bne	.L38
 601:.\Generated_Source\PSoC4/CyLFClk.c ****         {
 602:.\Generated_Source\PSoC4/CyLFClk.c ****             configRegValue = CY_SYS_WDT_CONFIG_REG &
 507              		.loc 1 602 0
 508 0016 0D4B     		ldr	r3, .L40
 509 0018 1B68     		ldr	r3, [r3]
 603:.\Generated_Source\PSoC4/CyLFClk.c ****                 (uint32)~((uint32)((uint32)1u << ((counterNum * CY_SYS_WDT_CNT_SHIFT) + CY_SYS_WDT_
 510              		.loc 1 603 0
 511 001a 7A68     		ldr	r2, [r7, #4]
 512 001c D200     		lsl	r2, r2, #3
 513 001e 0232     		add	r2, r2, #2
 514 0020 111C     		mov	r1, r2
 515 0022 0122     		mov	r2, #1
 516 0024 8A40     		lsl	r2, r2, r1
 517 0026 D243     		mvn	r2, r2
 602:.\Generated_Source\PSoC4/CyLFClk.c ****                 (uint32)~((uint32)((uint32)1u << ((counterNum * CY_SYS_WDT_CNT_SHIFT) + CY_SYS_WDT_
 518              		.loc 1 602 0
 519 0028 1340     		and	r3, r2
 520 002a FB60     		str	r3, [r7, #12]
 604:.\Generated_Source\PSoC4/CyLFClk.c **** 
 605:.\Generated_Source\PSoC4/CyLFClk.c ****             configRegValue
 606:.\Generated_Source\PSoC4/CyLFClk.c ****                 |= (uint32)(enable << ((counterNum * CY_SYS_WDT_CNT_SHIFT) + CY_SYS_WDT_CNT_MATCH_C
 521              		.loc 1 606 0
 522 002c 7B68     		ldr	r3, [r7, #4]
 523 002e DB00     		lsl	r3, r3, #3
 524 0030 0233     		add	r3, r3, #2
 525 0032 1A1C     		mov	r2, r3
 526 0034 3B68     		ldr	r3, [r7]
 527 0036 9340     		lsl	r3, r3, r2
 528 0038 FA68     		ldr	r2, [r7, #12]
 529 003a 1343     		orr	r3, r2
 530 003c FB60     		str	r3, [r7, #12]
ARM GAS  C:\Users\kylep\AppData\Local\Temp\ccxh0xLd.s 			page 21


 607:.\Generated_Source\PSoC4/CyLFClk.c **** 
 608:.\Generated_Source\PSoC4/CyLFClk.c ****             CY_SYS_WDT_CONFIG_REG = configRegValue;
 531              		.loc 1 608 0
 532 003e 034B     		ldr	r3, .L40
 533 0040 FA68     		ldr	r2, [r7, #12]
 534 0042 1A60     		str	r2, [r3]
 535              	.L38:
 609:.\Generated_Source\PSoC4/CyLFClk.c ****         }
 610:.\Generated_Source\PSoC4/CyLFClk.c ****     }
 536              		.loc 1 610 0
 537 0044 BD46     		mov	sp, r7
 538 0046 04B0     		add	sp, sp, #16
 539              		@ sp needed
 540 0048 80BD     		pop	{r7, pc}
 541              	.L41:
 542 004a C046     		.align	2
 543              	.L40:
 544 004c 0C020B40 		.word	1074463244
 545              		.cfi_endproc
 546              	.LFE9:
 547              		.size	CySysWdtSetClearOnMatch, .-CySysWdtSetClearOnMatch
 548              		.section	.text.CySysWdtGetClearOnMatch,"ax",%progbits
 549              		.align	2
 550              		.global	CySysWdtGetClearOnMatch
 551              		.code	16
 552              		.thumb_func
 553              		.type	CySysWdtGetClearOnMatch, %function
 554              	CySysWdtGetClearOnMatch:
 555              	.LFB10:
 611:.\Generated_Source\PSoC4/CyLFClk.c **** 
 612:.\Generated_Source\PSoC4/CyLFClk.c **** 
 613:.\Generated_Source\PSoC4/CyLFClk.c ****     /*******************************************************************************
 614:.\Generated_Source\PSoC4/CyLFClk.c ****     * Function Name: CySysWdtGetClearOnMatch
 615:.\Generated_Source\PSoC4/CyLFClk.c ****     ********************************************************************************
 616:.\Generated_Source\PSoC4/CyLFClk.c ****     *
 617:.\Generated_Source\PSoC4/CyLFClk.c ****     * Summary:
 618:.\Generated_Source\PSoC4/CyLFClk.c ****     *  Reads the "clear on match" setting for the specified counter.
 619:.\Generated_Source\PSoC4/CyLFClk.c ****     *
 620:.\Generated_Source\PSoC4/CyLFClk.c ****     * Parameters:
 621:.\Generated_Source\PSoC4/CyLFClk.c ****     *   counterNum: Valid range [0-1].  The number of the WDT counter.  The match values are
 622:.\Generated_Source\PSoC4/CyLFClk.c ****     *               not supported by counter 2.
 623:.\Generated_Source\PSoC4/CyLFClk.c ****     *
 624:.\Generated_Source\PSoC4/CyLFClk.c ****     * Return:
 625:.\Generated_Source\PSoC4/CyLFClk.c ****     *   The "clear on match" status: 1 if enabled, 0 if disabled
 626:.\Generated_Source\PSoC4/CyLFClk.c ****     *
 627:.\Generated_Source\PSoC4/CyLFClk.c ****     *******************************************************************************/
 628:.\Generated_Source\PSoC4/CyLFClk.c ****     uint32 CySysWdtGetClearOnMatch(uint32 counterNum)
 629:.\Generated_Source\PSoC4/CyLFClk.c ****     {
 556              		.loc 1 629 0
 557              		.cfi_startproc
 558 0000 80B5     		push	{r7, lr}
 559              		.cfi_def_cfa_offset 8
 560              		.cfi_offset 7, -8
 561              		.cfi_offset 14, -4
 562 0002 82B0     		sub	sp, sp, #8
 563              		.cfi_def_cfa_offset 16
 564 0004 00AF     		add	r7, sp, #0
ARM GAS  C:\Users\kylep\AppData\Local\Temp\ccxh0xLd.s 			page 22


 565              		.cfi_def_cfa_register 7
 566 0006 7860     		str	r0, [r7, #4]
 630:.\Generated_Source\PSoC4/CyLFClk.c ****         CYASSERT((counterNum == CY_SYS_WDT_COUNTER0) ||
 631:.\Generated_Source\PSoC4/CyLFClk.c ****                  (counterNum == CY_SYS_WDT_COUNTER1));
 632:.\Generated_Source\PSoC4/CyLFClk.c **** 
 633:.\Generated_Source\PSoC4/CyLFClk.c ****         return (uint32)((CY_SYS_WDT_CONFIG_REG >>
 567              		.loc 1 633 0
 568 0008 054B     		ldr	r3, .L44
 569 000a 1B68     		ldr	r3, [r3]
 634:.\Generated_Source\PSoC4/CyLFClk.c ****                         ((counterNum * CY_SYS_WDT_CNT_SHIFT) + CY_SYS_WDT_CNT_MATCH_CLR_SHIFT)) & 0
 570              		.loc 1 634 0
 571 000c 7A68     		ldr	r2, [r7, #4]
 572 000e D200     		lsl	r2, r2, #3
 573 0010 0232     		add	r2, r2, #2
 633:.\Generated_Source\PSoC4/CyLFClk.c ****                         ((counterNum * CY_SYS_WDT_CNT_SHIFT) + CY_SYS_WDT_CNT_MATCH_CLR_SHIFT)) & 0
 574              		.loc 1 633 0
 575 0012 D340     		lsr	r3, r3, r2
 576 0014 0122     		mov	r2, #1
 577 0016 1340     		and	r3, r2
 635:.\Generated_Source\PSoC4/CyLFClk.c ****     }
 578              		.loc 1 635 0
 579 0018 181C     		mov	r0, r3
 580 001a BD46     		mov	sp, r7
 581 001c 02B0     		add	sp, sp, #8
 582              		@ sp needed
 583 001e 80BD     		pop	{r7, pc}
 584              	.L45:
 585              		.align	2
 586              	.L44:
 587 0020 0C020B40 		.word	1074463244
 588              		.cfi_endproc
 589              	.LFE10:
 590              		.size	CySysWdtGetClearOnMatch, .-CySysWdtGetClearOnMatch
 591              		.section	.text.CySysWdtEnable,"ax",%progbits
 592              		.align	2
 593              		.global	CySysWdtEnable
 594              		.code	16
 595              		.thumb_func
 596              		.type	CySysWdtEnable, %function
 597              	CySysWdtEnable:
 598              	.LFB11:
 636:.\Generated_Source\PSoC4/CyLFClk.c **** 
 637:.\Generated_Source\PSoC4/CyLFClk.c **** 
 638:.\Generated_Source\PSoC4/CyLFClk.c ****     /*******************************************************************************
 639:.\Generated_Source\PSoC4/CyLFClk.c ****     * Function Name: CySysWdtEnable
 640:.\Generated_Source\PSoC4/CyLFClk.c ****     ********************************************************************************
 641:.\Generated_Source\PSoC4/CyLFClk.c ****     *
 642:.\Generated_Source\PSoC4/CyLFClk.c ****     * Summary:
 643:.\Generated_Source\PSoC4/CyLFClk.c ****     *  Enables the specified WDT counters.  All the counters specified in the mask
 644:.\Generated_Source\PSoC4/CyLFClk.c ****     *  are enabled.
 645:.\Generated_Source\PSoC4/CyLFClk.c ****     *
 646:.\Generated_Source\PSoC4/CyLFClk.c ****     * Parameters:
 647:.\Generated_Source\PSoC4/CyLFClk.c ****     *  counterMask: The mask of all counters to enable.
 648:.\Generated_Source\PSoC4/CyLFClk.c ****     *       Define                       Counter
 649:.\Generated_Source\PSoC4/CyLFClk.c ****     *      CY_SYS_WDT_COUNTER0_MASK      0
 650:.\Generated_Source\PSoC4/CyLFClk.c ****     *      CY_SYS_WDT_COUNTER1_MASK      1
 651:.\Generated_Source\PSoC4/CyLFClk.c ****     *      CY_SYS_WDT_COUNTER2_MASK      2
ARM GAS  C:\Users\kylep\AppData\Local\Temp\ccxh0xLd.s 			page 23


 652:.\Generated_Source\PSoC4/CyLFClk.c ****     *
 653:.\Generated_Source\PSoC4/CyLFClk.c ****     * Return:
 654:.\Generated_Source\PSoC4/CyLFClk.c ****     *  None
 655:.\Generated_Source\PSoC4/CyLFClk.c ****     *
 656:.\Generated_Source\PSoC4/CyLFClk.c ****     * Side Effects:
 657:.\Generated_Source\PSoC4/CyLFClk.c ****     *  Enabling or disabling WDT requires 3 LFCLK cycles to come into effect.
 658:.\Generated_Source\PSoC4/CyLFClk.c ****     *  Therefore, the WDT enable state must not be changed more than once in
 659:.\Generated_Source\PSoC4/CyLFClk.c ****     *  that period.
 660:.\Generated_Source\PSoC4/CyLFClk.c ****     *
 661:.\Generated_Source\PSoC4/CyLFClk.c ****     *  After WDT is enabled, it is illegal to write WDT configuration (WDT_CONFIG)
 662:.\Generated_Source\PSoC4/CyLFClk.c ****     *  and control (WDT_CONTROL) registers. This means that all WDT functions that
 663:.\Generated_Source\PSoC4/CyLFClk.c ****     *  contain 'write' in the name (with the exception of CySysWdtSetMatch()
 664:.\Generated_Source\PSoC4/CyLFClk.c ****     *  function) are illegal to call once WDT enabled.
 665:.\Generated_Source\PSoC4/CyLFClk.c ****     *
 666:.\Generated_Source\PSoC4/CyLFClk.c ****     *  PSoC 4100 / PSoC 4200:
 667:.\Generated_Source\PSoC4/CyLFClk.c ****     *  This function enables ILO.
 668:.\Generated_Source\PSoC4/CyLFClk.c ****     *
 669:.\Generated_Source\PSoC4/CyLFClk.c ****     *  PSoC 4100-BL / PSoC 4200-BL and PSoC 4100M / PSoC 4200M:
 670:.\Generated_Source\PSoC4/CyLFClk.c ****     *  LFLCK should be configured before calling this function. The desired
 671:.\Generated_Source\PSoC4/CyLFClk.c ****     *  source should be enabled and configured to be the source for LFCLK.
 672:.\Generated_Source\PSoC4/CyLFClk.c ****     *
 673:.\Generated_Source\PSoC4/CyLFClk.c ****     *******************************************************************************/
 674:.\Generated_Source\PSoC4/CyLFClk.c ****     void CySysWdtEnable(uint32 counterMask)
 675:.\Generated_Source\PSoC4/CyLFClk.c ****     {
 599              		.loc 1 675 0
 600              		.cfi_startproc
 601 0000 80B5     		push	{r7, lr}
 602              		.cfi_def_cfa_offset 8
 603              		.cfi_offset 7, -8
 604              		.cfi_offset 14, -4
 605 0002 82B0     		sub	sp, sp, #8
 606              		.cfi_def_cfa_offset 16
 607 0004 00AF     		add	r7, sp, #0
 608              		.cfi_def_cfa_register 7
 609 0006 7860     		str	r0, [r7, #4]
 676:.\Generated_Source\PSoC4/CyLFClk.c ****         #if (!CY_IP_WCO)
 677:.\Generated_Source\PSoC4/CyLFClk.c ****             CySysClkIloStart();
 610              		.loc 1 677 0
 611 0008 FFF7FEFF 		bl	CySysClkIloStart
 678:.\Generated_Source\PSoC4/CyLFClk.c ****         #endif /* (!CY_IP_WCO) */
 679:.\Generated_Source\PSoC4/CyLFClk.c **** 
 680:.\Generated_Source\PSoC4/CyLFClk.c ****         CY_SYS_WDT_CONTROL_REG |= counterMask;
 612              		.loc 1 680 0
 613 000c 144B     		ldr	r3, .L53
 614 000e 144A     		ldr	r2, .L53
 615 0010 1168     		ldr	r1, [r2]
 616 0012 7A68     		ldr	r2, [r7, #4]
 617 0014 0A43     		orr	r2, r1
 618 0016 1A60     		str	r2, [r3]
 681:.\Generated_Source\PSoC4/CyLFClk.c **** 
 682:.\Generated_Source\PSoC4/CyLFClk.c ****         if(0u != (counterMask & CY_SYS_WDT_COUNTER0_MASK))
 619              		.loc 1 682 0
 620 0018 7B68     		ldr	r3, [r7, #4]
 621 001a 0122     		mov	r2, #1
 622 001c 1340     		and	r3, r2
 623 001e 05D0     		beq	.L47
 683:.\Generated_Source\PSoC4/CyLFClk.c ****         {
ARM GAS  C:\Users\kylep\AppData\Local\Temp\ccxh0xLd.s 			page 24


 684:.\Generated_Source\PSoC4/CyLFClk.c ****             while (0u == CySysWdtGetEnabledStatus(CY_SYS_WDT_COUNTER0))
 624              		.loc 1 684 0
 625 0020 C046     		mov	r8, r8
 626              	.L48:
 627              		.loc 1 684 0 is_stmt 0 discriminator 1
 628 0022 0020     		mov	r0, #0
 629 0024 FFF7FEFF 		bl	CySysWdtGetEnabledStatus
 630 0028 031E     		sub	r3, r0, #0
 631 002a FAD0     		beq	.L48
 632              	.L47:
 685:.\Generated_Source\PSoC4/CyLFClk.c ****             {
 686:.\Generated_Source\PSoC4/CyLFClk.c ****                 /* Wait for changes to come into effect */
 687:.\Generated_Source\PSoC4/CyLFClk.c ****             }
 688:.\Generated_Source\PSoC4/CyLFClk.c ****         }
 689:.\Generated_Source\PSoC4/CyLFClk.c **** 
 690:.\Generated_Source\PSoC4/CyLFClk.c ****         if(0u != (counterMask & CY_SYS_WDT_COUNTER1_MASK))
 633              		.loc 1 690 0 is_stmt 1
 634 002c 7A68     		ldr	r2, [r7, #4]
 635 002e 8023     		mov	r3, #128
 636 0030 5B00     		lsl	r3, r3, #1
 637 0032 1340     		and	r3, r2
 638 0034 05D0     		beq	.L49
 691:.\Generated_Source\PSoC4/CyLFClk.c ****         {
 692:.\Generated_Source\PSoC4/CyLFClk.c ****             while (0u == CySysWdtGetEnabledStatus(CY_SYS_WDT_COUNTER1))
 639              		.loc 1 692 0
 640 0036 C046     		mov	r8, r8
 641              	.L50:
 642              		.loc 1 692 0 is_stmt 0 discriminator 1
 643 0038 0120     		mov	r0, #1
 644 003a FFF7FEFF 		bl	CySysWdtGetEnabledStatus
 645 003e 031E     		sub	r3, r0, #0
 646 0040 FAD0     		beq	.L50
 647              	.L49:
 693:.\Generated_Source\PSoC4/CyLFClk.c ****             {
 694:.\Generated_Source\PSoC4/CyLFClk.c ****                 /* Wait for changes to come into effect */
 695:.\Generated_Source\PSoC4/CyLFClk.c ****             }
 696:.\Generated_Source\PSoC4/CyLFClk.c ****         }
 697:.\Generated_Source\PSoC4/CyLFClk.c **** 
 698:.\Generated_Source\PSoC4/CyLFClk.c ****         if(0u != (counterMask & CY_SYS_WDT_COUNTER2_MASK))
 648              		.loc 1 698 0 is_stmt 1
 649 0042 7A68     		ldr	r2, [r7, #4]
 650 0044 8023     		mov	r3, #128
 651 0046 5B02     		lsl	r3, r3, #9
 652 0048 1340     		and	r3, r2
 653 004a 05D0     		beq	.L46
 699:.\Generated_Source\PSoC4/CyLFClk.c ****         {
 700:.\Generated_Source\PSoC4/CyLFClk.c ****             while (0u == CySysWdtGetEnabledStatus(CY_SYS_WDT_COUNTER2))
 654              		.loc 1 700 0
 655 004c C046     		mov	r8, r8
 656              	.L52:
 657              		.loc 1 700 0 is_stmt 0 discriminator 1
 658 004e 0220     		mov	r0, #2
 659 0050 FFF7FEFF 		bl	CySysWdtGetEnabledStatus
 660 0054 031E     		sub	r3, r0, #0
 661 0056 FAD0     		beq	.L52
 662              	.L46:
 701:.\Generated_Source\PSoC4/CyLFClk.c ****             {
ARM GAS  C:\Users\kylep\AppData\Local\Temp\ccxh0xLd.s 			page 25


 702:.\Generated_Source\PSoC4/CyLFClk.c ****                 /* Wait for changes to come into effect */
 703:.\Generated_Source\PSoC4/CyLFClk.c ****             }
 704:.\Generated_Source\PSoC4/CyLFClk.c ****         }
 705:.\Generated_Source\PSoC4/CyLFClk.c ****     }
 663              		.loc 1 705 0 is_stmt 1
 664 0058 BD46     		mov	sp, r7
 665 005a 02B0     		add	sp, sp, #8
 666              		@ sp needed
 667 005c 80BD     		pop	{r7, pc}
 668              	.L54:
 669 005e C046     		.align	2
 670              	.L53:
 671 0060 10020B40 		.word	1074463248
 672              		.cfi_endproc
 673              	.LFE11:
 674              		.size	CySysWdtEnable, .-CySysWdtEnable
 675              		.section	.text.CySysWdtDisable,"ax",%progbits
 676              		.align	2
 677              		.global	CySysWdtDisable
 678              		.code	16
 679              		.thumb_func
 680              		.type	CySysWdtDisable, %function
 681              	CySysWdtDisable:
 682              	.LFB12:
 706:.\Generated_Source\PSoC4/CyLFClk.c **** 
 707:.\Generated_Source\PSoC4/CyLFClk.c **** 
 708:.\Generated_Source\PSoC4/CyLFClk.c ****     /*******************************************************************************
 709:.\Generated_Source\PSoC4/CyLFClk.c ****     * Function Name: CySysWdtDisable
 710:.\Generated_Source\PSoC4/CyLFClk.c ****     ********************************************************************************
 711:.\Generated_Source\PSoC4/CyLFClk.c ****     *
 712:.\Generated_Source\PSoC4/CyLFClk.c ****     * Summary:
 713:.\Generated_Source\PSoC4/CyLFClk.c ****     *  Disables the specified WDT counters. All the counters specified in the mask
 714:.\Generated_Source\PSoC4/CyLFClk.c ****     *  are disabled. The function waits for the changes to come into effect.
 715:.\Generated_Source\PSoC4/CyLFClk.c ****     *
 716:.\Generated_Source\PSoC4/CyLFClk.c ****     * Parameters:
 717:.\Generated_Source\PSoC4/CyLFClk.c ****     *  uint32 counterMask: The mask of all counters to disable
 718:.\Generated_Source\PSoC4/CyLFClk.c ****     *    Define                       Counter
 719:.\Generated_Source\PSoC4/CyLFClk.c ****     *   CY_SYS_WDT_COUNTER0_MASK      0
 720:.\Generated_Source\PSoC4/CyLFClk.c ****     *   CY_SYS_WDT_COUNTER1_MASK      1
 721:.\Generated_Source\PSoC4/CyLFClk.c ****     *   CY_SYS_WDT_COUNTER2_MASK      2
 722:.\Generated_Source\PSoC4/CyLFClk.c ****     *
 723:.\Generated_Source\PSoC4/CyLFClk.c ****     * Return:
 724:.\Generated_Source\PSoC4/CyLFClk.c ****     *   None.
 725:.\Generated_Source\PSoC4/CyLFClk.c ****     *
 726:.\Generated_Source\PSoC4/CyLFClk.c ****     *******************************************************************************/
 727:.\Generated_Source\PSoC4/CyLFClk.c ****     void CySysWdtDisable(uint32 counterMask)
 728:.\Generated_Source\PSoC4/CyLFClk.c ****     {
 683              		.loc 1 728 0
 684              		.cfi_startproc
 685 0000 80B5     		push	{r7, lr}
 686              		.cfi_def_cfa_offset 8
 687              		.cfi_offset 7, -8
 688              		.cfi_offset 14, -4
 689 0002 82B0     		sub	sp, sp, #8
 690              		.cfi_def_cfa_offset 16
 691 0004 00AF     		add	r7, sp, #0
 692              		.cfi_def_cfa_register 7
ARM GAS  C:\Users\kylep\AppData\Local\Temp\ccxh0xLd.s 			page 26


 693 0006 7860     		str	r0, [r7, #4]
 729:.\Generated_Source\PSoC4/CyLFClk.c ****         if (0uL == CySysWdtLocked())
 694              		.loc 1 729 0
 695 0008 FFF7FEFF 		bl	CySysWdtLocked
 696 000c 031E     		sub	r3, r0, #0
 697 000e 26D1     		bne	.L55
 730:.\Generated_Source\PSoC4/CyLFClk.c ****         {
 731:.\Generated_Source\PSoC4/CyLFClk.c ****             CY_SYS_WDT_CONTROL_REG &= ~counterMask;
 698              		.loc 1 731 0
 699 0010 144B     		ldr	r3, .L62
 700 0012 144A     		ldr	r2, .L62
 701 0014 1268     		ldr	r2, [r2]
 702 0016 7968     		ldr	r1, [r7, #4]
 703 0018 C943     		mvn	r1, r1
 704 001a 0A40     		and	r2, r1
 705 001c 1A60     		str	r2, [r3]
 732:.\Generated_Source\PSoC4/CyLFClk.c **** 
 733:.\Generated_Source\PSoC4/CyLFClk.c ****             if(0u != (counterMask & CY_SYS_WDT_COUNTER0_MASK))
 706              		.loc 1 733 0
 707 001e 7B68     		ldr	r3, [r7, #4]
 708 0020 0122     		mov	r2, #1
 709 0022 1340     		and	r3, r2
 710 0024 05D0     		beq	.L57
 734:.\Generated_Source\PSoC4/CyLFClk.c ****             {
 735:.\Generated_Source\PSoC4/CyLFClk.c ****                 while (0u != CySysWdtGetEnabledStatus(CY_SYS_WDT_COUNTER0))
 711              		.loc 1 735 0
 712 0026 C046     		mov	r8, r8
 713              	.L58:
 714              		.loc 1 735 0 is_stmt 0 discriminator 1
 715 0028 0020     		mov	r0, #0
 716 002a FFF7FEFF 		bl	CySysWdtGetEnabledStatus
 717 002e 031E     		sub	r3, r0, #0
 718 0030 FAD1     		bne	.L58
 719              	.L57:
 736:.\Generated_Source\PSoC4/CyLFClk.c ****                 {
 737:.\Generated_Source\PSoC4/CyLFClk.c ****                     /* Wait for changes to come into effect */
 738:.\Generated_Source\PSoC4/CyLFClk.c ****                 }
 739:.\Generated_Source\PSoC4/CyLFClk.c ****             }
 740:.\Generated_Source\PSoC4/CyLFClk.c **** 
 741:.\Generated_Source\PSoC4/CyLFClk.c ****             if(0u != (counterMask & CY_SYS_WDT_COUNTER1_MASK))
 720              		.loc 1 741 0 is_stmt 1
 721 0032 7A68     		ldr	r2, [r7, #4]
 722 0034 8023     		mov	r3, #128
 723 0036 5B00     		lsl	r3, r3, #1
 724 0038 1340     		and	r3, r2
 725 003a 05D0     		beq	.L59
 742:.\Generated_Source\PSoC4/CyLFClk.c ****             {
 743:.\Generated_Source\PSoC4/CyLFClk.c ****                 while (0u != CySysWdtGetEnabledStatus(CY_SYS_WDT_COUNTER1))
 726              		.loc 1 743 0
 727 003c C046     		mov	r8, r8
 728              	.L60:
 729              		.loc 1 743 0 is_stmt 0 discriminator 1
 730 003e 0120     		mov	r0, #1
 731 0040 FFF7FEFF 		bl	CySysWdtGetEnabledStatus
 732 0044 031E     		sub	r3, r0, #0
 733 0046 FAD1     		bne	.L60
 734              	.L59:
ARM GAS  C:\Users\kylep\AppData\Local\Temp\ccxh0xLd.s 			page 27


 744:.\Generated_Source\PSoC4/CyLFClk.c ****                 {
 745:.\Generated_Source\PSoC4/CyLFClk.c ****                     /* Wait for changes to come into effect */
 746:.\Generated_Source\PSoC4/CyLFClk.c ****                 }
 747:.\Generated_Source\PSoC4/CyLFClk.c ****             }
 748:.\Generated_Source\PSoC4/CyLFClk.c **** 
 749:.\Generated_Source\PSoC4/CyLFClk.c ****             if(0u != (counterMask & CY_SYS_WDT_COUNTER2_MASK))
 735              		.loc 1 749 0 is_stmt 1
 736 0048 7A68     		ldr	r2, [r7, #4]
 737 004a 8023     		mov	r3, #128
 738 004c 5B02     		lsl	r3, r3, #9
 739 004e 1340     		and	r3, r2
 740 0050 05D0     		beq	.L55
 750:.\Generated_Source\PSoC4/CyLFClk.c ****             {
 751:.\Generated_Source\PSoC4/CyLFClk.c ****                 while (0u != CySysWdtGetEnabledStatus(CY_SYS_WDT_COUNTER2))
 741              		.loc 1 751 0
 742 0052 C046     		mov	r8, r8
 743              	.L61:
 744              		.loc 1 751 0 is_stmt 0 discriminator 1
 745 0054 0220     		mov	r0, #2
 746 0056 FFF7FEFF 		bl	CySysWdtGetEnabledStatus
 747 005a 031E     		sub	r3, r0, #0
 748 005c FAD1     		bne	.L61
 749              	.L55:
 752:.\Generated_Source\PSoC4/CyLFClk.c ****                 {
 753:.\Generated_Source\PSoC4/CyLFClk.c ****                     /* Wait for changes to come into effect */
 754:.\Generated_Source\PSoC4/CyLFClk.c ****                 }
 755:.\Generated_Source\PSoC4/CyLFClk.c ****             }
 756:.\Generated_Source\PSoC4/CyLFClk.c ****         }
 757:.\Generated_Source\PSoC4/CyLFClk.c ****     }
 750              		.loc 1 757 0 is_stmt 1
 751 005e BD46     		mov	sp, r7
 752 0060 02B0     		add	sp, sp, #8
 753              		@ sp needed
 754 0062 80BD     		pop	{r7, pc}
 755              	.L63:
 756              		.align	2
 757              	.L62:
 758 0064 10020B40 		.word	1074463248
 759              		.cfi_endproc
 760              	.LFE12:
 761              		.size	CySysWdtDisable, .-CySysWdtDisable
 762              		.section	.text.CySysWdtSetCascade,"ax",%progbits
 763              		.align	2
 764              		.global	CySysWdtSetCascade
 765              		.code	16
 766              		.thumb_func
 767              		.type	CySysWdtSetCascade, %function
 768              	CySysWdtSetCascade:
 769              	.LFB13:
 758:.\Generated_Source\PSoC4/CyLFClk.c **** 
 759:.\Generated_Source\PSoC4/CyLFClk.c **** 
 760:.\Generated_Source\PSoC4/CyLFClk.c ****     /*******************************************************************************
 761:.\Generated_Source\PSoC4/CyLFClk.c ****     * Function Name: CySysWdtSetCascade
 762:.\Generated_Source\PSoC4/CyLFClk.c ****     ********************************************************************************
 763:.\Generated_Source\PSoC4/CyLFClk.c ****     *
 764:.\Generated_Source\PSoC4/CyLFClk.c ****     * Summary:
 765:.\Generated_Source\PSoC4/CyLFClk.c ****     *   Writes the two WDT cascade values based on the combination of mask values
ARM GAS  C:\Users\kylep\AppData\Local\Temp\ccxh0xLd.s 			page 28


 766:.\Generated_Source\PSoC4/CyLFClk.c ****     *   specified.
 767:.\Generated_Source\PSoC4/CyLFClk.c ****     *
 768:.\Generated_Source\PSoC4/CyLFClk.c ****     * Parameters:
 769:.\Generated_Source\PSoC4/CyLFClk.c ****     *   cascadeMask: The mask value used to set or clear the cascade values.
 770:.\Generated_Source\PSoC4/CyLFClk.c ****     *   Define                     Cascade
 771:.\Generated_Source\PSoC4/CyLFClk.c ****     *   CY_SYS_WDT_CASCADE_NONE    Neither
 772:.\Generated_Source\PSoC4/CyLFClk.c ****     *   CY_SYS_WDT_CASCADE_01      Cascade 01
 773:.\Generated_Source\PSoC4/CyLFClk.c ****     *   CY_SYS_WDT_CASCADE_12      Cascade 12
 774:.\Generated_Source\PSoC4/CyLFClk.c ****     *
 775:.\Generated_Source\PSoC4/CyLFClk.c ****     *   To set both cascade modes, two defines should be ORed:
 776:.\Generated_Source\PSoC4/CyLFClk.c ****     *   (CY_SYS_WDT_CASCADE_01 | CY_SYS_WDT_CASCADE_12)
 777:.\Generated_Source\PSoC4/CyLFClk.c ****     *
 778:.\Generated_Source\PSoC4/CyLFClk.c ****     * Return:
 779:.\Generated_Source\PSoC4/CyLFClk.c ****     *   None.
 780:.\Generated_Source\PSoC4/CyLFClk.c ****     *
 781:.\Generated_Source\PSoC4/CyLFClk.c ****     * Side effects:
 782:.\Generated_Source\PSoC4/CyLFClk.c ****     *   If only one cascade mask is specified, the second cascade is disabled.
 783:.\Generated_Source\PSoC4/CyLFClk.c ****     *   To set both cascade modes, two defines should be ORed:
 784:.\Generated_Source\PSoC4/CyLFClk.c ****     *    (CY_SYS_WDT_CASCADE_01 | CY_SYS_WDT_CASCADE_12).
 785:.\Generated_Source\PSoC4/CyLFClk.c ****     *
 786:.\Generated_Source\PSoC4/CyLFClk.c ****     *   WDT counters that are part of the specified cascade should be disabled.
 787:.\Generated_Source\PSoC4/CyLFClk.c ****     *   Otherwise this function call has no effect. If the specified
 788:.\Generated_Source\PSoC4/CyLFClk.c ****     *   counter is enabled, call CySysWdtDisable() function with the corresponding
 789:.\Generated_Source\PSoC4/CyLFClk.c ****     *   parameter to disable the specified counter and wait for it to stop. This may
 790:.\Generated_Source\PSoC4/CyLFClk.c ****     *   take up to 3 LFCLK cycles.
 791:.\Generated_Source\PSoC4/CyLFClk.c ****     *
 792:.\Generated_Source\PSoC4/CyLFClk.c ****     *******************************************************************************/
 793:.\Generated_Source\PSoC4/CyLFClk.c ****     void CySysWdtSetCascade(uint32 cascadeMask)
 794:.\Generated_Source\PSoC4/CyLFClk.c ****     {
 770              		.loc 1 794 0
 771              		.cfi_startproc
 772 0000 90B5     		push	{r4, r7, lr}
 773              		.cfi_def_cfa_offset 12
 774              		.cfi_offset 4, -12
 775              		.cfi_offset 7, -8
 776              		.cfi_offset 14, -4
 777 0002 85B0     		sub	sp, sp, #20
 778              		.cfi_def_cfa_offset 32
 779 0004 00AF     		add	r7, sp, #0
 780              		.cfi_def_cfa_register 7
 781 0006 7860     		str	r0, [r7, #4]
 795:.\Generated_Source\PSoC4/CyLFClk.c ****         uint32 configRegValue;
 796:.\Generated_Source\PSoC4/CyLFClk.c ****         uint32 countersEnableStatus;
 797:.\Generated_Source\PSoC4/CyLFClk.c **** 
 798:.\Generated_Source\PSoC4/CyLFClk.c ****         countersEnableStatus = CySysWdtGetEnabledStatus(CY_SYS_WDT_COUNTER0) |
 782              		.loc 1 798 0
 783 0008 0020     		mov	r0, #0
 784 000a FFF7FEFF 		bl	CySysWdtGetEnabledStatus
 785 000e 041C     		mov	r4, r0
 799:.\Generated_Source\PSoC4/CyLFClk.c ****                             CySysWdtGetEnabledStatus(CY_SYS_WDT_COUNTER1) |
 786              		.loc 1 799 0
 787 0010 0120     		mov	r0, #1
 788 0012 FFF7FEFF 		bl	CySysWdtGetEnabledStatus
 789 0016 031C     		mov	r3, r0
 798:.\Generated_Source\PSoC4/CyLFClk.c ****                             CySysWdtGetEnabledStatus(CY_SYS_WDT_COUNTER1) |
 790              		.loc 1 798 0
 791 0018 1C43     		orr	r4, r3
ARM GAS  C:\Users\kylep\AppData\Local\Temp\ccxh0xLd.s 			page 29


 800:.\Generated_Source\PSoC4/CyLFClk.c ****                             CySysWdtGetEnabledStatus(CY_SYS_WDT_COUNTER2);
 792              		.loc 1 800 0
 793 001a 0220     		mov	r0, #2
 794 001c FFF7FEFF 		bl	CySysWdtGetEnabledStatus
 795 0020 031C     		mov	r3, r0
 798:.\Generated_Source\PSoC4/CyLFClk.c ****                             CySysWdtGetEnabledStatus(CY_SYS_WDT_COUNTER1) |
 796              		.loc 1 798 0
 797 0022 2343     		orr	r3, r4
 798 0024 FB60     		str	r3, [r7, #12]
 801:.\Generated_Source\PSoC4/CyLFClk.c **** 
 802:.\Generated_Source\PSoC4/CyLFClk.c ****         if (0u == countersEnableStatus)
 799              		.loc 1 802 0
 800 0026 FB68     		ldr	r3, [r7, #12]
 801 0028 002B     		cmp	r3, #0
 802 002a 0DD1     		bne	.L64
 803:.\Generated_Source\PSoC4/CyLFClk.c ****         {
 804:.\Generated_Source\PSoC4/CyLFClk.c ****             configRegValue = CY_SYS_WDT_CONFIG_REG;
 803              		.loc 1 804 0
 804 002c 084B     		ldr	r3, .L66
 805 002e 1B68     		ldr	r3, [r3]
 806 0030 BB60     		str	r3, [r7, #8]
 805:.\Generated_Source\PSoC4/CyLFClk.c ****             configRegValue &= ((uint32)(~(CY_SYS_WDT_CASCADE_01|CY_SYS_WDT_CASCADE_12)));
 807              		.loc 1 805 0
 808 0032 BB68     		ldr	r3, [r7, #8]
 809 0034 074A     		ldr	r2, .L66+4
 810 0036 1340     		and	r3, r2
 811 0038 BB60     		str	r3, [r7, #8]
 806:.\Generated_Source\PSoC4/CyLFClk.c ****             configRegValue |= cascadeMask;
 812              		.loc 1 806 0
 813 003a BA68     		ldr	r2, [r7, #8]
 814 003c 7B68     		ldr	r3, [r7, #4]
 815 003e 1343     		orr	r3, r2
 816 0040 BB60     		str	r3, [r7, #8]
 807:.\Generated_Source\PSoC4/CyLFClk.c ****             CY_SYS_WDT_CONFIG_REG = configRegValue;
 817              		.loc 1 807 0
 818 0042 034B     		ldr	r3, .L66
 819 0044 BA68     		ldr	r2, [r7, #8]
 820 0046 1A60     		str	r2, [r3]
 821              	.L64:
 808:.\Generated_Source\PSoC4/CyLFClk.c ****         }
 809:.\Generated_Source\PSoC4/CyLFClk.c ****     }
 822              		.loc 1 809 0
 823 0048 BD46     		mov	sp, r7
 824 004a 05B0     		add	sp, sp, #20
 825              		@ sp needed
 826 004c 90BD     		pop	{r4, r7, pc}
 827              	.L67:
 828 004e C046     		.align	2
 829              	.L66:
 830 0050 0C020B40 		.word	1074463244
 831 0054 F7F7FFFF 		.word	-2057
 832              		.cfi_endproc
 833              	.LFE13:
 834              		.size	CySysWdtSetCascade, .-CySysWdtSetCascade
 835              		.section	.text.CySysWdtGetCascade,"ax",%progbits
 836              		.align	2
 837              		.global	CySysWdtGetCascade
ARM GAS  C:\Users\kylep\AppData\Local\Temp\ccxh0xLd.s 			page 30


 838              		.code	16
 839              		.thumb_func
 840              		.type	CySysWdtGetCascade, %function
 841              	CySysWdtGetCascade:
 842              	.LFB14:
 810:.\Generated_Source\PSoC4/CyLFClk.c **** 
 811:.\Generated_Source\PSoC4/CyLFClk.c **** 
 812:.\Generated_Source\PSoC4/CyLFClk.c ****     /*******************************************************************************
 813:.\Generated_Source\PSoC4/CyLFClk.c ****     * Function Name: CySysWdtGetCascade
 814:.\Generated_Source\PSoC4/CyLFClk.c ****     ********************************************************************************
 815:.\Generated_Source\PSoC4/CyLFClk.c ****     *
 816:.\Generated_Source\PSoC4/CyLFClk.c ****     * Summary:
 817:.\Generated_Source\PSoC4/CyLFClk.c ****     *   Reads the two WDT cascade values returning a mask of the bits set.
 818:.\Generated_Source\PSoC4/CyLFClk.c ****     *
 819:.\Generated_Source\PSoC4/CyLFClk.c ****     * Parameters:
 820:.\Generated_Source\PSoC4/CyLFClk.c ****     *   None.
 821:.\Generated_Source\PSoC4/CyLFClk.c ****     *
 822:.\Generated_Source\PSoC4/CyLFClk.c ****     * Return:
 823:.\Generated_Source\PSoC4/CyLFClk.c ****     *   The mask of the cascade values set.
 824:.\Generated_Source\PSoC4/CyLFClk.c ****     *   Define                     Cascade
 825:.\Generated_Source\PSoC4/CyLFClk.c ****     *   CY_SYS_WDT_CASCADE_NONE    Neither
 826:.\Generated_Source\PSoC4/CyLFClk.c ****     *   CY_SYS_WDT_CASCADE_01      Cascade 01
 827:.\Generated_Source\PSoC4/CyLFClk.c ****     *   CY_SYS_WDT_CASCADE_12      Cascade 12
 828:.\Generated_Source\PSoC4/CyLFClk.c ****     *
 829:.\Generated_Source\PSoC4/CyLFClk.c ****     *******************************************************************************/
 830:.\Generated_Source\PSoC4/CyLFClk.c ****     uint32 CySysWdtGetCascade(void)
 831:.\Generated_Source\PSoC4/CyLFClk.c ****     {
 843              		.loc 1 831 0
 844              		.cfi_startproc
 845 0000 80B5     		push	{r7, lr}
 846              		.cfi_def_cfa_offset 8
 847              		.cfi_offset 7, -8
 848              		.cfi_offset 14, -4
 849 0002 00AF     		add	r7, sp, #0
 850              		.cfi_def_cfa_register 7
 832:.\Generated_Source\PSoC4/CyLFClk.c ****         return (CY_SYS_WDT_CONFIG_REG & (CY_SYS_WDT_CASCADE_01 | CY_SYS_WDT_CASCADE_12));
 851              		.loc 1 832 0
 852 0004 034B     		ldr	r3, .L70
 853 0006 1B68     		ldr	r3, [r3]
 854 0008 034A     		ldr	r2, .L70+4
 855 000a 1340     		and	r3, r2
 833:.\Generated_Source\PSoC4/CyLFClk.c ****     }
 856              		.loc 1 833 0
 857 000c 181C     		mov	r0, r3
 858 000e BD46     		mov	sp, r7
 859              		@ sp needed
 860 0010 80BD     		pop	{r7, pc}
 861              	.L71:
 862 0012 C046     		.align	2
 863              	.L70:
 864 0014 0C020B40 		.word	1074463244
 865 0018 08080000 		.word	2056
 866              		.cfi_endproc
 867              	.LFE14:
 868              		.size	CySysWdtGetCascade, .-CySysWdtGetCascade
 869              		.section	.text.CySysWdtSetMatch,"ax",%progbits
 870              		.align	2
ARM GAS  C:\Users\kylep\AppData\Local\Temp\ccxh0xLd.s 			page 31


 871              		.global	CySysWdtSetMatch
 872              		.code	16
 873              		.thumb_func
 874              		.type	CySysWdtSetMatch, %function
 875              	CySysWdtSetMatch:
 876              	.LFB15:
 834:.\Generated_Source\PSoC4/CyLFClk.c **** 
 835:.\Generated_Source\PSoC4/CyLFClk.c **** 
 836:.\Generated_Source\PSoC4/CyLFClk.c ****     /*******************************************************************************
 837:.\Generated_Source\PSoC4/CyLFClk.c ****     * Function Name: CySysWdtSetMatch
 838:.\Generated_Source\PSoC4/CyLFClk.c ****     ********************************************************************************
 839:.\Generated_Source\PSoC4/CyLFClk.c ****     *
 840:.\Generated_Source\PSoC4/CyLFClk.c ****     * Summary:
 841:.\Generated_Source\PSoC4/CyLFClk.c ****     *  Configures the WDT counter match comparison value.
 842:.\Generated_Source\PSoC4/CyLFClk.c ****     *
 843:.\Generated_Source\PSoC4/CyLFClk.c ****     * Parameters:
 844:.\Generated_Source\PSoC4/CyLFClk.c ****     *  counterNum:
 845:.\Generated_Source\PSoC4/CyLFClk.c ****     *   Valid range [0-1]. The number of the WDT counter. The match values are not
 846:.\Generated_Source\PSoC4/CyLFClk.c ****     *   supported by counter 2.
 847:.\Generated_Source\PSoC4/CyLFClk.c ****     *
 848:.\Generated_Source\PSoC4/CyLFClk.c ****     *  match:
 849:.\Generated_Source\PSoC4/CyLFClk.c ****     *   Valid range [0-65535]. The value to be used to match against the counter.
 850:.\Generated_Source\PSoC4/CyLFClk.c ****     *
 851:.\Generated_Source\PSoC4/CyLFClk.c ****     * Return:
 852:.\Generated_Source\PSoC4/CyLFClk.c ****     *   None.
 853:.\Generated_Source\PSoC4/CyLFClk.c ****     *
 854:.\Generated_Source\PSoC4/CyLFClk.c ****     *******************************************************************************/
 855:.\Generated_Source\PSoC4/CyLFClk.c ****     void CySysWdtSetMatch(uint32 counterNum, uint32 match)
 856:.\Generated_Source\PSoC4/CyLFClk.c ****     {
 877              		.loc 1 856 0
 878              		.cfi_startproc
 879 0000 80B5     		push	{r7, lr}
 880              		.cfi_def_cfa_offset 8
 881              		.cfi_offset 7, -8
 882              		.cfi_offset 14, -4
 883 0002 84B0     		sub	sp, sp, #16
 884              		.cfi_def_cfa_offset 24
 885 0004 00AF     		add	r7, sp, #0
 886              		.cfi_def_cfa_register 7
 887 0006 7860     		str	r0, [r7, #4]
 888 0008 3960     		str	r1, [r7]
 857:.\Generated_Source\PSoC4/CyLFClk.c ****         uint32 regValue;
 858:.\Generated_Source\PSoC4/CyLFClk.c **** 
 859:.\Generated_Source\PSoC4/CyLFClk.c ****         CYASSERT((counterNum == CY_SYS_WDT_COUNTER0) ||
 860:.\Generated_Source\PSoC4/CyLFClk.c ****                  (counterNum == CY_SYS_WDT_COUNTER1));
 861:.\Generated_Source\PSoC4/CyLFClk.c **** 
 862:.\Generated_Source\PSoC4/CyLFClk.c ****         /* Wait for previous changes to come into effect */
 863:.\Generated_Source\PSoC4/CyLFClk.c ****         CyDelayUs(CY_SYS_WDT_3LFCLK_DELAY_US);
 889              		.loc 1 863 0
 890 000a C920     		mov	r0, #201
 891 000c FFF7FEFF 		bl	CyDelayUs
 864:.\Generated_Source\PSoC4/CyLFClk.c **** 
 865:.\Generated_Source\PSoC4/CyLFClk.c ****         regValue = CY_SYS_WDT_MATCH_REG;
 892              		.loc 1 865 0
 893 0010 0D4B     		ldr	r3, .L73
 894 0012 1B68     		ldr	r3, [r3]
 895 0014 FB60     		str	r3, [r7, #12]
ARM GAS  C:\Users\kylep\AppData\Local\Temp\ccxh0xLd.s 			page 32


 866:.\Generated_Source\PSoC4/CyLFClk.c ****         regValue &= (uint32)~((uint32)(CY_SYS_WDT_LOWER_16BITS_MASK << (counterNum * CY_SYS_WDT_CNT
 896              		.loc 1 866 0
 897 0016 7B68     		ldr	r3, [r7, #4]
 898 0018 1B01     		lsl	r3, r3, #4
 899 001a 1A1C     		mov	r2, r3
 900 001c 0B4B     		ldr	r3, .L73+4
 901 001e 9340     		lsl	r3, r3, r2
 902 0020 DA43     		mvn	r2, r3
 903 0022 FB68     		ldr	r3, [r7, #12]
 904 0024 1340     		and	r3, r2
 905 0026 FB60     		str	r3, [r7, #12]
 867:.\Generated_Source\PSoC4/CyLFClk.c ****         CY_SYS_WDT_MATCH_REG = (regValue | (match << (counterNum * CY_SYS_WDT_CNT_MATCH_SHIFT)));
 906              		.loc 1 867 0
 907 0028 074B     		ldr	r3, .L73
 908 002a 7A68     		ldr	r2, [r7, #4]
 909 002c 1201     		lsl	r2, r2, #4
 910 002e 111C     		mov	r1, r2
 911 0030 3A68     		ldr	r2, [r7]
 912 0032 8A40     		lsl	r2, r2, r1
 913 0034 111C     		mov	r1, r2
 914 0036 FA68     		ldr	r2, [r7, #12]
 915 0038 0A43     		orr	r2, r1
 916 003a 1A60     		str	r2, [r3]
 868:.\Generated_Source\PSoC4/CyLFClk.c **** 
 869:.\Generated_Source\PSoC4/CyLFClk.c ****         /* Make sure match synchronization has started */
 870:.\Generated_Source\PSoC4/CyLFClk.c ****         CyDelayUs(CY_SYS_WDT_1LFCLK_DELAY_US);
 917              		.loc 1 870 0
 918 003c 4320     		mov	r0, #67
 919 003e FFF7FEFF 		bl	CyDelayUs
 871:.\Generated_Source\PSoC4/CyLFClk.c ****     }
 920              		.loc 1 871 0
 921 0042 BD46     		mov	sp, r7
 922 0044 04B0     		add	sp, sp, #16
 923              		@ sp needed
 924 0046 80BD     		pop	{r7, pc}
 925              	.L74:
 926              		.align	2
 927              	.L73:
 928 0048 08020B40 		.word	1074463240
 929 004c FFFF0000 		.word	65535
 930              		.cfi_endproc
 931              	.LFE15:
 932              		.size	CySysWdtSetMatch, .-CySysWdtSetMatch
 933              		.section	.text.CySysWdtSetToggleBit,"ax",%progbits
 934              		.align	2
 935              		.global	CySysWdtSetToggleBit
 936              		.code	16
 937              		.thumb_func
 938              		.type	CySysWdtSetToggleBit, %function
 939              	CySysWdtSetToggleBit:
 940              	.LFB16:
 872:.\Generated_Source\PSoC4/CyLFClk.c **** 
 873:.\Generated_Source\PSoC4/CyLFClk.c **** 
 874:.\Generated_Source\PSoC4/CyLFClk.c ****     /*******************************************************************************
 875:.\Generated_Source\PSoC4/CyLFClk.c ****     * Function Name: CySysWdtSetToggleBit
 876:.\Generated_Source\PSoC4/CyLFClk.c ****     ********************************************************************************
 877:.\Generated_Source\PSoC4/CyLFClk.c ****     *
ARM GAS  C:\Users\kylep\AppData\Local\Temp\ccxh0xLd.s 			page 33


 878:.\Generated_Source\PSoC4/CyLFClk.c ****     * Summary:
 879:.\Generated_Source\PSoC4/CyLFClk.c ****     *  Configures which bit in WDT counter 2 to monitor for a toggle. When that
 880:.\Generated_Source\PSoC4/CyLFClk.c ****     *  bit toggles, an interrupt is generated if the mode for counter 2 has
 881:.\Generated_Source\PSoC4/CyLFClk.c ****     *  enabled interrupts.
 882:.\Generated_Source\PSoC4/CyLFClk.c ****     *
 883:.\Generated_Source\PSoC4/CyLFClk.c ****     * Parameters:
 884:.\Generated_Source\PSoC4/CyLFClk.c ****     *  bit:
 885:.\Generated_Source\PSoC4/CyLFClk.c ****     *   Valid range [0-31].  Counter 2 bit to monitor for a toggle.
 886:.\Generated_Source\PSoC4/CyLFClk.c ****     *
 887:.\Generated_Source\PSoC4/CyLFClk.c ****     * Return:
 888:.\Generated_Source\PSoC4/CyLFClk.c ****     *   None.
 889:.\Generated_Source\PSoC4/CyLFClk.c ****     *
 890:.\Generated_Source\PSoC4/CyLFClk.c ****     * Side effects:
 891:.\Generated_Source\PSoC4/CyLFClk.c ****     *   WDT Counter 2 should be disabled. Otherwise this function call has no
 892:.\Generated_Source\PSoC4/CyLFClk.c ****     *   effect.
 893:.\Generated_Source\PSoC4/CyLFClk.c ****     *
 894:.\Generated_Source\PSoC4/CyLFClk.c ****     *   If the specified counter is enabled, call the CySysWdtDisable() function with
 895:.\Generated_Source\PSoC4/CyLFClk.c ****     *   the corresponding parameter to disable the specified counter and wait for it to
 896:.\Generated_Source\PSoC4/CyLFClk.c ****     *   stop. This may take up to 3 LFCLK cycles.
 897:.\Generated_Source\PSoC4/CyLFClk.c ****     *
 898:.\Generated_Source\PSoC4/CyLFClk.c ****     *******************************************************************************/
 899:.\Generated_Source\PSoC4/CyLFClk.c ****     void CySysWdtSetToggleBit(uint32 bits)
 900:.\Generated_Source\PSoC4/CyLFClk.c ****     {
 941              		.loc 1 900 0
 942              		.cfi_startproc
 943 0000 80B5     		push	{r7, lr}
 944              		.cfi_def_cfa_offset 8
 945              		.cfi_offset 7, -8
 946              		.cfi_offset 14, -4
 947 0002 84B0     		sub	sp, sp, #16
 948              		.cfi_def_cfa_offset 24
 949 0004 00AF     		add	r7, sp, #0
 950              		.cfi_def_cfa_register 7
 951 0006 7860     		str	r0, [r7, #4]
 901:.\Generated_Source\PSoC4/CyLFClk.c ****         uint32 configRegValue;
 902:.\Generated_Source\PSoC4/CyLFClk.c **** 
 903:.\Generated_Source\PSoC4/CyLFClk.c ****         if (0u == CySysWdtGetEnabledStatus(CY_SYS_WDT_COUNTER2))
 952              		.loc 1 903 0
 953 0008 0220     		mov	r0, #2
 954 000a FFF7FEFF 		bl	CySysWdtGetEnabledStatus
 955 000e 031E     		sub	r3, r0, #0
 956 0010 10D1     		bne	.L75
 904:.\Generated_Source\PSoC4/CyLFClk.c ****         {
 905:.\Generated_Source\PSoC4/CyLFClk.c ****             configRegValue = CY_SYS_WDT_CONFIG_REG;
 957              		.loc 1 905 0
 958 0012 0A4B     		ldr	r3, .L77
 959 0014 1B68     		ldr	r3, [r3]
 960 0016 FB60     		str	r3, [r7, #12]
 906:.\Generated_Source\PSoC4/CyLFClk.c ****             configRegValue &= (uint32)(~((uint32)(CY_SYS_WDT_CONFIG_BITS2_MASK << CY_SYS_WDT_CONFIG
 961              		.loc 1 906 0
 962 0018 FB68     		ldr	r3, [r7, #12]
 963 001a 094A     		ldr	r2, .L77+4
 964 001c 1340     		and	r3, r2
 965 001e FB60     		str	r3, [r7, #12]
 907:.\Generated_Source\PSoC4/CyLFClk.c ****             configRegValue |= ((bits & CY_SYS_WDT_CONFIG_BITS2_MASK) << CY_SYS_WDT_CONFIG_BITS2_POS
 966              		.loc 1 907 0
 967 0020 7B68     		ldr	r3, [r7, #4]
ARM GAS  C:\Users\kylep\AppData\Local\Temp\ccxh0xLd.s 			page 34


 968 0022 1F22     		mov	r2, #31
 969 0024 1340     		and	r3, r2
 970 0026 1B06     		lsl	r3, r3, #24
 971 0028 FA68     		ldr	r2, [r7, #12]
 972 002a 1343     		orr	r3, r2
 973 002c FB60     		str	r3, [r7, #12]
 908:.\Generated_Source\PSoC4/CyLFClk.c ****             CY_SYS_WDT_CONFIG_REG = configRegValue;
 974              		.loc 1 908 0
 975 002e 034B     		ldr	r3, .L77
 976 0030 FA68     		ldr	r2, [r7, #12]
 977 0032 1A60     		str	r2, [r3]
 978              	.L75:
 909:.\Generated_Source\PSoC4/CyLFClk.c ****         }
 910:.\Generated_Source\PSoC4/CyLFClk.c ****     }
 979              		.loc 1 910 0
 980 0034 BD46     		mov	sp, r7
 981 0036 04B0     		add	sp, sp, #16
 982              		@ sp needed
 983 0038 80BD     		pop	{r7, pc}
 984              	.L78:
 985 003a C046     		.align	2
 986              	.L77:
 987 003c 0C020B40 		.word	1074463244
 988 0040 FFFFFFE0 		.word	-520093697
 989              		.cfi_endproc
 990              	.LFE16:
 991              		.size	CySysWdtSetToggleBit, .-CySysWdtSetToggleBit
 992              		.section	.text.CySysWdtGetToggleBit,"ax",%progbits
 993              		.align	2
 994              		.global	CySysWdtGetToggleBit
 995              		.code	16
 996              		.thumb_func
 997              		.type	CySysWdtGetToggleBit, %function
 998              	CySysWdtGetToggleBit:
 999              	.LFB17:
 911:.\Generated_Source\PSoC4/CyLFClk.c **** 
 912:.\Generated_Source\PSoC4/CyLFClk.c **** 
 913:.\Generated_Source\PSoC4/CyLFClk.c ****     /*******************************************************************************
 914:.\Generated_Source\PSoC4/CyLFClk.c ****     * Function Name: CySysWdtGetToggleBit
 915:.\Generated_Source\PSoC4/CyLFClk.c ****     ********************************************************************************
 916:.\Generated_Source\PSoC4/CyLFClk.c ****     *
 917:.\Generated_Source\PSoC4/CyLFClk.c ****     * Summary:
 918:.\Generated_Source\PSoC4/CyLFClk.c ****     *  Reads which bit in WDT counter 2 is monitored for a toggle.
 919:.\Generated_Source\PSoC4/CyLFClk.c ****     *
 920:.\Generated_Source\PSoC4/CyLFClk.c ****     * Parameters:
 921:.\Generated_Source\PSoC4/CyLFClk.c ****     *  None.
 922:.\Generated_Source\PSoC4/CyLFClk.c ****     *
 923:.\Generated_Source\PSoC4/CyLFClk.c ****     * Return:
 924:.\Generated_Source\PSoC4/CyLFClk.c ****     *  The bit that is monitored (range of 0 to 31)
 925:.\Generated_Source\PSoC4/CyLFClk.c ****     *
 926:.\Generated_Source\PSoC4/CyLFClk.c ****     *******************************************************************************/
 927:.\Generated_Source\PSoC4/CyLFClk.c ****     uint32 CySysWdtGetToggleBit(void)
 928:.\Generated_Source\PSoC4/CyLFClk.c ****     {
 1000              		.loc 1 928 0
 1001              		.cfi_startproc
 1002 0000 80B5     		push	{r7, lr}
 1003              		.cfi_def_cfa_offset 8
ARM GAS  C:\Users\kylep\AppData\Local\Temp\ccxh0xLd.s 			page 35


 1004              		.cfi_offset 7, -8
 1005              		.cfi_offset 14, -4
 1006 0002 00AF     		add	r7, sp, #0
 1007              		.cfi_def_cfa_register 7
 929:.\Generated_Source\PSoC4/CyLFClk.c ****         return ((CY_SYS_WDT_CONFIG_REG >> CY_SYS_WDT_CONFIG_BITS2_POS) & CY_SYS_WDT_CONFIG_BITS2_MA
 1008              		.loc 1 929 0
 1009 0004 034B     		ldr	r3, .L81
 1010 0006 1B68     		ldr	r3, [r3]
 1011 0008 1B0E     		lsr	r3, r3, #24
 1012 000a 1F22     		mov	r2, #31
 1013 000c 1340     		and	r3, r2
 930:.\Generated_Source\PSoC4/CyLFClk.c ****     }
 1014              		.loc 1 930 0
 1015 000e 181C     		mov	r0, r3
 1016 0010 BD46     		mov	sp, r7
 1017              		@ sp needed
 1018 0012 80BD     		pop	{r7, pc}
 1019              	.L82:
 1020              		.align	2
 1021              	.L81:
 1022 0014 0C020B40 		.word	1074463244
 1023              		.cfi_endproc
 1024              	.LFE17:
 1025              		.size	CySysWdtGetToggleBit, .-CySysWdtGetToggleBit
 1026              		.section	.text.CySysWdtGetMatch,"ax",%progbits
 1027              		.align	2
 1028              		.global	CySysWdtGetMatch
 1029              		.code	16
 1030              		.thumb_func
 1031              		.type	CySysWdtGetMatch, %function
 1032              	CySysWdtGetMatch:
 1033              	.LFB18:
 931:.\Generated_Source\PSoC4/CyLFClk.c **** 
 932:.\Generated_Source\PSoC4/CyLFClk.c **** 
 933:.\Generated_Source\PSoC4/CyLFClk.c ****     /*******************************************************************************
 934:.\Generated_Source\PSoC4/CyLFClk.c ****     * Function Name: CySysWdtGetMatch
 935:.\Generated_Source\PSoC4/CyLFClk.c ****     ********************************************************************************
 936:.\Generated_Source\PSoC4/CyLFClk.c ****     *
 937:.\Generated_Source\PSoC4/CyLFClk.c ****     * Summary:
 938:.\Generated_Source\PSoC4/CyLFClk.c ****     *  Reads the WDT counter match comparison value.
 939:.\Generated_Source\PSoC4/CyLFClk.c ****     *
 940:.\Generated_Source\PSoC4/CyLFClk.c ****     * Parameters:
 941:.\Generated_Source\PSoC4/CyLFClk.c ****     *  counterNum: Valid range [0-1].  The number of the WDT counter.  The match values
 942:.\Generated_Source\PSoC4/CyLFClk.c ****     *               are not supported by counter 2.
 943:.\Generated_Source\PSoC4/CyLFClk.c ****     *
 944:.\Generated_Source\PSoC4/CyLFClk.c ****     * Return:
 945:.\Generated_Source\PSoC4/CyLFClk.c ****     *  A 16-bit match value.
 946:.\Generated_Source\PSoC4/CyLFClk.c ****     *
 947:.\Generated_Source\PSoC4/CyLFClk.c ****     *******************************************************************************/
 948:.\Generated_Source\PSoC4/CyLFClk.c ****     uint32 CySysWdtGetMatch(uint32 counterNum)
 949:.\Generated_Source\PSoC4/CyLFClk.c ****     {
 1034              		.loc 1 949 0
 1035              		.cfi_startproc
 1036 0000 80B5     		push	{r7, lr}
 1037              		.cfi_def_cfa_offset 8
 1038              		.cfi_offset 7, -8
 1039              		.cfi_offset 14, -4
ARM GAS  C:\Users\kylep\AppData\Local\Temp\ccxh0xLd.s 			page 36


 1040 0002 82B0     		sub	sp, sp, #8
 1041              		.cfi_def_cfa_offset 16
 1042 0004 00AF     		add	r7, sp, #0
 1043              		.cfi_def_cfa_register 7
 1044 0006 7860     		str	r0, [r7, #4]
 950:.\Generated_Source\PSoC4/CyLFClk.c ****         CYASSERT((counterNum == CY_SYS_WDT_COUNTER0) ||
 951:.\Generated_Source\PSoC4/CyLFClk.c ****                  (counterNum == CY_SYS_WDT_COUNTER1));
 952:.\Generated_Source\PSoC4/CyLFClk.c **** 
 953:.\Generated_Source\PSoC4/CyLFClk.c ****         return ((uint32)(CY_SYS_WDT_MATCH_REG >> (counterNum * CY_SYS_WDT_CNT_MATCH_SHIFT)) & CY_SY
 1045              		.loc 1 953 0
 1046 0008 054B     		ldr	r3, .L85
 1047 000a 1B68     		ldr	r3, [r3]
 1048 000c 7A68     		ldr	r2, [r7, #4]
 1049 000e 1201     		lsl	r2, r2, #4
 1050 0010 D340     		lsr	r3, r3, r2
 1051 0012 1B04     		lsl	r3, r3, #16
 1052 0014 1B0C     		lsr	r3, r3, #16
 954:.\Generated_Source\PSoC4/CyLFClk.c ****     }
 1053              		.loc 1 954 0
 1054 0016 181C     		mov	r0, r3
 1055 0018 BD46     		mov	sp, r7
 1056 001a 02B0     		add	sp, sp, #8
 1057              		@ sp needed
 1058 001c 80BD     		pop	{r7, pc}
 1059              	.L86:
 1060 001e C046     		.align	2
 1061              	.L85:
 1062 0020 08020B40 		.word	1074463240
 1063              		.cfi_endproc
 1064              	.LFE18:
 1065              		.size	CySysWdtGetMatch, .-CySysWdtGetMatch
 1066              		.section	.text.CySysWdtGetCount,"ax",%progbits
 1067              		.align	2
 1068              		.global	CySysWdtGetCount
 1069              		.code	16
 1070              		.thumb_func
 1071              		.type	CySysWdtGetCount, %function
 1072              	CySysWdtGetCount:
 1073              	.LFB19:
 955:.\Generated_Source\PSoC4/CyLFClk.c **** 
 956:.\Generated_Source\PSoC4/CyLFClk.c **** 
 957:.\Generated_Source\PSoC4/CyLFClk.c ****     /*******************************************************************************
 958:.\Generated_Source\PSoC4/CyLFClk.c ****     * Function Name: CySysWdtGetCount
 959:.\Generated_Source\PSoC4/CyLFClk.c ****     ********************************************************************************
 960:.\Generated_Source\PSoC4/CyLFClk.c ****     *
 961:.\Generated_Source\PSoC4/CyLFClk.c ****     * Summary:
 962:.\Generated_Source\PSoC4/CyLFClk.c ****     *  Reads the current WDT counter value.
 963:.\Generated_Source\PSoC4/CyLFClk.c ****     *
 964:.\Generated_Source\PSoC4/CyLFClk.c ****     * Parameters:
 965:.\Generated_Source\PSoC4/CyLFClk.c ****     *  counterNum: Valid range [0-2].  The number of the WDT counter.
 966:.\Generated_Source\PSoC4/CyLFClk.c ****     *
 967:.\Generated_Source\PSoC4/CyLFClk.c ****     * Return:
 968:.\Generated_Source\PSoC4/CyLFClk.c ****     *  A live counter value.  Counter 0 and 1 are 16 bit counters and counter
 969:.\Generated_Source\PSoC4/CyLFClk.c ****     *  2 is a 32 bit counter.
 970:.\Generated_Source\PSoC4/CyLFClk.c ****     *
 971:.\Generated_Source\PSoC4/CyLFClk.c ****     *******************************************************************************/
 972:.\Generated_Source\PSoC4/CyLFClk.c ****     uint32 CySysWdtGetCount(uint32 counterNum)
ARM GAS  C:\Users\kylep\AppData\Local\Temp\ccxh0xLd.s 			page 37


 973:.\Generated_Source\PSoC4/CyLFClk.c ****     {
 1074              		.loc 1 973 0
 1075              		.cfi_startproc
 1076 0000 80B5     		push	{r7, lr}
 1077              		.cfi_def_cfa_offset 8
 1078              		.cfi_offset 7, -8
 1079              		.cfi_offset 14, -4
 1080 0002 84B0     		sub	sp, sp, #16
 1081              		.cfi_def_cfa_offset 24
 1082 0004 00AF     		add	r7, sp, #0
 1083              		.cfi_def_cfa_register 7
 1084 0006 7860     		str	r0, [r7, #4]
 974:.\Generated_Source\PSoC4/CyLFClk.c ****         uint32 regValue = 0u;
 1085              		.loc 1 974 0
 1086 0008 0023     		mov	r3, #0
 1087 000a FB60     		str	r3, [r7, #12]
 975:.\Generated_Source\PSoC4/CyLFClk.c **** 
 976:.\Generated_Source\PSoC4/CyLFClk.c ****         switch(counterNum)
 1088              		.loc 1 976 0
 1089 000c 7B68     		ldr	r3, [r7, #4]
 1090 000e 012B     		cmp	r3, #1
 1091 0010 09D0     		beq	.L89
 1092 0012 02D3     		bcc	.L90
 1093 0014 022B     		cmp	r3, #2
 1094 0016 0BD0     		beq	.L91
 977:.\Generated_Source\PSoC4/CyLFClk.c ****         {
 978:.\Generated_Source\PSoC4/CyLFClk.c ****             /* WDT Counter 0 */
 979:.\Generated_Source\PSoC4/CyLFClk.c ****             case 0u:
 980:.\Generated_Source\PSoC4/CyLFClk.c ****                 regValue = CY_SYS_WDT_CTRLOW_REG & CY_SYS_WDT_LOWER_16BITS_MASK;
 981:.\Generated_Source\PSoC4/CyLFClk.c ****             break;
 982:.\Generated_Source\PSoC4/CyLFClk.c **** 
 983:.\Generated_Source\PSoC4/CyLFClk.c ****             /* WDT Counter 1 */
 984:.\Generated_Source\PSoC4/CyLFClk.c ****             case 1u:
 985:.\Generated_Source\PSoC4/CyLFClk.c ****                 regValue = (CY_SYS_WDT_CTRLOW_REG >> CY_SYS_WDT_CNT_MATCH_SHIFT) & CY_SYS_WDT_LOWER
 986:.\Generated_Source\PSoC4/CyLFClk.c ****             break;
 987:.\Generated_Source\PSoC4/CyLFClk.c **** 
 988:.\Generated_Source\PSoC4/CyLFClk.c ****             /* WDT Counter 2 */
 989:.\Generated_Source\PSoC4/CyLFClk.c ****             case 2u:
 990:.\Generated_Source\PSoC4/CyLFClk.c ****                 regValue = CY_SYS_WDT_CTRHIGH_REG;
 991:.\Generated_Source\PSoC4/CyLFClk.c ****             break;
 992:.\Generated_Source\PSoC4/CyLFClk.c **** 
 993:.\Generated_Source\PSoC4/CyLFClk.c ****             default:
 994:.\Generated_Source\PSoC4/CyLFClk.c ****                 CYASSERT(0u != 0u);
 995:.\Generated_Source\PSoC4/CyLFClk.c ****             break;
 1095              		.loc 1 995 0
 1096 0018 0EE0     		b	.L92
 1097              	.L90:
 980:.\Generated_Source\PSoC4/CyLFClk.c ****             break;
 1098              		.loc 1 980 0
 1099 001a 0A4B     		ldr	r3, .L94
 1100 001c 1B68     		ldr	r3, [r3]
 1101 001e 1B04     		lsl	r3, r3, #16
 1102 0020 1B0C     		lsr	r3, r3, #16
 1103 0022 FB60     		str	r3, [r7, #12]
 981:.\Generated_Source\PSoC4/CyLFClk.c **** 
 1104              		.loc 1 981 0
 1105 0024 08E0     		b	.L92
ARM GAS  C:\Users\kylep\AppData\Local\Temp\ccxh0xLd.s 			page 38


 1106              	.L89:
 985:.\Generated_Source\PSoC4/CyLFClk.c ****             break;
 1107              		.loc 1 985 0
 1108 0026 074B     		ldr	r3, .L94
 1109 0028 1B68     		ldr	r3, [r3]
 1110 002a 1B0C     		lsr	r3, r3, #16
 1111 002c FB60     		str	r3, [r7, #12]
 986:.\Generated_Source\PSoC4/CyLFClk.c **** 
 1112              		.loc 1 986 0
 1113 002e 03E0     		b	.L92
 1114              	.L91:
 990:.\Generated_Source\PSoC4/CyLFClk.c ****             break;
 1115              		.loc 1 990 0
 1116 0030 054B     		ldr	r3, .L94+4
 1117 0032 1B68     		ldr	r3, [r3]
 1118 0034 FB60     		str	r3, [r7, #12]
 991:.\Generated_Source\PSoC4/CyLFClk.c **** 
 1119              		.loc 1 991 0
 1120 0036 C046     		mov	r8, r8
 1121              	.L92:
 996:.\Generated_Source\PSoC4/CyLFClk.c ****         }
 997:.\Generated_Source\PSoC4/CyLFClk.c **** 
 998:.\Generated_Source\PSoC4/CyLFClk.c ****         return (regValue);
 1122              		.loc 1 998 0
 1123 0038 FB68     		ldr	r3, [r7, #12]
 999:.\Generated_Source\PSoC4/CyLFClk.c ****     }
 1124              		.loc 1 999 0
 1125 003a 181C     		mov	r0, r3
 1126 003c BD46     		mov	sp, r7
 1127 003e 04B0     		add	sp, sp, #16
 1128              		@ sp needed
 1129 0040 80BD     		pop	{r7, pc}
 1130              	.L95:
 1131 0042 C046     		.align	2
 1132              	.L94:
 1133 0044 00020B40 		.word	1074463232
 1134 0048 04020B40 		.word	1074463236
 1135              		.cfi_endproc
 1136              	.LFE19:
 1137              		.size	CySysWdtGetCount, .-CySysWdtGetCount
 1138              		.section	.text.CySysWdtGetInterruptSource,"ax",%progbits
 1139              		.align	2
 1140              		.global	CySysWdtGetInterruptSource
 1141              		.code	16
 1142              		.thumb_func
 1143              		.type	CySysWdtGetInterruptSource, %function
 1144              	CySysWdtGetInterruptSource:
 1145              	.LFB20:
1000:.\Generated_Source\PSoC4/CyLFClk.c **** 
1001:.\Generated_Source\PSoC4/CyLFClk.c **** 
1002:.\Generated_Source\PSoC4/CyLFClk.c ****     /*******************************************************************************
1003:.\Generated_Source\PSoC4/CyLFClk.c ****     * Function Name: CySysWdtGetInterruptSource
1004:.\Generated_Source\PSoC4/CyLFClk.c ****     ********************************************************************************
1005:.\Generated_Source\PSoC4/CyLFClk.c ****     *
1006:.\Generated_Source\PSoC4/CyLFClk.c ****     * Summary:
1007:.\Generated_Source\PSoC4/CyLFClk.c ****     *   Reads a mask containing all the WDT counters interrupts that are currently
1008:.\Generated_Source\PSoC4/CyLFClk.c ****     *   set by the hardware, if a corresponding mode is selected.
ARM GAS  C:\Users\kylep\AppData\Local\Temp\ccxh0xLd.s 			page 39


1009:.\Generated_Source\PSoC4/CyLFClk.c ****     *
1010:.\Generated_Source\PSoC4/CyLFClk.c ****     * Parameters:
1011:.\Generated_Source\PSoC4/CyLFClk.c ****     *   None.
1012:.\Generated_Source\PSoC4/CyLFClk.c ****     *
1013:.\Generated_Source\PSoC4/CyLFClk.c ****     * Return:
1014:.\Generated_Source\PSoC4/CyLFClk.c ****     *   The mask of interrupts set.
1015:.\Generated_Source\PSoC4/CyLFClk.c ****     *   Define                    Counter
1016:.\Generated_Source\PSoC4/CyLFClk.c ****     *   CY_SYS_WDT_COUNTER0_INT    0
1017:.\Generated_Source\PSoC4/CyLFClk.c ****     *   CY_SYS_WDT_COUNTER1_INT    1
1018:.\Generated_Source\PSoC4/CyLFClk.c ****     *   CY_SYS_WDT_COUNTER2_INT    2
1019:.\Generated_Source\PSoC4/CyLFClk.c ****     *
1020:.\Generated_Source\PSoC4/CyLFClk.c ****     *******************************************************************************/
1021:.\Generated_Source\PSoC4/CyLFClk.c ****     uint32 CySysWdtGetInterruptSource(void)
1022:.\Generated_Source\PSoC4/CyLFClk.c ****     {
 1146              		.loc 1 1022 0
 1147              		.cfi_startproc
 1148 0000 80B5     		push	{r7, lr}
 1149              		.cfi_def_cfa_offset 8
 1150              		.cfi_offset 7, -8
 1151              		.cfi_offset 14, -4
 1152 0002 00AF     		add	r7, sp, #0
 1153              		.cfi_def_cfa_register 7
1023:.\Generated_Source\PSoC4/CyLFClk.c ****         return (CY_SYS_WDT_CONTROL_REG & (CY_SYS_WDT_COUNTER0_INT | CY_SYS_WDT_COUNTER1_INT | CY_SY
 1154              		.loc 1 1023 0
 1155 0004 034B     		ldr	r3, .L98
 1156 0006 1B68     		ldr	r3, [r3]
 1157 0008 034A     		ldr	r2, .L98+4
 1158 000a 1340     		and	r3, r2
1024:.\Generated_Source\PSoC4/CyLFClk.c ****     }
 1159              		.loc 1 1024 0
 1160 000c 181C     		mov	r0, r3
 1161 000e BD46     		mov	sp, r7
 1162              		@ sp needed
 1163 0010 80BD     		pop	{r7, pc}
 1164              	.L99:
 1165 0012 C046     		.align	2
 1166              	.L98:
 1167 0014 10020B40 		.word	1074463248
 1168 0018 04040400 		.word	263172
 1169              		.cfi_endproc
 1170              	.LFE20:
 1171              		.size	CySysWdtGetInterruptSource, .-CySysWdtGetInterruptSource
 1172              		.section	.text.CySysWdtClearInterrupt,"ax",%progbits
 1173              		.align	2
 1174              		.global	CySysWdtClearInterrupt
 1175              		.code	16
 1176              		.thumb_func
 1177              		.type	CySysWdtClearInterrupt, %function
 1178              	CySysWdtClearInterrupt:
 1179              	.LFB21:
1025:.\Generated_Source\PSoC4/CyLFClk.c **** 
1026:.\Generated_Source\PSoC4/CyLFClk.c **** 
1027:.\Generated_Source\PSoC4/CyLFClk.c ****     /*******************************************************************************
1028:.\Generated_Source\PSoC4/CyLFClk.c ****     * Function Name: CySysWdtClearInterrupt
1029:.\Generated_Source\PSoC4/CyLFClk.c ****     ********************************************************************************
1030:.\Generated_Source\PSoC4/CyLFClk.c ****     *
1031:.\Generated_Source\PSoC4/CyLFClk.c ****     * Summary:
ARM GAS  C:\Users\kylep\AppData\Local\Temp\ccxh0xLd.s 			page 40


1032:.\Generated_Source\PSoC4/CyLFClk.c ****     *   Clears all the WDT counter interrupts set in the mask. Calling this function
1033:.\Generated_Source\PSoC4/CyLFClk.c ****     *   also prevents from Reset when the counter mode is set to generate
1034:.\Generated_Source\PSoC4/CyLFClk.c ****     *   3 interrupts and then the device resets.
1035:.\Generated_Source\PSoC4/CyLFClk.c ****     *
1036:.\Generated_Source\PSoC4/CyLFClk.c ****     *   All the WDT interrupts are to be cleared by the firmware, otherwise
1037:.\Generated_Source\PSoC4/CyLFClk.c ****     *   interrupts are generated continuously.
1038:.\Generated_Source\PSoC4/CyLFClk.c ****     *
1039:.\Generated_Source\PSoC4/CyLFClk.c ****     * Parameters:
1040:.\Generated_Source\PSoC4/CyLFClk.c ****     *   counterMask: The mask of all the counters to enable.
1041:.\Generated_Source\PSoC4/CyLFClk.c ****     *   Define                    Counter
1042:.\Generated_Source\PSoC4/CyLFClk.c ****     *   CY_SYS_WDT_COUNTER0_INT    0
1043:.\Generated_Source\PSoC4/CyLFClk.c ****     *   CY_SYS_WDT_COUNTER1_INT    1
1044:.\Generated_Source\PSoC4/CyLFClk.c ****     *   CY_SYS_WDT_COUNTER2_INT    2
1045:.\Generated_Source\PSoC4/CyLFClk.c ****     *
1046:.\Generated_Source\PSoC4/CyLFClk.c ****     * Return:
1047:.\Generated_Source\PSoC4/CyLFClk.c ****     *   None
1048:.\Generated_Source\PSoC4/CyLFClk.c ****     *
1049:.\Generated_Source\PSoC4/CyLFClk.c ****     * Side effects:
1050:.\Generated_Source\PSoC4/CyLFClk.c ****     *   This function temporary removes the watchdog lock, if it was set, and
1051:.\Generated_Source\PSoC4/CyLFClk.c ****     *   restores the lock state after cleaning the WDT interrupts that are set in
1052:.\Generated_Source\PSoC4/CyLFClk.c ****     *   a mask.
1053:.\Generated_Source\PSoC4/CyLFClk.c ****     *
1054:.\Generated_Source\PSoC4/CyLFClk.c ****     *******************************************************************************/
1055:.\Generated_Source\PSoC4/CyLFClk.c ****     void CySysWdtClearInterrupt(uint32 counterMask)
1056:.\Generated_Source\PSoC4/CyLFClk.c ****     {
 1180              		.loc 1 1056 0
 1181              		.cfi_startproc
 1182 0000 90B5     		push	{r4, r7, lr}
 1183              		.cfi_def_cfa_offset 12
 1184              		.cfi_offset 4, -12
 1185              		.cfi_offset 7, -8
 1186              		.cfi_offset 14, -4
 1187 0002 85B0     		sub	sp, sp, #20
 1188              		.cfi_def_cfa_offset 32
 1189 0004 00AF     		add	r7, sp, #0
 1190              		.cfi_def_cfa_register 7
 1191 0006 7860     		str	r0, [r7, #4]
1057:.\Generated_Source\PSoC4/CyLFClk.c ****         uint8 interruptState;
1058:.\Generated_Source\PSoC4/CyLFClk.c ****         uint32 wdtLockState;
1059:.\Generated_Source\PSoC4/CyLFClk.c **** 
1060:.\Generated_Source\PSoC4/CyLFClk.c ****         interruptState = CyEnterCriticalSection();
 1192              		.loc 1 1060 0
 1193 0008 0B23     		mov	r3, #11
 1194 000a FC18     		add	r4, r7, r3
 1195 000c FFF7FEFF 		bl	CyEnterCriticalSection
 1196 0010 031C     		mov	r3, r0
 1197 0012 2370     		strb	r3, [r4]
1061:.\Generated_Source\PSoC4/CyLFClk.c **** 
1062:.\Generated_Source\PSoC4/CyLFClk.c ****         if (0u != CySysWdtLocked())
 1198              		.loc 1 1062 0
 1199 0014 FFF7FEFF 		bl	CySysWdtLocked
 1200 0018 031E     		sub	r3, r0, #0
 1201 001a 04D0     		beq	.L101
1063:.\Generated_Source\PSoC4/CyLFClk.c ****         {
1064:.\Generated_Source\PSoC4/CyLFClk.c ****             wdtLockState = 1u;
 1202              		.loc 1 1064 0
 1203 001c 0123     		mov	r3, #1
ARM GAS  C:\Users\kylep\AppData\Local\Temp\ccxh0xLd.s 			page 41


 1204 001e FB60     		str	r3, [r7, #12]
1065:.\Generated_Source\PSoC4/CyLFClk.c ****             CySysWdtUnlock();
 1205              		.loc 1 1065 0
 1206 0020 FFF7FEFF 		bl	CySysWdtUnlock
 1207 0024 01E0     		b	.L102
 1208              	.L101:
1066:.\Generated_Source\PSoC4/CyLFClk.c ****         }
1067:.\Generated_Source\PSoC4/CyLFClk.c ****         else
1068:.\Generated_Source\PSoC4/CyLFClk.c ****         {
1069:.\Generated_Source\PSoC4/CyLFClk.c ****             wdtLockState = 0u;
 1209              		.loc 1 1069 0
 1210 0026 0023     		mov	r3, #0
 1211 0028 FB60     		str	r3, [r7, #12]
 1212              	.L102:
1070:.\Generated_Source\PSoC4/CyLFClk.c ****         }
1071:.\Generated_Source\PSoC4/CyLFClk.c **** 
1072:.\Generated_Source\PSoC4/CyLFClk.c ****         /* Set new WDT control register value */
1073:.\Generated_Source\PSoC4/CyLFClk.c ****         counterMask &= (CY_SYS_WDT_COUNTER0_INT |
 1213              		.loc 1 1073 0
 1214 002a 7B68     		ldr	r3, [r7, #4]
 1215 002c 0D4A     		ldr	r2, .L104
 1216 002e 1340     		and	r3, r2
 1217 0030 7B60     		str	r3, [r7, #4]
1074:.\Generated_Source\PSoC4/CyLFClk.c ****                         CY_SYS_WDT_COUNTER1_INT |
1075:.\Generated_Source\PSoC4/CyLFClk.c ****                         CY_SYS_WDT_COUNTER2_INT);
1076:.\Generated_Source\PSoC4/CyLFClk.c **** 
1077:.\Generated_Source\PSoC4/CyLFClk.c ****         CY_SYS_WDT_CONTROL_REG = counterMask | (CY_SYS_WDT_CONTROL_REG & ~(CY_SYS_WDT_COUNTER0_INT 
 1218              		.loc 1 1077 0
 1219 0032 0D4B     		ldr	r3, .L104+4
 1220 0034 0C4A     		ldr	r2, .L104+4
 1221 0036 1268     		ldr	r2, [r2]
 1222 0038 0C49     		ldr	r1, .L104+8
 1223 003a 1140     		and	r1, r2
 1224 003c 7A68     		ldr	r2, [r7, #4]
 1225 003e 0A43     		orr	r2, r1
 1226 0040 1A60     		str	r2, [r3]
1078:.\Generated_Source\PSoC4/CyLFClk.c ****                                                                            CY_SYS_WDT_COUNTER1_INT 
1079:.\Generated_Source\PSoC4/CyLFClk.c ****                                                                            CY_SYS_WDT_COUNTER2_INT)
1080:.\Generated_Source\PSoC4/CyLFClk.c **** 
1081:.\Generated_Source\PSoC4/CyLFClk.c ****         /* Read the CY_SYS_WDT_CONTROL_REG to clear the interrupt request.
1082:.\Generated_Source\PSoC4/CyLFClk.c ****          * Cypress ID #207093, #206231
1083:.\Generated_Source\PSoC4/CyLFClk.c ****         */
1084:.\Generated_Source\PSoC4/CyLFClk.c ****         (void)CY_SYS_WDT_CONTROL_REG;
 1227              		.loc 1 1084 0
 1228 0042 094B     		ldr	r3, .L104+4
 1229 0044 1B68     		ldr	r3, [r3]
1085:.\Generated_Source\PSoC4/CyLFClk.c **** 
1086:.\Generated_Source\PSoC4/CyLFClk.c ****         if (1u == wdtLockState)
 1230              		.loc 1 1086 0
 1231 0046 FB68     		ldr	r3, [r7, #12]
 1232 0048 012B     		cmp	r3, #1
 1233 004a 01D1     		bne	.L103
1087:.\Generated_Source\PSoC4/CyLFClk.c ****         {
1088:.\Generated_Source\PSoC4/CyLFClk.c ****             CySysWdtLock();
 1234              		.loc 1 1088 0
 1235 004c FFF7FEFF 		bl	CySysWdtLock
 1236              	.L103:
ARM GAS  C:\Users\kylep\AppData\Local\Temp\ccxh0xLd.s 			page 42


1089:.\Generated_Source\PSoC4/CyLFClk.c ****         }
1090:.\Generated_Source\PSoC4/CyLFClk.c **** 
1091:.\Generated_Source\PSoC4/CyLFClk.c ****         CyExitCriticalSection(interruptState);
 1237              		.loc 1 1091 0
 1238 0050 0B23     		mov	r3, #11
 1239 0052 FB18     		add	r3, r7, r3
 1240 0054 1B78     		ldrb	r3, [r3]
 1241 0056 181C     		mov	r0, r3
 1242 0058 FFF7FEFF 		bl	CyExitCriticalSection
1092:.\Generated_Source\PSoC4/CyLFClk.c ****     }
 1243              		.loc 1 1092 0
 1244 005c BD46     		mov	sp, r7
 1245 005e 05B0     		add	sp, sp, #20
 1246              		@ sp needed
 1247 0060 90BD     		pop	{r4, r7, pc}
 1248              	.L105:
 1249 0062 C046     		.align	2
 1250              	.L104:
 1251 0064 04040400 		.word	263172
 1252 0068 10020B40 		.word	1074463248
 1253 006c FBFBFBFF 		.word	-263173
 1254              		.cfi_endproc
 1255              	.LFE21:
 1256              		.size	CySysWdtClearInterrupt, .-CySysWdtClearInterrupt
 1257              		.section	.text.CySysWdtResetCounters,"ax",%progbits
 1258              		.align	2
 1259              		.global	CySysWdtResetCounters
 1260              		.code	16
 1261              		.thumb_func
 1262              		.type	CySysWdtResetCounters, %function
 1263              	CySysWdtResetCounters:
 1264              	.LFB22:
1093:.\Generated_Source\PSoC4/CyLFClk.c **** 
1094:.\Generated_Source\PSoC4/CyLFClk.c **** 
1095:.\Generated_Source\PSoC4/CyLFClk.c ****     /*******************************************************************************
1096:.\Generated_Source\PSoC4/CyLFClk.c ****     * Function Name: CySysWdtResetCounters
1097:.\Generated_Source\PSoC4/CyLFClk.c ****     ********************************************************************************
1098:.\Generated_Source\PSoC4/CyLFClk.c ****     *
1099:.\Generated_Source\PSoC4/CyLFClk.c ****     * Summary:
1100:.\Generated_Source\PSoC4/CyLFClk.c ****     *  Resets all the WDT counters set in the mask.
1101:.\Generated_Source\PSoC4/CyLFClk.c ****     *
1102:.\Generated_Source\PSoC4/CyLFClk.c ****     * Parameters:
1103:.\Generated_Source\PSoC4/CyLFClk.c ****     *  counterMask: The mask of all the counters to reset.
1104:.\Generated_Source\PSoC4/CyLFClk.c ****     *   Define                       Counter
1105:.\Generated_Source\PSoC4/CyLFClk.c ****     *   CY_SYS_WDT_COUNTER0_RESET    0
1106:.\Generated_Source\PSoC4/CyLFClk.c ****     *   CY_SYS_WDT_COUNTER1_RESET    1
1107:.\Generated_Source\PSoC4/CyLFClk.c ****     *   CY_SYS_WDT_COUNTER2_RESET    2
1108:.\Generated_Source\PSoC4/CyLFClk.c ****     *
1109:.\Generated_Source\PSoC4/CyLFClk.c ****     * Return:
1110:.\Generated_Source\PSoC4/CyLFClk.c ****     *   None
1111:.\Generated_Source\PSoC4/CyLFClk.c ****     *
1112:.\Generated_Source\PSoC4/CyLFClk.c ****     * Side effects:
1113:.\Generated_Source\PSoC4/CyLFClk.c ****     *   This function does not reset counter values if the Watchdog is locked.
1114:.\Generated_Source\PSoC4/CyLFClk.c ****     *   This function waits while corresponding counters will be reset. This may
1115:.\Generated_Source\PSoC4/CyLFClk.c ****     *   take up to 3 LFCLK cycles.
1116:.\Generated_Source\PSoC4/CyLFClk.c ****     *   The LFCLK source must be enabled. Otherwise, the function will never exit.
1117:.\Generated_Source\PSoC4/CyLFClk.c ****     *
ARM GAS  C:\Users\kylep\AppData\Local\Temp\ccxh0xLd.s 			page 43


1118:.\Generated_Source\PSoC4/CyLFClk.c ****     *******************************************************************************/
1119:.\Generated_Source\PSoC4/CyLFClk.c ****     void CySysWdtResetCounters(uint32 countersMask)
1120:.\Generated_Source\PSoC4/CyLFClk.c ****     {
 1265              		.loc 1 1120 0
 1266              		.cfi_startproc
 1267 0000 80B5     		push	{r7, lr}
 1268              		.cfi_def_cfa_offset 8
 1269              		.cfi_offset 7, -8
 1270              		.cfi_offset 14, -4
 1271 0002 82B0     		sub	sp, sp, #8
 1272              		.cfi_def_cfa_offset 16
 1273 0004 00AF     		add	r7, sp, #0
 1274              		.cfi_def_cfa_register 7
 1275 0006 7860     		str	r0, [r7, #4]
1121:.\Generated_Source\PSoC4/CyLFClk.c ****         /* Set new WDT reset value */
1122:.\Generated_Source\PSoC4/CyLFClk.c ****         CY_SYS_WDT_CONTROL_REG |= (countersMask & CY_SYS_WDT_COUNTERS_RESET);
 1276              		.loc 1 1122 0
 1277 0008 084B     		ldr	r3, .L108
 1278 000a 084A     		ldr	r2, .L108
 1279 000c 1168     		ldr	r1, [r2]
 1280 000e 7A68     		ldr	r2, [r7, #4]
 1281 0010 0748     		ldr	r0, .L108+4
 1282 0012 0240     		and	r2, r0
 1283 0014 0A43     		orr	r2, r1
 1284 0016 1A60     		str	r2, [r3]
1123:.\Generated_Source\PSoC4/CyLFClk.c **** 
1124:.\Generated_Source\PSoC4/CyLFClk.c ****         while (0uL != (CY_SYS_WDT_CONTROL_REG & CY_SYS_WDT_COUNTERS_RESET))
 1285              		.loc 1 1124 0
 1286 0018 C046     		mov	r8, r8
 1287              	.L107:
 1288              		.loc 1 1124 0 is_stmt 0 discriminator 1
 1289 001a 044B     		ldr	r3, .L108
 1290 001c 1B68     		ldr	r3, [r3]
 1291 001e 044A     		ldr	r2, .L108+4
 1292 0020 1340     		and	r3, r2
 1293 0022 FAD1     		bne	.L107
1125:.\Generated_Source\PSoC4/CyLFClk.c ****         {
1126:.\Generated_Source\PSoC4/CyLFClk.c ****             /* Wait for reset to come into effect */
1127:.\Generated_Source\PSoC4/CyLFClk.c ****         }
1128:.\Generated_Source\PSoC4/CyLFClk.c ****     }
 1294              		.loc 1 1128 0 is_stmt 1
 1295 0024 BD46     		mov	sp, r7
 1296 0026 02B0     		add	sp, sp, #8
 1297              		@ sp needed
 1298 0028 80BD     		pop	{r7, pc}
 1299              	.L109:
 1300 002a C046     		.align	2
 1301              	.L108:
 1302 002c 10020B40 		.word	1074463248
 1303 0030 08080800 		.word	526344
 1304              		.cfi_endproc
 1305              	.LFE22:
 1306              		.size	CySysWdtResetCounters, .-CySysWdtResetCounters
 1307              		.section	.text.CySysWdtSetInterruptCallback,"ax",%progbits
 1308              		.align	2
 1309              		.global	CySysWdtSetInterruptCallback
 1310              		.code	16
ARM GAS  C:\Users\kylep\AppData\Local\Temp\ccxh0xLd.s 			page 44


 1311              		.thumb_func
 1312              		.type	CySysWdtSetInterruptCallback, %function
 1313              	CySysWdtSetInterruptCallback:
 1314              	.LFB23:
1129:.\Generated_Source\PSoC4/CyLFClk.c **** 
1130:.\Generated_Source\PSoC4/CyLFClk.c **** 
1131:.\Generated_Source\PSoC4/CyLFClk.c ****     /*******************************************************************************
1132:.\Generated_Source\PSoC4/CyLFClk.c ****     * Function Name: CySysWdtSetInterruptCallback
1133:.\Generated_Source\PSoC4/CyLFClk.c ****     ********************************************************************************
1134:.\Generated_Source\PSoC4/CyLFClk.c ****     *
1135:.\Generated_Source\PSoC4/CyLFClk.c ****     * Summary:
1136:.\Generated_Source\PSoC4/CyLFClk.c ****     *  Sets the ISR callback function for the particular WDT counter.
1137:.\Generated_Source\PSoC4/CyLFClk.c ****     *  These functions are called on the WDT interrupt.
1138:.\Generated_Source\PSoC4/CyLFClk.c ****     *
1139:.\Generated_Source\PSoC4/CyLFClk.c ****     * Parameters:
1140:.\Generated_Source\PSoC4/CyLFClk.c ****     *  counterNum : The number of the WDT counter.
1141:.\Generated_Source\PSoC4/CyLFClk.c ****     *  function   : The pointer to the callback function.
1142:.\Generated_Source\PSoC4/CyLFClk.c ****     *
1143:.\Generated_Source\PSoC4/CyLFClk.c ****     * Return:
1144:.\Generated_Source\PSoC4/CyLFClk.c ****     *  The pointer to the previous callback function.
1145:.\Generated_Source\PSoC4/CyLFClk.c ****     *  NULL is returned if the specified address is not set.
1146:.\Generated_Source\PSoC4/CyLFClk.c ****     *
1147:.\Generated_Source\PSoC4/CyLFClk.c ****     *******************************************************************************/
1148:.\Generated_Source\PSoC4/CyLFClk.c ****     cyWdtCallback CySysWdtSetInterruptCallback(uint32 counterNum, cyWdtCallback function)
1149:.\Generated_Source\PSoC4/CyLFClk.c ****     {
 1315              		.loc 1 1149 0
 1316              		.cfi_startproc
 1317 0000 80B5     		push	{r7, lr}
 1318              		.cfi_def_cfa_offset 8
 1319              		.cfi_offset 7, -8
 1320              		.cfi_offset 14, -4
 1321 0002 84B0     		sub	sp, sp, #16
 1322              		.cfi_def_cfa_offset 24
 1323 0004 00AF     		add	r7, sp, #0
 1324              		.cfi_def_cfa_register 7
 1325 0006 7860     		str	r0, [r7, #4]
 1326 0008 3960     		str	r1, [r7]
1150:.\Generated_Source\PSoC4/CyLFClk.c ****         cyWdtCallback prevCallback = (void *)0;
 1327              		.loc 1 1150 0
 1328 000a 0023     		mov	r3, #0
 1329 000c FB60     		str	r3, [r7, #12]
1151:.\Generated_Source\PSoC4/CyLFClk.c **** 
1152:.\Generated_Source\PSoC4/CyLFClk.c ****         if(counterNum < CY_WDT_NUM_OF_WDT)
 1330              		.loc 1 1152 0
 1331 000e 7B68     		ldr	r3, [r7, #4]
 1332 0010 022B     		cmp	r3, #2
 1333 0012 09D8     		bhi	.L111
1153:.\Generated_Source\PSoC4/CyLFClk.c ****         {
1154:.\Generated_Source\PSoC4/CyLFClk.c ****             prevCallback = cySysWdtCallback[counterNum];
 1334              		.loc 1 1154 0
 1335 0014 074B     		ldr	r3, .L113
 1336 0016 7A68     		ldr	r2, [r7, #4]
 1337 0018 9200     		lsl	r2, r2, #2
 1338 001a D358     		ldr	r3, [r2, r3]
 1339 001c FB60     		str	r3, [r7, #12]
1155:.\Generated_Source\PSoC4/CyLFClk.c ****             cySysWdtCallback[counterNum] = function;
 1340              		.loc 1 1155 0
ARM GAS  C:\Users\kylep\AppData\Local\Temp\ccxh0xLd.s 			page 45


 1341 001e 054B     		ldr	r3, .L113
 1342 0020 7A68     		ldr	r2, [r7, #4]
 1343 0022 9200     		lsl	r2, r2, #2
 1344 0024 3968     		ldr	r1, [r7]
 1345 0026 D150     		str	r1, [r2, r3]
 1346              	.L111:
1156:.\Generated_Source\PSoC4/CyLFClk.c ****         }
1157:.\Generated_Source\PSoC4/CyLFClk.c ****         else
1158:.\Generated_Source\PSoC4/CyLFClk.c ****         {
1159:.\Generated_Source\PSoC4/CyLFClk.c ****             CYASSERT(0u != 0u);
1160:.\Generated_Source\PSoC4/CyLFClk.c ****         }
1161:.\Generated_Source\PSoC4/CyLFClk.c **** 
1162:.\Generated_Source\PSoC4/CyLFClk.c ****         return((cyWdtCallback)prevCallback);
 1347              		.loc 1 1162 0
 1348 0028 FB68     		ldr	r3, [r7, #12]
1163:.\Generated_Source\PSoC4/CyLFClk.c ****     }
 1349              		.loc 1 1163 0
 1350 002a 181C     		mov	r0, r3
 1351 002c BD46     		mov	sp, r7
 1352 002e 04B0     		add	sp, sp, #16
 1353              		@ sp needed
 1354 0030 80BD     		pop	{r7, pc}
 1355              	.L114:
 1356 0032 C046     		.align	2
 1357              	.L113:
 1358 0034 0C000000 		.word	cySysWdtCallback
 1359              		.cfi_endproc
 1360              	.LFE23:
 1361              		.size	CySysWdtSetInterruptCallback, .-CySysWdtSetInterruptCallback
 1362              		.section	.text.CySysWdtGetInterruptCallback,"ax",%progbits
 1363              		.align	2
 1364              		.global	CySysWdtGetInterruptCallback
 1365              		.code	16
 1366              		.thumb_func
 1367              		.type	CySysWdtGetInterruptCallback, %function
 1368              	CySysWdtGetInterruptCallback:
 1369              	.LFB24:
1164:.\Generated_Source\PSoC4/CyLFClk.c **** 
1165:.\Generated_Source\PSoC4/CyLFClk.c **** 
1166:.\Generated_Source\PSoC4/CyLFClk.c ****     /*******************************************************************************
1167:.\Generated_Source\PSoC4/CyLFClk.c ****     * Function Name: CySysWdtGetInterruptCallback
1168:.\Generated_Source\PSoC4/CyLFClk.c ****     ********************************************************************************
1169:.\Generated_Source\PSoC4/CyLFClk.c ****     *
1170:.\Generated_Source\PSoC4/CyLFClk.c ****     * Summary:
1171:.\Generated_Source\PSoC4/CyLFClk.c ****     *  Gets the ISR callback function for the particular WDT counter.
1172:.\Generated_Source\PSoC4/CyLFClk.c ****     *
1173:.\Generated_Source\PSoC4/CyLFClk.c ****     * Parameters:
1174:.\Generated_Source\PSoC4/CyLFClk.c ****     *  counterNum : The number of the WDT counter.
1175:.\Generated_Source\PSoC4/CyLFClk.c ****     *
1176:.\Generated_Source\PSoC4/CyLFClk.c ****     * Return:
1177:.\Generated_Source\PSoC4/CyLFClk.c ****     *  The pointer to the callback function registered for a particular WDT by
1178:.\Generated_Source\PSoC4/CyLFClk.c ****     *  a particular address that are passed through arguments.
1179:.\Generated_Source\PSoC4/CyLFClk.c ****     *
1180:.\Generated_Source\PSoC4/CyLFClk.c ****     *******************************************************************************/
1181:.\Generated_Source\PSoC4/CyLFClk.c ****     cyWdtCallback CySysWdtGetInterruptCallback(uint32 counterNum)
1182:.\Generated_Source\PSoC4/CyLFClk.c ****     {
 1370              		.loc 1 1182 0
ARM GAS  C:\Users\kylep\AppData\Local\Temp\ccxh0xLd.s 			page 46


 1371              		.cfi_startproc
 1372 0000 80B5     		push	{r7, lr}
 1373              		.cfi_def_cfa_offset 8
 1374              		.cfi_offset 7, -8
 1375              		.cfi_offset 14, -4
 1376 0002 84B0     		sub	sp, sp, #16
 1377              		.cfi_def_cfa_offset 24
 1378 0004 00AF     		add	r7, sp, #0
 1379              		.cfi_def_cfa_register 7
 1380 0006 7860     		str	r0, [r7, #4]
1183:.\Generated_Source\PSoC4/CyLFClk.c ****         cyWdtCallback retCallback = (void *)0;
 1381              		.loc 1 1183 0
 1382 0008 0023     		mov	r3, #0
 1383 000a FB60     		str	r3, [r7, #12]
1184:.\Generated_Source\PSoC4/CyLFClk.c **** 
1185:.\Generated_Source\PSoC4/CyLFClk.c ****         if(counterNum < CY_WDT_NUM_OF_WDT)
 1384              		.loc 1 1185 0
 1385 000c 7B68     		ldr	r3, [r7, #4]
 1386 000e 022B     		cmp	r3, #2
 1387 0010 04D8     		bhi	.L116
1186:.\Generated_Source\PSoC4/CyLFClk.c ****         {
1187:.\Generated_Source\PSoC4/CyLFClk.c ****             retCallback = (cyWdtCallback)cySysWdtCallback[counterNum];
 1388              		.loc 1 1187 0
 1389 0012 054B     		ldr	r3, .L118
 1390 0014 7A68     		ldr	r2, [r7, #4]
 1391 0016 9200     		lsl	r2, r2, #2
 1392 0018 D358     		ldr	r3, [r2, r3]
 1393 001a FB60     		str	r3, [r7, #12]
 1394              	.L116:
1188:.\Generated_Source\PSoC4/CyLFClk.c ****         }
1189:.\Generated_Source\PSoC4/CyLFClk.c ****         else
1190:.\Generated_Source\PSoC4/CyLFClk.c ****         {
1191:.\Generated_Source\PSoC4/CyLFClk.c ****             CYASSERT(0u != 0u);
1192:.\Generated_Source\PSoC4/CyLFClk.c ****         }
1193:.\Generated_Source\PSoC4/CyLFClk.c **** 
1194:.\Generated_Source\PSoC4/CyLFClk.c ****         return(retCallback);
 1395              		.loc 1 1194 0
 1396 001c FB68     		ldr	r3, [r7, #12]
1195:.\Generated_Source\PSoC4/CyLFClk.c ****     }
 1397              		.loc 1 1195 0
 1398 001e 181C     		mov	r0, r3
 1399 0020 BD46     		mov	sp, r7
 1400 0022 04B0     		add	sp, sp, #16
 1401              		@ sp needed
 1402 0024 80BD     		pop	{r7, pc}
 1403              	.L119:
 1404 0026 C046     		.align	2
 1405              	.L118:
 1406 0028 0C000000 		.word	cySysWdtCallback
 1407              		.cfi_endproc
 1408              	.LFE24:
 1409              		.size	CySysWdtGetInterruptCallback, .-CySysWdtGetInterruptCallback
 1410              		.section	.text.CySysWdtEnableCounterIsr,"ax",%progbits
 1411              		.align	2
 1412              		.global	CySysWdtEnableCounterIsr
 1413              		.code	16
 1414              		.thumb_func
ARM GAS  C:\Users\kylep\AppData\Local\Temp\ccxh0xLd.s 			page 47


 1415              		.type	CySysWdtEnableCounterIsr, %function
 1416              	CySysWdtEnableCounterIsr:
 1417              	.LFB25:
1196:.\Generated_Source\PSoC4/CyLFClk.c **** 
1197:.\Generated_Source\PSoC4/CyLFClk.c **** 
1198:.\Generated_Source\PSoC4/CyLFClk.c ****     /*******************************************************************************
1199:.\Generated_Source\PSoC4/CyLFClk.c ****     * Function Name: CySysWdtEnableCounterIsr
1200:.\Generated_Source\PSoC4/CyLFClk.c ****     ********************************************************************************
1201:.\Generated_Source\PSoC4/CyLFClk.c ****     *
1202:.\Generated_Source\PSoC4/CyLFClk.c ****     * Summary:
1203:.\Generated_Source\PSoC4/CyLFClk.c ****     *  Enables the ISR callback servicing for the particular WDT counter
1204:.\Generated_Source\PSoC4/CyLFClk.c ****     *
1205:.\Generated_Source\PSoC4/CyLFClk.c ****     * Parameters:
1206:.\Generated_Source\PSoC4/CyLFClk.c ****     *  counterNum: Valid range [0-2].  The number of the WDT counter.
1207:.\Generated_Source\PSoC4/CyLFClk.c ****     *
1208:.\Generated_Source\PSoC4/CyLFClk.c ****     *******************************************************************************/
1209:.\Generated_Source\PSoC4/CyLFClk.c ****     void CySysWdtEnableCounterIsr(uint32 counterNum)
1210:.\Generated_Source\PSoC4/CyLFClk.c ****     {
 1418              		.loc 1 1210 0
 1419              		.cfi_startproc
 1420 0000 80B5     		push	{r7, lr}
 1421              		.cfi_def_cfa_offset 8
 1422              		.cfi_offset 7, -8
 1423              		.cfi_offset 14, -4
 1424 0002 82B0     		sub	sp, sp, #8
 1425              		.cfi_def_cfa_offset 16
 1426 0004 00AF     		add	r7, sp, #0
 1427              		.cfi_def_cfa_register 7
 1428 0006 7860     		str	r0, [r7, #4]
1211:.\Generated_Source\PSoC4/CyLFClk.c ****         if(counterNum <= CY_SYS_WDT_COUNTER2)
 1429              		.loc 1 1211 0
 1430 0008 7B68     		ldr	r3, [r7, #4]
 1431 000a 022B     		cmp	r3, #2
 1432 000c 12D8     		bhi	.L120
1212:.\Generated_Source\PSoC4/CyLFClk.c ****         {
1213:.\Generated_Source\PSoC4/CyLFClk.c ****             disableServicedIsr &= ~counterIntMaskTbl[counterNum];
 1433              		.loc 1 1213 0
 1434 000e 0B4B     		ldr	r3, .L122
 1435 0010 7A68     		ldr	r2, [r7, #4]
 1436 0012 9200     		lsl	r2, r2, #2
 1437 0014 D358     		ldr	r3, [r2, r3]
 1438 0016 DA43     		mvn	r2, r3
 1439 0018 094B     		ldr	r3, .L122+4
 1440 001a 1B68     		ldr	r3, [r3]
 1441 001c 1A40     		and	r2, r3
 1442 001e 084B     		ldr	r3, .L122+4
 1443 0020 1A60     		str	r2, [r3]
1214:.\Generated_Source\PSoC4/CyLFClk.c ****             wdtIsrMask |= counterIntMaskTbl[counterNum];
 1444              		.loc 1 1214 0
 1445 0022 064B     		ldr	r3, .L122
 1446 0024 7A68     		ldr	r2, [r7, #4]
 1447 0026 9200     		lsl	r2, r2, #2
 1448 0028 D258     		ldr	r2, [r2, r3]
 1449 002a 064B     		ldr	r3, .L122+8
 1450 002c 1B68     		ldr	r3, [r3]
 1451 002e 1A43     		orr	r2, r3
 1452 0030 044B     		ldr	r3, .L122+8
ARM GAS  C:\Users\kylep\AppData\Local\Temp\ccxh0xLd.s 			page 48


 1453 0032 1A60     		str	r2, [r3]
 1454              	.L120:
1215:.\Generated_Source\PSoC4/CyLFClk.c ****         }
1216:.\Generated_Source\PSoC4/CyLFClk.c ****         else
1217:.\Generated_Source\PSoC4/CyLFClk.c ****         {
1218:.\Generated_Source\PSoC4/CyLFClk.c ****             CYASSERT(0u != 0u);
1219:.\Generated_Source\PSoC4/CyLFClk.c ****         }
1220:.\Generated_Source\PSoC4/CyLFClk.c ****     }
 1455              		.loc 1 1220 0
 1456 0034 BD46     		mov	sp, r7
 1457 0036 02B0     		add	sp, sp, #8
 1458              		@ sp needed
 1459 0038 80BD     		pop	{r7, pc}
 1460              	.L123:
 1461 003a C046     		.align	2
 1462              	.L122:
 1463 003c 00000000 		.word	counterIntMaskTbl
 1464 0040 08000000 		.word	disableServicedIsr
 1465 0044 00000000 		.word	wdtIsrMask
 1466              		.cfi_endproc
 1467              	.LFE25:
 1468              		.size	CySysWdtEnableCounterIsr, .-CySysWdtEnableCounterIsr
 1469              		.section	.text.CySysWdtDisableCounterIsr,"ax",%progbits
 1470              		.align	2
 1471              		.global	CySysWdtDisableCounterIsr
 1472              		.code	16
 1473              		.thumb_func
 1474              		.type	CySysWdtDisableCounterIsr, %function
 1475              	CySysWdtDisableCounterIsr:
 1476              	.LFB26:
1221:.\Generated_Source\PSoC4/CyLFClk.c **** 
1222:.\Generated_Source\PSoC4/CyLFClk.c **** 
1223:.\Generated_Source\PSoC4/CyLFClk.c ****     /*******************************************************************************
1224:.\Generated_Source\PSoC4/CyLFClk.c ****     * Function Name: CySysWdtDisableCounterIsr
1225:.\Generated_Source\PSoC4/CyLFClk.c ****     ********************************************************************************
1226:.\Generated_Source\PSoC4/CyLFClk.c ****     *
1227:.\Generated_Source\PSoC4/CyLFClk.c ****     * Summary:
1228:.\Generated_Source\PSoC4/CyLFClk.c ****     *  Disables the ISR callback servicing for the particular WDT counter
1229:.\Generated_Source\PSoC4/CyLFClk.c ****     *
1230:.\Generated_Source\PSoC4/CyLFClk.c ****     * Parameters:
1231:.\Generated_Source\PSoC4/CyLFClk.c ****     *  counterNum: Valid range [0-2].  The number of the WDT counter.
1232:.\Generated_Source\PSoC4/CyLFClk.c ****     *
1233:.\Generated_Source\PSoC4/CyLFClk.c ****     *******************************************************************************/
1234:.\Generated_Source\PSoC4/CyLFClk.c ****     void CySysWdtDisableCounterIsr(uint32 counterNum)
1235:.\Generated_Source\PSoC4/CyLFClk.c ****     {
 1477              		.loc 1 1235 0
 1478              		.cfi_startproc
 1479 0000 80B5     		push	{r7, lr}
 1480              		.cfi_def_cfa_offset 8
 1481              		.cfi_offset 7, -8
 1482              		.cfi_offset 14, -4
 1483 0002 82B0     		sub	sp, sp, #8
 1484              		.cfi_def_cfa_offset 16
 1485 0004 00AF     		add	r7, sp, #0
 1486              		.cfi_def_cfa_register 7
 1487 0006 7860     		str	r0, [r7, #4]
1236:.\Generated_Source\PSoC4/CyLFClk.c ****         if(counterNum <= CY_SYS_WDT_COUNTER2)
ARM GAS  C:\Users\kylep\AppData\Local\Temp\ccxh0xLd.s 			page 49


 1488              		.loc 1 1236 0
 1489 0008 7B68     		ldr	r3, [r7, #4]
 1490 000a 022B     		cmp	r3, #2
 1491 000c 09D8     		bhi	.L124
1237:.\Generated_Source\PSoC4/CyLFClk.c ****         {
1238:.\Generated_Source\PSoC4/CyLFClk.c ****             wdtIsrMask &= ~counterIntMaskTbl[counterNum];
 1492              		.loc 1 1238 0
 1493 000e 064B     		ldr	r3, .L126
 1494 0010 7A68     		ldr	r2, [r7, #4]
 1495 0012 9200     		lsl	r2, r2, #2
 1496 0014 D358     		ldr	r3, [r2, r3]
 1497 0016 DA43     		mvn	r2, r3
 1498 0018 044B     		ldr	r3, .L126+4
 1499 001a 1B68     		ldr	r3, [r3]
 1500 001c 1A40     		and	r2, r3
 1501 001e 034B     		ldr	r3, .L126+4
 1502 0020 1A60     		str	r2, [r3]
 1503              	.L124:
1239:.\Generated_Source\PSoC4/CyLFClk.c ****         }
1240:.\Generated_Source\PSoC4/CyLFClk.c ****         else
1241:.\Generated_Source\PSoC4/CyLFClk.c ****         {
1242:.\Generated_Source\PSoC4/CyLFClk.c ****             CYASSERT(0u != 0u);
1243:.\Generated_Source\PSoC4/CyLFClk.c ****         }
1244:.\Generated_Source\PSoC4/CyLFClk.c ****     }
 1504              		.loc 1 1244 0
 1505 0022 BD46     		mov	sp, r7
 1506 0024 02B0     		add	sp, sp, #8
 1507              		@ sp needed
 1508 0026 80BD     		pop	{r7, pc}
 1509              	.L127:
 1510              		.align	2
 1511              	.L126:
 1512 0028 00000000 		.word	counterIntMaskTbl
 1513 002c 00000000 		.word	wdtIsrMask
 1514              		.cfi_endproc
 1515              	.LFE26:
 1516              		.size	CySysWdtDisableCounterIsr, .-CySysWdtDisableCounterIsr
 1517              		.section	.text.CySysWdtIsr,"ax",%progbits
 1518              		.align	2
 1519              		.global	CySysWdtIsr
 1520              		.code	16
 1521              		.thumb_func
 1522              		.type	CySysWdtIsr, %function
 1523              	CySysWdtIsr:
 1524              	.LFB27:
1245:.\Generated_Source\PSoC4/CyLFClk.c **** 
1246:.\Generated_Source\PSoC4/CyLFClk.c **** 
1247:.\Generated_Source\PSoC4/CyLFClk.c ****     /*******************************************************************************
1248:.\Generated_Source\PSoC4/CyLFClk.c ****     * Function Name: CySysWdtIsr
1249:.\Generated_Source\PSoC4/CyLFClk.c ****     ********************************************************************************
1250:.\Generated_Source\PSoC4/CyLFClk.c ****     *
1251:.\Generated_Source\PSoC4/CyLFClk.c ****     * Summary:
1252:.\Generated_Source\PSoC4/CyLFClk.c ****     *  This is the handler of the WDT interrupt in CPU NVIC. The handler checks
1253:.\Generated_Source\PSoC4/CyLFClk.c ****     *  which WDT triggered in the interrupt and calls the respective callback
1254:.\Generated_Source\PSoC4/CyLFClk.c ****     *  functions configured by the user by using CySysWdtSetIsrCallback() API.
1255:.\Generated_Source\PSoC4/CyLFClk.c ****     *
1256:.\Generated_Source\PSoC4/CyLFClk.c ****     *  The order of the callback execution is incremental. Callback-0 is
ARM GAS  C:\Users\kylep\AppData\Local\Temp\ccxh0xLd.s 			page 50


1257:.\Generated_Source\PSoC4/CyLFClk.c ****     *  run as the first one and callback-2 is called as the last one.
1258:.\Generated_Source\PSoC4/CyLFClk.c ****     *
1259:.\Generated_Source\PSoC4/CyLFClk.c ****     * Parameters:
1260:.\Generated_Source\PSoC4/CyLFClk.c ****     *  None.
1261:.\Generated_Source\PSoC4/CyLFClk.c ****     *
1262:.\Generated_Source\PSoC4/CyLFClk.c ****     * Return:
1263:.\Generated_Source\PSoC4/CyLFClk.c ****     *  None.
1264:.\Generated_Source\PSoC4/CyLFClk.c ****     *
1265:.\Generated_Source\PSoC4/CyLFClk.c ****     * Side Effects:
1266:.\Generated_Source\PSoC4/CyLFClk.c ****     *  This function clears the WDT interrupt every time when it is called.
1267:.\Generated_Source\PSoC4/CyLFClk.c ****     *  Reset after the 3rd interrupt does not happen if this function is registered
1268:.\Generated_Source\PSoC4/CyLFClk.c ****     *  as the interrupt handler even if the "Watchdog with Interrupt" mode is
1269:.\Generated_Source\PSoC4/CyLFClk.c ****     *  selected on the "Low Frequency Clocks" tab.
1270:.\Generated_Source\PSoC4/CyLFClk.c ****     *
1271:.\Generated_Source\PSoC4/CyLFClk.c ****     *******************************************************************************/
1272:.\Generated_Source\PSoC4/CyLFClk.c ****     void CySysWdtIsr(void)
1273:.\Generated_Source\PSoC4/CyLFClk.c ****     {
 1525              		.loc 1 1273 0
 1526              		.cfi_startproc
 1527 0000 80B5     		push	{r7, lr}
 1528              		.cfi_def_cfa_offset 8
 1529              		.cfi_offset 7, -8
 1530              		.cfi_offset 14, -4
 1531 0002 00AF     		add	r7, sp, #0
 1532              		.cfi_def_cfa_register 7
1274:.\Generated_Source\PSoC4/CyLFClk.c ****         if(0u != (CY_SYS_WDT_COUNTER0_INT & CY_SYS_WDT_CONTROL_REG))
 1533              		.loc 1 1274 0
 1534 0004 334B     		ldr	r3, .L135
 1535 0006 1B68     		ldr	r3, [r3]
 1536 0008 0422     		mov	r2, #4
 1537 000a 1340     		and	r3, r2
 1538 000c 1FD0     		beq	.L129
1275:.\Generated_Source\PSoC4/CyLFClk.c ****         {
1276:.\Generated_Source\PSoC4/CyLFClk.c ****             if(0u != (CY_SYS_WDT_COUNTER0_INT & wdtIsrMask))
 1539              		.loc 1 1276 0
 1540 000e 324B     		ldr	r3, .L135+4
 1541 0010 1B68     		ldr	r3, [r3]
 1542 0012 0422     		mov	r2, #4
 1543 0014 1340     		and	r3, r2
 1544 0016 17D0     		beq	.L130
1277:.\Generated_Source\PSoC4/CyLFClk.c ****             {
1278:.\Generated_Source\PSoC4/CyLFClk.c ****                 wdtIsrMask &= ~(disableServicedIsr & CY_SYS_WDT_COUNTER0_INT);
 1545              		.loc 1 1278 0
 1546 0018 304B     		ldr	r3, .L135+8
 1547 001a 1B68     		ldr	r3, [r3]
 1548 001c 0422     		mov	r2, #4
 1549 001e 1340     		and	r3, r2
 1550 0020 DA43     		mvn	r2, r3
 1551 0022 2D4B     		ldr	r3, .L135+4
 1552 0024 1B68     		ldr	r3, [r3]
 1553 0026 1A40     		and	r2, r3
 1554 0028 2B4B     		ldr	r3, .L135+4
 1555 002a 1A60     		str	r2, [r3]
1279:.\Generated_Source\PSoC4/CyLFClk.c ****                 disableServicedIsr  &= ~CY_SYS_WDT_COUNTER0_INT;
 1556              		.loc 1 1279 0
 1557 002c 2B4B     		ldr	r3, .L135+8
 1558 002e 1B68     		ldr	r3, [r3]
ARM GAS  C:\Users\kylep\AppData\Local\Temp\ccxh0xLd.s 			page 51


 1559 0030 0422     		mov	r2, #4
 1560 0032 9343     		bic	r3, r2
 1561 0034 1A1C     		mov	r2, r3
 1562 0036 294B     		ldr	r3, .L135+8
 1563 0038 1A60     		str	r2, [r3]
1280:.\Generated_Source\PSoC4/CyLFClk.c ****                 if(cySysWdtCallback[CY_SYS_WDT_COUNTER0] != (void *) 0)
 1564              		.loc 1 1280 0
 1565 003a 294B     		ldr	r3, .L135+12
 1566 003c 1B68     		ldr	r3, [r3]
 1567 003e 002B     		cmp	r3, #0
 1568 0040 02D0     		beq	.L130
1281:.\Generated_Source\PSoC4/CyLFClk.c ****                 {
1282:.\Generated_Source\PSoC4/CyLFClk.c ****                     (void)(cySysWdtCallback[CY_SYS_WDT_COUNTER0])();
 1569              		.loc 1 1282 0
 1570 0042 274B     		ldr	r3, .L135+12
 1571 0044 1B68     		ldr	r3, [r3]
 1572 0046 9847     		blx	r3
 1573              	.L130:
1283:.\Generated_Source\PSoC4/CyLFClk.c ****                 }
1284:.\Generated_Source\PSoC4/CyLFClk.c ****             }
1285:.\Generated_Source\PSoC4/CyLFClk.c ****             CySysWdtClearInterrupt(CY_SYS_WDT_COUNTER0_INT);
 1574              		.loc 1 1285 0
 1575 0048 0420     		mov	r0, #4
 1576 004a FFF7FEFF 		bl	CySysWdtClearInterrupt
 1577              	.L129:
1286:.\Generated_Source\PSoC4/CyLFClk.c ****         }
1287:.\Generated_Source\PSoC4/CyLFClk.c **** 
1288:.\Generated_Source\PSoC4/CyLFClk.c ****         if(0u != (CY_SYS_WDT_COUNTER1_INT & CY_SYS_WDT_CONTROL_REG))
 1578              		.loc 1 1288 0
 1579 004e 214B     		ldr	r3, .L135
 1580 0050 1A68     		ldr	r2, [r3]
 1581 0052 8023     		mov	r3, #128
 1582 0054 DB00     		lsl	r3, r3, #3
 1583 0056 1340     		and	r3, r2
 1584 0058 22D0     		beq	.L131
1289:.\Generated_Source\PSoC4/CyLFClk.c ****         {
1290:.\Generated_Source\PSoC4/CyLFClk.c ****             if(0u != (CY_SYS_WDT_COUNTER1_INT & wdtIsrMask))
 1585              		.loc 1 1290 0
 1586 005a 1F4B     		ldr	r3, .L135+4
 1587 005c 1A68     		ldr	r2, [r3]
 1588 005e 8023     		mov	r3, #128
 1589 0060 DB00     		lsl	r3, r3, #3
 1590 0062 1340     		and	r3, r2
 1591 0064 17D0     		beq	.L132
1291:.\Generated_Source\PSoC4/CyLFClk.c ****             {
1292:.\Generated_Source\PSoC4/CyLFClk.c ****                 wdtIsrMask &= ~(disableServicedIsr & CY_SYS_WDT_COUNTER1_INT);
 1592              		.loc 1 1292 0
 1593 0066 1D4B     		ldr	r3, .L135+8
 1594 0068 1A68     		ldr	r2, [r3]
 1595 006a 8023     		mov	r3, #128
 1596 006c DB00     		lsl	r3, r3, #3
 1597 006e 1340     		and	r3, r2
 1598 0070 DA43     		mvn	r2, r3
 1599 0072 194B     		ldr	r3, .L135+4
 1600 0074 1B68     		ldr	r3, [r3]
 1601 0076 1A40     		and	r2, r3
 1602 0078 174B     		ldr	r3, .L135+4
ARM GAS  C:\Users\kylep\AppData\Local\Temp\ccxh0xLd.s 			page 52


 1603 007a 1A60     		str	r2, [r3]
1293:.\Generated_Source\PSoC4/CyLFClk.c ****                 disableServicedIsr  &= ~CY_SYS_WDT_COUNTER1_INT;
 1604              		.loc 1 1293 0
 1605 007c 174B     		ldr	r3, .L135+8
 1606 007e 1B68     		ldr	r3, [r3]
 1607 0080 184A     		ldr	r2, .L135+16
 1608 0082 1A40     		and	r2, r3
 1609 0084 154B     		ldr	r3, .L135+8
 1610 0086 1A60     		str	r2, [r3]
1294:.\Generated_Source\PSoC4/CyLFClk.c ****                 if(cySysWdtCallback[CY_SYS_WDT_COUNTER1] != (void *) 0)
 1611              		.loc 1 1294 0
 1612 0088 154B     		ldr	r3, .L135+12
 1613 008a 5B68     		ldr	r3, [r3, #4]
 1614 008c 002B     		cmp	r3, #0
 1615 008e 02D0     		beq	.L132
1295:.\Generated_Source\PSoC4/CyLFClk.c ****                 {
1296:.\Generated_Source\PSoC4/CyLFClk.c ****                     (void)(cySysWdtCallback[CY_SYS_WDT_COUNTER1])();
 1616              		.loc 1 1296 0
 1617 0090 134B     		ldr	r3, .L135+12
 1618 0092 5B68     		ldr	r3, [r3, #4]
 1619 0094 9847     		blx	r3
 1620              	.L132:
1297:.\Generated_Source\PSoC4/CyLFClk.c ****                 }
1298:.\Generated_Source\PSoC4/CyLFClk.c ****             }
1299:.\Generated_Source\PSoC4/CyLFClk.c ****             CySysWdtClearInterrupt(CY_SYS_WDT_COUNTER1_INT);
 1621              		.loc 1 1299 0
 1622 0096 8023     		mov	r3, #128
 1623 0098 DB00     		lsl	r3, r3, #3
 1624 009a 181C     		mov	r0, r3
 1625 009c FFF7FEFF 		bl	CySysWdtClearInterrupt
 1626              	.L131:
1300:.\Generated_Source\PSoC4/CyLFClk.c ****         }
1301:.\Generated_Source\PSoC4/CyLFClk.c **** 
1302:.\Generated_Source\PSoC4/CyLFClk.c ****         if(0u != (CY_SYS_WDT_COUNTER2_INT & CY_SYS_WDT_CONTROL_REG))
 1627              		.loc 1 1302 0
 1628 00a0 0C4B     		ldr	r3, .L135
 1629 00a2 1A68     		ldr	r2, [r3]
 1630 00a4 8023     		mov	r3, #128
 1631 00a6 DB02     		lsl	r3, r3, #11
 1632 00a8 1340     		and	r3, r2
 1633 00aa 11D0     		beq	.L128
1303:.\Generated_Source\PSoC4/CyLFClk.c ****         {
1304:.\Generated_Source\PSoC4/CyLFClk.c ****             if(0u != (CY_SYS_WDT_COUNTER2_INT & wdtIsrMask))
 1634              		.loc 1 1304 0
 1635 00ac 0A4B     		ldr	r3, .L135+4
 1636 00ae 1A68     		ldr	r2, [r3]
 1637 00b0 8023     		mov	r3, #128
 1638 00b2 DB02     		lsl	r3, r3, #11
 1639 00b4 1340     		and	r3, r2
 1640 00b6 06D0     		beq	.L134
1305:.\Generated_Source\PSoC4/CyLFClk.c ****             {
1306:.\Generated_Source\PSoC4/CyLFClk.c ****                 if(cySysWdtCallback[CY_SYS_WDT_COUNTER2] != (void *) 0)
 1641              		.loc 1 1306 0
 1642 00b8 094B     		ldr	r3, .L135+12
 1643 00ba 9B68     		ldr	r3, [r3, #8]
 1644 00bc 002B     		cmp	r3, #0
 1645 00be 02D0     		beq	.L134
ARM GAS  C:\Users\kylep\AppData\Local\Temp\ccxh0xLd.s 			page 53


1307:.\Generated_Source\PSoC4/CyLFClk.c ****                 {
1308:.\Generated_Source\PSoC4/CyLFClk.c ****                     (void)(cySysWdtCallback[CY_SYS_WDT_COUNTER2])();
 1646              		.loc 1 1308 0
 1647 00c0 074B     		ldr	r3, .L135+12
 1648 00c2 9B68     		ldr	r3, [r3, #8]
 1649 00c4 9847     		blx	r3
 1650              	.L134:
1309:.\Generated_Source\PSoC4/CyLFClk.c ****                 }
1310:.\Generated_Source\PSoC4/CyLFClk.c ****             }
1311:.\Generated_Source\PSoC4/CyLFClk.c ****             CySysWdtClearInterrupt(CY_SYS_WDT_COUNTER2_INT);
 1651              		.loc 1 1311 0
 1652 00c6 8023     		mov	r3, #128
 1653 00c8 DB02     		lsl	r3, r3, #11
 1654 00ca 181C     		mov	r0, r3
 1655 00cc FFF7FEFF 		bl	CySysWdtClearInterrupt
 1656              	.L128:
1312:.\Generated_Source\PSoC4/CyLFClk.c ****         }
1313:.\Generated_Source\PSoC4/CyLFClk.c ****     }
 1657              		.loc 1 1313 0
 1658 00d0 BD46     		mov	sp, r7
 1659              		@ sp needed
 1660 00d2 80BD     		pop	{r7, pc}
 1661              	.L136:
 1662              		.align	2
 1663              	.L135:
 1664 00d4 10020B40 		.word	1074463248
 1665 00d8 00000000 		.word	wdtIsrMask
 1666 00dc 08000000 		.word	disableServicedIsr
 1667 00e0 0C000000 		.word	cySysWdtCallback
 1668 00e4 FFFBFFFF 		.word	-1025
 1669              		.cfi_endproc
 1670              	.LFE27:
 1671              		.size	CySysWdtIsr, .-CySysWdtIsr
 1672              		.section	.text.CySysTimerDelay,"ax",%progbits
 1673              		.align	2
 1674              		.global	CySysTimerDelay
 1675              		.code	16
 1676              		.thumb_func
 1677              		.type	CySysTimerDelay, %function
 1678              	CySysTimerDelay:
 1679              	.LFB28:
1314:.\Generated_Source\PSoC4/CyLFClk.c **** 
1315:.\Generated_Source\PSoC4/CyLFClk.c **** 
1316:.\Generated_Source\PSoC4/CyLFClk.c ****     /*******************************************************************************
1317:.\Generated_Source\PSoC4/CyLFClk.c ****     * Function Name: CySysTimerDelay
1318:.\Generated_Source\PSoC4/CyLFClk.c ****     ********************************************************************************
1319:.\Generated_Source\PSoC4/CyLFClk.c ****     *
1320:.\Generated_Source\PSoC4/CyLFClk.c ****     * Summary:
1321:.\Generated_Source\PSoC4/CyLFClk.c ****     *  The function implements the delay specified in the LFCLK clock ticks. The
1322:.\Generated_Source\PSoC4/CyLFClk.c ****     *  specified WDT counter should be configured as described below and started.
1323:.\Generated_Source\PSoC4/CyLFClk.c ****     *
1324:.\Generated_Source\PSoC4/CyLFClk.c ****     *  This function can operate in two modes: the "WAIT" and "INTERRUPT" modes. In
1325:.\Generated_Source\PSoC4/CyLFClk.c ****     *  the "WAIT" mode, the function waits for the specified number of ticks. In the
1326:.\Generated_Source\PSoC4/CyLFClk.c ****     *  "INTERRUPT" mode, the interrupt is generated after the specified number of
1327:.\Generated_Source\PSoC4/CyLFClk.c ****     *  ticks.
1328:.\Generated_Source\PSoC4/CyLFClk.c ****     *
1329:.\Generated_Source\PSoC4/CyLFClk.c ****     *  For the correct function operation, the "Clear On Match" option should be
ARM GAS  C:\Users\kylep\AppData\Local\Temp\ccxh0xLd.s 			page 54


1330:.\Generated_Source\PSoC4/CyLFClk.c ****     *  disabled for the specified WDT counter. Use CySysWdtSetClearOnMatch()
1331:.\Generated_Source\PSoC4/CyLFClk.c ****     *  function with the "enable" parameter equal to zero for the used WDT counter.
1332:.\Generated_Source\PSoC4/CyLFClk.c ****     *
1333:.\Generated_Source\PSoC4/CyLFClk.c ****     *  The corresponding WDT counter should be configured to match the selected
1334:.\Generated_Source\PSoC4/CyLFClk.c ****     *  mode: "Free running Timer" for the "WAIT" mode, and
1335:.\Generated_Source\PSoC4/CyLFClk.c ****     *  "Periodic Timer" / "Watchdog (w/Interrupt)" for the "INTERRUPT" mode.
1336:.\Generated_Source\PSoC4/CyLFClk.c ****     *
1337:.\Generated_Source\PSoC4/CyLFClk.c ****     *  This can be configured in two ways:
1338:.\Generated_Source\PSoC4/CyLFClk.c ****     *  - Through the DWR page. Open the "Clocks" tab, click the "Edit Clocks..."
1339:.\Generated_Source\PSoC4/CyLFClk.c ****     *    button, in the "Configure System Clocks" window click on the
1340:.\Generated_Source\PSoC4/CyLFClk.c ****     *    "Low Frequency Clocks" tab and choose the appropriate option for the used
1341:.\Generated_Source\PSoC4/CyLFClk.c ****     *    WDT counter.
1342:.\Generated_Source\PSoC4/CyLFClk.c ****     *
1343:.\Generated_Source\PSoC4/CyLFClk.c ****     *  - Through the CySysWdtSetMode() function. Call it with the appropriate mode
1344:.\Generated_Source\PSoC4/CyLFClk.c ****     *    parameter for the used WDT counter.
1345:.\Generated_Source\PSoC4/CyLFClk.c ****     *
1346:.\Generated_Source\PSoC4/CyLFClk.c ****     *  For the "INTERRUPT" mode, the recommended sequence is the following:
1347:.\Generated_Source\PSoC4/CyLFClk.c ****     *  - Call the CySysWdtDisableCounterIsr() function to disable servicing
1348:.\Generated_Source\PSoC4/CyLFClk.c ****     *    interrupts of the specified WDT counter.
1349:.\Generated_Source\PSoC4/CyLFClk.c ****     *
1350:.\Generated_Source\PSoC4/CyLFClk.c ****     *  - Call the CySysWdtSetInterruptCallback() function to register the callback
1351:.\Generated_Source\PSoC4/CyLFClk.c ****     *    function for the corresponding WDT counter.
1352:.\Generated_Source\PSoC4/CyLFClk.c ****     *
1353:.\Generated_Source\PSoC4/CyLFClk.c ****     *  - Call the CySysTimerDelay() function.
1354:.\Generated_Source\PSoC4/CyLFClk.c ****     *
1355:.\Generated_Source\PSoC4/CyLFClk.c ****     * Parameters:
1356:.\Generated_Source\PSoC4/CyLFClk.c ****     *  counterNum: Valid range [0-1]. The number of the WDT counter (WDT0 or WDT1).
1357:.\Generated_Source\PSoC4/CyLFClk.c ****     *  delayType : Defines the operation mode.
1358:.\Generated_Source\PSoC4/CyLFClk.c ****     *               CY_SYS_TIMER_WAIT       "WAIT" mode.
1359:.\Generated_Source\PSoC4/CyLFClk.c ****     *               CY_SYS_TIMER_INTERRUPT  "INTERRUPT" mode.
1360:.\Generated_Source\PSoC4/CyLFClk.c ****     *  delay:  The delay value in the LFCLK ticks (allowable range - 16-bit value).
1361:.\Generated_Source\PSoC4/CyLFClk.c ****     *
1362:.\Generated_Source\PSoC4/CyLFClk.c ****     * Return:
1363:.\Generated_Source\PSoC4/CyLFClk.c ****     *  None
1364:.\Generated_Source\PSoC4/CyLFClk.c ****     *
1365:.\Generated_Source\PSoC4/CyLFClk.c ****     * Side effects:
1366:.\Generated_Source\PSoC4/CyLFClk.c ****     *  In the "INTERRUPT" mode, this function enables ISR callback servicing
1367:.\Generated_Source\PSoC4/CyLFClk.c ****     *  from the corresponding WDT counter. Servicing of this ISR callback will be
1368:.\Generated_Source\PSoC4/CyLFClk.c ****     *  disabled after the expiration of the delay time.
1369:.\Generated_Source\PSoC4/CyLFClk.c ****     *
1370:.\Generated_Source\PSoC4/CyLFClk.c ****     *******************************************************************************/
1371:.\Generated_Source\PSoC4/CyLFClk.c ****     void CySysTimerDelay(uint32 counterNum, cy_sys_timer_delaytype_enum delayType, uint32 delay)
1372:.\Generated_Source\PSoC4/CyLFClk.c ****     {
 1680              		.loc 1 1372 0
 1681              		.cfi_startproc
 1682 0000 80B5     		push	{r7, lr}
 1683              		.cfi_def_cfa_offset 8
 1684              		.cfi_offset 7, -8
 1685              		.cfi_offset 14, -4
 1686 0002 86B0     		sub	sp, sp, #24
 1687              		.cfi_def_cfa_offset 32
 1688 0004 00AF     		add	r7, sp, #0
 1689              		.cfi_def_cfa_register 7
 1690 0006 F860     		str	r0, [r7, #12]
 1691 0008 7A60     		str	r2, [r7, #4]
 1692 000a 0B23     		mov	r3, #11
 1693 000c FB18     		add	r3, r7, r3
ARM GAS  C:\Users\kylep\AppData\Local\Temp\ccxh0xLd.s 			page 55


 1694 000e 0A1C     		add	r2, r1, #0
 1695 0010 1A70     		strb	r2, [r3]
1373:.\Generated_Source\PSoC4/CyLFClk.c ****         uint32 regValue;
1374:.\Generated_Source\PSoC4/CyLFClk.c ****         uint32 matchValue;
1375:.\Generated_Source\PSoC4/CyLFClk.c **** 
1376:.\Generated_Source\PSoC4/CyLFClk.c ****         if((counterNum < CY_SYS_WDT_COUNTER2) && (0uL == CySysWdtGetClearOnMatch(counterNum)) && (d
 1696              		.loc 1 1376 0
 1697 0012 FB68     		ldr	r3, [r7, #12]
 1698 0014 012B     		cmp	r3, #1
 1699 0016 1FD8     		bhi	.L137
 1700              		.loc 1 1376 0 is_stmt 0 discriminator 1
 1701 0018 FB68     		ldr	r3, [r7, #12]
 1702 001a 181C     		mov	r0, r3
 1703 001c FFF7FEFF 		bl	CySysWdtGetClearOnMatch
 1704 0020 031E     		sub	r3, r0, #0
 1705 0022 19D1     		bne	.L137
 1706              		.loc 1 1376 0 discriminator 2
 1707 0024 7B68     		ldr	r3, [r7, #4]
 1708 0026 0E4A     		ldr	r2, .L139
 1709 0028 9342     		cmp	r3, r2
 1710 002a 15D8     		bhi	.L137
1377:.\Generated_Source\PSoC4/CyLFClk.c ****         {
1378:.\Generated_Source\PSoC4/CyLFClk.c ****             regValue   = CySysWdtGetCount(counterNum);
 1711              		.loc 1 1378 0 is_stmt 1
 1712 002c FB68     		ldr	r3, [r7, #12]
 1713 002e 181C     		mov	r0, r3
 1714 0030 FFF7FEFF 		bl	CySysWdtGetCount
 1715 0034 031C     		mov	r3, r0
 1716 0036 7B61     		str	r3, [r7, #20]
1379:.\Generated_Source\PSoC4/CyLFClk.c ****             matchValue = (regValue + delay) & (uint32)UINT16_MAX_VAL;
 1717              		.loc 1 1379 0
 1718 0038 7A69     		ldr	r2, [r7, #20]
 1719 003a 7B68     		ldr	r3, [r7, #4]
 1720 003c D318     		add	r3, r2, r3
 1721 003e 1B04     		lsl	r3, r3, #16
 1722 0040 1B0C     		lsr	r3, r3, #16
 1723 0042 3B61     		str	r3, [r7, #16]
1380:.\Generated_Source\PSoC4/CyLFClk.c **** 
1381:.\Generated_Source\PSoC4/CyLFClk.c ****             CySysTimerDelayUntilMatch(counterNum, delayType, matchValue);
 1724              		.loc 1 1381 0
 1725 0044 F968     		ldr	r1, [r7, #12]
 1726 0046 0B23     		mov	r3, #11
 1727 0048 FB18     		add	r3, r7, r3
 1728 004a 1A78     		ldrb	r2, [r3]
 1729 004c 3B69     		ldr	r3, [r7, #16]
 1730 004e 081C     		mov	r0, r1
 1731 0050 111C     		mov	r1, r2
 1732 0052 1A1C     		mov	r2, r3
 1733 0054 FFF7FEFF 		bl	CySysTimerDelayUntilMatch
 1734              	.L137:
1382:.\Generated_Source\PSoC4/CyLFClk.c ****         }
1383:.\Generated_Source\PSoC4/CyLFClk.c ****         else
1384:.\Generated_Source\PSoC4/CyLFClk.c ****         {
1385:.\Generated_Source\PSoC4/CyLFClk.c ****             CYASSERT(0u != 0u);
1386:.\Generated_Source\PSoC4/CyLFClk.c ****         }
1387:.\Generated_Source\PSoC4/CyLFClk.c ****     }
 1735              		.loc 1 1387 0
ARM GAS  C:\Users\kylep\AppData\Local\Temp\ccxh0xLd.s 			page 56


 1736 0058 BD46     		mov	sp, r7
 1737 005a 06B0     		add	sp, sp, #24
 1738              		@ sp needed
 1739 005c 80BD     		pop	{r7, pc}
 1740              	.L140:
 1741 005e C046     		.align	2
 1742              	.L139:
 1743 0060 FFFF0000 		.word	65535
 1744              		.cfi_endproc
 1745              	.LFE28:
 1746              		.size	CySysTimerDelay, .-CySysTimerDelay
 1747              		.section	.text.CySysTimerDelayUntilMatch,"ax",%progbits
 1748              		.align	2
 1749              		.global	CySysTimerDelayUntilMatch
 1750              		.code	16
 1751              		.thumb_func
 1752              		.type	CySysTimerDelayUntilMatch, %function
 1753              	CySysTimerDelayUntilMatch:
 1754              	.LFB29:
1388:.\Generated_Source\PSoC4/CyLFClk.c **** 
1389:.\Generated_Source\PSoC4/CyLFClk.c **** 
1390:.\Generated_Source\PSoC4/CyLFClk.c ****     /*******************************************************************************
1391:.\Generated_Source\PSoC4/CyLFClk.c ****     * Function Name: CySysTimerDelayUntilMatch
1392:.\Generated_Source\PSoC4/CyLFClk.c ****     ********************************************************************************
1393:.\Generated_Source\PSoC4/CyLFClk.c ****     *
1394:.\Generated_Source\PSoC4/CyLFClk.c ****     * Summary:
1395:.\Generated_Source\PSoC4/CyLFClk.c ****     *  The function implements the delay specified as the number of LFCLK ticks
1396:.\Generated_Source\PSoC4/CyLFClk.c ****     *  between the specified WDT counter's current value and the "match" passed as
1397:.\Generated_Source\PSoC4/CyLFClk.c ****     *  the parameter to this function. The current WDT counter value can be obtained
1398:.\Generated_Source\PSoC4/CyLFClk.c ****     *  using the CySysWdtGetCount() function.
1399:.\Generated_Source\PSoC4/CyLFClk.c ****     *
1400:.\Generated_Source\PSoC4/CyLFClk.c ****     *  This function can operate in two modes: the "WAIT" and "INTERRUPT" mode. In
1401:.\Generated_Source\PSoC4/CyLFClk.c ****     *  the "WAIT" mode, the function waits while the used WDT counter value becomes
1402:.\Generated_Source\PSoC4/CyLFClk.c ****     *  equal to the match value. In the "INTERRUPT" mode, the interrupt is generated
1403:.\Generated_Source\PSoC4/CyLFClk.c ****     *  when the used WDT counter became equal to the "match" value.
1404:.\Generated_Source\PSoC4/CyLFClk.c ****     *
1405:.\Generated_Source\PSoC4/CyLFClk.c ****     *  For the correct function operation, the "Clear On Match" option should be
1406:.\Generated_Source\PSoC4/CyLFClk.c ****     *  disabled for the specified WDT counter. Use CySysWdtSetClearOnMatch()
1407:.\Generated_Source\PSoC4/CyLFClk.c ****     *  function with the "enable" parameter equal to zero for the used WDT counter.
1408:.\Generated_Source\PSoC4/CyLFClk.c ****     *
1409:.\Generated_Source\PSoC4/CyLFClk.c ****     *  The corresponding WDT counter should be configured to match the selected mode:
1410:.\Generated_Source\PSoC4/CyLFClk.c ****     *  "Free running Timer" for the "WAIT" mode, and "Periodic Timer" / "Watchdog
1411:.\Generated_Source\PSoC4/CyLFClk.c ****     *  (w/Interrupt)" for the "INTERRUPT" mode.
1412:.\Generated_Source\PSoC4/CyLFClk.c ****     *
1413:.\Generated_Source\PSoC4/CyLFClk.c ****     *  This can be configured in two ways:
1414:.\Generated_Source\PSoC4/CyLFClk.c ****     *  - Through the DWR page. Open the "Clocks" tab, click the "Edit Clocks..."
1415:.\Generated_Source\PSoC4/CyLFClk.c ****     *    button, in the "Configure System Clocks" window click on the
1416:.\Generated_Source\PSoC4/CyLFClk.c ****     *    "Low Frequency Clocks" tab and choose the appropriate option for the used
1417:.\Generated_Source\PSoC4/CyLFClk.c ****     *    WDT counter.
1418:.\Generated_Source\PSoC4/CyLFClk.c ****     *
1419:.\Generated_Source\PSoC4/CyLFClk.c ****     *  - Through the CySysWdtSetMode() function. Call it with the appropriate "mode"
1420:.\Generated_Source\PSoC4/CyLFClk.c ****     *    parameter for the used WDT counter.
1421:.\Generated_Source\PSoC4/CyLFClk.c ****     *
1422:.\Generated_Source\PSoC4/CyLFClk.c ****     *  For the "INTERRUPT" mode, the recommended sequence is the following:
1423:.\Generated_Source\PSoC4/CyLFClk.c ****     *  - Call the CySysWdtDisableCounterIsr() function to disable servicing
1424:.\Generated_Source\PSoC4/CyLFClk.c ****     *    interrupts of the specified WDT counter.
1425:.\Generated_Source\PSoC4/CyLFClk.c ****     *
ARM GAS  C:\Users\kylep\AppData\Local\Temp\ccxh0xLd.s 			page 57


1426:.\Generated_Source\PSoC4/CyLFClk.c ****     *  - Call the CySysWdtSetInterruptCallback() function to register the callback
1427:.\Generated_Source\PSoC4/CyLFClk.c ****     *    function for the corresponding WDT counter.
1428:.\Generated_Source\PSoC4/CyLFClk.c ****     *
1429:.\Generated_Source\PSoC4/CyLFClk.c ****     *  - Call the CySysTimerDelay() function.
1430:.\Generated_Source\PSoC4/CyLFClk.c ****     *
1431:.\Generated_Source\PSoC4/CyLFClk.c ****     * Parameters:
1432:.\Generated_Source\PSoC4/CyLFClk.c ****     *  counterNum: Valid range [0-1]. The number of the WDT counter (WDT0 or WDT1).
1433:.\Generated_Source\PSoC4/CyLFClk.c ****     *  delayType : Defines the operation mode.
1434:.\Generated_Source\PSoC4/CyLFClk.c ****     *               CY_SYS_TIMER_WAIT       "WAIT" mode.
1435:.\Generated_Source\PSoC4/CyLFClk.c ****     *               CY_SYS_TIMER_INTERRUPT  "INTERRUPT" mode.
1436:.\Generated_Source\PSoC4/CyLFClk.c ****     *  delay:  The delay value in the LFCLK ticks (allowable range - 16-bit value).
1437:.\Generated_Source\PSoC4/CyLFClk.c ****     *
1438:.\Generated_Source\PSoC4/CyLFClk.c ****     * Return:
1439:.\Generated_Source\PSoC4/CyLFClk.c ****     *  None
1440:.\Generated_Source\PSoC4/CyLFClk.c ****     *
1441:.\Generated_Source\PSoC4/CyLFClk.c ****     * Side effects:
1442:.\Generated_Source\PSoC4/CyLFClk.c ****     *  In the "INTERRUPT" mode, this function enables ISR callback servicing
1443:.\Generated_Source\PSoC4/CyLFClk.c ****     *  from the corresponding WDT counter. Servicing of this ISR callback will be
1444:.\Generated_Source\PSoC4/CyLFClk.c ****     *  disabled after the expiration of the delay time.
1445:.\Generated_Source\PSoC4/CyLFClk.c ****     *
1446:.\Generated_Source\PSoC4/CyLFClk.c ****     *******************************************************************************/
1447:.\Generated_Source\PSoC4/CyLFClk.c ****     void CySysTimerDelayUntilMatch(uint32 counterNum, cy_sys_timer_delaytype_enum delayType, uint32
1448:.\Generated_Source\PSoC4/CyLFClk.c ****     {
 1755              		.loc 1 1448 0
 1756              		.cfi_startproc
 1757 0000 80B5     		push	{r7, lr}
 1758              		.cfi_def_cfa_offset 8
 1759              		.cfi_offset 7, -8
 1760              		.cfi_offset 14, -4
 1761 0002 86B0     		sub	sp, sp, #24
 1762              		.cfi_def_cfa_offset 32
 1763 0004 00AF     		add	r7, sp, #0
 1764              		.cfi_def_cfa_register 7
 1765 0006 F860     		str	r0, [r7, #12]
 1766 0008 7A60     		str	r2, [r7, #4]
 1767 000a 0B23     		mov	r3, #11
 1768 000c FB18     		add	r3, r7, r3
 1769 000e 0A1C     		add	r2, r1, #0
 1770 0010 1A70     		strb	r2, [r3]
1449:.\Generated_Source\PSoC4/CyLFClk.c ****         uint32 tmpValue;
1450:.\Generated_Source\PSoC4/CyLFClk.c **** 
1451:.\Generated_Source\PSoC4/CyLFClk.c ****         if((counterNum < CY_SYS_WDT_COUNTER2) && (0uL == CySysWdtGetClearOnMatch(counterNum)) && (m
 1771              		.loc 1 1451 0
 1772 0012 FB68     		ldr	r3, [r7, #12]
 1773 0014 012B     		cmp	r3, #1
 1774 0016 3AD8     		bhi	.L141
 1775              		.loc 1 1451 0 is_stmt 0 discriminator 1
 1776 0018 FB68     		ldr	r3, [r7, #12]
 1777 001a 181C     		mov	r0, r3
 1778 001c FFF7FEFF 		bl	CySysWdtGetClearOnMatch
 1779 0020 031E     		sub	r3, r0, #0
 1780 0022 34D1     		bne	.L141
 1781              		.loc 1 1451 0 discriminator 2
 1782 0024 7B68     		ldr	r3, [r7, #4]
 1783 0026 1B4A     		ldr	r2, .L147
 1784 0028 9342     		cmp	r3, r2
 1785 002a 30D8     		bhi	.L141
ARM GAS  C:\Users\kylep\AppData\Local\Temp\ccxh0xLd.s 			page 58


1452:.\Generated_Source\PSoC4/CyLFClk.c ****         {
1453:.\Generated_Source\PSoC4/CyLFClk.c ****             if(delayType == CY_SYS_TIMER_WAIT)
 1786              		.loc 1 1453 0 is_stmt 1
 1787 002c 0B23     		mov	r3, #11
 1788 002e FB18     		add	r3, r7, r3
 1789 0030 1B78     		ldrb	r3, [r3]
 1790 0032 002B     		cmp	r3, #0
 1791 0034 14D1     		bne	.L143
 1792              	.L144:
1454:.\Generated_Source\PSoC4/CyLFClk.c ****             {
1455:.\Generated_Source\PSoC4/CyLFClk.c ****                 do
1456:.\Generated_Source\PSoC4/CyLFClk.c ****                 {
1457:.\Generated_Source\PSoC4/CyLFClk.c ****                     tmpValue = CySysWdtGetCount(counterNum);
 1793              		.loc 1 1457 0 discriminator 1
 1794 0036 FB68     		ldr	r3, [r7, #12]
 1795 0038 181C     		mov	r0, r3
 1796 003a FFF7FEFF 		bl	CySysWdtGetCount
 1797 003e 031C     		mov	r3, r0
 1798 0040 7B61     		str	r3, [r7, #20]
1458:.\Generated_Source\PSoC4/CyLFClk.c ****                 }while(tmpValue > match);
 1799              		.loc 1 1458 0 discriminator 1
 1800 0042 7A69     		ldr	r2, [r7, #20]
 1801 0044 7B68     		ldr	r3, [r7, #4]
 1802 0046 9A42     		cmp	r2, r3
 1803 0048 F5D8     		bhi	.L144
 1804              	.L145:
1459:.\Generated_Source\PSoC4/CyLFClk.c **** 
1460:.\Generated_Source\PSoC4/CyLFClk.c ****                 do
1461:.\Generated_Source\PSoC4/CyLFClk.c ****                 {
1462:.\Generated_Source\PSoC4/CyLFClk.c ****                     tmpValue = CySysWdtGetCount(counterNum);
 1805              		.loc 1 1462 0 discriminator 1
 1806 004a FB68     		ldr	r3, [r7, #12]
 1807 004c 181C     		mov	r0, r3
 1808 004e FFF7FEFF 		bl	CySysWdtGetCount
 1809 0052 031C     		mov	r3, r0
 1810 0054 7B61     		str	r3, [r7, #20]
1463:.\Generated_Source\PSoC4/CyLFClk.c ****                 }while(tmpValue < match);
 1811              		.loc 1 1463 0 discriminator 1
 1812 0056 7A69     		ldr	r2, [r7, #20]
 1813 0058 7B68     		ldr	r3, [r7, #4]
 1814 005a 9A42     		cmp	r2, r3
 1815 005c F5D3     		bcc	.L145
 1816 005e 16E0     		b	.L141
 1817              	.L143:
1464:.\Generated_Source\PSoC4/CyLFClk.c ****             }
1465:.\Generated_Source\PSoC4/CyLFClk.c ****             else
1466:.\Generated_Source\PSoC4/CyLFClk.c ****             {
1467:.\Generated_Source\PSoC4/CyLFClk.c ****                 tmpValue = counterIntMaskTbl[counterNum];
 1818              		.loc 1 1467 0
 1819 0060 0D4B     		ldr	r3, .L147+4
 1820 0062 FA68     		ldr	r2, [r7, #12]
 1821 0064 9200     		lsl	r2, r2, #2
 1822 0066 D358     		ldr	r3, [r2, r3]
 1823 0068 7B61     		str	r3, [r7, #20]
1468:.\Generated_Source\PSoC4/CyLFClk.c ****                 CySysWdtSetMatch(counterNum, match);
 1824              		.loc 1 1468 0
 1825 006a FA68     		ldr	r2, [r7, #12]
ARM GAS  C:\Users\kylep\AppData\Local\Temp\ccxh0xLd.s 			page 59


 1826 006c 7B68     		ldr	r3, [r7, #4]
 1827 006e 101C     		mov	r0, r2
 1828 0070 191C     		mov	r1, r3
 1829 0072 FFF7FEFF 		bl	CySysWdtSetMatch
1469:.\Generated_Source\PSoC4/CyLFClk.c **** 
1470:.\Generated_Source\PSoC4/CyLFClk.c ****                 disableServicedIsr  |= tmpValue;
 1830              		.loc 1 1470 0
 1831 0076 094B     		ldr	r3, .L147+8
 1832 0078 1A68     		ldr	r2, [r3]
 1833 007a 7B69     		ldr	r3, [r7, #20]
 1834 007c 1A43     		orr	r2, r3
 1835 007e 074B     		ldr	r3, .L147+8
 1836 0080 1A60     		str	r2, [r3]
1471:.\Generated_Source\PSoC4/CyLFClk.c ****                 wdtIsrMask |= tmpValue;
 1837              		.loc 1 1471 0
 1838 0082 074B     		ldr	r3, .L147+12
 1839 0084 1A68     		ldr	r2, [r3]
 1840 0086 7B69     		ldr	r3, [r7, #20]
 1841 0088 1A43     		orr	r2, r3
 1842 008a 054B     		ldr	r3, .L147+12
 1843 008c 1A60     		str	r2, [r3]
 1844              	.L141:
1472:.\Generated_Source\PSoC4/CyLFClk.c ****             }
1473:.\Generated_Source\PSoC4/CyLFClk.c ****         }
1474:.\Generated_Source\PSoC4/CyLFClk.c ****         else
1475:.\Generated_Source\PSoC4/CyLFClk.c ****         {
1476:.\Generated_Source\PSoC4/CyLFClk.c ****             CYASSERT(0u != 0u);
1477:.\Generated_Source\PSoC4/CyLFClk.c ****         }
1478:.\Generated_Source\PSoC4/CyLFClk.c ****     }
 1845              		.loc 1 1478 0
 1846 008e BD46     		mov	sp, r7
 1847 0090 06B0     		add	sp, sp, #24
 1848              		@ sp needed
 1849 0092 80BD     		pop	{r7, pc}
 1850              	.L148:
 1851              		.align	2
 1852              	.L147:
 1853 0094 FFFF0000 		.word	65535
 1854 0098 00000000 		.word	counterIntMaskTbl
 1855 009c 08000000 		.word	disableServicedIsr
 1856 00a0 00000000 		.word	wdtIsrMask
 1857              		.cfi_endproc
 1858              	.LFE29:
 1859              		.size	CySysTimerDelayUntilMatch, .-CySysTimerDelayUntilMatch
 1860              		.section	.text.CySysWatchdogFeed,"ax",%progbits
 1861              		.align	2
 1862              		.global	CySysWatchdogFeed
 1863              		.code	16
 1864              		.thumb_func
 1865              		.type	CySysWatchdogFeed, %function
 1866              	CySysWatchdogFeed:
 1867              	.LFB30:
1479:.\Generated_Source\PSoC4/CyLFClk.c **** 
1480:.\Generated_Source\PSoC4/CyLFClk.c **** 
1481:.\Generated_Source\PSoC4/CyLFClk.c ****     /*******************************************************************************
1482:.\Generated_Source\PSoC4/CyLFClk.c ****     * Function Name: CySysWatchdogFeed
1483:.\Generated_Source\PSoC4/CyLFClk.c ****     ********************************************************************************
ARM GAS  C:\Users\kylep\AppData\Local\Temp\ccxh0xLd.s 			page 60


1484:.\Generated_Source\PSoC4/CyLFClk.c ****     *
1485:.\Generated_Source\PSoC4/CyLFClk.c ****     * Summary:
1486:.\Generated_Source\PSoC4/CyLFClk.c ****     *  Feeds the watchdog counter before it causes the device reset. Supported only
1487:.\Generated_Source\PSoC4/CyLFClk.c ****     *  for WDT0 and WDT1 in the "Watchdog" or "Watchdog w/ Interrupts" modes.
1488:.\Generated_Source\PSoC4/CyLFClk.c ****     *
1489:.\Generated_Source\PSoC4/CyLFClk.c ****     * Parameters:
1490:.\Generated_Source\PSoC4/CyLFClk.c ****     *  counterNum:    The number of the WDT counter.
1491:.\Generated_Source\PSoC4/CyLFClk.c ****     *
1492:.\Generated_Source\PSoC4/CyLFClk.c ****     * Return:
1493:.\Generated_Source\PSoC4/CyLFClk.c ****     *  None.
1494:.\Generated_Source\PSoC4/CyLFClk.c ****     *
1495:.\Generated_Source\PSoC4/CyLFClk.c ****     * Side effects:
1496:.\Generated_Source\PSoC4/CyLFClk.c ****     *  Clears the WDT counter in the "Watchdog" mode or clears the WDT interrupt in
1497:.\Generated_Source\PSoC4/CyLFClk.c ****     *  "Watchdog w/ Interrupts" mode. Does nothing in other modes.
1498:.\Generated_Source\PSoC4/CyLFClk.c ****     *
1499:.\Generated_Source\PSoC4/CyLFClk.c ****     *******************************************************************************/
1500:.\Generated_Source\PSoC4/CyLFClk.c ****     void CySysWatchdogFeed(uint32 counterNum)
1501:.\Generated_Source\PSoC4/CyLFClk.c ****     {
 1868              		.loc 1 1501 0
 1869              		.cfi_startproc
 1870 0000 80B5     		push	{r7, lr}
 1871              		.cfi_def_cfa_offset 8
 1872              		.cfi_offset 7, -8
 1873              		.cfi_offset 14, -4
 1874 0002 82B0     		sub	sp, sp, #8
 1875              		.cfi_def_cfa_offset 16
 1876 0004 00AF     		add	r7, sp, #0
 1877              		.cfi_def_cfa_register 7
 1878 0006 7860     		str	r0, [r7, #4]
1502:.\Generated_Source\PSoC4/CyLFClk.c ****         if(counterNum == CY_SYS_WDT_COUNTER0)
 1879              		.loc 1 1502 0
 1880 0008 7B68     		ldr	r3, [r7, #4]
 1881 000a 002B     		cmp	r3, #0
 1882 000c 18D1     		bne	.L150
1503:.\Generated_Source\PSoC4/CyLFClk.c ****         {
1504:.\Generated_Source\PSoC4/CyLFClk.c ****             if(CY_SYS_WDT_MODE_INT_RESET == CySysWdtGetMode(counterNum))
 1883              		.loc 1 1504 0
 1884 000e 7B68     		ldr	r3, [r7, #4]
 1885 0010 181C     		mov	r0, r3
 1886 0012 FFF7FEFF 		bl	CySysWdtGetMode
 1887 0016 031E     		sub	r3, r0, #0
 1888 0018 032B     		cmp	r3, #3
 1889 001a 03D1     		bne	.L151
1505:.\Generated_Source\PSoC4/CyLFClk.c ****             {
1506:.\Generated_Source\PSoC4/CyLFClk.c ****                 CySysWdtClearInterrupt(CY_SYS_WDT_COUNTER0_MASK);
 1890              		.loc 1 1506 0
 1891 001c 0120     		mov	r0, #1
 1892 001e FFF7FEFF 		bl	CySysWdtClearInterrupt
 1893 0022 2EE0     		b	.L149
 1894              	.L151:
1507:.\Generated_Source\PSoC4/CyLFClk.c ****             }
1508:.\Generated_Source\PSoC4/CyLFClk.c ****             else if(CY_SYS_WDT_MODE_RESET == CySysWdtGetMode(counterNum))
 1895              		.loc 1 1508 0
 1896 0024 7B68     		ldr	r3, [r7, #4]
 1897 0026 181C     		mov	r0, r3
 1898 0028 FFF7FEFF 		bl	CySysWdtGetMode
 1899 002c 031E     		sub	r3, r0, #0
ARM GAS  C:\Users\kylep\AppData\Local\Temp\ccxh0xLd.s 			page 61


 1900 002e 022B     		cmp	r3, #2
 1901 0030 27D1     		bne	.L149
1509:.\Generated_Source\PSoC4/CyLFClk.c ****             {
1510:.\Generated_Source\PSoC4/CyLFClk.c ****                 CySysWdtResetCounters(CY_SYS_WDT_COUNTER0_RESET);
 1902              		.loc 1 1510 0
 1903 0032 0820     		mov	r0, #8
 1904 0034 FFF7FEFF 		bl	CySysWdtResetCounters
1511:.\Generated_Source\PSoC4/CyLFClk.c ****                 CySysWdtClearInterrupt(CY_SYS_WDT_COUNTER0_MASK);
 1905              		.loc 1 1511 0
 1906 0038 0120     		mov	r0, #1
 1907 003a FFF7FEFF 		bl	CySysWdtClearInterrupt
 1908 003e 20E0     		b	.L149
 1909              	.L150:
1512:.\Generated_Source\PSoC4/CyLFClk.c ****             }
1513:.\Generated_Source\PSoC4/CyLFClk.c ****             else
1514:.\Generated_Source\PSoC4/CyLFClk.c ****             {
1515:.\Generated_Source\PSoC4/CyLFClk.c ****                 /* Do nothing. */
1516:.\Generated_Source\PSoC4/CyLFClk.c ****             }
1517:.\Generated_Source\PSoC4/CyLFClk.c ****         }
1518:.\Generated_Source\PSoC4/CyLFClk.c ****         else if(counterNum == CY_SYS_WDT_COUNTER1)
 1910              		.loc 1 1518 0
 1911 0040 7B68     		ldr	r3, [r7, #4]
 1912 0042 012B     		cmp	r3, #1
 1913 0044 1DD1     		bne	.L149
1519:.\Generated_Source\PSoC4/CyLFClk.c ****         {
1520:.\Generated_Source\PSoC4/CyLFClk.c ****             if(CY_SYS_WDT_MODE_INT_RESET == CySysWdtGetMode(counterNum))
 1914              		.loc 1 1520 0
 1915 0046 7B68     		ldr	r3, [r7, #4]
 1916 0048 181C     		mov	r0, r3
 1917 004a FFF7FEFF 		bl	CySysWdtGetMode
 1918 004e 031E     		sub	r3, r0, #0
 1919 0050 032B     		cmp	r3, #3
 1920 0052 05D1     		bne	.L153
1521:.\Generated_Source\PSoC4/CyLFClk.c ****             {
1522:.\Generated_Source\PSoC4/CyLFClk.c ****                 CySysWdtClearInterrupt(CY_SYS_WDT_COUNTER1_MASK);
 1921              		.loc 1 1522 0
 1922 0054 8023     		mov	r3, #128
 1923 0056 5B00     		lsl	r3, r3, #1
 1924 0058 181C     		mov	r0, r3
 1925 005a FFF7FEFF 		bl	CySysWdtClearInterrupt
 1926 005e 10E0     		b	.L149
 1927              	.L153:
1523:.\Generated_Source\PSoC4/CyLFClk.c ****             }
1524:.\Generated_Source\PSoC4/CyLFClk.c ****             else if(CY_SYS_WDT_MODE_RESET == CySysWdtGetMode(counterNum))
 1928              		.loc 1 1524 0
 1929 0060 7B68     		ldr	r3, [r7, #4]
 1930 0062 181C     		mov	r0, r3
 1931 0064 FFF7FEFF 		bl	CySysWdtGetMode
 1932 0068 031E     		sub	r3, r0, #0
 1933 006a 022B     		cmp	r3, #2
 1934 006c 09D1     		bne	.L149
1525:.\Generated_Source\PSoC4/CyLFClk.c ****             {
1526:.\Generated_Source\PSoC4/CyLFClk.c ****                 CySysWdtResetCounters(CY_SYS_WDT_COUNTER1_RESET);
 1935              		.loc 1 1526 0
 1936 006e 8023     		mov	r3, #128
 1937 0070 1B01     		lsl	r3, r3, #4
 1938 0072 181C     		mov	r0, r3
ARM GAS  C:\Users\kylep\AppData\Local\Temp\ccxh0xLd.s 			page 62


 1939 0074 FFF7FEFF 		bl	CySysWdtResetCounters
1527:.\Generated_Source\PSoC4/CyLFClk.c ****                 CySysWdtClearInterrupt(CY_SYS_WDT_COUNTER1_MASK);
 1940              		.loc 1 1527 0
 1941 0078 8023     		mov	r3, #128
 1942 007a 5B00     		lsl	r3, r3, #1
 1943 007c 181C     		mov	r0, r3
 1944 007e FFF7FEFF 		bl	CySysWdtClearInterrupt
 1945              	.L149:
1528:.\Generated_Source\PSoC4/CyLFClk.c ****             }
1529:.\Generated_Source\PSoC4/CyLFClk.c ****             else
1530:.\Generated_Source\PSoC4/CyLFClk.c ****             {
1531:.\Generated_Source\PSoC4/CyLFClk.c ****                 /* Do nothing. */
1532:.\Generated_Source\PSoC4/CyLFClk.c ****             }
1533:.\Generated_Source\PSoC4/CyLFClk.c ****         }
1534:.\Generated_Source\PSoC4/CyLFClk.c ****         else
1535:.\Generated_Source\PSoC4/CyLFClk.c ****         {
1536:.\Generated_Source\PSoC4/CyLFClk.c ****             /* Do nothing. */
1537:.\Generated_Source\PSoC4/CyLFClk.c ****         }
1538:.\Generated_Source\PSoC4/CyLFClk.c ****     }
 1946              		.loc 1 1538 0
 1947 0082 BD46     		mov	sp, r7
 1948 0084 02B0     		add	sp, sp, #8
 1949              		@ sp needed
 1950 0086 80BD     		pop	{r7, pc}
 1951              		.cfi_endproc
 1952              	.LFE30:
 1953              		.size	CySysWatchdogFeed, .-CySysWatchdogFeed
 1954              		.section	.text.CySysClkLfclkPosedgeCatch,"ax",%progbits
 1955              		.align	2
 1956              		.code	16
 1957              		.thumb_func
 1958              		.type	CySysClkLfclkPosedgeCatch, %function
 1959              	CySysClkLfclkPosedgeCatch:
 1960              	.LFB31:
1539:.\Generated_Source\PSoC4/CyLFClk.c **** 
1540:.\Generated_Source\PSoC4/CyLFClk.c **** 
1541:.\Generated_Source\PSoC4/CyLFClk.c ****     /*******************************************************************************
1542:.\Generated_Source\PSoC4/CyLFClk.c ****     * Function Name: CySysClkLfclkPosedgeCatch
1543:.\Generated_Source\PSoC4/CyLFClk.c ****     ********************************************************************************
1544:.\Generated_Source\PSoC4/CyLFClk.c ****     *
1545:.\Generated_Source\PSoC4/CyLFClk.c ****     * Summary:
1546:.\Generated_Source\PSoC4/CyLFClk.c ****     *  Returns once the LFCLK positive edge occurred.
1547:.\Generated_Source\PSoC4/CyLFClk.c ****     *
1548:.\Generated_Source\PSoC4/CyLFClk.c ****     *  CySysClkLfclkPosedgeRestore() should be called after this function
1549:.\Generated_Source\PSoC4/CyLFClk.c ****     *  to restore the WDT configuration.
1550:.\Generated_Source\PSoC4/CyLFClk.c ****     *
1551:.\Generated_Source\PSoC4/CyLFClk.c ****     *  A pair of the CySysClkLfclkPosedgeCatch() and CySysClkLfclkPosedgeRestore()
1552:.\Generated_Source\PSoC4/CyLFClk.c ****     *  functions is expected to be called inside a critical section.
1553:.\Generated_Source\PSoC4/CyLFClk.c ****     *
1554:.\Generated_Source\PSoC4/CyLFClk.c ****     *  To ensure that the WDT counter value is read until it changes, the enabled
1555:.\Generated_Source\PSoC4/CyLFClk.c ****     *  WDT counter is used. If no counter is enabled, counter 0 is enabled.
1556:.\Generated_Source\PSoC4/CyLFClk.c ****     *  And after the LFCLK source is switched, the counter 0 configuration
1557:.\Generated_Source\PSoC4/CyLFClk.c ****     *  is restored.
1558:.\Generated_Source\PSoC4/CyLFClk.c ****     *
1559:.\Generated_Source\PSoC4/CyLFClk.c ****     *  Not applicable for the PSoC 4000 devices.
1560:.\Generated_Source\PSoC4/CyLFClk.c ****     *
1561:.\Generated_Source\PSoC4/CyLFClk.c ****     * Parameters:
ARM GAS  C:\Users\kylep\AppData\Local\Temp\ccxh0xLd.s 			page 63


1562:.\Generated_Source\PSoC4/CyLFClk.c ****     *  None.
1563:.\Generated_Source\PSoC4/CyLFClk.c ****     *
1564:.\Generated_Source\PSoC4/CyLFClk.c ****     * Return:
1565:.\Generated_Source\PSoC4/CyLFClk.c ****     *  None.
1566:.\Generated_Source\PSoC4/CyLFClk.c ****     *
1567:.\Generated_Source\PSoC4/CyLFClk.c ****     * Side Effects:
1568:.\Generated_Source\PSoC4/CyLFClk.c ****     *  This function has no effect if WDT is locked (CySysWdtLock() is
1569:.\Generated_Source\PSoC4/CyLFClk.c ****     *  called). Call CySysWdtUnlock() to unlock WDT.
1570:.\Generated_Source\PSoC4/CyLFClk.c ****     *
1571:.\Generated_Source\PSoC4/CyLFClk.c ****     *******************************************************************************/
1572:.\Generated_Source\PSoC4/CyLFClk.c ****     static void CySysClkLfclkPosedgeCatch(void)
1573:.\Generated_Source\PSoC4/CyLFClk.c ****     {
 1961              		.loc 1 1573 0
 1962              		.cfi_startproc
 1963 0000 80B5     		push	{r7, lr}
 1964              		.cfi_def_cfa_offset 8
 1965              		.cfi_offset 7, -8
 1966              		.cfi_offset 14, -4
 1967 0002 82B0     		sub	sp, sp, #8
 1968              		.cfi_def_cfa_offset 16
 1969 0004 00AF     		add	r7, sp, #0
 1970              		.cfi_def_cfa_register 7
1574:.\Generated_Source\PSoC4/CyLFClk.c ****         uint32 firstCount;
1575:.\Generated_Source\PSoC4/CyLFClk.c ****         static uint32 lfclkPosedgeEnabledWdtCounter = 0u;
1576:.\Generated_Source\PSoC4/CyLFClk.c **** 
1577:.\Generated_Source\PSoC4/CyLFClk.c ****         if (0u != CySysWdtGetEnabledStatus(CY_SYS_WDT_COUNTER0))
 1971              		.loc 1 1577 0
 1972 0006 0020     		mov	r0, #0
 1973 0008 FFF7FEFF 		bl	CySysWdtGetEnabledStatus
 1974 000c 031E     		sub	r3, r0, #0
 1975 000e 03D0     		beq	.L155
1578:.\Generated_Source\PSoC4/CyLFClk.c ****         {
1579:.\Generated_Source\PSoC4/CyLFClk.c ****             lfclkPosedgeEnabledWdtCounter = CY_SYS_WDT_COUNTER0;
 1976              		.loc 1 1579 0
 1977 0010 1E4B     		ldr	r3, .L160
 1978 0012 0022     		mov	r2, #0
 1979 0014 1A60     		str	r2, [r3]
 1980 0016 24E0     		b	.L156
 1981              	.L155:
1580:.\Generated_Source\PSoC4/CyLFClk.c ****         }
1581:.\Generated_Source\PSoC4/CyLFClk.c ****         else if (0u != CySysWdtGetEnabledStatus(CY_SYS_WDT_COUNTER1))
 1982              		.loc 1 1581 0
 1983 0018 0120     		mov	r0, #1
 1984 001a FFF7FEFF 		bl	CySysWdtGetEnabledStatus
 1985 001e 031E     		sub	r3, r0, #0
 1986 0020 03D0     		beq	.L157
1582:.\Generated_Source\PSoC4/CyLFClk.c ****         {
1583:.\Generated_Source\PSoC4/CyLFClk.c ****             lfclkPosedgeEnabledWdtCounter = CY_SYS_WDT_COUNTER1;
 1987              		.loc 1 1583 0
 1988 0022 1A4B     		ldr	r3, .L160
 1989 0024 0122     		mov	r2, #1
 1990 0026 1A60     		str	r2, [r3]
 1991 0028 1BE0     		b	.L156
 1992              	.L157:
1584:.\Generated_Source\PSoC4/CyLFClk.c ****         }
1585:.\Generated_Source\PSoC4/CyLFClk.c ****         else if (0u != CySysWdtGetEnabledStatus(CY_SYS_WDT_COUNTER2))
 1993              		.loc 1 1585 0
ARM GAS  C:\Users\kylep\AppData\Local\Temp\ccxh0xLd.s 			page 64


 1994 002a 0220     		mov	r0, #2
 1995 002c FFF7FEFF 		bl	CySysWdtGetEnabledStatus
 1996 0030 031E     		sub	r3, r0, #0
 1997 0032 03D0     		beq	.L158
1586:.\Generated_Source\PSoC4/CyLFClk.c ****         {
1587:.\Generated_Source\PSoC4/CyLFClk.c ****             lfclkPosedgeEnabledWdtCounter = CY_SYS_WDT_COUNTER2;
 1998              		.loc 1 1587 0
 1999 0034 154B     		ldr	r3, .L160
 2000 0036 0222     		mov	r2, #2
 2001 0038 1A60     		str	r2, [r3]
 2002 003a 12E0     		b	.L156
 2003              	.L158:
1588:.\Generated_Source\PSoC4/CyLFClk.c ****         }
1589:.\Generated_Source\PSoC4/CyLFClk.c ****         else /* All WDT counters are disabled */
1590:.\Generated_Source\PSoC4/CyLFClk.c ****         {
1591:.\Generated_Source\PSoC4/CyLFClk.c ****             /* Configure WDT counter # 0 */
1592:.\Generated_Source\PSoC4/CyLFClk.c ****             lfclkPosedgeWdtCounter0Enabled = 1u;
 2004              		.loc 1 1592 0
 2005 003c 144B     		ldr	r3, .L160+4
 2006 003e 0122     		mov	r2, #1
 2007 0040 1A60     		str	r2, [r3]
1593:.\Generated_Source\PSoC4/CyLFClk.c ****             lfclkPosedgeEnabledWdtCounter = CY_SYS_WDT_COUNTER0;
 2008              		.loc 1 1593 0
 2009 0042 124B     		ldr	r3, .L160
 2010 0044 0022     		mov	r2, #0
 2011 0046 1A60     		str	r2, [r3]
1594:.\Generated_Source\PSoC4/CyLFClk.c **** 
1595:.\Generated_Source\PSoC4/CyLFClk.c ****             lfclkPosedgeWdtCounter0Mode = CySysWdtGetMode(CY_SYS_WDT_COUNTER0);
 2012              		.loc 1 1595 0
 2013 0048 0020     		mov	r0, #0
 2014 004a FFF7FEFF 		bl	CySysWdtGetMode
 2015 004e 021C     		mov	r2, r0
 2016 0050 104B     		ldr	r3, .L160+8
 2017 0052 1A60     		str	r2, [r3]
1596:.\Generated_Source\PSoC4/CyLFClk.c ****             CySysWdtSetMode(CY_SYS_WDT_COUNTER0, CY_SYS_WDT_MODE_NONE);
 2018              		.loc 1 1596 0
 2019 0054 0020     		mov	r0, #0
 2020 0056 0021     		mov	r1, #0
 2021 0058 FFF7FEFF 		bl	CySysWdtSetMode
1597:.\Generated_Source\PSoC4/CyLFClk.c ****             CySysWdtEnable(CY_SYS_WDT_COUNTER0_MASK);
 2022              		.loc 1 1597 0
 2023 005c 0120     		mov	r0, #1
 2024 005e FFF7FEFF 		bl	CySysWdtEnable
 2025              	.L156:
1598:.\Generated_Source\PSoC4/CyLFClk.c ****         }
1599:.\Generated_Source\PSoC4/CyLFClk.c **** 
1600:.\Generated_Source\PSoC4/CyLFClk.c ****         firstCount = CySysWdtGetCount(lfclkPosedgeEnabledWdtCounter);
 2026              		.loc 1 1600 0
 2027 0062 0A4B     		ldr	r3, .L160
 2028 0064 1B68     		ldr	r3, [r3]
 2029 0066 181C     		mov	r0, r3
 2030 0068 FFF7FEFF 		bl	CySysWdtGetCount
 2031 006c 031C     		mov	r3, r0
 2032 006e 7B60     		str	r3, [r7, #4]
1601:.\Generated_Source\PSoC4/CyLFClk.c ****         while (CySysWdtGetCount(lfclkPosedgeEnabledWdtCounter) == firstCount)
 2033              		.loc 1 1601 0
 2034 0070 C046     		mov	r8, r8
ARM GAS  C:\Users\kylep\AppData\Local\Temp\ccxh0xLd.s 			page 65


 2035              	.L159:
 2036              		.loc 1 1601 0 is_stmt 0 discriminator 1
 2037 0072 064B     		ldr	r3, .L160
 2038 0074 1B68     		ldr	r3, [r3]
 2039 0076 181C     		mov	r0, r3
 2040 0078 FFF7FEFF 		bl	CySysWdtGetCount
 2041 007c 021E     		sub	r2, r0, #0
 2042 007e 7B68     		ldr	r3, [r7, #4]
 2043 0080 9A42     		cmp	r2, r3
 2044 0082 F6D0     		beq	.L159
1602:.\Generated_Source\PSoC4/CyLFClk.c ****         {
1603:.\Generated_Source\PSoC4/CyLFClk.c ****             /* Wait for counter to increment */
1604:.\Generated_Source\PSoC4/CyLFClk.c ****         }
1605:.\Generated_Source\PSoC4/CyLFClk.c ****     }
 2045              		.loc 1 1605 0 is_stmt 1
 2046 0084 BD46     		mov	sp, r7
 2047 0086 02B0     		add	sp, sp, #8
 2048              		@ sp needed
 2049 0088 80BD     		pop	{r7, pc}
 2050              	.L161:
 2051 008a C046     		.align	2
 2052              	.L160:
 2053 008c 18000000 		.word	lfclkPosedgeEnabledWdtCounter.4838
 2054 0090 00000000 		.word	lfclkPosedgeWdtCounter0Enabled
 2055 0094 04000000 		.word	lfclkPosedgeWdtCounter0Mode
 2056              		.cfi_endproc
 2057              	.LFE31:
 2058              		.size	CySysClkLfclkPosedgeCatch, .-CySysClkLfclkPosedgeCatch
 2059              		.section	.text.CySysClkLfclkPosedgeRestore,"ax",%progbits
 2060              		.align	2
 2061              		.code	16
 2062              		.thumb_func
 2063              		.type	CySysClkLfclkPosedgeRestore, %function
 2064              	CySysClkLfclkPosedgeRestore:
 2065              	.LFB32:
1606:.\Generated_Source\PSoC4/CyLFClk.c **** 
1607:.\Generated_Source\PSoC4/CyLFClk.c **** 
1608:.\Generated_Source\PSoC4/CyLFClk.c ****     /*******************************************************************************
1609:.\Generated_Source\PSoC4/CyLFClk.c ****     * Function Name: CySysClkLfclkPosedgeRestore
1610:.\Generated_Source\PSoC4/CyLFClk.c ****     ********************************************************************************
1611:.\Generated_Source\PSoC4/CyLFClk.c ****     *
1612:.\Generated_Source\PSoC4/CyLFClk.c ****     * Summary:
1613:.\Generated_Source\PSoC4/CyLFClk.c ****     *  Restores the WDT configuration after a CySysClkLfclkPosedgeCatch() call.
1614:.\Generated_Source\PSoC4/CyLFClk.c ****     *
1615:.\Generated_Source\PSoC4/CyLFClk.c ****     *  A pair of the CySysClkLfclkPosedgeCatch() and CySysClkLfclkPosedgeRestore()
1616:.\Generated_Source\PSoC4/CyLFClk.c ****     *  functions is expected to be called inside a critical section.
1617:.\Generated_Source\PSoC4/CyLFClk.c ****     *
1618:.\Generated_Source\PSoC4/CyLFClk.c ****     *  Not applicable for the PSoC 4000 devices.
1619:.\Generated_Source\PSoC4/CyLFClk.c ****     *
1620:.\Generated_Source\PSoC4/CyLFClk.c ****     * Parameters:
1621:.\Generated_Source\PSoC4/CyLFClk.c ****     *  None.
1622:.\Generated_Source\PSoC4/CyLFClk.c ****     *
1623:.\Generated_Source\PSoC4/CyLFClk.c ****     * Return:
1624:.\Generated_Source\PSoC4/CyLFClk.c ****     *  None.
1625:.\Generated_Source\PSoC4/CyLFClk.c ****     *
1626:.\Generated_Source\PSoC4/CyLFClk.c ****     * Side Effects:
1627:.\Generated_Source\PSoC4/CyLFClk.c ****     *  This function has no effect if WDT is locked (CySysWdtLock() is
ARM GAS  C:\Users\kylep\AppData\Local\Temp\ccxh0xLd.s 			page 66


1628:.\Generated_Source\PSoC4/CyLFClk.c ****     *  called). Call CySysWdtUnlock() to unlock WDT.
1629:.\Generated_Source\PSoC4/CyLFClk.c ****     *
1630:.\Generated_Source\PSoC4/CyLFClk.c ****     *******************************************************************************/
1631:.\Generated_Source\PSoC4/CyLFClk.c ****     static void CySysClkLfclkPosedgeRestore(void)
1632:.\Generated_Source\PSoC4/CyLFClk.c ****     {
 2066              		.loc 1 1632 0
 2067              		.cfi_startproc
 2068 0000 80B5     		push	{r7, lr}
 2069              		.cfi_def_cfa_offset 8
 2070              		.cfi_offset 7, -8
 2071              		.cfi_offset 14, -4
 2072 0002 00AF     		add	r7, sp, #0
 2073              		.cfi_def_cfa_register 7
1633:.\Generated_Source\PSoC4/CyLFClk.c ****         if (lfclkPosedgeWdtCounter0Enabled != 0u)
 2074              		.loc 1 1633 0
 2075 0004 0A4B     		ldr	r3, .L164
 2076 0006 1B68     		ldr	r3, [r3]
 2077 0008 002B     		cmp	r3, #0
 2078 000a 0ED0     		beq	.L162
1634:.\Generated_Source\PSoC4/CyLFClk.c ****         {
1635:.\Generated_Source\PSoC4/CyLFClk.c ****             /* Restore counter # 0 configuration and force its shutdown */
1636:.\Generated_Source\PSoC4/CyLFClk.c ****             CY_SYS_WDT_CONTROL_REG &= (uint32)(~CY_SYS_WDT_COUNTER0_MASK);
 2079              		.loc 1 1636 0
 2080 000c 094B     		ldr	r3, .L164+4
 2081 000e 094A     		ldr	r2, .L164+4
 2082 0010 1268     		ldr	r2, [r2]
 2083 0012 0121     		mov	r1, #1
 2084 0014 8A43     		bic	r2, r1
 2085 0016 1A60     		str	r2, [r3]
1637:.\Generated_Source\PSoC4/CyLFClk.c ****             CySysWdtSetMode(CY_SYS_WDT_COUNTER0, lfclkPosedgeWdtCounter0Mode);
 2086              		.loc 1 1637 0
 2087 0018 074B     		ldr	r3, .L164+8
 2088 001a 1B68     		ldr	r3, [r3]
 2089 001c 0020     		mov	r0, #0
 2090 001e 191C     		mov	r1, r3
 2091 0020 FFF7FEFF 		bl	CySysWdtSetMode
1638:.\Generated_Source\PSoC4/CyLFClk.c ****             lfclkPosedgeWdtCounter0Enabled = 0u;
 2092              		.loc 1 1638 0
 2093 0024 024B     		ldr	r3, .L164
 2094 0026 0022     		mov	r2, #0
 2095 0028 1A60     		str	r2, [r3]
 2096              	.L162:
1639:.\Generated_Source\PSoC4/CyLFClk.c ****         }
1640:.\Generated_Source\PSoC4/CyLFClk.c ****     }
 2097              		.loc 1 1640 0
 2098 002a BD46     		mov	sp, r7
 2099              		@ sp needed
 2100 002c 80BD     		pop	{r7, pc}
 2101              	.L165:
 2102 002e C046     		.align	2
 2103              	.L164:
 2104 0030 00000000 		.word	lfclkPosedgeWdtCounter0Enabled
 2105 0034 10020B40 		.word	1074463248
 2106 0038 04000000 		.word	lfclkPosedgeWdtCounter0Mode
 2107              		.cfi_endproc
 2108              	.LFE32:
 2109              		.size	CySysClkLfclkPosedgeRestore, .-CySysClkLfclkPosedgeRestore
ARM GAS  C:\Users\kylep\AppData\Local\Temp\ccxh0xLd.s 			page 67


 2110              		.bss
 2111              		.align	2
 2112              	lfclkPosedgeEnabledWdtCounter.4838:
 2113 0018 00000000 		.space	4
 2114              		.text
 2115              	.Letext0:
 2116              		.file 2 ".\\Generated_Source\\PSoC4\\cytypes.h"
 2117              		.file 3 ".\\Generated_Source\\PSoC4\\CyLFClk.h"