ARM GAS  C:\Users\kylep\AppData\Local\Temp\ccAJ1He0.s 			page 1


   1              		.cpu cortex-m0
   2              		.fpu softvfp
   3              		.eabi_attribute 20, 1
   4              		.eabi_attribute 21, 1
   5              		.eabi_attribute 23, 3
   6              		.eabi_attribute 24, 1
   7              		.eabi_attribute 25, 1
   8              		.eabi_attribute 26, 1
   9              		.eabi_attribute 30, 6
  10              		.eabi_attribute 34, 0
  11              		.eabi_attribute 18, 4
  12              		.code	16
  13              		.file	"CyLib.c"
  14              		.text
  15              	.Ltext0:
  16              		.cfi_sections	.debug_frame
  17              		.global	cydelayFreqHz
  18              		.data
  19              		.align	2
  20              		.type	cydelayFreqHz, %object
  21              		.size	cydelayFreqHz, 4
  22              	cydelayFreqHz:
  23 0000 006CDC02 		.word	48000000
  24              		.global	cydelayFreqKhz
  25              		.align	2
  26              		.type	cydelayFreqKhz, %object
  27              		.size	cydelayFreqKhz, 4
  28              	cydelayFreqKhz:
  29 0004 80BB0000 		.word	48000
  30              		.global	cydelayFreqMhz
  31              		.type	cydelayFreqMhz, %object
  32              		.size	cydelayFreqMhz, 1
  33              	cydelayFreqMhz:
  34 0008 30       		.byte	48
  35              		.global	cydelay32kMs
  36 0009 000000   		.align	2
  37              		.type	cydelay32kMs, %object
  38              		.size	cydelay32kMs, 4
  39              	cydelay32kMs:
  40 000c 0000C05D 		.word	1572864000
  41              		.bss
  42              		.align	2
  43              	CySysTickCallbacks:
  44 0000 00000000 		.space	20
  44      00000000 
  44      00000000 
  44      00000000 
  44      00000000 
  45              		.global	CySysTickInitVar
  46              		.align	2
  47              		.type	CySysTickInitVar, %object
  48              		.size	CySysTickInitVar, 4
  49              	CySysTickInitVar:
  50 0014 00000000 		.space	4
  51              		.global	cyImoFreqMhz2Reg
  52              		.section	.rodata
  53              		.align	2
ARM GAS  C:\Users\kylep\AppData\Local\Temp\ccAJ1He0.s 			page 2


  54              		.type	cyImoFreqMhz2Reg, %object
  55              		.size	cyImoFreqMhz2Reg, 46
  56              	cyImoFreqMhz2Reg:
  57 0000 03       		.byte	3
  58 0001 04       		.byte	4
  59 0002 05       		.byte	5
  60 0003 06       		.byte	6
  61 0004 07       		.byte	7
  62 0005 08       		.byte	8
  63 0006 09       		.byte	9
  64 0007 0A       		.byte	10
  65 0008 0B       		.byte	11
  66 0009 0C       		.byte	12
  67 000a 0E       		.byte	14
  68 000b 0F       		.byte	15
  69 000c 10       		.byte	16
  70 000d 11       		.byte	17
  71 000e 12       		.byte	18
  72 000f 13       		.byte	19
  73 0010 14       		.byte	20
  74 0011 15       		.byte	21
  75 0012 16       		.byte	22
  76 0013 17       		.byte	23
  77 0014 18       		.byte	24
  78 0015 19       		.byte	25
  79 0016 1B       		.byte	27
  80 0017 1C       		.byte	28
  81 0018 1D       		.byte	29
  82 0019 1E       		.byte	30
  83 001a 1F       		.byte	31
  84 001b 20       		.byte	32
  85 001c 21       		.byte	33
  86 001d 22       		.byte	34
  87 001e 23       		.byte	35
  88 001f 25       		.byte	37
  89 0020 26       		.byte	38
  90 0021 27       		.byte	39
  91 0022 28       		.byte	40
  92 0023 29       		.byte	41
  93 0024 2A       		.byte	42
  94 0025 2B       		.byte	43
  95 0026 2E       		.byte	46
  96 0027 2F       		.byte	47
  97 0028 30       		.byte	48
  98 0029 31       		.byte	49
  99 002a 32       		.byte	50
 100 002b 33       		.byte	51
 101 002c 34       		.byte	52
 102 002d 35       		.byte	53
 103 002e 0000     		.section	.text.CySysClkImoStart,"ax",%progbits
 104              		.align	2
 105              		.global	CySysClkImoStart
 106              		.code	16
 107              		.thumb_func
 108              		.type	CySysClkImoStart, %function
 109              	CySysClkImoStart:
 110              	.LFB0:
ARM GAS  C:\Users\kylep\AppData\Local\Temp\ccAJ1He0.s 			page 3


 111              		.file 1 ".\\Generated_Source\\PSoC4\\CyLib.c"
   1:.\Generated_Source\PSoC4/CyLib.c **** /*******************************************************************************
   2:.\Generated_Source\PSoC4/CyLib.c **** * File Name: CyLib.c
   3:.\Generated_Source\PSoC4/CyLib.c **** * Version 5.30
   4:.\Generated_Source\PSoC4/CyLib.c **** *
   5:.\Generated_Source\PSoC4/CyLib.c **** *  Description:
   6:.\Generated_Source\PSoC4/CyLib.c **** *   Provides a system API for the Clocking, Interrupts, SysTick, and Voltage
   7:.\Generated_Source\PSoC4/CyLib.c **** *   Detect.
   8:.\Generated_Source\PSoC4/CyLib.c **** *
   9:.\Generated_Source\PSoC4/CyLib.c **** *  Note:
  10:.\Generated_Source\PSoC4/CyLib.c **** *   Documentation of the API's in this file is located in the PSoC 4 System
  11:.\Generated_Source\PSoC4/CyLib.c **** *   Reference Guide provided with PSoC Creator.
  12:.\Generated_Source\PSoC4/CyLib.c **** *
  13:.\Generated_Source\PSoC4/CyLib.c **** ********************************************************************************
  14:.\Generated_Source\PSoC4/CyLib.c **** * Copyright 2010-2015, Cypress Semiconductor Corporation.  All rights reserved.
  15:.\Generated_Source\PSoC4/CyLib.c **** * You may use this file only in accordance with the license, terms, conditions,
  16:.\Generated_Source\PSoC4/CyLib.c **** * disclaimers, and limitations in the end user license agreement accompanying
  17:.\Generated_Source\PSoC4/CyLib.c **** * the software package with which this file was provided.
  18:.\Generated_Source\PSoC4/CyLib.c **** *******************************************************************************/
  19:.\Generated_Source\PSoC4/CyLib.c **** 
  20:.\Generated_Source\PSoC4/CyLib.c **** #include "CyLib.h"
  21:.\Generated_Source\PSoC4/CyLib.c **** 
  22:.\Generated_Source\PSoC4/CyLib.c **** /* CySysClkWriteImoFreq() || CySysClkImoEnableWcoLock() */
  23:.\Generated_Source\PSoC4/CyLib.c **** #if ((CY_IP_SRSSV2 && CY_IP_FMLT) || CY_IP_IMO_TRIMMABLE_BY_WCO)
  24:.\Generated_Source\PSoC4/CyLib.c ****     #include "CyFlash.h"
  25:.\Generated_Source\PSoC4/CyLib.c **** #endif /* (CY_IP_SRSSV2 && CY_IP_FMLT) */
  26:.\Generated_Source\PSoC4/CyLib.c **** 
  27:.\Generated_Source\PSoC4/CyLib.c **** /* Do not use these definitions directly in your application */
  28:.\Generated_Source\PSoC4/CyLib.c **** uint32 cydelayFreqHz  = CYDEV_BCLK__SYSCLK__HZ;
  29:.\Generated_Source\PSoC4/CyLib.c **** uint32 cydelayFreqKhz = (CYDEV_BCLK__SYSCLK__HZ + CY_DELAY_1K_MINUS_1_THRESHOLD) / CY_DELAY_1K_THRE
  30:.\Generated_Source\PSoC4/CyLib.c **** uint8  cydelayFreqMhz = (uint8)((CYDEV_BCLK__SYSCLK__HZ + CY_DELAY_1M_MINUS_1_THRESHOLD) / CY_DELAY
  31:.\Generated_Source\PSoC4/CyLib.c **** uint32 cydelay32kMs   = CY_DELAY_MS_OVERFLOW * ((CYDEV_BCLK__SYSCLK__HZ + CY_DELAY_1K_MINUS_1_THRES
  32:.\Generated_Source\PSoC4/CyLib.c ****                         CY_DELAY_1K_THRESHOLD);
  33:.\Generated_Source\PSoC4/CyLib.c **** 
  34:.\Generated_Source\PSoC4/CyLib.c **** 
  35:.\Generated_Source\PSoC4/CyLib.c **** static cySysTickCallback CySysTickCallbacks[CY_SYS_SYST_NUM_OF_CALLBACKS];
  36:.\Generated_Source\PSoC4/CyLib.c **** static void CySysTickServiceCallbacks(void);
  37:.\Generated_Source\PSoC4/CyLib.c **** #if (CY_IP_SRSSV2 && CY_IP_PLL)
  38:.\Generated_Source\PSoC4/CyLib.c ****     static uint32 CySysClkPllGetBypassMode(uint32 pll);
  39:.\Generated_Source\PSoC4/CyLib.c ****     static cystatus CySysClkPllConfigChangeAllowed(uint32 pll);
  40:.\Generated_Source\PSoC4/CyLib.c **** #endif /* #if (CY_IP_SRSSV2 && CY_IP_PLL) */
  41:.\Generated_Source\PSoC4/CyLib.c **** 
  42:.\Generated_Source\PSoC4/CyLib.c **** 
  43:.\Generated_Source\PSoC4/CyLib.c **** /*******************************************************************************
  44:.\Generated_Source\PSoC4/CyLib.c **** * Indicates whether or not the SysTick has been initialized. The variable is
  45:.\Generated_Source\PSoC4/CyLib.c **** * initialized to 0 and set to 1 the first time CySysTickStart() is called.
  46:.\Generated_Source\PSoC4/CyLib.c **** *
  47:.\Generated_Source\PSoC4/CyLib.c **** * This allows the component to restart without reinitialization after the first
  48:.\Generated_Source\PSoC4/CyLib.c **** * call to the CySysTickStart() routine.
  49:.\Generated_Source\PSoC4/CyLib.c **** *
  50:.\Generated_Source\PSoC4/CyLib.c **** * If reinitialization of the SysTick is required, call CySysTickInit() before
  51:.\Generated_Source\PSoC4/CyLib.c **** * calling CySysTickStart(). Alternatively, the SysTick can be reinitialized by
  52:.\Generated_Source\PSoC4/CyLib.c **** * calling the CySysTickInit() and CySysTickEnable() functions.
  53:.\Generated_Source\PSoC4/CyLib.c **** *******************************************************************************/
  54:.\Generated_Source\PSoC4/CyLib.c **** uint32 CySysTickInitVar = 0u;
  55:.\Generated_Source\PSoC4/CyLib.c **** 
  56:.\Generated_Source\PSoC4/CyLib.c **** 
ARM GAS  C:\Users\kylep\AppData\Local\Temp\ccAJ1He0.s 			page 4


  57:.\Generated_Source\PSoC4/CyLib.c **** #if(CY_IP_SRSSV2)
  58:.\Generated_Source\PSoC4/CyLib.c ****         /* Conversion between CySysClkWriteImoFreq() parameter and register's value */
  59:.\Generated_Source\PSoC4/CyLib.c ****         const uint8 cyImoFreqMhz2Reg[CY_SYS_CLK_IMO_FREQ_TABLE_SIZE] = {
  60:.\Generated_Source\PSoC4/CyLib.c ****             /*  3 MHz */ 0x03u,  /*  4 MHz */ 0x04u,  /*  5 MHz */ 0x05u,  /*  6 MHz */ 0x06u,
  61:.\Generated_Source\PSoC4/CyLib.c ****             /*  7 MHz */ 0x07u,  /*  8 MHz */ 0x08u,  /*  9 MHz */ 0x09u,  /* 10 MHz */ 0x0Au,
  62:.\Generated_Source\PSoC4/CyLib.c ****             /* 11 MHz */ 0x0Bu,  /* 12 MHz */ 0x0Cu,  /* 13 MHz */ 0x0Eu,  /* 14 MHz */ 0x0Fu,
  63:.\Generated_Source\PSoC4/CyLib.c ****             /* 15 MHz */ 0x10u,  /* 16 MHz */ 0x11u,  /* 17 MHz */ 0x12u,  /* 18 MHz */ 0x13u,
  64:.\Generated_Source\PSoC4/CyLib.c ****             /* 19 MHz */ 0x14u,  /* 20 MHz */ 0x15u,  /* 21 MHz */ 0x16u,  /* 22 MHz */ 0x17u,
  65:.\Generated_Source\PSoC4/CyLib.c ****             /* 23 MHz */ 0x18u,  /* 24 MHz */ 0x19u,  /* 25 MHz */ 0x1Bu,  /* 26 MHz */ 0x1Cu,
  66:.\Generated_Source\PSoC4/CyLib.c ****             /* 27 MHz */ 0x1Du,  /* 28 MHz */ 0x1Eu,  /* 29 MHz */ 0x1Fu,  /* 30 MHz */ 0x20u,
  67:.\Generated_Source\PSoC4/CyLib.c ****             /* 31 MHz */ 0x21u,  /* 32 MHz */ 0x22u,  /* 33 MHz */ 0x23u,  /* 34 MHz */ 0x25u,
  68:.\Generated_Source\PSoC4/CyLib.c ****             /* 35 MHz */ 0x26u,  /* 36 MHz */ 0x27u,  /* 37 MHz */ 0x28u,  /* 38 MHz */ 0x29u,
  69:.\Generated_Source\PSoC4/CyLib.c ****             /* 39 MHz */ 0x2Au,  /* 40 MHz */ 0x2Bu,  /* 41 MHz */ 0x2Eu,  /* 42 MHz */ 0x2Fu,
  70:.\Generated_Source\PSoC4/CyLib.c ****             /* 43 MHz */ 0x30u,  /* 44 MHz */ 0x31u,  /* 45 MHz */ 0x32u,  /* 46 MHz */ 0x33u,
  71:.\Generated_Source\PSoC4/CyLib.c ****             /* 47 MHz */ 0x34u,  /* 48 MHz */ 0x35u };
  72:.\Generated_Source\PSoC4/CyLib.c **** #endif /* (CY_IP_SRSSV2) */
  73:.\Generated_Source\PSoC4/CyLib.c **** 
  74:.\Generated_Source\PSoC4/CyLib.c **** #if (CY_IP_IMO_TRIMMABLE_BY_WCO)
  75:.\Generated_Source\PSoC4/CyLib.c ****         /* Conversion between IMO frequency and WCO DPLL max offset steps */
  76:.\Generated_Source\PSoC4/CyLib.c ****         const uint8 cyImoFreqMhz2DpllOffset[CY_SYS_CLK_IMO_FREQ_WCO_DPLL_TABLE_SIZE] = {
  77:.\Generated_Source\PSoC4/CyLib.c ****             /* 26 MHz */  238u, /* 27 MHz */  219u, /* 28 MHz */  201u, /* 29 MHz */  185u,
  78:.\Generated_Source\PSoC4/CyLib.c ****             /* 30 MHz */  170u, /* 31 MHz */  155u, /* 32 MHz */  142u, /* 33 MHz */  130u,
  79:.\Generated_Source\PSoC4/CyLib.c ****             /* 34 MHz */  118u, /* 35 MHz */  107u, /* 36 MHz */   96u, /* 37 MHz */  86u,
  80:.\Generated_Source\PSoC4/CyLib.c ****             /* 38 MHz */   77u, /* 39 MHz */   68u, /* 40 MHz */   59u, /* 41 MHz */  51u,
  81:.\Generated_Source\PSoC4/CyLib.c ****             /* 42 MHz */   44u, /* 43 MHz */   36u, /* 44 MHz */   29u, /* 45 MHz */  23u,
  82:.\Generated_Source\PSoC4/CyLib.c ****             /* 46 MHz */   16u, /* 47 MHz */   10u, /* 48 MHz */   4u };
  83:.\Generated_Source\PSoC4/CyLib.c **** #endif /* (CY_IP_IMO_TRIMMABLE_BY_WCO) */
  84:.\Generated_Source\PSoC4/CyLib.c **** 
  85:.\Generated_Source\PSoC4/CyLib.c **** /* Stored CY_SYS_CLK_IMO_TRIM4_REG when modified for USB lock */
  86:.\Generated_Source\PSoC4/CyLib.c **** #if (CY_IP_IMO_TRIMMABLE_BY_USB)
  87:.\Generated_Source\PSoC4/CyLib.c ****         uint32 CySysClkImoTrim4 = 0u;
  88:.\Generated_Source\PSoC4/CyLib.c **** #endif /* (CY_IP_IMO_TRIMMABLE_BY_USB) */
  89:.\Generated_Source\PSoC4/CyLib.c **** 
  90:.\Generated_Source\PSoC4/CyLib.c **** 
  91:.\Generated_Source\PSoC4/CyLib.c **** /*******************************************************************************
  92:.\Generated_Source\PSoC4/CyLib.c **** * Function Name: CySysClkImoStart
  93:.\Generated_Source\PSoC4/CyLib.c **** ********************************************************************************
  94:.\Generated_Source\PSoC4/CyLib.c **** *
  95:.\Generated_Source\PSoC4/CyLib.c **** * Summary:
  96:.\Generated_Source\PSoC4/CyLib.c **** *  Enables the IMO.
  97:.\Generated_Source\PSoC4/CyLib.c **** *
  98:.\Generated_Source\PSoC4/CyLib.c **** *  For PSoC 4100M / PSoC 4200M devices, this function will also enable WCO lock
  99:.\Generated_Source\PSoC4/CyLib.c **** *  if selected in the Design Wide Resources tab.
 100:.\Generated_Source\PSoC4/CyLib.c **** *
 101:.\Generated_Source\PSoC4/CyLib.c **** *  For PSoC 4200L devices, this function will also enable USB lock if selected
 102:.\Generated_Source\PSoC4/CyLib.c **** *  in the Design Wide Resources tab.
 103:.\Generated_Source\PSoC4/CyLib.c **** *
 104:.\Generated_Source\PSoC4/CyLib.c **** * Parameters:
 105:.\Generated_Source\PSoC4/CyLib.c **** *  None
 106:.\Generated_Source\PSoC4/CyLib.c **** *
 107:.\Generated_Source\PSoC4/CyLib.c **** * Return:
 108:.\Generated_Source\PSoC4/CyLib.c **** *  None
 109:.\Generated_Source\PSoC4/CyLib.c **** *
 110:.\Generated_Source\PSoC4/CyLib.c **** *******************************************************************************/
 111:.\Generated_Source\PSoC4/CyLib.c **** void CySysClkImoStart(void)
 112:.\Generated_Source\PSoC4/CyLib.c **** {
 112              		.loc 1 112 0
ARM GAS  C:\Users\kylep\AppData\Local\Temp\ccAJ1He0.s 			page 5


 113              		.cfi_startproc
 114 0000 80B5     		push	{r7, lr}
 115              		.cfi_def_cfa_offset 8
 116              		.cfi_offset 7, -8
 117              		.cfi_offset 14, -4
 118 0002 00AF     		add	r7, sp, #0
 119              		.cfi_def_cfa_register 7
 113:.\Generated_Source\PSoC4/CyLib.c ****     CY_SYS_CLK_IMO_CONFIG_REG |= CY_SYS_CLK_IMO_CONFIG_ENABLE;
 120              		.loc 1 113 0
 121 0004 044B     		ldr	r3, .L2
 122 0006 044A     		ldr	r2, .L2
 123 0008 1268     		ldr	r2, [r2]
 124 000a 8021     		mov	r1, #128
 125 000c 0906     		lsl	r1, r1, #24
 126 000e 0A43     		orr	r2, r1
 127 0010 1A60     		str	r2, [r3]
 114:.\Generated_Source\PSoC4/CyLib.c **** 
 115:.\Generated_Source\PSoC4/CyLib.c ****     #if (CY_IP_IMO_TRIMMABLE_BY_WCO)
 116:.\Generated_Source\PSoC4/CyLib.c ****         #if (CYDEV_IMO_TRIMMED_BY_WCO == 1u)
 117:.\Generated_Source\PSoC4/CyLib.c ****             CySysClkImoEnableWcoLock();
 118:.\Generated_Source\PSoC4/CyLib.c ****         #endif  /* (CYDEV_IMO_TRIMMED_BY_WCO == 1u) */
 119:.\Generated_Source\PSoC4/CyLib.c ****     #endif  /* (CY_IP_IMO_TRIMMABLE_BY_WCO) */
 120:.\Generated_Source\PSoC4/CyLib.c **** 
 121:.\Generated_Source\PSoC4/CyLib.c **** 
 122:.\Generated_Source\PSoC4/CyLib.c ****     #if (CY_IP_IMO_TRIMMABLE_BY_USB)
 123:.\Generated_Source\PSoC4/CyLib.c ****         #if (CYDEV_IMO_TRIMMED_BY_USB == 1u)
 124:.\Generated_Source\PSoC4/CyLib.c ****             CySysClkImoEnableUsbLock();
 125:.\Generated_Source\PSoC4/CyLib.c ****         #endif  /* (CYDEV_IMO_TRIMMED_BY_USB == 1u) */
 126:.\Generated_Source\PSoC4/CyLib.c ****     #endif  /* (CY_IP_IMO_TRIMMABLE_BY_USB) */
 127:.\Generated_Source\PSoC4/CyLib.c **** 
 128:.\Generated_Source\PSoC4/CyLib.c **** }
 128              		.loc 1 128 0
 129 0012 BD46     		mov	sp, r7
 130              		@ sp needed
 131 0014 80BD     		pop	{r7, pc}
 132              	.L3:
 133 0016 C046     		.align	2
 134              	.L2:
 135 0018 08010B40 		.word	1074462984
 136              		.cfi_endproc
 137              	.LFE0:
 138              		.size	CySysClkImoStart, .-CySysClkImoStart
 139              		.section	.text.CySysClkImoStop,"ax",%progbits
 140              		.align	2
 141              		.global	CySysClkImoStop
 142              		.code	16
 143              		.thumb_func
 144              		.type	CySysClkImoStop, %function
 145              	CySysClkImoStop:
 146              	.LFB1:
 129:.\Generated_Source\PSoC4/CyLib.c **** 
 130:.\Generated_Source\PSoC4/CyLib.c **** 
 131:.\Generated_Source\PSoC4/CyLib.c **** /*******************************************************************************
 132:.\Generated_Source\PSoC4/CyLib.c **** * Function Name: CySysClkImoStop
 133:.\Generated_Source\PSoC4/CyLib.c **** ********************************************************************************
 134:.\Generated_Source\PSoC4/CyLib.c **** *
 135:.\Generated_Source\PSoC4/CyLib.c **** * Summary:
ARM GAS  C:\Users\kylep\AppData\Local\Temp\ccAJ1He0.s 			page 6


 136:.\Generated_Source\PSoC4/CyLib.c **** *  Disables the IMO.
 137:.\Generated_Source\PSoC4/CyLib.c **** *
 138:.\Generated_Source\PSoC4/CyLib.c **** *  For PSoC 4100M/PSoC 4200M devices, this function will also disable WCO lock.
 139:.\Generated_Source\PSoC4/CyLib.c **** *
 140:.\Generated_Source\PSoC4/CyLib.c **** *  For PSoC PSoC 4200L devices, this function will also disable USB lock.
 141:.\Generated_Source\PSoC4/CyLib.c **** *
 142:.\Generated_Source\PSoC4/CyLib.c **** * Parameters:
 143:.\Generated_Source\PSoC4/CyLib.c **** *  None
 144:.\Generated_Source\PSoC4/CyLib.c **** *
 145:.\Generated_Source\PSoC4/CyLib.c **** * Return:
 146:.\Generated_Source\PSoC4/CyLib.c **** *  None
 147:.\Generated_Source\PSoC4/CyLib.c **** *
 148:.\Generated_Source\PSoC4/CyLib.c **** *******************************************************************************/
 149:.\Generated_Source\PSoC4/CyLib.c **** void CySysClkImoStop(void)
 150:.\Generated_Source\PSoC4/CyLib.c **** {
 147              		.loc 1 150 0
 148              		.cfi_startproc
 149 0000 80B5     		push	{r7, lr}
 150              		.cfi_def_cfa_offset 8
 151              		.cfi_offset 7, -8
 152              		.cfi_offset 14, -4
 153 0002 00AF     		add	r7, sp, #0
 154              		.cfi_def_cfa_register 7
 151:.\Generated_Source\PSoC4/CyLib.c ****     #if (CY_IP_IMO_TRIMMABLE_BY_WCO)
 152:.\Generated_Source\PSoC4/CyLib.c ****         CySysClkImoDisableWcoLock();
 153:.\Generated_Source\PSoC4/CyLib.c ****     #endif  /* (CY_IP_IMO_TRIMMABLE_BY_WCO) */
 154:.\Generated_Source\PSoC4/CyLib.c **** 
 155:.\Generated_Source\PSoC4/CyLib.c ****     #if (CY_IP_IMO_TRIMMABLE_BY_USB)
 156:.\Generated_Source\PSoC4/CyLib.c ****         CySysClkImoDisableUsbLock();
 157:.\Generated_Source\PSoC4/CyLib.c ****     #endif  /* (CY_IP_IMO_TRIMMABLE_BY_USB) */
 158:.\Generated_Source\PSoC4/CyLib.c **** 
 159:.\Generated_Source\PSoC4/CyLib.c ****     CY_SYS_CLK_IMO_CONFIG_REG &= ( uint32 ) ( ~( uint32 )CY_SYS_CLK_IMO_CONFIG_ENABLE);
 155              		.loc 1 159 0
 156 0004 034B     		ldr	r3, .L5
 157 0006 034A     		ldr	r2, .L5
 158 0008 1268     		ldr	r2, [r2]
 159 000a 5200     		lsl	r2, r2, #1
 160 000c 5208     		lsr	r2, r2, #1
 161 000e 1A60     		str	r2, [r3]
 160:.\Generated_Source\PSoC4/CyLib.c **** }
 162              		.loc 1 160 0
 163 0010 BD46     		mov	sp, r7
 164              		@ sp needed
 165 0012 80BD     		pop	{r7, pc}
 166              	.L6:
 167              		.align	2
 168              	.L5:
 169 0014 08010B40 		.word	1074462984
 170              		.cfi_endproc
 171              	.LFE1:
 172              		.size	CySysClkImoStop, .-CySysClkImoStop
 173              		.section	.text.CySysClkWriteHfclkDirect,"ax",%progbits
 174              		.align	2
 175              		.global	CySysClkWriteHfclkDirect
 176              		.code	16
 177              		.thumb_func
 178              		.type	CySysClkWriteHfclkDirect, %function
ARM GAS  C:\Users\kylep\AppData\Local\Temp\ccAJ1He0.s 			page 7


 179              	CySysClkWriteHfclkDirect:
 180              	.LFB2:
 161:.\Generated_Source\PSoC4/CyLib.c **** 
 162:.\Generated_Source\PSoC4/CyLib.c **** #if (CY_IP_IMO_TRIMMABLE_BY_WCO)
 163:.\Generated_Source\PSoC4/CyLib.c **** 
 164:.\Generated_Source\PSoC4/CyLib.c ****     /*******************************************************************************
 165:.\Generated_Source\PSoC4/CyLib.c ****     * Function Name: CySysClkImoEnableWcoLock
 166:.\Generated_Source\PSoC4/CyLib.c ****     ********************************************************************************
 167:.\Generated_Source\PSoC4/CyLib.c ****     *
 168:.\Generated_Source\PSoC4/CyLib.c ****     * Summary:
 169:.\Generated_Source\PSoC4/CyLib.c ****     *  Enables the IMO to WCO lock feature. This function works only if the WCO is
 170:.\Generated_Source\PSoC4/CyLib.c ****     *  already enabled. If the WCO is not enabled then this function returns
 171:.\Generated_Source\PSoC4/CyLib.c ****     *  without enabling the lock feature.
 172:.\Generated_Source\PSoC4/CyLib.c ****     *
 173:.\Generated_Source\PSoC4/CyLib.c ****     *  It takes up to 20 ms for the IMO to stabilize. The delay is implemented with
 174:.\Generated_Source\PSoC4/CyLib.c ****     *  CyDelay() function. The delay interval is measured based on the system
 175:.\Generated_Source\PSoC4/CyLib.c ****     *  frequency defined by PSoC Creator at build time. If System clock frequency
 176:.\Generated_Source\PSoC4/CyLib.c ****     *  is changed in runtime, the CyDelayFreq() with the appropriate parameter
 177:.\Generated_Source\PSoC4/CyLib.c ****     *  should be called.
 178:.\Generated_Source\PSoC4/CyLib.c ****     *
 179:.\Generated_Source\PSoC4/CyLib.c ****     *  For PSoC 4200L devices, note that the IMO can lock to either WCO or USB
 180:.\Generated_Source\PSoC4/CyLib.c ****     *  but not both.
 181:.\Generated_Source\PSoC4/CyLib.c ****     *
 182:.\Generated_Source\PSoC4/CyLib.c ****     *  This function is applicable for PSoC 4100M, PSoC 4200M and  PSoC 4200L.
 183:.\Generated_Source\PSoC4/CyLib.c ****     *
 184:.\Generated_Source\PSoC4/CyLib.c ****     * Parameters:
 185:.\Generated_Source\PSoC4/CyLib.c ****     *  None
 186:.\Generated_Source\PSoC4/CyLib.c ****     *
 187:.\Generated_Source\PSoC4/CyLib.c ****     * Return:
 188:.\Generated_Source\PSoC4/CyLib.c ****     *  None
 189:.\Generated_Source\PSoC4/CyLib.c ****     *
 190:.\Generated_Source\PSoC4/CyLib.c ****     *******************************************************************************/
 191:.\Generated_Source\PSoC4/CyLib.c ****     void CySysClkImoEnableWcoLock(void)
 192:.\Generated_Source\PSoC4/CyLib.c ****     {
 193:.\Generated_Source\PSoC4/CyLib.c ****         uint32 i;
 194:.\Generated_Source\PSoC4/CyLib.c ****         uint32 freq = CY_SYS_CLK_IMO_MIN_FREQ_MHZ;
 195:.\Generated_Source\PSoC4/CyLib.c ****         uint8  interruptState;
 196:.\Generated_Source\PSoC4/CyLib.c ****         uint32 regTmp;
 197:.\Generated_Source\PSoC4/CyLib.c ****         uint32 lfLimit = 0u;
 198:.\Generated_Source\PSoC4/CyLib.c ****         volatile uint32 flashCtlReg;
 199:.\Generated_Source\PSoC4/CyLib.c **** 
 200:.\Generated_Source\PSoC4/CyLib.c ****         if (0u != CySysClkWcoEnabled())
 201:.\Generated_Source\PSoC4/CyLib.c ****         {
 202:.\Generated_Source\PSoC4/CyLib.c ****             interruptState = CyEnterCriticalSection();
 203:.\Generated_Source\PSoC4/CyLib.c **** 
 204:.\Generated_Source\PSoC4/CyLib.c ****             /* Set oscillator interface control port to WCO */
 205:.\Generated_Source\PSoC4/CyLib.c ****             #if (CY_IP_IMO_TRIMMABLE_BY_WCO && CY_IP_IMO_TRIMMABLE_BY_USB)
 206:.\Generated_Source\PSoC4/CyLib.c ****                 CY_SYS_CLK_OSCINTF_CTL_REG =
 207:.\Generated_Source\PSoC4/CyLib.c ****                     (CY_SYS_CLK_OSCINTF_CTL_REG & (uint32) ~CY_SYS_CLK_OSCINTF_CTL_PORT_SEL_MASK) |
 208:.\Generated_Source\PSoC4/CyLib.c ****                     CY_SYS_CLK_OSCINTF_CTL_PORT_SEL_WCO;
 209:.\Generated_Source\PSoC4/CyLib.c ****             #endif /* (CY_IP_IMO_TRIMMABLE_BY_WCO && CY_IP_IMO_TRIMMABLE_BY_USB) */
 210:.\Generated_Source\PSoC4/CyLib.c **** 
 211:.\Generated_Source\PSoC4/CyLib.c ****             /* Get current IMO frequency based on the register value */
 212:.\Generated_Source\PSoC4/CyLib.c ****             for(i = 0u; i < CY_SYS_CLK_IMO_FREQ_TABLE_SIZE; i++)
 213:.\Generated_Source\PSoC4/CyLib.c ****             {
 214:.\Generated_Source\PSoC4/CyLib.c ****                 if ((uint8) (CY_SYS_CLK_IMO_TRIM2_REG & CY_SYS_CLK_IMO_FREQ_BITS_MASK) == cyImoFreq
 215:.\Generated_Source\PSoC4/CyLib.c ****                 {
ARM GAS  C:\Users\kylep\AppData\Local\Temp\ccAJ1He0.s 			page 8


 216:.\Generated_Source\PSoC4/CyLib.c ****                     freq = i + CY_SYS_CLK_IMO_FREQ_TABLE_OFFSET;
 217:.\Generated_Source\PSoC4/CyLib.c ****                     break;
 218:.\Generated_Source\PSoC4/CyLib.c ****                 }
 219:.\Generated_Source\PSoC4/CyLib.c ****             }
 220:.\Generated_Source\PSoC4/CyLib.c **** 
 221:.\Generated_Source\PSoC4/CyLib.c ****             /* For the WCO locking mode, the IMO gain needs to be CY_SYS_CLK_IMO_TRIM4_GAIN */
 222:.\Generated_Source\PSoC4/CyLib.c ****             if ((CY_SYS_CLK_IMO_TRIM4_REG & CY_SYS_CLK_IMO_TRIM4_GAIN_MASK) == 0u)
 223:.\Generated_Source\PSoC4/CyLib.c ****             {
 224:.\Generated_Source\PSoC4/CyLib.c **** 			    CY_SYS_CLK_IMO_TRIM4_REG = (CY_SYS_CLK_IMO_TRIM4_REG & (uint32) ~CY_SYS_CLK_IMO_TRIM4_GAIN_M
 225:.\Generated_Source\PSoC4/CyLib.c **** 			             				    CY_SYS_CLK_IMO_TRIM4_WCO_GAIN;
 226:.\Generated_Source\PSoC4/CyLib.c ****             }
 227:.\Generated_Source\PSoC4/CyLib.c **** 
 228:.\Generated_Source\PSoC4/CyLib.c ****             regTmp  = CY_SYS_CLK_WCO_DPLL_REG & ~(CY_SYS_CLK_WCO_DPLL_MULT_MASK |
 229:.\Generated_Source\PSoC4/CyLib.c ****                                                   CY_SYS_CLK_WCO_CONFIG_DPLL_LF_IGAIN_MASK |
 230:.\Generated_Source\PSoC4/CyLib.c ****                                                   CY_SYS_CLK_WCO_CONFIG_DPLL_LF_PGAIN_MASK |
 231:.\Generated_Source\PSoC4/CyLib.c ****                                                   CY_SYS_CLK_WCO_CONFIG_DPLL_LF_LIMIT_MASK);
 232:.\Generated_Source\PSoC4/CyLib.c **** 
 233:.\Generated_Source\PSoC4/CyLib.c ****             /* Set multiplier to determine IMO frequency in multiples of the WCO frequency */
 234:.\Generated_Source\PSoC4/CyLib.c ****             regTmp |= (CY_SYS_CLK_WCO_DPLL_MULT_VALUE(freq) & CY_SYS_CLK_WCO_DPLL_MULT_MASK);
 235:.\Generated_Source\PSoC4/CyLib.c **** 
 236:.\Generated_Source\PSoC4/CyLib.c ****             /* Set DPLL Loop Filter Integral and Proportional Gains Setting */
 237:.\Generated_Source\PSoC4/CyLib.c ****             regTmp |= (CY_SYS_CLK_WCO_CONFIG_DPLL_LF_IGAIN | CY_SYS_CLK_WCO_CONFIG_DPLL_LF_PGAIN);
 238:.\Generated_Source\PSoC4/CyLib.c **** 
 239:.\Generated_Source\PSoC4/CyLib.c ****             /* Set maximum allowed IMO offset */
 240:.\Generated_Source\PSoC4/CyLib.c ****             if (freq < CY_SYS_CLK_IMO_FREQ_WCO_DPLL_SAFE_POINT)
 241:.\Generated_Source\PSoC4/CyLib.c ****             {
 242:.\Generated_Source\PSoC4/CyLib.c ****                 regTmp |= (CY_SYS_CLK_WCO_CONFIG_DPLL_LF_LIMIT_MAX << CY_SYS_CLK_WCO_CONFIG_DPLL_LF
 243:.\Generated_Source\PSoC4/CyLib.c ****             }
 244:.\Generated_Source\PSoC4/CyLib.c ****             else
 245:.\Generated_Source\PSoC4/CyLib.c ****             {
 246:.\Generated_Source\PSoC4/CyLib.c ****                 lfLimit = CY_SFLASH_IMO_TRIM_REG(freq - CY_SYS_CLK_IMO_MIN_FREQ_MHZ) +
 247:.\Generated_Source\PSoC4/CyLib.c ****                     cyImoFreqMhz2DpllOffset[freq - CY_SYS_CLK_IMO_FREQ_WCO_DPLL_TABLE_OFFSET];
 248:.\Generated_Source\PSoC4/CyLib.c **** 
 249:.\Generated_Source\PSoC4/CyLib.c ****                 lfLimit = (lfLimit > CY_SYS_CLK_WCO_CONFIG_DPLL_LF_LIMIT_MAX) ?
 250:.\Generated_Source\PSoC4/CyLib.c ****                     CY_SYS_CLK_WCO_CONFIG_DPLL_LF_LIMIT_MAX : lfLimit;
 251:.\Generated_Source\PSoC4/CyLib.c **** 
 252:.\Generated_Source\PSoC4/CyLib.c ****                 regTmp |= (lfLimit << CY_SYS_CLK_WCO_CONFIG_DPLL_LF_LIMIT_SHIFT);
 253:.\Generated_Source\PSoC4/CyLib.c ****             }
 254:.\Generated_Source\PSoC4/CyLib.c **** 
 255:.\Generated_Source\PSoC4/CyLib.c ****             CY_SYS_CLK_WCO_DPLL_REG = regTmp;
 256:.\Generated_Source\PSoC4/CyLib.c **** 
 257:.\Generated_Source\PSoC4/CyLib.c ****             flashCtlReg = CY_FLASH_CTL_REG;
 258:.\Generated_Source\PSoC4/CyLib.c ****             CySysFlashSetWaitCycles(CY_SYS_CLK_IMO_MAX_FREQ_MHZ);
 259:.\Generated_Source\PSoC4/CyLib.c ****             CY_SYS_CLK_WCO_CONFIG_REG |= CY_SYS_CLK_WCO_CONFIG_DPLL_ENABLE;
 260:.\Generated_Source\PSoC4/CyLib.c ****             CyDelay(CY_SYS_CLK_WCO_IMO_TIMEOUT_MS);
 261:.\Generated_Source\PSoC4/CyLib.c ****             CY_FLASH_CTL_REG = flashCtlReg;
 262:.\Generated_Source\PSoC4/CyLib.c **** 
 263:.\Generated_Source\PSoC4/CyLib.c ****             CyExitCriticalSection(interruptState);
 264:.\Generated_Source\PSoC4/CyLib.c ****         }
 265:.\Generated_Source\PSoC4/CyLib.c ****     }
 266:.\Generated_Source\PSoC4/CyLib.c **** 
 267:.\Generated_Source\PSoC4/CyLib.c **** 
 268:.\Generated_Source\PSoC4/CyLib.c ****     /*******************************************************************************
 269:.\Generated_Source\PSoC4/CyLib.c ****     * Function Name: CySysClkImoDisableWcoLock
 270:.\Generated_Source\PSoC4/CyLib.c ****     ********************************************************************************
 271:.\Generated_Source\PSoC4/CyLib.c ****     *
 272:.\Generated_Source\PSoC4/CyLib.c ****     * Summary:
ARM GAS  C:\Users\kylep\AppData\Local\Temp\ccAJ1He0.s 			page 9


 273:.\Generated_Source\PSoC4/CyLib.c ****     *  Disables the IMO to WCO lock feature.
 274:.\Generated_Source\PSoC4/CyLib.c ****     *
 275:.\Generated_Source\PSoC4/CyLib.c ****     *  This function is applicable for PSoC 4100M, PSoC 4200M and  PSoC 4200L.
 276:.\Generated_Source\PSoC4/CyLib.c ****     *
 277:.\Generated_Source\PSoC4/CyLib.c ****     * Parameters:
 278:.\Generated_Source\PSoC4/CyLib.c ****     *  None
 279:.\Generated_Source\PSoC4/CyLib.c ****     *
 280:.\Generated_Source\PSoC4/CyLib.c ****     * Return:
 281:.\Generated_Source\PSoC4/CyLib.c ****     *  None
 282:.\Generated_Source\PSoC4/CyLib.c ****     *
 283:.\Generated_Source\PSoC4/CyLib.c ****     *******************************************************************************/
 284:.\Generated_Source\PSoC4/CyLib.c ****     void CySysClkImoDisableWcoLock(void)
 285:.\Generated_Source\PSoC4/CyLib.c ****     {
 286:.\Generated_Source\PSoC4/CyLib.c ****         CY_SYS_CLK_WCO_CONFIG_REG &= (uint32) ~CY_SYS_CLK_WCO_CONFIG_DPLL_ENABLE;
 287:.\Generated_Source\PSoC4/CyLib.c ****     }
 288:.\Generated_Source\PSoC4/CyLib.c **** 
 289:.\Generated_Source\PSoC4/CyLib.c **** 
 290:.\Generated_Source\PSoC4/CyLib.c ****     /*******************************************************************************
 291:.\Generated_Source\PSoC4/CyLib.c ****     * Function Name: CySysClkImoGetWcoLock
 292:.\Generated_Source\PSoC4/CyLib.c ****     ********************************************************************************
 293:.\Generated_Source\PSoC4/CyLib.c ****     *
 294:.\Generated_Source\PSoC4/CyLib.c ****     * Summary:
 295:.\Generated_Source\PSoC4/CyLib.c ****     *  Reports the IMO to WCO lock enable state.
 296:.\Generated_Source\PSoC4/CyLib.c ****     *
 297:.\Generated_Source\PSoC4/CyLib.c ****     *  This function is applicable for PSoC 4100M, PSoC 4200M and  PSoC 4200L.
 298:.\Generated_Source\PSoC4/CyLib.c ****     *
 299:.\Generated_Source\PSoC4/CyLib.c ****     * Parameters:
 300:.\Generated_Source\PSoC4/CyLib.c ****     *  None
 301:.\Generated_Source\PSoC4/CyLib.c ****     *
 302:.\Generated_Source\PSoC4/CyLib.c ****     * Return:
 303:.\Generated_Source\PSoC4/CyLib.c ****     *  1 if IMO to WCO lock is enabled, and 0 if IMO to WCO lock is disabled.
 304:.\Generated_Source\PSoC4/CyLib.c ****     *
 305:.\Generated_Source\PSoC4/CyLib.c ****     *******************************************************************************/
 306:.\Generated_Source\PSoC4/CyLib.c ****     uint32 CySysClkImoGetWcoLock(void)
 307:.\Generated_Source\PSoC4/CyLib.c ****     {
 308:.\Generated_Source\PSoC4/CyLib.c ****         return ((0u != (CY_SYS_CLK_WCO_CONFIG_REG & CY_SYS_CLK_WCO_CONFIG_DPLL_ENABLE)) ?
 309:.\Generated_Source\PSoC4/CyLib.c ****                 (uint32) 1u :
 310:.\Generated_Source\PSoC4/CyLib.c ****                 (uint32) 0u);
 311:.\Generated_Source\PSoC4/CyLib.c ****     }
 312:.\Generated_Source\PSoC4/CyLib.c **** 
 313:.\Generated_Source\PSoC4/CyLib.c **** #endif /* (CY_IP_IMO_TRIMMABLE_BY_WCO) */
 314:.\Generated_Source\PSoC4/CyLib.c **** 
 315:.\Generated_Source\PSoC4/CyLib.c **** 
 316:.\Generated_Source\PSoC4/CyLib.c **** #if (CY_IP_IMO_TRIMMABLE_BY_USB)
 317:.\Generated_Source\PSoC4/CyLib.c **** 
 318:.\Generated_Source\PSoC4/CyLib.c ****     /*******************************************************************************
 319:.\Generated_Source\PSoC4/CyLib.c ****     * Function Name: CySysClkImoEnableUsbLock
 320:.\Generated_Source\PSoC4/CyLib.c ****     ********************************************************************************
 321:.\Generated_Source\PSoC4/CyLib.c ****     *
 322:.\Generated_Source\PSoC4/CyLib.c ****     * Summary:
 323:.\Generated_Source\PSoC4/CyLib.c ****     *  Enables the IMO to USB lock feature.
 324:.\Generated_Source\PSoC4/CyLib.c ****     *
 325:.\Generated_Source\PSoC4/CyLib.c ****     *  This function must be called before CySysClkWriteImoFreq().
 326:.\Generated_Source\PSoC4/CyLib.c ****     *
 327:.\Generated_Source\PSoC4/CyLib.c ****     *  This function is called from CySysClkImoStart() function if USB lock
 328:.\Generated_Source\PSoC4/CyLib.c ****     *  selected in the Design Wide Resources tab.
 329:.\Generated_Source\PSoC4/CyLib.c ****     *
ARM GAS  C:\Users\kylep\AppData\Local\Temp\ccAJ1He0.s 			page 10


 330:.\Generated_Source\PSoC4/CyLib.c ****     *  This is applicable for PSoC 4200L family of devices only. For PSoC 4200L
 331:.\Generated_Source\PSoC4/CyLib.c ****     *  devices, the IMO can lock to either WCO or USB, but not both.
 332:.\Generated_Source\PSoC4/CyLib.c ****     *
 333:.\Generated_Source\PSoC4/CyLib.c ****     * Parameters:
 334:.\Generated_Source\PSoC4/CyLib.c ****     *  None
 335:.\Generated_Source\PSoC4/CyLib.c ****     *
 336:.\Generated_Source\PSoC4/CyLib.c ****     * Return:
 337:.\Generated_Source\PSoC4/CyLib.c ****     *  None
 338:.\Generated_Source\PSoC4/CyLib.c ****     *
 339:.\Generated_Source\PSoC4/CyLib.c ****     *******************************************************************************/
 340:.\Generated_Source\PSoC4/CyLib.c ****     void CySysClkImoEnableUsbLock(void)
 341:.\Generated_Source\PSoC4/CyLib.c ****     {
 342:.\Generated_Source\PSoC4/CyLib.c ****         /* Set oscillator interface control port to USB */
 343:.\Generated_Source\PSoC4/CyLib.c ****         #if (CY_IP_IMO_TRIMMABLE_BY_WCO && CY_IP_IMO_TRIMMABLE_BY_USB)
 344:.\Generated_Source\PSoC4/CyLib.c ****             CY_SYS_CLK_OSCINTF_CTL_REG = (CY_SYS_CLK_OSCINTF_CTL_REG & (uint32) ~CY_SYS_CLK_OSCINTF
 345:.\Generated_Source\PSoC4/CyLib.c ****                                           CY_SYS_CLK_OSCINTF_CTL_PORT_SEL_USB;
 346:.\Generated_Source\PSoC4/CyLib.c ****         #endif /* (CY_IP_IMO_TRIMMABLE_BY_WCO && CY_IP_IMO_TRIMMABLE_BY_USB) */
 347:.\Generated_Source\PSoC4/CyLib.c **** 
 348:.\Generated_Source\PSoC4/CyLib.c ****         /* Save CY_SYS_CLK_IMO_TRIM4_REG and set IMO gain for USB lock */
 349:.\Generated_Source\PSoC4/CyLib.c ****         CySysClkImoTrim4 = CY_SYS_CLK_IMO_TRIM4_REG & (uint32) ~CY_SYS_CLK_IMO_TRIM4_GAIN_MASK;
 350:.\Generated_Source\PSoC4/CyLib.c ****         CY_SYS_CLK_IMO_TRIM4_REG = (CY_SYS_CLK_IMO_TRIM4_REG & (uint32) ~CY_SYS_CLK_IMO_TRIM4_GAIN_
 351:.\Generated_Source\PSoC4/CyLib.c ****                                     CY_SYS_CLK_IMO_TRIM4_USB_GAIN;
 352:.\Generated_Source\PSoC4/CyLib.c **** 
 353:.\Generated_Source\PSoC4/CyLib.c ****         CY_SYS_CLK_USBDEVv2_CR1_REG |= CY_SYS_CLK_USBDEVv2_CR1_ENABLE_LOCK;
 354:.\Generated_Source\PSoC4/CyLib.c ****     }
 355:.\Generated_Source\PSoC4/CyLib.c **** 
 356:.\Generated_Source\PSoC4/CyLib.c **** 
 357:.\Generated_Source\PSoC4/CyLib.c ****     /*******************************************************************************
 358:.\Generated_Source\PSoC4/CyLib.c ****     * Function Name: CySysClkImoDisableUsbLock
 359:.\Generated_Source\PSoC4/CyLib.c ****     ********************************************************************************
 360:.\Generated_Source\PSoC4/CyLib.c ****     *
 361:.\Generated_Source\PSoC4/CyLib.c ****     * Summary:
 362:.\Generated_Source\PSoC4/CyLib.c ****     *  Disables the IMO to USB lock feature.
 363:.\Generated_Source\PSoC4/CyLib.c ****     *
 364:.\Generated_Source\PSoC4/CyLib.c ****     *  This function is called from CySysClkImoStop() function if USB lock selected
 365:.\Generated_Source\PSoC4/CyLib.c ****     *  in the Design Wide Resources tab.
 366:.\Generated_Source\PSoC4/CyLib.c ****     *
 367:.\Generated_Source\PSoC4/CyLib.c ****     *  This is applicable for PSoC 4200L family of devices only.
 368:.\Generated_Source\PSoC4/CyLib.c ****     *
 369:.\Generated_Source\PSoC4/CyLib.c ****     * Parameters:
 370:.\Generated_Source\PSoC4/CyLib.c ****     *  None
 371:.\Generated_Source\PSoC4/CyLib.c ****     *
 372:.\Generated_Source\PSoC4/CyLib.c ****     * Return:
 373:.\Generated_Source\PSoC4/CyLib.c ****     *  None
 374:.\Generated_Source\PSoC4/CyLib.c ****     *
 375:.\Generated_Source\PSoC4/CyLib.c ****     *******************************************************************************/
 376:.\Generated_Source\PSoC4/CyLib.c ****     void CySysClkImoDisableUsbLock(void)
 377:.\Generated_Source\PSoC4/CyLib.c ****     {
 378:.\Generated_Source\PSoC4/CyLib.c ****         CY_SYS_CLK_USBDEVv2_CR1_REG &= (uint32) ~CY_SYS_CLK_USBDEVv2_CR1_ENABLE_LOCK;
 379:.\Generated_Source\PSoC4/CyLib.c **** 
 380:.\Generated_Source\PSoC4/CyLib.c ****         /* Restore CY_SYS_CLK_IMO_TRIM4_REG */
 381:.\Generated_Source\PSoC4/CyLib.c ****         CY_SYS_CLK_IMO_TRIM4_REG = (CY_SYS_CLK_IMO_TRIM4_REG & (uint32) ~CY_SYS_CLK_IMO_TRIM4_GAIN_
 382:.\Generated_Source\PSoC4/CyLib.c ****                                     CySysClkImoTrim4;
 383:.\Generated_Source\PSoC4/CyLib.c ****     }
 384:.\Generated_Source\PSoC4/CyLib.c **** 
 385:.\Generated_Source\PSoC4/CyLib.c **** 
 386:.\Generated_Source\PSoC4/CyLib.c ****     /*******************************************************************************
ARM GAS  C:\Users\kylep\AppData\Local\Temp\ccAJ1He0.s 			page 11


 387:.\Generated_Source\PSoC4/CyLib.c ****     * Function Name: CySysClkImoGetUsbLock
 388:.\Generated_Source\PSoC4/CyLib.c ****     ********************************************************************************
 389:.\Generated_Source\PSoC4/CyLib.c ****     *
 390:.\Generated_Source\PSoC4/CyLib.c ****     * Summary:
 391:.\Generated_Source\PSoC4/CyLib.c ****     *  Reports the IMO to USB lock enable state.
 392:.\Generated_Source\PSoC4/CyLib.c ****     *
 393:.\Generated_Source\PSoC4/CyLib.c ****     *  This function is applicable for PSoC 4200L devices only.
 394:.\Generated_Source\PSoC4/CyLib.c ****     *
 395:.\Generated_Source\PSoC4/CyLib.c ****     * Parameters:
 396:.\Generated_Source\PSoC4/CyLib.c ****     *  None
 397:.\Generated_Source\PSoC4/CyLib.c ****     *
 398:.\Generated_Source\PSoC4/CyLib.c ****     * Return:
 399:.\Generated_Source\PSoC4/CyLib.c ****     *  1 if IMO to USB lock is enabled, and 0 if IMO to USB lock is disabled.
 400:.\Generated_Source\PSoC4/CyLib.c ****     *
 401:.\Generated_Source\PSoC4/CyLib.c ****     *******************************************************************************/
 402:.\Generated_Source\PSoC4/CyLib.c ****     uint32 CySysClkImoGetUsbLock(void)
 403:.\Generated_Source\PSoC4/CyLib.c ****     {
 404:.\Generated_Source\PSoC4/CyLib.c ****         return ((0u != (CY_SYS_CLK_USBDEVv2_CR1_REG & CY_SYS_CLK_USBDEVv2_CR1_ENABLE_LOCK)) ?
 405:.\Generated_Source\PSoC4/CyLib.c ****                 (uint32) 1u :
 406:.\Generated_Source\PSoC4/CyLib.c ****                 (uint32) 0u);
 407:.\Generated_Source\PSoC4/CyLib.c ****     }
 408:.\Generated_Source\PSoC4/CyLib.c **** #endif  /* (CY_IP_IMO_TRIMMABLE_BY_USB) */
 409:.\Generated_Source\PSoC4/CyLib.c **** 
 410:.\Generated_Source\PSoC4/CyLib.c **** 
 411:.\Generated_Source\PSoC4/CyLib.c **** 
 412:.\Generated_Source\PSoC4/CyLib.c **** /*******************************************************************************
 413:.\Generated_Source\PSoC4/CyLib.c **** * Function Name: CySysClkWriteHfclkDirect
 414:.\Generated_Source\PSoC4/CyLib.c **** ********************************************************************************
 415:.\Generated_Source\PSoC4/CyLib.c **** *
 416:.\Generated_Source\PSoC4/CyLib.c **** * Summary:
 417:.\Generated_Source\PSoC4/CyLib.c **** *  Selects the direct source for the HFCLK.
 418:.\Generated_Source\PSoC4/CyLib.c **** *
 419:.\Generated_Source\PSoC4/CyLib.c **** * Parameters:
 420:.\Generated_Source\PSoC4/CyLib.c **** *  clkSelect: One of the available HFCLK direct sources:
 421:.\Generated_Source\PSoC4/CyLib.c **** *   Define                    Source
 422:.\Generated_Source\PSoC4/CyLib.c **** *    CY_SYS_CLK_HFCLK_IMO     IMO
 423:.\Generated_Source\PSoC4/CyLib.c **** *    CY_SYS_CLK_HFCLK_EXTCLK  External clock pin
 424:.\Generated_Source\PSoC4/CyLib.c **** *    CY_SYS_CLK_HFCLK_ECO     External crystal oscillator
 425:.\Generated_Source\PSoC4/CyLib.c **** *                             (applicable only for PSoC 4100-BL / PSoC 4200-BL)
 426:.\Generated_Source\PSoC4/CyLib.c **** *    CY_SYS_CLK_HFCLK_PLL0    PLL#0
 427:.\Generated_Source\PSoC4/CyLib.c **** *                             (applicable only for PSoC 4200L)
 428:.\Generated_Source\PSoC4/CyLib.c **** *    CY_SYS_CLK_HFCLK_PLL1    PLL#1
 429:.\Generated_Source\PSoC4/CyLib.c **** *                             (applicable only for PSoC 4200L)
 430:.\Generated_Source\PSoC4/CyLib.c **** *
 431:.\Generated_Source\PSoC4/CyLib.c **** * Return:
 432:.\Generated_Source\PSoC4/CyLib.c **** *  None
 433:.\Generated_Source\PSoC4/CyLib.c **** *
 434:.\Generated_Source\PSoC4/CyLib.c **** * Side Effects:
 435:.\Generated_Source\PSoC4/CyLib.c **** *  The new source must be running and stable before calling this function.
 436:.\Generated_Source\PSoC4/CyLib.c **** *
 437:.\Generated_Source\PSoC4/CyLib.c **** *  PSoC 4000:
 438:.\Generated_Source\PSoC4/CyLib.c **** *  The SYSCLK has a maximum speed of 16 MHz, so HFCLK and SYSCLK dividers should
 439:.\Generated_Source\PSoC4/CyLib.c **** *  be selected in a way to not to exceed 16 MHz for the System clock.
 440:.\Generated_Source\PSoC4/CyLib.c **** *
 441:.\Generated_Source\PSoC4/CyLib.c **** *  If the SYSCLK clock frequency increases during device operation, call
 442:.\Generated_Source\PSoC4/CyLib.c **** *  CySysFlashSetWaitCycles() with the appropriate parameter to adjust the number
 443:.\Generated_Source\PSoC4/CyLib.c **** *  of clock cycles the cache will wait before sampling data comes back from
ARM GAS  C:\Users\kylep\AppData\Local\Temp\ccAJ1He0.s 			page 12


 444:.\Generated_Source\PSoC4/CyLib.c **** *  Flash. If the SYSCLK clock frequency decreases, you can call
 445:.\Generated_Source\PSoC4/CyLib.c **** *  CySysFlashSetWaitCycles() to improve the CPU performance. See
 446:.\Generated_Source\PSoC4/CyLib.c **** *  CySysFlashSetWaitCycles() description for more information.
 447:.\Generated_Source\PSoC4/CyLib.c **** *
 448:.\Generated_Source\PSoC4/CyLib.c **** *  Do not select PLL as the source for HFCLK if PLL output frequency exceeds
 449:.\Generated_Source\PSoC4/CyLib.c **** *  maximum permissible value for HFCLK.
 450:.\Generated_Source\PSoC4/CyLib.c **** *
 451:.\Generated_Source\PSoC4/CyLib.c **** *******************************************************************************/
 452:.\Generated_Source\PSoC4/CyLib.c **** void CySysClkWriteHfclkDirect(uint32 clkSelect)
 453:.\Generated_Source\PSoC4/CyLib.c **** {
 181              		.loc 1 453 0
 182              		.cfi_startproc
 183 0000 90B5     		push	{r4, r7, lr}
 184              		.cfi_def_cfa_offset 12
 185              		.cfi_offset 4, -12
 186              		.cfi_offset 7, -8
 187              		.cfi_offset 14, -4
 188 0002 85B0     		sub	sp, sp, #20
 189              		.cfi_def_cfa_offset 32
 190 0004 00AF     		add	r7, sp, #0
 191              		.cfi_def_cfa_register 7
 192 0006 7860     		str	r0, [r7, #4]
 454:.\Generated_Source\PSoC4/CyLib.c ****     uint8  interruptState;
 455:.\Generated_Source\PSoC4/CyLib.c ****     uint32 tmpReg;
 456:.\Generated_Source\PSoC4/CyLib.c **** 
 457:.\Generated_Source\PSoC4/CyLib.c ****     interruptState = CyEnterCriticalSection();
 193              		.loc 1 457 0
 194 0008 0F23     		mov	r3, #15
 195 000a FC18     		add	r4, r7, r3
 196 000c FFF7FEFF 		bl	CyEnterCriticalSection
 197 0010 031C     		mov	r3, r0
 198 0012 2370     		strb	r3, [r4]
 458:.\Generated_Source\PSoC4/CyLib.c **** 
 459:.\Generated_Source\PSoC4/CyLib.c **** 
 460:.\Generated_Source\PSoC4/CyLib.c ****     tmpReg = CY_SYS_CLK_SELECT_REG & ~(CY_SYS_CLK_SELECT_DIRECT_SEL_MASK |
 199              		.loc 1 460 0
 200 0014 0B4B     		ldr	r3, .L8
 201 0016 1B68     		ldr	r3, [r3]
 202 0018 0722     		mov	r2, #7
 203 001a 9343     		bic	r3, r2
 204 001c BB60     		str	r3, [r7, #8]
 461:.\Generated_Source\PSoC4/CyLib.c ****                                        CY_SYS_CLK_SELECT_HFCLK_SEL_MASK);
 462:.\Generated_Source\PSoC4/CyLib.c **** 
 463:.\Generated_Source\PSoC4/CyLib.c **** #if (CY_IP_SRSSV2 && CY_IP_PLL)
 464:.\Generated_Source\PSoC4/CyLib.c ****     if ((CY_SYS_CLK_HFCLK_PLL0 == clkSelect) || (CY_SYS_CLK_HFCLK_PLL1 == clkSelect))
 465:.\Generated_Source\PSoC4/CyLib.c ****     {
 466:.\Generated_Source\PSoC4/CyLib.c ****         tmpReg |= (clkSelect & CY_SYS_CLK_SELECT_HFCLK_SEL_MASK);
 467:.\Generated_Source\PSoC4/CyLib.c ****     }
 468:.\Generated_Source\PSoC4/CyLib.c ****     else
 469:.\Generated_Source\PSoC4/CyLib.c **** #endif /* (CY_IP_SRSSV2 && CY_IP_PLL) */
 470:.\Generated_Source\PSoC4/CyLib.c ****     {
 471:.\Generated_Source\PSoC4/CyLib.c ****         tmpReg |= (clkSelect & CY_SYS_CLK_SELECT_DIRECT_SEL_MASK);
 205              		.loc 1 471 0
 206 001e 7B68     		ldr	r3, [r7, #4]
 207 0020 0722     		mov	r2, #7
 208 0022 1340     		and	r3, r2
 209 0024 BA68     		ldr	r2, [r7, #8]
ARM GAS  C:\Users\kylep\AppData\Local\Temp\ccAJ1He0.s 			page 13


 210 0026 1343     		orr	r3, r2
 211 0028 BB60     		str	r3, [r7, #8]
 472:.\Generated_Source\PSoC4/CyLib.c ****     }
 473:.\Generated_Source\PSoC4/CyLib.c **** 
 474:.\Generated_Source\PSoC4/CyLib.c ****     CY_SYS_CLK_SELECT_REG = tmpReg;
 212              		.loc 1 474 0
 213 002a 064B     		ldr	r3, .L8
 214 002c BA68     		ldr	r2, [r7, #8]
 215 002e 1A60     		str	r2, [r3]
 475:.\Generated_Source\PSoC4/CyLib.c **** 
 476:.\Generated_Source\PSoC4/CyLib.c ****     CyExitCriticalSection(interruptState);
 216              		.loc 1 476 0
 217 0030 0F23     		mov	r3, #15
 218 0032 FB18     		add	r3, r7, r3
 219 0034 1B78     		ldrb	r3, [r3]
 220 0036 181C     		mov	r0, r3
 221 0038 FFF7FEFF 		bl	CyExitCriticalSection
 477:.\Generated_Source\PSoC4/CyLib.c **** }
 222              		.loc 1 477 0
 223 003c BD46     		mov	sp, r7
 224 003e 05B0     		add	sp, sp, #20
 225              		@ sp needed
 226 0040 90BD     		pop	{r4, r7, pc}
 227              	.L9:
 228 0042 C046     		.align	2
 229              	.L8:
 230 0044 00010B40 		.word	1074462976
 231              		.cfi_endproc
 232              	.LFE2:
 233              		.size	CySysClkWriteHfclkDirect, .-CySysClkWriteHfclkDirect
 234              		.section	.text.CySysClkGetSysclkSource,"ax",%progbits
 235              		.align	2
 236              		.global	CySysClkGetSysclkSource
 237              		.code	16
 238              		.thumb_func
 239              		.type	CySysClkGetSysclkSource, %function
 240              	CySysClkGetSysclkSource:
 241              	.LFB3:
 478:.\Generated_Source\PSoC4/CyLib.c **** 
 479:.\Generated_Source\PSoC4/CyLib.c **** 
 480:.\Generated_Source\PSoC4/CyLib.c **** /*******************************************************************************
 481:.\Generated_Source\PSoC4/CyLib.c **** * Function Name: CySysClkGetSysclkSource
 482:.\Generated_Source\PSoC4/CyLib.c **** ********************************************************************************
 483:.\Generated_Source\PSoC4/CyLib.c **** *
 484:.\Generated_Source\PSoC4/CyLib.c **** * Summary:
 485:.\Generated_Source\PSoC4/CyLib.c **** *  Returns the source of the System clock.
 486:.\Generated_Source\PSoC4/CyLib.c **** *
 487:.\Generated_Source\PSoC4/CyLib.c **** * Parameters:
 488:.\Generated_Source\PSoC4/CyLib.c **** *  None
 489:.\Generated_Source\PSoC4/CyLib.c **** *
 490:.\Generated_Source\PSoC4/CyLib.c **** * Return:
 491:.\Generated_Source\PSoC4/CyLib.c **** *  The same as CySysClkWriteHfclkDirect() function parameters.
 492:.\Generated_Source\PSoC4/CyLib.c **** *
 493:.\Generated_Source\PSoC4/CyLib.c **** *******************************************************************************/
 494:.\Generated_Source\PSoC4/CyLib.c **** uint32 CySysClkGetSysclkSource(void)
 495:.\Generated_Source\PSoC4/CyLib.c **** {
 242              		.loc 1 495 0
ARM GAS  C:\Users\kylep\AppData\Local\Temp\ccAJ1He0.s 			page 14


 243              		.cfi_startproc
 244 0000 90B5     		push	{r4, r7, lr}
 245              		.cfi_def_cfa_offset 12
 246              		.cfi_offset 4, -12
 247              		.cfi_offset 7, -8
 248              		.cfi_offset 14, -4
 249 0002 83B0     		sub	sp, sp, #12
 250              		.cfi_def_cfa_offset 24
 251 0004 00AF     		add	r7, sp, #0
 252              		.cfi_def_cfa_register 7
 496:.\Generated_Source\PSoC4/CyLib.c ****     uint8  interruptState;
 497:.\Generated_Source\PSoC4/CyLib.c ****     uint32 sysclkSource;
 498:.\Generated_Source\PSoC4/CyLib.c **** 
 499:.\Generated_Source\PSoC4/CyLib.c ****     interruptState = CyEnterCriticalSection();
 253              		.loc 1 499 0
 254 0006 FC1D     		add	r4, r7, #7
 255 0008 FFF7FEFF 		bl	CyEnterCriticalSection
 256 000c 031C     		mov	r3, r0
 257 000e 2370     		strb	r3, [r4]
 500:.\Generated_Source\PSoC4/CyLib.c **** 
 501:.\Generated_Source\PSoC4/CyLib.c **** #if (CY_IP_SRSSV2 && CY_IP_PLL)
 502:.\Generated_Source\PSoC4/CyLib.c ****     if ((CY_SYS_CLK_SELECT_REG & CY_SYS_CLK_SELECT_HFCLK_SEL_MASK) != 0u)
 503:.\Generated_Source\PSoC4/CyLib.c ****     {
 504:.\Generated_Source\PSoC4/CyLib.c ****         sysclkSource = (CY_SYS_CLK_SELECT_REG & CY_SYS_CLK_SELECT_HFCLK_SEL_MASK);
 505:.\Generated_Source\PSoC4/CyLib.c ****     }
 506:.\Generated_Source\PSoC4/CyLib.c ****     else
 507:.\Generated_Source\PSoC4/CyLib.c **** #endif /* (CY_IP_SRSSV2 && CY_IP_PLL) */
 508:.\Generated_Source\PSoC4/CyLib.c ****     {
 509:.\Generated_Source\PSoC4/CyLib.c ****         sysclkSource = (CY_SYS_CLK_SELECT_REG & CY_SYS_CLK_SELECT_DIRECT_SEL_MASK);
 258              		.loc 1 509 0
 259 0010 074B     		ldr	r3, .L12
 260 0012 1B68     		ldr	r3, [r3]
 261 0014 0722     		mov	r2, #7
 262 0016 1340     		and	r3, r2
 263 0018 3B60     		str	r3, [r7]
 510:.\Generated_Source\PSoC4/CyLib.c ****     }
 511:.\Generated_Source\PSoC4/CyLib.c **** 
 512:.\Generated_Source\PSoC4/CyLib.c ****     CyExitCriticalSection(interruptState);
 264              		.loc 1 512 0
 265 001a FB1D     		add	r3, r7, #7
 266 001c 1B78     		ldrb	r3, [r3]
 267 001e 181C     		mov	r0, r3
 268 0020 FFF7FEFF 		bl	CyExitCriticalSection
 513:.\Generated_Source\PSoC4/CyLib.c **** 
 514:.\Generated_Source\PSoC4/CyLib.c ****     return (sysclkSource);
 269              		.loc 1 514 0
 270 0024 3B68     		ldr	r3, [r7]
 515:.\Generated_Source\PSoC4/CyLib.c **** }
 271              		.loc 1 515 0
 272 0026 181C     		mov	r0, r3
 273 0028 BD46     		mov	sp, r7
 274 002a 03B0     		add	sp, sp, #12
 275              		@ sp needed
 276 002c 90BD     		pop	{r4, r7, pc}
 277              	.L13:
 278 002e C046     		.align	2
 279              	.L12:
ARM GAS  C:\Users\kylep\AppData\Local\Temp\ccAJ1He0.s 			page 15


 280 0030 00010B40 		.word	1074462976
 281              		.cfi_endproc
 282              	.LFE3:
 283              		.size	CySysClkGetSysclkSource, .-CySysClkGetSysclkSource
 284              		.section	.text.CySysClkWriteSysclkDiv,"ax",%progbits
 285              		.align	2
 286              		.global	CySysClkWriteSysclkDiv
 287              		.code	16
 288              		.thumb_func
 289              		.type	CySysClkWriteSysclkDiv, %function
 290              	CySysClkWriteSysclkDiv:
 291              	.LFB4:
 516:.\Generated_Source\PSoC4/CyLib.c **** 
 517:.\Generated_Source\PSoC4/CyLib.c **** 
 518:.\Generated_Source\PSoC4/CyLib.c **** /*******************************************************************************
 519:.\Generated_Source\PSoC4/CyLib.c **** * Function Name: CySysClkWriteSysclkDiv
 520:.\Generated_Source\PSoC4/CyLib.c **** ********************************************************************************
 521:.\Generated_Source\PSoC4/CyLib.c **** *
 522:.\Generated_Source\PSoC4/CyLib.c **** * Summary:
 523:.\Generated_Source\PSoC4/CyLib.c **** *  Selects the prescaler divide amount for SYSCLK from HFCLK.
 524:.\Generated_Source\PSoC4/CyLib.c **** *
 525:.\Generated_Source\PSoC4/CyLib.c **** * Parameters:
 526:.\Generated_Source\PSoC4/CyLib.c **** *  divider: Power of 2 prescaler selection
 527:.\Generated_Source\PSoC4/CyLib.c **** *
 528:.\Generated_Source\PSoC4/CyLib.c **** *   Define                        Description
 529:.\Generated_Source\PSoC4/CyLib.c **** *   CY_SYS_CLK_SYSCLK_DIV1        SYSCLK = HFCLK / 1
 530:.\Generated_Source\PSoC4/CyLib.c **** *   CY_SYS_CLK_SYSCLK_DIV2        SYSCLK = HFCLK / 2
 531:.\Generated_Source\PSoC4/CyLib.c **** *   CY_SYS_CLK_SYSCLK_DIV4        SYSCLK = HFCLK / 4
 532:.\Generated_Source\PSoC4/CyLib.c **** *   CY_SYS_CLK_SYSCLK_DIV8        SYSCLK = HFCLK / 8
 533:.\Generated_Source\PSoC4/CyLib.c **** *   CY_SYS_CLK_SYSCLK_DIV16       SYSCLK = HFCLK / 16  (N/A for 4000 Family)
 534:.\Generated_Source\PSoC4/CyLib.c **** *   CY_SYS_CLK_SYSCLK_DIV32       SYSCLK = HFCLK / 32  (N/A for 4000 Family)
 535:.\Generated_Source\PSoC4/CyLib.c **** *   CY_SYS_CLK_SYSCLK_DIV64       SYSCLK = HFCLK / 64  (N/A for 4000 Family)
 536:.\Generated_Source\PSoC4/CyLib.c **** *   CY_SYS_CLK_SYSCLK_DIV128      SYSCLK = HFCLK / 128 (N/A for 4000 Family)
 537:.\Generated_Source\PSoC4/CyLib.c **** *
 538:.\Generated_Source\PSoC4/CyLib.c **** * Return:
 539:.\Generated_Source\PSoC4/CyLib.c **** *  None
 540:.\Generated_Source\PSoC4/CyLib.c **** *
 541:.\Generated_Source\PSoC4/CyLib.c **** * Side Effects:
 542:.\Generated_Source\PSoC4/CyLib.c **** *  4000 Family:
 543:.\Generated_Source\PSoC4/CyLib.c **** *  The SYS_CLK has the speed of 16 MHz, so dividers HF_CLK and SYS_CLK
 544:.\Generated_Source\PSoC4/CyLib.c **** *  dividers should be selected in a way, not to exceed 16 MHz for SYS_CLK.
 545:.\Generated_Source\PSoC4/CyLib.c **** *
 546:.\Generated_Source\PSoC4/CyLib.c **** *  If the SYSCLK clock frequency increases during the device operation, call
 547:.\Generated_Source\PSoC4/CyLib.c **** *  CySysFlashSetWaitCycles() with the appropriate parameter to adjust the number
 548:.\Generated_Source\PSoC4/CyLib.c **** *  of clock cycles the cache will wait before sampling data comes back from
 549:.\Generated_Source\PSoC4/CyLib.c **** *  Flash. If the SYSCLK clock frequency decreases, you can call
 550:.\Generated_Source\PSoC4/CyLib.c **** *  CySysFlashSetWaitCycles() to improve the CPU performance. See
 551:.\Generated_Source\PSoC4/CyLib.c **** *  CySysFlashSetWaitCycles() description for more information.
 552:.\Generated_Source\PSoC4/CyLib.c **** *
 553:.\Generated_Source\PSoC4/CyLib.c **** *******************************************************************************/
 554:.\Generated_Source\PSoC4/CyLib.c **** void CySysClkWriteSysclkDiv(uint32 divider)
 555:.\Generated_Source\PSoC4/CyLib.c **** {
 292              		.loc 1 555 0
 293              		.cfi_startproc
 294 0000 90B5     		push	{r4, r7, lr}
 295              		.cfi_def_cfa_offset 12
 296              		.cfi_offset 4, -12
ARM GAS  C:\Users\kylep\AppData\Local\Temp\ccAJ1He0.s 			page 16


 297              		.cfi_offset 7, -8
 298              		.cfi_offset 14, -4
 299 0002 85B0     		sub	sp, sp, #20
 300              		.cfi_def_cfa_offset 32
 301 0004 00AF     		add	r7, sp, #0
 302              		.cfi_def_cfa_register 7
 303 0006 7860     		str	r0, [r7, #4]
 556:.\Generated_Source\PSoC4/CyLib.c ****     uint8  interruptState;
 557:.\Generated_Source\PSoC4/CyLib.c **** 
 558:.\Generated_Source\PSoC4/CyLib.c ****     interruptState = CyEnterCriticalSection();
 304              		.loc 1 558 0
 305 0008 0F23     		mov	r3, #15
 306 000a FC18     		add	r4, r7, r3
 307 000c FFF7FEFF 		bl	CyEnterCriticalSection
 308 0010 031C     		mov	r3, r0
 309 0012 2370     		strb	r3, [r4]
 559:.\Generated_Source\PSoC4/CyLib.c **** 
 560:.\Generated_Source\PSoC4/CyLib.c ****     CY_SYS_CLK_SELECT_REG = ((uint32)(((uint32)divider & CY_SYS_CLK_SELECT_SYSCLK_DIV_MASK) <<
 310              		.loc 1 560 0
 311 0014 094B     		ldr	r3, .L15
 312 0016 7A68     		ldr	r2, [r7, #4]
 313 0018 0721     		mov	r1, #7
 314 001a 0A40     		and	r2, r1
 315 001c D104     		lsl	r1, r2, #19
 561:.\Generated_Source\PSoC4/CyLib.c ****                                     CY_SYS_CLK_SELECT_SYSCLK_DIV_SHIFT)) |
 562:.\Generated_Source\PSoC4/CyLib.c ****                             (CY_SYS_CLK_SELECT_REG & ((uint32)(~(uint32)(CY_SYS_CLK_SELECT_SYSCLK_D
 316              		.loc 1 562 0
 317 001e 074A     		ldr	r2, .L15
 318 0020 1268     		ldr	r2, [r2]
 319 0022 0748     		ldr	r0, .L15+4
 320 0024 0240     		and	r2, r0
 561:.\Generated_Source\PSoC4/CyLib.c ****                                     CY_SYS_CLK_SELECT_SYSCLK_DIV_SHIFT)) |
 321              		.loc 1 561 0
 322 0026 0A43     		orr	r2, r1
 560:.\Generated_Source\PSoC4/CyLib.c ****                                     CY_SYS_CLK_SELECT_SYSCLK_DIV_SHIFT)) |
 323              		.loc 1 560 0
 324 0028 1A60     		str	r2, [r3]
 563:.\Generated_Source\PSoC4/CyLib.c ****                                     CY_SYS_CLK_SELECT_SYSCLK_DIV_SHIFT))));
 564:.\Generated_Source\PSoC4/CyLib.c **** 
 565:.\Generated_Source\PSoC4/CyLib.c ****     CyExitCriticalSection(interruptState);
 325              		.loc 1 565 0
 326 002a 0F23     		mov	r3, #15
 327 002c FB18     		add	r3, r7, r3
 328 002e 1B78     		ldrb	r3, [r3]
 329 0030 181C     		mov	r0, r3
 330 0032 FFF7FEFF 		bl	CyExitCriticalSection
 566:.\Generated_Source\PSoC4/CyLib.c **** }
 331              		.loc 1 566 0
 332 0036 BD46     		mov	sp, r7
 333 0038 05B0     		add	sp, sp, #20
 334              		@ sp needed
 335 003a 90BD     		pop	{r4, r7, pc}
 336              	.L16:
 337              		.align	2
 338              	.L15:
 339 003c 00010B40 		.word	1074462976
 340 0040 FFFFC7FF 		.word	-3670017
ARM GAS  C:\Users\kylep\AppData\Local\Temp\ccAJ1He0.s 			page 17


 341              		.cfi_endproc
 342              	.LFE4:
 343              		.size	CySysClkWriteSysclkDiv, .-CySysClkWriteSysclkDiv
 344              		.section	.text.CySysClkWriteImoFreq,"ax",%progbits
 345              		.align	2
 346              		.global	CySysClkWriteImoFreq
 347              		.code	16
 348              		.thumb_func
 349              		.type	CySysClkWriteImoFreq, %function
 350              	CySysClkWriteImoFreq:
 351              	.LFB5:
 567:.\Generated_Source\PSoC4/CyLib.c **** 
 568:.\Generated_Source\PSoC4/CyLib.c **** 
 569:.\Generated_Source\PSoC4/CyLib.c **** /*******************************************************************************
 570:.\Generated_Source\PSoC4/CyLib.c **** * Function Name: CySysClkWriteImoFreq
 571:.\Generated_Source\PSoC4/CyLib.c **** ********************************************************************************
 572:.\Generated_Source\PSoC4/CyLib.c **** *
 573:.\Generated_Source\PSoC4/CyLib.c **** * Summary:
 574:.\Generated_Source\PSoC4/CyLib.c **** *  Sets the frequency of the IMO.
 575:.\Generated_Source\PSoC4/CyLib.c **** *
 576:.\Generated_Source\PSoC4/CyLib.c **** *  If IMO is currently driving the HFCLK, and if the HFCLK frequency decreases,
 577:.\Generated_Source\PSoC4/CyLib.c **** *  you can call CySysFlashSetWaitCycles () to improve CPU performance. See
 578:.\Generated_Source\PSoC4/CyLib.c **** *  CySysFlashSetWaitCycles () for more information.
 579:.\Generated_Source\PSoC4/CyLib.c **** *
 580:.\Generated_Source\PSoC4/CyLib.c **** *  For PSoC 4000 family of devices, maximum HFCLK frequency is 16 MHz. If IMO is
 581:.\Generated_Source\PSoC4/CyLib.c **** *  configured to frequencies above 16 MHz, ensure to set the appropriate HFCLK
 582:.\Generated_Source\PSoC4/CyLib.c **** *  predivider value first.
 583:.\Generated_Source\PSoC4/CyLib.c **** *
 584:.\Generated_Source\PSoC4/CyLib.c **** *  For PSoC 4200M and PSoC 4200L device families, if WCO lock feature is enabled
 585:.\Generated_Source\PSoC4/CyLib.c **** *  then this API will disable the lock, write the new IMO frequency and then
 586:.\Generated_Source\PSoC4/CyLib.c **** *  re-enable the lock.
 587:.\Generated_Source\PSoC4/CyLib.c **** *
 588:.\Generated_Source\PSoC4/CyLib.c **** *  For PSoC 4200L device families, this function enables the USB lock when 24 or
 589:.\Generated_Source\PSoC4/CyLib.c **** *  48 MHz passed as a parameter if the USB lock option is enabled in Design Wide
 590:.\Generated_Source\PSoC4/CyLib.c **** *  Resources tab or CySysClkImoEnableUsbLock() was called before. Note the USB
 591:.\Generated_Source\PSoC4/CyLib.c **** *  lock is disabled during IMO frequency change.
 592:.\Generated_Source\PSoC4/CyLib.c **** *
 593:.\Generated_Source\PSoC4/CyLib.c **** *  Note: The CPU is halted if new frequency is invalid and project is compiled
 594:.\Generated_Source\PSoC4/CyLib.c **** *  in debug mode.
 595:.\Generated_Source\PSoC4/CyLib.c **** *
 596:.\Generated_Source\PSoC4/CyLib.c **** * Parameters:
 597:.\Generated_Source\PSoC4/CyLib.c **** *  All PSoC 4 families excluding PSoC 4000: Valid range [3-48] with step size
 598:.\Generated_Source\PSoC4/CyLib.c **** *  equals 1.
 599:.\Generated_Source\PSoC4/CyLib.c **** *
 600:.\Generated_Source\PSoC4/CyLib.c **** *  PSoC 4000: Valid range [24-48] with step size equals 4.
 601:.\Generated_Source\PSoC4/CyLib.c **** *
 602:.\Generated_Source\PSoC4/CyLib.c **** *  Note: The CPU is halted if new frequency is invalid and project is
 603:.\Generated_Source\PSoC4/CyLib.c **** *  compiled in debug mode.
 604:.\Generated_Source\PSoC4/CyLib.c **** *
 605:.\Generated_Source\PSoC4/CyLib.c **** * Return:
 606:.\Generated_Source\PSoC4/CyLib.c **** *  None
 607:.\Generated_Source\PSoC4/CyLib.c **** *
 608:.\Generated_Source\PSoC4/CyLib.c **** * Side Effects:
 609:.\Generated_Source\PSoC4/CyLib.c **** *  If the SYSCLK clock frequency increases during the device operation, call
 610:.\Generated_Source\PSoC4/CyLib.c **** *  CySysFlashSetWaitCycles() with the appropriate parameter to adjust the number
 611:.\Generated_Source\PSoC4/CyLib.c **** *  of clock cycles the cache will wait before sampling data comes back from
 612:.\Generated_Source\PSoC4/CyLib.c **** *  Flash. If the SYSCLK clock frequency decreases, you can call
ARM GAS  C:\Users\kylep\AppData\Local\Temp\ccAJ1He0.s 			page 18


 613:.\Generated_Source\PSoC4/CyLib.c **** *  CySysFlashSetWaitCycles() to improve the CPU performance. See
 614:.\Generated_Source\PSoC4/CyLib.c **** *  CySysFlashSetWaitCycles() description for more information.
 615:.\Generated_Source\PSoC4/CyLib.c **** *
 616:.\Generated_Source\PSoC4/CyLib.c **** *  PSoC 4000: The System Clock (SYSCLK) has maximum speed of 16 MHz, so HFCLK
 617:.\Generated_Source\PSoC4/CyLib.c **** *  and SYSCLK dividers should be selected in a way, to not to exceed 16 MHz for
 618:.\Generated_Source\PSoC4/CyLib.c **** *  the System clock.
 619:.\Generated_Source\PSoC4/CyLib.c **** *
 620:.\Generated_Source\PSoC4/CyLib.c **** *******************************************************************************/
 621:.\Generated_Source\PSoC4/CyLib.c **** #if(CY_IP_SRSSV2)
 622:.\Generated_Source\PSoC4/CyLib.c ****     void CySysClkWriteImoFreq(uint32 freq)
 623:.\Generated_Source\PSoC4/CyLib.c ****     {
 352              		.loc 1 623 0
 353              		.cfi_startproc
 354 0000 90B5     		push	{r4, r7, lr}
 355              		.cfi_def_cfa_offset 12
 356              		.cfi_offset 4, -12
 357              		.cfi_offset 7, -8
 358              		.cfi_offset 14, -4
 359 0002 85B0     		sub	sp, sp, #20
 360              		.cfi_def_cfa_offset 32
 361 0004 00AF     		add	r7, sp, #0
 362              		.cfi_def_cfa_register 7
 363 0006 7860     		str	r0, [r7, #4]
 624:.\Generated_Source\PSoC4/CyLib.c ****         #if (CY_IP_FMLT)
 625:.\Generated_Source\PSoC4/CyLib.c ****             volatile uint32   parameters[2u];
 626:.\Generated_Source\PSoC4/CyLib.c ****             volatile uint32   regValues[4u];
 627:.\Generated_Source\PSoC4/CyLib.c ****         #else
 628:.\Generated_Source\PSoC4/CyLib.c ****             uint8  bgTrim4;
 629:.\Generated_Source\PSoC4/CyLib.c ****             uint8  bgTrim5;
 630:.\Generated_Source\PSoC4/CyLib.c ****             uint8  newImoTrim2Value;
 631:.\Generated_Source\PSoC4/CyLib.c ****             uint8  currentImoTrim2Value;
 632:.\Generated_Source\PSoC4/CyLib.c ****             uint8  imoTrim1Value;
 633:.\Generated_Source\PSoC4/CyLib.c ****         #endif /* (CY_IP_FM) */
 634:.\Generated_Source\PSoC4/CyLib.c **** 
 635:.\Generated_Source\PSoC4/CyLib.c ****         #if (CY_IP_IMO_TRIMMABLE_BY_WCO)
 636:.\Generated_Source\PSoC4/CyLib.c ****             uint32 wcoLock = 0u;
 637:.\Generated_Source\PSoC4/CyLib.c ****         #endif  /* (CY_IP_IMO_TRIMMABLE_BY_WCO) */
 638:.\Generated_Source\PSoC4/CyLib.c **** 
 639:.\Generated_Source\PSoC4/CyLib.c ****         #if (CY_IP_IMO_TRIMMABLE_BY_USB)
 640:.\Generated_Source\PSoC4/CyLib.c ****             uint32 usbLock = 0u;
 641:.\Generated_Source\PSoC4/CyLib.c ****         #endif  /* (CY_IP_IMO_TRIMMABLE_BY_USB) */
 642:.\Generated_Source\PSoC4/CyLib.c **** 
 643:.\Generated_Source\PSoC4/CyLib.c ****         uint8  interruptState;
 644:.\Generated_Source\PSoC4/CyLib.c **** 
 645:.\Generated_Source\PSoC4/CyLib.c **** 
 646:.\Generated_Source\PSoC4/CyLib.c ****         interruptState = CyEnterCriticalSection();
 364              		.loc 1 646 0
 365 0008 0C23     		mov	r3, #12
 366 000a FC18     		add	r4, r7, r3
 367 000c FFF7FEFF 		bl	CyEnterCriticalSection
 368 0010 031C     		mov	r3, r0
 369 0012 2370     		strb	r3, [r4]
 647:.\Generated_Source\PSoC4/CyLib.c **** 
 648:.\Generated_Source\PSoC4/CyLib.c ****         #if (CY_IP_IMO_TRIMMABLE_BY_WCO)
 649:.\Generated_Source\PSoC4/CyLib.c ****             if(0u != CySysClkImoGetWcoLock())
 650:.\Generated_Source\PSoC4/CyLib.c ****             {
 651:.\Generated_Source\PSoC4/CyLib.c ****                 wcoLock = 1u;
ARM GAS  C:\Users\kylep\AppData\Local\Temp\ccAJ1He0.s 			page 19


 652:.\Generated_Source\PSoC4/CyLib.c ****                 CySysClkImoDisableWcoLock();
 653:.\Generated_Source\PSoC4/CyLib.c ****             }
 654:.\Generated_Source\PSoC4/CyLib.c ****         #endif  /* (CY_IP_IMO_TRIMMABLE_BY_WCO) */
 655:.\Generated_Source\PSoC4/CyLib.c **** 
 656:.\Generated_Source\PSoC4/CyLib.c **** 
 657:.\Generated_Source\PSoC4/CyLib.c ****         #if (CY_IP_IMO_TRIMMABLE_BY_USB)
 658:.\Generated_Source\PSoC4/CyLib.c **** 
 659:.\Generated_Source\PSoC4/CyLib.c ****             #if (CYDEV_IMO_TRIMMED_BY_USB == 0u)
 660:.\Generated_Source\PSoC4/CyLib.c ****                 if(0u != CySysClkImoGetUsbLock())
 661:.\Generated_Source\PSoC4/CyLib.c ****                 {
 662:.\Generated_Source\PSoC4/CyLib.c ****             #endif  /* (CYDEV_IMO_TRIMMED_BY_USB == 0u) */
 663:.\Generated_Source\PSoC4/CyLib.c **** 
 664:.\Generated_Source\PSoC4/CyLib.c ****                 if ((24u == freq) || (48u == freq))
 665:.\Generated_Source\PSoC4/CyLib.c ****                 {
 666:.\Generated_Source\PSoC4/CyLib.c ****                     usbLock = 1u;
 667:.\Generated_Source\PSoC4/CyLib.c ****                     CySysClkImoDisableUsbLock();
 668:.\Generated_Source\PSoC4/CyLib.c ****                 }
 669:.\Generated_Source\PSoC4/CyLib.c **** 
 670:.\Generated_Source\PSoC4/CyLib.c ****             #if (CYDEV_IMO_TRIMMED_BY_USB == 0u)
 671:.\Generated_Source\PSoC4/CyLib.c ****                 }
 672:.\Generated_Source\PSoC4/CyLib.c ****             #endif  /* (CYDEV_IMO_TRIMMED_BY_USB == 0u) */
 673:.\Generated_Source\PSoC4/CyLib.c **** 
 674:.\Generated_Source\PSoC4/CyLib.c ****         #endif  /* (CYDEV_IMO_TRIMMED_BY_USB == 0u) */
 675:.\Generated_Source\PSoC4/CyLib.c **** 
 676:.\Generated_Source\PSoC4/CyLib.c **** 
 677:.\Generated_Source\PSoC4/CyLib.c ****         #if (CY_IP_FMLT)
 678:.\Generated_Source\PSoC4/CyLib.c **** 
 679:.\Generated_Source\PSoC4/CyLib.c ****             /* FM-Lite Clock Restore */
 680:.\Generated_Source\PSoC4/CyLib.c ****             regValues[0u] = CY_SYS_CLK_IMO_CONFIG_REG;
 681:.\Generated_Source\PSoC4/CyLib.c ****             regValues[1u] = CY_SYS_CLK_SELECT_REG;
 682:.\Generated_Source\PSoC4/CyLib.c ****             regValues[2u] = cyImoFreqMhz2Reg[freq - CY_SYS_CLK_IMO_FREQ_TABLE_OFFSET];
 683:.\Generated_Source\PSoC4/CyLib.c ****             regValues[3u] = CY_FLASH_CTL_REG;
 684:.\Generated_Source\PSoC4/CyLib.c **** 
 685:.\Generated_Source\PSoC4/CyLib.c ****             parameters[0u] =
 686:.\Generated_Source\PSoC4/CyLib.c ****                 (uint32) ((CY_FLASH_KEY_TWO(CY_FLASH_API_OPCODE_CLK_RESTORE) <<  CY_FLASH_PARAM_KEY
 687:.\Generated_Source\PSoC4/CyLib.c ****                             CY_FLASH_KEY_ONE);
 688:.\Generated_Source\PSoC4/CyLib.c ****             parameters[1u] = (uint32) &regValues[0u];
 689:.\Generated_Source\PSoC4/CyLib.c **** 
 690:.\Generated_Source\PSoC4/CyLib.c ****             CY_FLASH_CPUSS_SYSARG_REG = (uint32) &parameters[0u];
 691:.\Generated_Source\PSoC4/CyLib.c ****             CY_FLASH_CPUSS_SYSREQ_REG = CY_FLASH_CPUSS_REQ_START | CY_FLASH_API_OPCODE_CLK_RESTORE;
 692:.\Generated_Source\PSoC4/CyLib.c ****             (void) CY_FLASH_CPUSS_SYSARG_REG;
 693:.\Generated_Source\PSoC4/CyLib.c **** 
 694:.\Generated_Source\PSoC4/CyLib.c ****         #else /* (CY_IP_FM) */
 695:.\Generated_Source\PSoC4/CyLib.c **** 
 696:.\Generated_Source\PSoC4/CyLib.c ****         if ((freq >= CY_SYS_CLK_IMO_MIN_FREQ_MHZ) && (freq <= CY_SYS_CLK_IMO_MAX_FREQ_MHZ))
 370              		.loc 1 696 0
 371 0014 7B68     		ldr	r3, [r7, #4]
 372 0016 022B     		cmp	r3, #2
 373 0018 00D8     		bhi	.LCB233
 374 001a B2E0     		b	.L18	@long jump
 375              	.LCB233:
 376              		.loc 1 696 0 is_stmt 0 discriminator 1
 377 001c 7B68     		ldr	r3, [r7, #4]
 378 001e 302B     		cmp	r3, #48
 379 0020 00D9     		bls	.LCB236
 380 0022 AEE0     		b	.L18	@long jump
 381              	.LCB236:
ARM GAS  C:\Users\kylep\AppData\Local\Temp\ccAJ1He0.s 			page 20


 697:.\Generated_Source\PSoC4/CyLib.c ****         {
 698:.\Generated_Source\PSoC4/CyLib.c ****             if(freq <= CY_SFLASH_IMO_MAXF0_REG)
 382              		.loc 1 698 0 is_stmt 1
 383 0024 5B4B     		ldr	r3, .L28
 384 0026 1B78     		ldrb	r3, [r3]
 385 0028 DBB2     		uxtb	r3, r3
 386 002a 1A1E     		sub	r2, r3, #0
 387 002c 7B68     		ldr	r3, [r7, #4]
 388 002e 9A42     		cmp	r2, r3
 389 0030 0AD3     		bcc	.L19
 699:.\Generated_Source\PSoC4/CyLib.c ****             {
 700:.\Generated_Source\PSoC4/CyLib.c ****                 bgTrim4 = CY_SFLASH_IMO_ABS0_REG;
 390              		.loc 1 700 0
 391 0032 594A     		ldr	r2, .L28+4
 392 0034 0F23     		mov	r3, #15
 393 0036 FB18     		add	r3, r7, r3
 394 0038 1278     		ldrb	r2, [r2]
 395 003a 1A70     		strb	r2, [r3]
 701:.\Generated_Source\PSoC4/CyLib.c ****                 bgTrim5 = CY_SFLASH_IMO_TMPCO0_REG;
 396              		.loc 1 701 0
 397 003c 574A     		ldr	r2, .L28+8
 398 003e 0E23     		mov	r3, #14
 399 0040 FB18     		add	r3, r7, r3
 400 0042 1278     		ldrb	r2, [r2]
 401 0044 1A70     		strb	r2, [r3]
 402 0046 3FE0     		b	.L20
 403              	.L19:
 702:.\Generated_Source\PSoC4/CyLib.c ****             }
 703:.\Generated_Source\PSoC4/CyLib.c ****             else if(freq <= CY_SFLASH_IMO_MAXF1_REG)
 404              		.loc 1 703 0
 405 0048 554B     		ldr	r3, .L28+12
 406 004a 1B78     		ldrb	r3, [r3]
 407 004c DBB2     		uxtb	r3, r3
 408 004e 1A1E     		sub	r2, r3, #0
 409 0050 7B68     		ldr	r3, [r7, #4]
 410 0052 9A42     		cmp	r2, r3
 411 0054 0AD3     		bcc	.L21
 704:.\Generated_Source\PSoC4/CyLib.c ****             {
 705:.\Generated_Source\PSoC4/CyLib.c ****                 bgTrim4 = CY_SFLASH_IMO_ABS1_REG;
 412              		.loc 1 705 0
 413 0056 534A     		ldr	r2, .L28+16
 414 0058 0F23     		mov	r3, #15
 415 005a FB18     		add	r3, r7, r3
 416 005c 1278     		ldrb	r2, [r2]
 417 005e 1A70     		strb	r2, [r3]
 706:.\Generated_Source\PSoC4/CyLib.c ****                 bgTrim5 = CY_SFLASH_IMO_TMPCO1_REG;
 418              		.loc 1 706 0
 419 0060 514A     		ldr	r2, .L28+20
 420 0062 0E23     		mov	r3, #14
 421 0064 FB18     		add	r3, r7, r3
 422 0066 1278     		ldrb	r2, [r2]
 423 0068 1A70     		strb	r2, [r3]
 424 006a 2DE0     		b	.L20
 425              	.L21:
 707:.\Generated_Source\PSoC4/CyLib.c ****             }
 708:.\Generated_Source\PSoC4/CyLib.c ****             else if(freq <= CY_SFLASH_IMO_MAXF2_REG)
 426              		.loc 1 708 0
ARM GAS  C:\Users\kylep\AppData\Local\Temp\ccAJ1He0.s 			page 21


 427 006c 4F4B     		ldr	r3, .L28+24
 428 006e 1B78     		ldrb	r3, [r3]
 429 0070 DBB2     		uxtb	r3, r3
 430 0072 1A1E     		sub	r2, r3, #0
 431 0074 7B68     		ldr	r3, [r7, #4]
 432 0076 9A42     		cmp	r2, r3
 433 0078 0AD3     		bcc	.L22
 709:.\Generated_Source\PSoC4/CyLib.c ****             {
 710:.\Generated_Source\PSoC4/CyLib.c ****                 bgTrim4 = CY_SFLASH_IMO_ABS2_REG;
 434              		.loc 1 710 0
 435 007a 4D4A     		ldr	r2, .L28+28
 436 007c 0F23     		mov	r3, #15
 437 007e FB18     		add	r3, r7, r3
 438 0080 1278     		ldrb	r2, [r2]
 439 0082 1A70     		strb	r2, [r3]
 711:.\Generated_Source\PSoC4/CyLib.c ****                 bgTrim5 = CY_SFLASH_IMO_TMPCO2_REG;
 440              		.loc 1 711 0
 441 0084 4B4A     		ldr	r2, .L28+32
 442 0086 0E23     		mov	r3, #14
 443 0088 FB18     		add	r3, r7, r3
 444 008a 1278     		ldrb	r2, [r2]
 445 008c 1A70     		strb	r2, [r3]
 446 008e 1BE0     		b	.L20
 447              	.L22:
 712:.\Generated_Source\PSoC4/CyLib.c ****             }
 713:.\Generated_Source\PSoC4/CyLib.c ****             else if(freq <= CY_SFLASH_IMO_MAXF3_REG)
 448              		.loc 1 713 0
 449 0090 494B     		ldr	r3, .L28+36
 450 0092 1B78     		ldrb	r3, [r3]
 451 0094 DBB2     		uxtb	r3, r3
 452 0096 1A1E     		sub	r2, r3, #0
 453 0098 7B68     		ldr	r3, [r7, #4]
 454 009a 9A42     		cmp	r2, r3
 455 009c 0AD3     		bcc	.L23
 714:.\Generated_Source\PSoC4/CyLib.c ****             {
 715:.\Generated_Source\PSoC4/CyLib.c ****                 bgTrim4 = CY_SFLASH_IMO_ABS3_REG;
 456              		.loc 1 715 0
 457 009e 474A     		ldr	r2, .L28+40
 458 00a0 0F23     		mov	r3, #15
 459 00a2 FB18     		add	r3, r7, r3
 460 00a4 1278     		ldrb	r2, [r2]
 461 00a6 1A70     		strb	r2, [r3]
 716:.\Generated_Source\PSoC4/CyLib.c ****                 bgTrim5 = CY_SFLASH_IMO_TMPCO3_REG;
 462              		.loc 1 716 0
 463 00a8 454A     		ldr	r2, .L28+44
 464 00aa 0E23     		mov	r3, #14
 465 00ac FB18     		add	r3, r7, r3
 466 00ae 1278     		ldrb	r2, [r2]
 467 00b0 1A70     		strb	r2, [r3]
 468 00b2 09E0     		b	.L20
 469              	.L23:
 717:.\Generated_Source\PSoC4/CyLib.c ****             }
 718:.\Generated_Source\PSoC4/CyLib.c ****             else
 719:.\Generated_Source\PSoC4/CyLib.c ****             {
 720:.\Generated_Source\PSoC4/CyLib.c ****                 bgTrim4 = CY_SFLASH_IMO_ABS4_REG;
 470              		.loc 1 720 0
 471 00b4 434A     		ldr	r2, .L28+48
ARM GAS  C:\Users\kylep\AppData\Local\Temp\ccAJ1He0.s 			page 22


 472 00b6 0F23     		mov	r3, #15
 473 00b8 FB18     		add	r3, r7, r3
 474 00ba 1278     		ldrb	r2, [r2]
 475 00bc 1A70     		strb	r2, [r3]
 721:.\Generated_Source\PSoC4/CyLib.c ****                 bgTrim5 = CY_SFLASH_IMO_TMPCO4_REG;
 476              		.loc 1 721 0
 477 00be 424A     		ldr	r2, .L28+52
 478 00c0 0E23     		mov	r3, #14
 479 00c2 FB18     		add	r3, r7, r3
 480 00c4 1278     		ldrb	r2, [r2]
 481 00c6 1A70     		strb	r2, [r3]
 482              	.L20:
 722:.\Generated_Source\PSoC4/CyLib.c ****             }
 723:.\Generated_Source\PSoC4/CyLib.c **** 
 724:.\Generated_Source\PSoC4/CyLib.c ****             /* Get IMO_TRIM2 value for the new frequency */
 725:.\Generated_Source\PSoC4/CyLib.c ****             newImoTrim2Value = cyImoFreqMhz2Reg[freq - CY_SYS_CLK_IMO_FREQ_TABLE_OFFSET];
 483              		.loc 1 725 0
 484 00c8 7B68     		ldr	r3, [r7, #4]
 485 00ca DA1E     		sub	r2, r3, #3
 486 00cc 0B23     		mov	r3, #11
 487 00ce FB18     		add	r3, r7, r3
 488 00d0 3E49     		ldr	r1, .L28+56
 489 00d2 8A5C     		ldrb	r2, [r1, r2]
 490 00d4 1A70     		strb	r2, [r3]
 726:.\Generated_Source\PSoC4/CyLib.c **** 
 727:.\Generated_Source\PSoC4/CyLib.c **** 
 728:.\Generated_Source\PSoC4/CyLib.c ****             /****************************************************************************
 729:.\Generated_Source\PSoC4/CyLib.c ****             * The IMO can have a different trim per frequency. To avoid possible corner
 730:.\Generated_Source\PSoC4/CyLib.c ****             * cases where a trim change can exceed the maximum frequency, the trim must
 731:.\Generated_Source\PSoC4/CyLib.c ****             * be applied at a frequency that is low enough.
 732:.\Generated_Source\PSoC4/CyLib.c ****             *
 733:.\Generated_Source\PSoC4/CyLib.c ****             * Comparing IMO_TRIM2 values for the current and new frequencies, since
 734:.\Generated_Source\PSoC4/CyLib.c ****             * IMO_TRIM2 value as a function of IMO frequency is a strictly increasing
 735:.\Generated_Source\PSoC4/CyLib.c ****             * function and is time-invariant.
 736:.\Generated_Source\PSoC4/CyLib.c ****             ***************************************************************************/
 737:.\Generated_Source\PSoC4/CyLib.c ****             if ((newImoTrim2Value >= CY_SYS_CLK_IMO_BOUNDARY_FREQ_TRIM2) && (freq >= CY_SYS_CLK_IMO
 491              		.loc 1 737 0
 492 00d6 0B23     		mov	r3, #11
 493 00d8 FB18     		add	r3, r7, r3
 494 00da 1B78     		ldrb	r3, [r3]
 495 00dc 2F2B     		cmp	r3, #47
 496 00de 0DD9     		bls	.L24
 497              		.loc 1 737 0 is_stmt 0 discriminator 1
 498 00e0 7B68     		ldr	r3, [r7, #4]
 499 00e2 2A2B     		cmp	r3, #42
 500 00e4 0AD9     		bls	.L24
 738:.\Generated_Source\PSoC4/CyLib.c ****             {
 739:.\Generated_Source\PSoC4/CyLib.c ****                 /* Set boundary IMO frequency: safe for IMO above 48 MHZ trimming */
 740:.\Generated_Source\PSoC4/CyLib.c ****                 CY_SYS_CLK_IMO_TRIM2_REG = (uint32) cyImoFreqMhz2Reg[CY_SYS_CLK_IMO_TEMP_FREQ_MHZ -
 501              		.loc 1 740 0 is_stmt 1
 502 00e6 3A4B     		ldr	r3, .L28+60
 503 00e8 1922     		mov	r2, #25
 504 00ea 1A60     		str	r2, [r3]
 741:.\Generated_Source\PSoC4/CyLib.c ****                                                                      CY_SYS_CLK_IMO_FREQ_TABLE_OFFS
 742:.\Generated_Source\PSoC4/CyLib.c **** 
 743:.\Generated_Source\PSoC4/CyLib.c ****                 CyDelayCycles(CY_SYS_CLK_IMO_FREQ_TIMEOUT_CYCLES);
 505              		.loc 1 743 0
ARM GAS  C:\Users\kylep\AppData\Local\Temp\ccAJ1He0.s 			page 23


 506 00ec 0520     		mov	r0, #5
 507 00ee FFF7FEFF 		bl	CyDelayCycles
 744:.\Generated_Source\PSoC4/CyLib.c **** 
 745:.\Generated_Source\PSoC4/CyLib.c ****                 currentImoTrim2Value = CY_SYS_CLK_IMO_TEMP_FREQ_TRIM2;
 508              		.loc 1 745 0
 509 00f2 0D23     		mov	r3, #13
 510 00f4 FB18     		add	r3, r7, r3
 511 00f6 1922     		mov	r2, #25
 512 00f8 1A70     		strb	r2, [r3]
 513 00fa 07E0     		b	.L25
 514              	.L24:
 746:.\Generated_Source\PSoC4/CyLib.c ****             }
 747:.\Generated_Source\PSoC4/CyLib.c ****             else
 748:.\Generated_Source\PSoC4/CyLib.c ****             {
 749:.\Generated_Source\PSoC4/CyLib.c ****                 currentImoTrim2Value = (uint8) (CY_SYS_CLK_IMO_TRIM2_REG & CY_SYS_CLK_IMO_FREQ_BITS
 515              		.loc 1 749 0
 516 00fc 344B     		ldr	r3, .L28+60
 517 00fe 1B68     		ldr	r3, [r3]
 518 0100 DAB2     		uxtb	r2, r3
 519 0102 0D23     		mov	r3, #13
 520 0104 FB18     		add	r3, r7, r3
 521 0106 3F21     		mov	r1, #63
 522 0108 0A40     		and	r2, r1
 523 010a 1A70     		strb	r2, [r3]
 524              	.L25:
 750:.\Generated_Source\PSoC4/CyLib.c ****             }
 751:.\Generated_Source\PSoC4/CyLib.c **** 
 752:.\Generated_Source\PSoC4/CyLib.c **** 
 753:.\Generated_Source\PSoC4/CyLib.c ****             /***************************************************************************
 754:.\Generated_Source\PSoC4/CyLib.c ****             * A trim change needs to be allowed to settle (within 5us) before the Freq
 755:.\Generated_Source\PSoC4/CyLib.c ****             * can be changed to a new frequency.
 756:.\Generated_Source\PSoC4/CyLib.c ****             *
 757:.\Generated_Source\PSoC4/CyLib.c ****             * Comparing IMO_TRIM2 values for the current and new frequencies, since
 758:.\Generated_Source\PSoC4/CyLib.c ****             * IMO_TRIM2 value as a function of IMO frequency is a strictly increasing
 759:.\Generated_Source\PSoC4/CyLib.c ****             * function and is time-invariant.
 760:.\Generated_Source\PSoC4/CyLib.c ****             ***************************************************************************/
 761:.\Generated_Source\PSoC4/CyLib.c ****             if (newImoTrim2Value < currentImoTrim2Value)
 525              		.loc 1 761 0
 526 010c 0B23     		mov	r3, #11
 527 010e FA18     		add	r2, r7, r3
 528 0110 0D23     		mov	r3, #13
 529 0112 FB18     		add	r3, r7, r3
 530 0114 1278     		ldrb	r2, [r2]
 531 0116 1B78     		ldrb	r3, [r3]
 532 0118 9A42     		cmp	r2, r3
 533 011a 08D2     		bcs	.L26
 762:.\Generated_Source\PSoC4/CyLib.c ****             {
 763:.\Generated_Source\PSoC4/CyLib.c ****                 /* Set new IMO frequency */
 764:.\Generated_Source\PSoC4/CyLib.c ****                 CY_SYS_CLK_IMO_TRIM2_REG = cyImoFreqMhz2Reg[freq - CY_SYS_CLK_IMO_FREQ_TABLE_OFFSET
 534              		.loc 1 764 0
 535 011c 2C4B     		ldr	r3, .L28+60
 536 011e 7A68     		ldr	r2, [r7, #4]
 537 0120 033A     		sub	r2, r2, #3
 538 0122 2A49     		ldr	r1, .L28+56
 539 0124 8A5C     		ldrb	r2, [r1, r2]
 540 0126 1A60     		str	r2, [r3]
 765:.\Generated_Source\PSoC4/CyLib.c ****                 CyDelayCycles(CY_SYS_CLK_IMO_FREQ_TIMEOUT_CYCLES);
ARM GAS  C:\Users\kylep\AppData\Local\Temp\ccAJ1He0.s 			page 24


 541              		.loc 1 765 0
 542 0128 0520     		mov	r0, #5
 543 012a FFF7FEFF 		bl	CyDelayCycles
 544              	.L26:
 766:.\Generated_Source\PSoC4/CyLib.c ****             }
 767:.\Generated_Source\PSoC4/CyLib.c **** 
 768:.\Generated_Source\PSoC4/CyLib.c ****             /* Set trims for the new IMO frequency */
 769:.\Generated_Source\PSoC4/CyLib.c **** 
 770:.\Generated_Source\PSoC4/CyLib.c ****             #if (CY_IP_IMO_TRIMMABLE_BY_USB)
 771:.\Generated_Source\PSoC4/CyLib.c ****                 if ((1u == usbLock) && (48u == freq))
 772:.\Generated_Source\PSoC4/CyLib.c ****                 {
 773:.\Generated_Source\PSoC4/CyLib.c ****                     imoTrim1Value = CY_SFLASH_IMO_TRIM_USBMODE_48_REG;
 774:.\Generated_Source\PSoC4/CyLib.c ****                 }
 775:.\Generated_Source\PSoC4/CyLib.c ****                 else if ((1u == usbLock) && (24u == freq))
 776:.\Generated_Source\PSoC4/CyLib.c ****                 {
 777:.\Generated_Source\PSoC4/CyLib.c ****                     imoTrim1Value = CY_SFLASH_IMO_TRIM_USBMODE_24_REG;
 778:.\Generated_Source\PSoC4/CyLib.c ****                 }
 779:.\Generated_Source\PSoC4/CyLib.c ****                 else
 780:.\Generated_Source\PSoC4/CyLib.c ****                 {
 781:.\Generated_Source\PSoC4/CyLib.c ****                     imoTrim1Value = (uint8) CY_SFLASH_IMO_TRIM_REG(freq - CY_SYS_CLK_IMO_FREQ_TABLE
 782:.\Generated_Source\PSoC4/CyLib.c ****                 }
 783:.\Generated_Source\PSoC4/CyLib.c ****             #else
 784:.\Generated_Source\PSoC4/CyLib.c ****                 imoTrim1Value = (uint8) CY_SFLASH_IMO_TRIM_REG(freq - CY_SYS_CLK_IMO_FREQ_TABLE_OFF
 545              		.loc 1 784 0
 546 012e 7B68     		ldr	r3, [r7, #4]
 547 0130 254A     		ldr	r2, .L28+52
 548 0132 9A18     		add	r2, r3, r2
 549 0134 0A23     		mov	r3, #10
 550 0136 FB18     		add	r3, r7, r3
 551 0138 1278     		ldrb	r2, [r2]
 552 013a 1A70     		strb	r2, [r3]
 785:.\Generated_Source\PSoC4/CyLib.c ****             #endif  /* (CY_IP_IMO_TRIMMABLE_BY_USB) */
 786:.\Generated_Source\PSoC4/CyLib.c **** 
 787:.\Generated_Source\PSoC4/CyLib.c **** 
 788:.\Generated_Source\PSoC4/CyLib.c ****             CY_SYS_CLK_IMO_TRIM1_REG = (uint32) imoTrim1Value;
 553              		.loc 1 788 0
 554 013c 254B     		ldr	r3, .L28+64
 555 013e 0A22     		mov	r2, #10
 556 0140 BA18     		add	r2, r7, r2
 557 0142 1278     		ldrb	r2, [r2]
 558 0144 1A60     		str	r2, [r3]
 789:.\Generated_Source\PSoC4/CyLib.c ****             CY_PWR_BG_TRIM4_REG  = bgTrim4;
 559              		.loc 1 789 0
 560 0146 244B     		ldr	r3, .L28+68
 561 0148 0F22     		mov	r2, #15
 562 014a BA18     		add	r2, r7, r2
 563 014c 1278     		ldrb	r2, [r2]
 564 014e 1A60     		str	r2, [r3]
 790:.\Generated_Source\PSoC4/CyLib.c ****             CY_PWR_BG_TRIM5_REG  = bgTrim5;
 565              		.loc 1 790 0
 566 0150 224B     		ldr	r3, .L28+72
 567 0152 0E22     		mov	r2, #14
 568 0154 BA18     		add	r2, r7, r2
 569 0156 1278     		ldrb	r2, [r2]
 570 0158 1A60     		str	r2, [r3]
 791:.\Generated_Source\PSoC4/CyLib.c ****             CyDelayUs(CY_SYS_CLK_IMO_TRIM_TIMEOUT_US);
 571              		.loc 1 791 0
ARM GAS  C:\Users\kylep\AppData\Local\Temp\ccAJ1He0.s 			page 25


 572 015a 0520     		mov	r0, #5
 573 015c FFF7FEFF 		bl	CyDelayUs
 792:.\Generated_Source\PSoC4/CyLib.c **** 
 793:.\Generated_Source\PSoC4/CyLib.c ****             if (newImoTrim2Value > currentImoTrim2Value)
 574              		.loc 1 793 0
 575 0160 0B23     		mov	r3, #11
 576 0162 FA18     		add	r2, r7, r3
 577 0164 0D23     		mov	r3, #13
 578 0166 FB18     		add	r3, r7, r3
 579 0168 1278     		ldrb	r2, [r2]
 580 016a 1B78     		ldrb	r3, [r3]
 581 016c 9A42     		cmp	r2, r3
 582 016e 08D9     		bls	.L18
 794:.\Generated_Source\PSoC4/CyLib.c ****             {
 795:.\Generated_Source\PSoC4/CyLib.c ****                 /* Set new IMO frequency */
 796:.\Generated_Source\PSoC4/CyLib.c ****                 CY_SYS_CLK_IMO_TRIM2_REG = cyImoFreqMhz2Reg[freq - CY_SYS_CLK_IMO_FREQ_TABLE_OFFSET
 583              		.loc 1 796 0
 584 0170 174B     		ldr	r3, .L28+60
 585 0172 7A68     		ldr	r2, [r7, #4]
 586 0174 033A     		sub	r2, r2, #3
 587 0176 1549     		ldr	r1, .L28+56
 588 0178 8A5C     		ldrb	r2, [r1, r2]
 589 017a 1A60     		str	r2, [r3]
 797:.\Generated_Source\PSoC4/CyLib.c ****                 CyDelayCycles(CY_SYS_CLK_IMO_FREQ_TIMEOUT_CYCLES);
 590              		.loc 1 797 0
 591 017c 0520     		mov	r0, #5
 592 017e FFF7FEFF 		bl	CyDelayCycles
 593              	.L18:
 798:.\Generated_Source\PSoC4/CyLib.c ****             }
 799:.\Generated_Source\PSoC4/CyLib.c ****         }
 800:.\Generated_Source\PSoC4/CyLib.c ****         else
 801:.\Generated_Source\PSoC4/CyLib.c ****         {
 802:.\Generated_Source\PSoC4/CyLib.c ****             /* Halt CPU in debug mode if new frequency is invalid */
 803:.\Generated_Source\PSoC4/CyLib.c ****             CYASSERT(0u != 0u);
 804:.\Generated_Source\PSoC4/CyLib.c ****         }
 805:.\Generated_Source\PSoC4/CyLib.c **** 
 806:.\Generated_Source\PSoC4/CyLib.c ****         #endif /* (CY_IP_FMLT) */
 807:.\Generated_Source\PSoC4/CyLib.c **** 
 808:.\Generated_Source\PSoC4/CyLib.c ****         #if (CY_IP_IMO_TRIMMABLE_BY_WCO)
 809:.\Generated_Source\PSoC4/CyLib.c ****             if (1u == wcoLock)
 810:.\Generated_Source\PSoC4/CyLib.c ****             {
 811:.\Generated_Source\PSoC4/CyLib.c ****                 CySysClkImoEnableWcoLock();
 812:.\Generated_Source\PSoC4/CyLib.c ****             }
 813:.\Generated_Source\PSoC4/CyLib.c ****         #endif  /* (CY_IP_IMO_TRIMMABLE_BY_WCO) */
 814:.\Generated_Source\PSoC4/CyLib.c **** 
 815:.\Generated_Source\PSoC4/CyLib.c ****         #if (CY_IP_IMO_TRIMMABLE_BY_USB)
 816:.\Generated_Source\PSoC4/CyLib.c ****             if (1u == usbLock)
 817:.\Generated_Source\PSoC4/CyLib.c ****             {
 818:.\Generated_Source\PSoC4/CyLib.c ****                 CySysClkImoEnableUsbLock();
 819:.\Generated_Source\PSoC4/CyLib.c ****             }
 820:.\Generated_Source\PSoC4/CyLib.c ****         #endif  /* (CY_IP_IMO_TRIMMABLE_BY_USB) */
 821:.\Generated_Source\PSoC4/CyLib.c **** 
 822:.\Generated_Source\PSoC4/CyLib.c ****         CyExitCriticalSection(interruptState);
 594              		.loc 1 822 0
 595 0182 0C23     		mov	r3, #12
 596 0184 FB18     		add	r3, r7, r3
 597 0186 1B78     		ldrb	r3, [r3]
ARM GAS  C:\Users\kylep\AppData\Local\Temp\ccAJ1He0.s 			page 26


 598 0188 181C     		mov	r0, r3
 599 018a FFF7FEFF 		bl	CyExitCriticalSection
 823:.\Generated_Source\PSoC4/CyLib.c ****     }
 600              		.loc 1 823 0
 601 018e BD46     		mov	sp, r7
 602 0190 05B0     		add	sp, sp, #20
 603              		@ sp needed
 604 0192 90BD     		pop	{r4, r7, pc}
 605              	.L29:
 606              		.align	2
 607              	.L28:
 608 0194 C0F1FF0F 		.word	268431808
 609 0198 C1F1FF0F 		.word	268431809
 610 019c C2F1FF0F 		.word	268431810
 611 01a0 C3F1FF0F 		.word	268431811
 612 01a4 C4F1FF0F 		.word	268431812
 613 01a8 C5F1FF0F 		.word	268431813
 614 01ac C6F1FF0F 		.word	268431814
 615 01b0 C7F1FF0F 		.word	268431815
 616 01b4 C8F1FF0F 		.word	268431816
 617 01b8 C9F1FF0F 		.word	268431817
 618 01bc CAF1FF0F 		.word	268431818
 619 01c0 CBF1FF0F 		.word	268431819
 620 01c4 CCF1FF0F 		.word	268431820
 621 01c8 CDF1FF0F 		.word	268431821
 622 01cc 00000000 		.word	cyImoFreqMhz2Reg
 623 01d0 2CFF0B40 		.word	1074528044
 624 01d4 28FF0B40 		.word	1074528040
 625 01d8 1CFF0B40 		.word	1074528028
 626 01dc 20FF0B40 		.word	1074528032
 627              		.cfi_endproc
 628              	.LFE5:
 629              		.size	CySysClkWriteImoFreq, .-CySysClkWriteImoFreq
 630              		.section	.text.CySysLvdEnable,"ax",%progbits
 631              		.align	2
 632              		.global	CySysLvdEnable
 633              		.code	16
 634              		.thumb_func
 635              		.type	CySysLvdEnable, %function
 636              	CySysLvdEnable:
 637              	.LFB6:
 824:.\Generated_Source\PSoC4/CyLib.c **** 
 825:.\Generated_Source\PSoC4/CyLib.c **** #else
 826:.\Generated_Source\PSoC4/CyLib.c **** 
 827:.\Generated_Source\PSoC4/CyLib.c ****     void CySysClkWriteImoFreq(uint32 freq)
 828:.\Generated_Source\PSoC4/CyLib.c ****     {
 829:.\Generated_Source\PSoC4/CyLib.c ****         uint8  interruptState;
 830:.\Generated_Source\PSoC4/CyLib.c **** 
 831:.\Generated_Source\PSoC4/CyLib.c ****         if ((freq == 24u) || (freq == 32u) || (freq == 48u))
 832:.\Generated_Source\PSoC4/CyLib.c ****         {
 833:.\Generated_Source\PSoC4/CyLib.c ****             interruptState = CyEnterCriticalSection();
 834:.\Generated_Source\PSoC4/CyLib.c **** 
 835:.\Generated_Source\PSoC4/CyLib.c ****             /* Set IMO to 24 MHz - CLK_IMO_SELECT.FREQ = 0 */
 836:.\Generated_Source\PSoC4/CyLib.c ****             CY_SYS_CLK_IMO_SELECT_REG &= ((uint32) ~CY_SYS_CLK_IMO_SELECT_FREQ_MASK);
 837:.\Generated_Source\PSoC4/CyLib.c **** 
 838:.\Generated_Source\PSoC4/CyLib.c ****             /* Apply coarse trim */
 839:.\Generated_Source\PSoC4/CyLib.c ****             CY_SYS_CLK_IMO_TRIM1_REG = (CY_SYS_CLK_IMO_TRIM1_REG & ((uint32) ~CY_SYS_CLK_IMO_TRIM1_
ARM GAS  C:\Users\kylep\AppData\Local\Temp\ccAJ1He0.s 			page 27


 840:.\Generated_Source\PSoC4/CyLib.c ****                 (CY_SFLASH_IMO_TRIM_REG(freq - CY_SYS_CLK_IMO_MIN_FREQ_MHZ) & CY_SYS_CLK_IMO_TRIM1_
 841:.\Generated_Source\PSoC4/CyLib.c **** 
 842:.\Generated_Source\PSoC4/CyLib.c ****             /* Zero out fine trim */
 843:.\Generated_Source\PSoC4/CyLib.c ****             CY_SYS_CLK_IMO_TRIM2_REG = CY_SYS_CLK_IMO_TRIM2_REG & ((uint32) ~CY_SYS_CLK_IMO_TRIM2_F
 844:.\Generated_Source\PSoC4/CyLib.c **** 
 845:.\Generated_Source\PSoC4/CyLib.c ****             /* Apply TC trim */
 846:.\Generated_Source\PSoC4/CyLib.c ****             CY_SYS_CLK_IMO_TRIM3_REG = (CY_SYS_CLK_IMO_TRIM3_REG & ((uint32) ~CY_SYS_CLK_IMO_TRIM3_
 847:.\Generated_Source\PSoC4/CyLib.c ****                 (CY_SFLASH_IMO_TCTRIM_REG(freq - CY_SYS_CLK_IMO_MIN_FREQ_MHZ) & CY_SYS_CLK_IMO_TRIM
 848:.\Generated_Source\PSoC4/CyLib.c **** 
 849:.\Generated_Source\PSoC4/CyLib.c ****             CyDelayCycles(CY_SYS_CLK_IMO_TRIM_DELAY_US);
 850:.\Generated_Source\PSoC4/CyLib.c **** 
 851:.\Generated_Source\PSoC4/CyLib.c ****             if (freq > CY_SYS_CLK_IMO_MIN_FREQ_MHZ)
 852:.\Generated_Source\PSoC4/CyLib.c ****             {
 853:.\Generated_Source\PSoC4/CyLib.c ****                 /* Select nearby intermediate frequency */
 854:.\Generated_Source\PSoC4/CyLib.c ****                 CY_SYS_CLK_IMO_SELECT_REG = (CY_SYS_CLK_IMO_SELECT_REG & ((uint32) ~CY_SYS_CLK_IMO_
 855:.\Generated_Source\PSoC4/CyLib.c ****                     (((freq - 4u - CY_SYS_CLK_IMO_MIN_FREQ_MHZ) >> 2u) & CY_SYS_CLK_IMO_SELECT_FREQ
 856:.\Generated_Source\PSoC4/CyLib.c **** 
 857:.\Generated_Source\PSoC4/CyLib.c ****                 CyDelayCycles(CY_SYS_CLK_IMO_TRIM_DELAY_US);
 858:.\Generated_Source\PSoC4/CyLib.c **** 
 859:.\Generated_Source\PSoC4/CyLib.c ****                 /* Make small step to final frequency */
 860:.\Generated_Source\PSoC4/CyLib.c ****                 /* Select nearby intermediate frequency */
 861:.\Generated_Source\PSoC4/CyLib.c ****                 CY_SYS_CLK_IMO_SELECT_REG = (CY_SYS_CLK_IMO_SELECT_REG & ((uint32) ~CY_SYS_CLK_IMO_
 862:.\Generated_Source\PSoC4/CyLib.c ****                     (((freq - CY_SYS_CLK_IMO_MIN_FREQ_MHZ) >> 2u) & CY_SYS_CLK_IMO_SELECT_FREQ_MASK
 863:.\Generated_Source\PSoC4/CyLib.c ****             }
 864:.\Generated_Source\PSoC4/CyLib.c **** 
 865:.\Generated_Source\PSoC4/CyLib.c ****             CyExitCriticalSection(interruptState);
 866:.\Generated_Source\PSoC4/CyLib.c ****         }
 867:.\Generated_Source\PSoC4/CyLib.c ****         else
 868:.\Generated_Source\PSoC4/CyLib.c ****         {
 869:.\Generated_Source\PSoC4/CyLib.c ****             /* Halt CPU in debug mode if new frequency is invalid */
 870:.\Generated_Source\PSoC4/CyLib.c ****             CYASSERT(0u != 0u);
 871:.\Generated_Source\PSoC4/CyLib.c ****         }
 872:.\Generated_Source\PSoC4/CyLib.c ****     }
 873:.\Generated_Source\PSoC4/CyLib.c **** 
 874:.\Generated_Source\PSoC4/CyLib.c **** #endif /* (CY_IP_SRSSV2) */
 875:.\Generated_Source\PSoC4/CyLib.c **** 
 876:.\Generated_Source\PSoC4/CyLib.c **** 
 877:.\Generated_Source\PSoC4/CyLib.c **** #if(CY_IP_SRSSLT)
 878:.\Generated_Source\PSoC4/CyLib.c ****     /*******************************************************************************
 879:.\Generated_Source\PSoC4/CyLib.c ****     * Function Name: CySysClkWriteHfclkDiv
 880:.\Generated_Source\PSoC4/CyLib.c ****     ********************************************************************************
 881:.\Generated_Source\PSoC4/CyLib.c ****     *
 882:.\Generated_Source\PSoC4/CyLib.c ****     * Summary:
 883:.\Generated_Source\PSoC4/CyLib.c ****     *  Selects the pre-scaler divider value for HFCLK from IMO.
 884:.\Generated_Source\PSoC4/CyLib.c ****     *
 885:.\Generated_Source\PSoC4/CyLib.c ****     *  The HFCLK predivider allows the device to divide the HFCLK selection mux
 886:.\Generated_Source\PSoC4/CyLib.c ****     *  input before use as HFCLK. The predivider is capable of dividing the HFCLK by
 887:.\Generated_Source\PSoC4/CyLib.c ****     *  powers of 2 between 1 and 8.
 888:.\Generated_Source\PSoC4/CyLib.c ****     *
 889:.\Generated_Source\PSoC4/CyLib.c ****     *  Note HFCLK's frequency cannot exceed 16 MHz. This API is applicable for
 890:.\Generated_Source\PSoC4/CyLib.c ****     *  PSoC 4000 family of devices only.
 891:.\Generated_Source\PSoC4/CyLib.c ****     *
 892:.\Generated_Source\PSoC4/CyLib.c ****     *
 893:.\Generated_Source\PSoC4/CyLib.c ****     * Parameters:
 894:.\Generated_Source\PSoC4/CyLib.c ****     *  divider: HF clock divider value
 895:.\Generated_Source\PSoC4/CyLib.c ****     *   Define                        Description
 896:.\Generated_Source\PSoC4/CyLib.c ****     *   CY_SYS_CLK_HFCLK_DIV_NODIV    Transparent mode (w/o dividing)
ARM GAS  C:\Users\kylep\AppData\Local\Temp\ccAJ1He0.s 			page 28


 897:.\Generated_Source\PSoC4/CyLib.c ****     *   CY_SYS_CLK_HFCLK_DIV_2        Divide selected clock source by 2
 898:.\Generated_Source\PSoC4/CyLib.c ****     *   CY_SYS_CLK_HFCLK_DIV_4        Divide selected clock source by 4
 899:.\Generated_Source\PSoC4/CyLib.c ****     *   CY_SYS_CLK_HFCLK_DIV_8        Divide selected clock source by 8
 900:.\Generated_Source\PSoC4/CyLib.c ****     *
 901:.\Generated_Source\PSoC4/CyLib.c ****     * Return:
 902:.\Generated_Source\PSoC4/CyLib.c ****     *  None
 903:.\Generated_Source\PSoC4/CyLib.c ****     *
 904:.\Generated_Source\PSoC4/CyLib.c ****     * Side Effects:
 905:.\Generated_Source\PSoC4/CyLib.c ****     *  If the SYSCLK clock frequency increases during the device operation, call
 906:.\Generated_Source\PSoC4/CyLib.c ****     *  CySysFlashSetWaitCycles() with the appropriate parameter to adjust the number
 907:.\Generated_Source\PSoC4/CyLib.c ****     *  of clock cycles the cache will wait before sampling data comes back from
 908:.\Generated_Source\PSoC4/CyLib.c ****     *  Flash. If the SYSCLK clock frequency decreases, you can call
 909:.\Generated_Source\PSoC4/CyLib.c ****     *  CySysFlashSetWaitCycles() to improve the CPU performance. See
 910:.\Generated_Source\PSoC4/CyLib.c ****     *  CySysFlashSetWaitCycles() description for more information.
 911:.\Generated_Source\PSoC4/CyLib.c ****     *
 912:.\Generated_Source\PSoC4/CyLib.c ****     *******************************************************************************/
 913:.\Generated_Source\PSoC4/CyLib.c ****     void CySysClkWriteHfclkDiv(uint32 divider)
 914:.\Generated_Source\PSoC4/CyLib.c ****     {
 915:.\Generated_Source\PSoC4/CyLib.c ****         uint8  interruptState;
 916:.\Generated_Source\PSoC4/CyLib.c **** 
 917:.\Generated_Source\PSoC4/CyLib.c ****         interruptState = CyEnterCriticalSection();
 918:.\Generated_Source\PSoC4/CyLib.c **** 
 919:.\Generated_Source\PSoC4/CyLib.c ****         CY_SYS_CLK_SELECT_REG = ((CY_SYS_CLK_SELECT_REG & ((uint32) (~(CY_SYS_CLK_SELECT_HFCLK_DIV_
 920:.\Generated_Source\PSoC4/CyLib.c ****                                         CY_SYS_CLK_SELECT_HFCLK_DIV_SHIFT)))) |
 921:.\Generated_Source\PSoC4/CyLib.c ****                     ((uint32)((divider & CY_SYS_CLK_SELECT_HFCLK_DIV_MASK) << CY_SYS_CLK_SELECT_HFC
 922:.\Generated_Source\PSoC4/CyLib.c **** 
 923:.\Generated_Source\PSoC4/CyLib.c ****         CyExitCriticalSection(interruptState);
 924:.\Generated_Source\PSoC4/CyLib.c ****     }
 925:.\Generated_Source\PSoC4/CyLib.c **** #endif /* (CY_IP_SRSSLT) */
 926:.\Generated_Source\PSoC4/CyLib.c **** 
 927:.\Generated_Source\PSoC4/CyLib.c **** 
 928:.\Generated_Source\PSoC4/CyLib.c **** #if (CY_IP_ECO)
 929:.\Generated_Source\PSoC4/CyLib.c **** 
 930:.\Generated_Source\PSoC4/CyLib.c ****     /*******************************************************************************
 931:.\Generated_Source\PSoC4/CyLib.c ****     * Function Name: CySysClkEcoStart
 932:.\Generated_Source\PSoC4/CyLib.c ****     ********************************************************************************
 933:.\Generated_Source\PSoC4/CyLib.c ****     *
 934:.\Generated_Source\PSoC4/CyLib.c ****     * Summary:
 935:.\Generated_Source\PSoC4/CyLib.c ****     *  Starts the External Crystal Oscillator (ECO). Refer to the device datasheet
 936:.\Generated_Source\PSoC4/CyLib.c ****     *  for the ECO startup time.
 937:.\Generated_Source\PSoC4/CyLib.c ****     *
 938:.\Generated_Source\PSoC4/CyLib.c ****     *  The timeout interval is measured based on the system frequency defined by
 939:.\Generated_Source\PSoC4/CyLib.c ****     *  PSoC Creator at build time. If System clock frequency is changed in
 940:.\Generated_Source\PSoC4/CyLib.c ****     *  runtime, the CyDelayFreq() with the appropriate parameter should be called.
 941:.\Generated_Source\PSoC4/CyLib.c ****     *
 942:.\Generated_Source\PSoC4/CyLib.c ****     * Parameters:
 943:.\Generated_Source\PSoC4/CyLib.c ****     *  timeoutUs: Timeout in microseconds. If zero is specified, the function
 944:.\Generated_Source\PSoC4/CyLib.c ****     *             starts the crystal and returns CYRET_SUCCESS. If non-zero
 945:.\Generated_Source\PSoC4/CyLib.c ****     *             value is passed, the CYRET_SUCCESS is returned once crystal
 946:.\Generated_Source\PSoC4/CyLib.c ****     *             is oscillating and amplitude reached 60% and it does not mean
 947:.\Generated_Source\PSoC4/CyLib.c ****     *             24 MHz crystal is within 50 ppm. If it is not oscillating or
 948:.\Generated_Source\PSoC4/CyLib.c ****     *             amplitude didn't reach 60% after specified amount of time, the
 949:.\Generated_Source\PSoC4/CyLib.c ****     *             CYRET_TIMEOUT is returned.
 950:.\Generated_Source\PSoC4/CyLib.c ****     *
 951:.\Generated_Source\PSoC4/CyLib.c ****     * Return:
 952:.\Generated_Source\PSoC4/CyLib.c ****     *   CYRET_SUCCESS - Completed successfully. The ECO is oscillating and amplitude
 953:.\Generated_Source\PSoC4/CyLib.c ****     *                   reached 60% and it does not mean 24 MHz crystal is within
ARM GAS  C:\Users\kylep\AppData\Local\Temp\ccAJ1He0.s 			page 29


 954:.\Generated_Source\PSoC4/CyLib.c ****     *                   50 ppm.
 955:.\Generated_Source\PSoC4/CyLib.c ****     *   CYRET_TIMEOUT - Timeout occurred.
 956:.\Generated_Source\PSoC4/CyLib.c ****     *
 957:.\Generated_Source\PSoC4/CyLib.c ****     *******************************************************************************/
 958:.\Generated_Source\PSoC4/CyLib.c ****     cystatus CySysClkEcoStart(uint32 timeoutUs)
 959:.\Generated_Source\PSoC4/CyLib.c ****     {
 960:.\Generated_Source\PSoC4/CyLib.c ****         cystatus returnStatus = CYRET_SUCCESS;
 961:.\Generated_Source\PSoC4/CyLib.c **** 
 962:.\Generated_Source\PSoC4/CyLib.c ****         #if (CY_IP_WCO_BLESS)
 963:.\Generated_Source\PSoC4/CyLib.c ****             /* Enable the RF oscillator band gap */
 964:.\Generated_Source\PSoC4/CyLib.c ****             CY_SYS_XTAL_BLESS_RF_CONFIG_REG |= CY_SYS_XTAL_BLESS_RF_CONFIG_RF_ENABLE;
 965:.\Generated_Source\PSoC4/CyLib.c **** 
 966:.\Generated_Source\PSoC4/CyLib.c ****             /* Update trimming register */
 967:.\Generated_Source\PSoC4/CyLib.c ****             CY_SYS_XTAL_BLERD_BB_XO_REG = CY_SYS_XTAL_BLERD_BB_XO_TRIM;
 968:.\Generated_Source\PSoC4/CyLib.c **** 
 969:.\Generated_Source\PSoC4/CyLib.c ****             /* Enable the Crystal */
 970:.\Generated_Source\PSoC4/CyLib.c ****             CY_SYS_XTAL_BLERD_DBUS_REG |= CY_SYS_XTAL_BLERD_DBUS_XTAL_ENABLE;
 971:.\Generated_Source\PSoC4/CyLib.c ****         #else /* CY_IP_WCO_SRSSV2 */
 972:.\Generated_Source\PSoC4/CyLib.c ****             CY_SYS_CLK_ECO_CONFIG_REG |= CY_SYS_CLK_ECO_CONFIG_ENABLE;
 973:.\Generated_Source\PSoC4/CyLib.c ****             CyDelayUs(CY_SYS_CLK_ECO_CONFIG_CLK_EN_TIMEOUT_US);
 974:.\Generated_Source\PSoC4/CyLib.c ****             CY_SYS_CLK_ECO_CONFIG_REG |= CY_SYS_CLK_ECO_CONFIG_CLK_EN;
 975:.\Generated_Source\PSoC4/CyLib.c ****         #endif /* (CY_IP_WCO_BLESS) */
 976:.\Generated_Source\PSoC4/CyLib.c **** 
 977:.\Generated_Source\PSoC4/CyLib.c ****         if(timeoutUs > 0u)
 978:.\Generated_Source\PSoC4/CyLib.c ****         {
 979:.\Generated_Source\PSoC4/CyLib.c ****             returnStatus = CYRET_TIMEOUT;
 980:.\Generated_Source\PSoC4/CyLib.c **** 
 981:.\Generated_Source\PSoC4/CyLib.c ****             for( ; timeoutUs > 0u; timeoutUs--)
 982:.\Generated_Source\PSoC4/CyLib.c ****             {
 983:.\Generated_Source\PSoC4/CyLib.c ****                 CyDelayUs(1u);
 984:.\Generated_Source\PSoC4/CyLib.c **** 
 985:.\Generated_Source\PSoC4/CyLib.c ****                 if(0u != CySysClkEcoReadStatus())
 986:.\Generated_Source\PSoC4/CyLib.c ****                 {
 987:.\Generated_Source\PSoC4/CyLib.c ****                     returnStatus = CYRET_SUCCESS;
 988:.\Generated_Source\PSoC4/CyLib.c ****                     break;
 989:.\Generated_Source\PSoC4/CyLib.c ****                 }
 990:.\Generated_Source\PSoC4/CyLib.c ****             }
 991:.\Generated_Source\PSoC4/CyLib.c **** 
 992:.\Generated_Source\PSoC4/CyLib.c ****         }
 993:.\Generated_Source\PSoC4/CyLib.c **** 
 994:.\Generated_Source\PSoC4/CyLib.c ****         return(returnStatus);
 995:.\Generated_Source\PSoC4/CyLib.c ****     }
 996:.\Generated_Source\PSoC4/CyLib.c **** 
 997:.\Generated_Source\PSoC4/CyLib.c **** 
 998:.\Generated_Source\PSoC4/CyLib.c ****     /*******************************************************************************
 999:.\Generated_Source\PSoC4/CyLib.c ****     * Function Name: CySysClkEcoStop
1000:.\Generated_Source\PSoC4/CyLib.c ****     ********************************************************************************
1001:.\Generated_Source\PSoC4/CyLib.c ****     *
1002:.\Generated_Source\PSoC4/CyLib.c ****     * Summary:
1003:.\Generated_Source\PSoC4/CyLib.c ****     *  Stops the megahertz crystal.
1004:.\Generated_Source\PSoC4/CyLib.c ****     *
1005:.\Generated_Source\PSoC4/CyLib.c ****     * Parameters:
1006:.\Generated_Source\PSoC4/CyLib.c ****     *  None
1007:.\Generated_Source\PSoC4/CyLib.c ****     *
1008:.\Generated_Source\PSoC4/CyLib.c ****     * Return:
1009:.\Generated_Source\PSoC4/CyLib.c ****     *  None
1010:.\Generated_Source\PSoC4/CyLib.c ****     *
ARM GAS  C:\Users\kylep\AppData\Local\Temp\ccAJ1He0.s 			page 30


1011:.\Generated_Source\PSoC4/CyLib.c ****     *******************************************************************************/
1012:.\Generated_Source\PSoC4/CyLib.c ****     void CySysClkEcoStop(void)
1013:.\Generated_Source\PSoC4/CyLib.c ****     {
1014:.\Generated_Source\PSoC4/CyLib.c ****         #if (CY_IP_WCO_BLESS)
1015:.\Generated_Source\PSoC4/CyLib.c ****             /* Disable the RF oscillator band gap */
1016:.\Generated_Source\PSoC4/CyLib.c ****             CY_SYS_XTAL_BLESS_RF_CONFIG_REG &= (uint32) ~CY_SYS_XTAL_BLESS_RF_CONFIG_RF_ENABLE;
1017:.\Generated_Source\PSoC4/CyLib.c **** 
1018:.\Generated_Source\PSoC4/CyLib.c ****             /* Disable the Crystal */
1019:.\Generated_Source\PSoC4/CyLib.c ****             CY_SYS_XTAL_BLERD_DBUS_REG &= (uint32) ~CY_SYS_XTAL_BLERD_DBUS_XTAL_ENABLE;
1020:.\Generated_Source\PSoC4/CyLib.c ****         #else
1021:.\Generated_Source\PSoC4/CyLib.c ****             CY_SYS_CLK_ECO_CONFIG_REG &= (uint32) ~(CY_SYS_CLK_ECO_CONFIG_ENABLE | CY_SYS_CLK_ECO_C
1022:.\Generated_Source\PSoC4/CyLib.c ****         #endif /* (CY_IP_WCO_BLESS) */
1023:.\Generated_Source\PSoC4/CyLib.c ****     }
1024:.\Generated_Source\PSoC4/CyLib.c **** 
1025:.\Generated_Source\PSoC4/CyLib.c **** 
1026:.\Generated_Source\PSoC4/CyLib.c ****     /*******************************************************************************
1027:.\Generated_Source\PSoC4/CyLib.c ****     * Function Name: CySysClkEcoReadStatus
1028:.\Generated_Source\PSoC4/CyLib.c ****     ********************************************************************************
1029:.\Generated_Source\PSoC4/CyLib.c ****     *
1030:.\Generated_Source\PSoC4/CyLib.c ****     * Summary:
1031:.\Generated_Source\PSoC4/CyLib.c ****     *  Reads the status bit for the megahertz crystal.
1032:.\Generated_Source\PSoC4/CyLib.c ****     *
1033:.\Generated_Source\PSoC4/CyLib.c ****     *  For PSoC 4100 BLE/PSoC 4200 BLE devices, the status bit is the XO_AMP_DETECT
1034:.\Generated_Source\PSoC4/CyLib.c ****     *  bit in FSM register.
1035:.\Generated_Source\PSoC4/CyLib.c ****     *
1036:.\Generated_Source\PSoC4/CyLib.c ****     *  For PSoC 4200L devices, the error status bit is the WATCHDOG_ERROR bit in
1037:.\Generated_Source\PSoC4/CyLib.c ****     *  ECO_STATUS register.
1038:.\Generated_Source\PSoC4/CyLib.c ****     *
1039:.\Generated_Source\PSoC4/CyLib.c ****     * Parameters:
1040:.\Generated_Source\PSoC4/CyLib.c ****     *  None
1041:.\Generated_Source\PSoC4/CyLib.c ****     *
1042:.\Generated_Source\PSoC4/CyLib.c ****     * Return:
1043:.\Generated_Source\PSoC4/CyLib.c ****     *  PSoC 4100 BLE/PSoC 4200 BLE:
1044:.\Generated_Source\PSoC4/CyLib.c ****     *  Non-zero indicates that ECO output reached 50 ppm and is oscillating in valid
1045:.\Generated_Source\PSoC4/CyLib.c ****     *  range.
1046:.\Generated_Source\PSoC4/CyLib.c ****     *
1047:.\Generated_Source\PSoC4/CyLib.c ****     *  PSoC 4200L:
1048:.\Generated_Source\PSoC4/CyLib.c ****     *  Non-zero indicates that ECO is running.
1049:.\Generated_Source\PSoC4/CyLib.c ****     *
1050:.\Generated_Source\PSoC4/CyLib.c ****     *******************************************************************************/
1051:.\Generated_Source\PSoC4/CyLib.c ****     uint32 CySysClkEcoReadStatus(void)
1052:.\Generated_Source\PSoC4/CyLib.c ****     {
1053:.\Generated_Source\PSoC4/CyLib.c ****         uint32 returnValue;
1054:.\Generated_Source\PSoC4/CyLib.c **** 
1055:.\Generated_Source\PSoC4/CyLib.c ****         #if (CY_IP_WCO_BLESS)
1056:.\Generated_Source\PSoC4/CyLib.c ****             returnValue = CY_SYS_XTAL_BLERD_FSM_REG & CY_SYS_XTAL_BLERD_FSM_XO_AMP_DETECT;
1057:.\Generated_Source\PSoC4/CyLib.c ****         #else
1058:.\Generated_Source\PSoC4/CyLib.c ****             returnValue = (0u != (CY_SYS_CLK_ECO_STATUS_REG & CY_SYS_CLK_ECO_STATUS_WATCHDOG_ERROR)
1059:.\Generated_Source\PSoC4/CyLib.c ****         #endif /* (CY_IP_WCO_BLESS) */
1060:.\Generated_Source\PSoC4/CyLib.c **** 
1061:.\Generated_Source\PSoC4/CyLib.c ****         return (returnValue);
1062:.\Generated_Source\PSoC4/CyLib.c ****     }
1063:.\Generated_Source\PSoC4/CyLib.c **** 
1064:.\Generated_Source\PSoC4/CyLib.c ****     #if (CY_IP_ECO_BLESS)
1065:.\Generated_Source\PSoC4/CyLib.c ****         /*******************************************************************************
1066:.\Generated_Source\PSoC4/CyLib.c ****         * Function Name: CySysClkWriteEcoDiv
1067:.\Generated_Source\PSoC4/CyLib.c ****         ********************************************************************************
ARM GAS  C:\Users\kylep\AppData\Local\Temp\ccAJ1He0.s 			page 31


1068:.\Generated_Source\PSoC4/CyLib.c ****         *
1069:.\Generated_Source\PSoC4/CyLib.c ****         * Summary:
1070:.\Generated_Source\PSoC4/CyLib.c ****         *  Selects value for the ECO divider.
1071:.\Generated_Source\PSoC4/CyLib.c ****         *
1072:.\Generated_Source\PSoC4/CyLib.c ****         *  The ECO must not be the HFCLK clock source when this function is called.
1073:.\Generated_Source\PSoC4/CyLib.c ****         *  The HFCLK source can be changed to the other clock source by call to the
1074:.\Generated_Source\PSoC4/CyLib.c ****         *  CySysClkWriteHfclkDirect() function. If the ECO sources the HFCLK this
1075:.\Generated_Source\PSoC4/CyLib.c ****         *  function will not have any effect if compiler in release mode, and halt the
1076:.\Generated_Source\PSoC4/CyLib.c ****         *  CPU when compiler in debug mode.
1077:.\Generated_Source\PSoC4/CyLib.c ****         *
1078:.\Generated_Source\PSoC4/CyLib.c ****         * Parameters:
1079:.\Generated_Source\PSoC4/CyLib.c ****         *  divider: Power of 2 divider selection.
1080:.\Generated_Source\PSoC4/CyLib.c ****         *
1081:.\Generated_Source\PSoC4/CyLib.c ****         *   Define                        Description
1082:.\Generated_Source\PSoC4/CyLib.c ****         *   CY_SYS_CLK_ECO_DIV1             HFCLK = ECO / 1
1083:.\Generated_Source\PSoC4/CyLib.c ****         *   CY_SYS_CLK_ECO_DIV2             HFCLK = ECO / 2
1084:.\Generated_Source\PSoC4/CyLib.c ****         *   CY_SYS_CLK_ECO_DIV4             HFCLK = ECO / 4
1085:.\Generated_Source\PSoC4/CyLib.c ****         *   CY_SYS_CLK_ECO_DIV8             HFCLK = ECO / 8
1086:.\Generated_Source\PSoC4/CyLib.c ****         *
1087:.\Generated_Source\PSoC4/CyLib.c ****         * Return:
1088:.\Generated_Source\PSoC4/CyLib.c ****         *  None
1089:.\Generated_Source\PSoC4/CyLib.c ****         *
1090:.\Generated_Source\PSoC4/CyLib.c ****         * Side Effects:
1091:.\Generated_Source\PSoC4/CyLib.c ****         *  If the SYSCLK clock frequency increases during the device operation, call
1092:.\Generated_Source\PSoC4/CyLib.c ****         *  CySysFlashSetWaitCycles() with the appropriate parameter to adjust the number
1093:.\Generated_Source\PSoC4/CyLib.c ****         *  of clock cycles the cache will wait before sampling data comes back from
1094:.\Generated_Source\PSoC4/CyLib.c ****         *  Flash. If the SYSCLK clock frequency decreases, you can call
1095:.\Generated_Source\PSoC4/CyLib.c ****         *  CySysFlashSetWaitCycles() to improve the CPU performance. See
1096:.\Generated_Source\PSoC4/CyLib.c ****         *  CySysFlashSetWaitCycles() description for more information.
1097:.\Generated_Source\PSoC4/CyLib.c ****         *
1098:.\Generated_Source\PSoC4/CyLib.c ****         *******************************************************************************/
1099:.\Generated_Source\PSoC4/CyLib.c ****         void CySysClkWriteEcoDiv(uint32 divider)
1100:.\Generated_Source\PSoC4/CyLib.c ****         {
1101:.\Generated_Source\PSoC4/CyLib.c ****             uint8  interruptState;
1102:.\Generated_Source\PSoC4/CyLib.c **** 
1103:.\Generated_Source\PSoC4/CyLib.c ****             if (CY_SYS_CLK_HFCLK_ECO != (CY_SYS_CLK_SELECT_REG & CY_SYS_CLK_SELECT_DIRECT_SEL_MASK)
1104:.\Generated_Source\PSoC4/CyLib.c ****             {
1105:.\Generated_Source\PSoC4/CyLib.c ****                 interruptState = CyEnterCriticalSection();
1106:.\Generated_Source\PSoC4/CyLib.c **** 
1107:.\Generated_Source\PSoC4/CyLib.c ****                 CY_SYS_CLK_XTAL_CLK_DIV_CONFIG_REG =  (divider & CY_SYS_CLK_XTAL_CLK_DIV_MASK) |
1108:.\Generated_Source\PSoC4/CyLib.c ****                                                       (CY_SYS_CLK_XTAL_CLK_DIV_CONFIG_REG & ((uint3
1109:.\Generated_Source\PSoC4/CyLib.c **** 
1110:.\Generated_Source\PSoC4/CyLib.c ****                 CyExitCriticalSection(interruptState);
1111:.\Generated_Source\PSoC4/CyLib.c ****             }
1112:.\Generated_Source\PSoC4/CyLib.c ****             else
1113:.\Generated_Source\PSoC4/CyLib.c ****             {
1114:.\Generated_Source\PSoC4/CyLib.c ****                 /* Halt CPU in debug mode if ECO sources HFCLK */
1115:.\Generated_Source\PSoC4/CyLib.c ****                 CYASSERT(0u != 0u);
1116:.\Generated_Source\PSoC4/CyLib.c ****             }
1117:.\Generated_Source\PSoC4/CyLib.c ****         }
1118:.\Generated_Source\PSoC4/CyLib.c **** 
1119:.\Generated_Source\PSoC4/CyLib.c ****     #else
1120:.\Generated_Source\PSoC4/CyLib.c **** 
1121:.\Generated_Source\PSoC4/CyLib.c ****         /*******************************************************************************
1122:.\Generated_Source\PSoC4/CyLib.c ****         * Function Name: CySysClkConfigureEcoTrim
1123:.\Generated_Source\PSoC4/CyLib.c ****         ********************************************************************************
1124:.\Generated_Source\PSoC4/CyLib.c ****         *
ARM GAS  C:\Users\kylep\AppData\Local\Temp\ccAJ1He0.s 			page 32


1125:.\Generated_Source\PSoC4/CyLib.c ****         * Summary:
1126:.\Generated_Source\PSoC4/CyLib.c ****         *  Selects trim setting values for ECO. This API is available only for PSoC
1127:.\Generated_Source\PSoC4/CyLib.c ****         *  4200L devices only.
1128:.\Generated_Source\PSoC4/CyLib.c ****         *
1129:.\Generated_Source\PSoC4/CyLib.c ****         *  The following parameters can be trimmed for ECO. The affected registers are
1130:.\Generated_Source\PSoC4/CyLib.c ****         *  ECO_TRIM0 and ECO_TRIM1.
1131:.\Generated_Source\PSoC4/CyLib.c ****         *
1132:.\Generated_Source\PSoC4/CyLib.c ****         *  Watchdog trim - This bit field sets the error threshold below the steady
1133:.\Generated_Source\PSoC4/CyLib.c ****         *  state amplitude level.
1134:.\Generated_Source\PSoC4/CyLib.c ****         *
1135:.\Generated_Source\PSoC4/CyLib.c ****         *  Amplitude trim - This bit field is to set the crystal drive level when
1136:.\Generated_Source\PSoC4/CyLib.c ****         *  ECO_CONFIG.AGC_EN = 1. WARNING: use care when setting this field because
1137:.\Generated_Source\PSoC4/CyLib.c ****         *  driving a crystal beyond its rated limit can permanently damage the crystal.
1138:.\Generated_Source\PSoC4/CyLib.c ****         *
1139:.\Generated_Source\PSoC4/CyLib.c ****         *  Filter frequency trim - This bit field sets LPF frequency trim and affects
1140:.\Generated_Source\PSoC4/CyLib.c ****         *  the 3rd harmonic content.
1141:.\Generated_Source\PSoC4/CyLib.c ****         *
1142:.\Generated_Source\PSoC4/CyLib.c ****         *  Feedback resistor trim - This bit field sets the feedback resistor trim and
1143:.\Generated_Source\PSoC4/CyLib.c ****         *  impacts the oscillation amplitude.
1144:.\Generated_Source\PSoC4/CyLib.c ****         *
1145:.\Generated_Source\PSoC4/CyLib.c ****         *  Amplifier gain trim - This bit field sets the amplifier gain trim and affects
1146:.\Generated_Source\PSoC4/CyLib.c ****         *  the startup time of the crystal.
1147:.\Generated_Source\PSoC4/CyLib.c ****         *
1148:.\Generated_Source\PSoC4/CyLib.c ****         * Parameters:
1149:.\Generated_Source\PSoC4/CyLib.c ****         *  wDTrim: Watchdog trim
1150:.\Generated_Source\PSoC4/CyLib.c ****         *       Parameter                   Value Description
1151:.\Generated_Source\PSoC4/CyLib.c ****         *   CY_SYS_CLK_ECO_WDTRIM0      Error threshold is 0.05 V
1152:.\Generated_Source\PSoC4/CyLib.c ****         *   CY_SYS_CLK_ECO_WDTRIM1      Error threshold is 0.10 V
1153:.\Generated_Source\PSoC4/CyLib.c ****         *   CY_SYS_CLK_ECO_WDTRIM2      Error threshold is 0.15 V
1154:.\Generated_Source\PSoC4/CyLib.c ****         *   CY_SYS_CLK_ECO_WDTRIM3      Error threshold is 0.20 V
1155:.\Generated_Source\PSoC4/CyLib.c ****         *
1156:.\Generated_Source\PSoC4/CyLib.c ****         *  aTrim: Amplitude trim
1157:.\Generated_Source\PSoC4/CyLib.c ****         *       Parameter                   Value Description
1158:.\Generated_Source\PSoC4/CyLib.c ****         *   CY_SYS_CLK_ECO_ATRIM0       Amplitude is 0.3 Vpp
1159:.\Generated_Source\PSoC4/CyLib.c ****         *   CY_SYS_CLK_ECO_ATRIM1       Amplitude is 0.4 Vpp
1160:.\Generated_Source\PSoC4/CyLib.c ****         *   CY_SYS_CLK_ECO_ATRIM2       Amplitude is 0.5 Vpp
1161:.\Generated_Source\PSoC4/CyLib.c ****         *   CY_SYS_CLK_ECO_ATRIM3       Amplitude is 0.6 Vpp
1162:.\Generated_Source\PSoC4/CyLib.c ****         *   CY_SYS_CLK_ECO_ATRIM4       Amplitude is 0.7 Vpp
1163:.\Generated_Source\PSoC4/CyLib.c ****         *   CY_SYS_CLK_ECO_ATRIM5       Amplitude is 0.8 Vpp
1164:.\Generated_Source\PSoC4/CyLib.c ****         *   CY_SYS_CLK_ECO_ATRIM6       Amplitude is 0.9 Vpp
1165:.\Generated_Source\PSoC4/CyLib.c ****         *   CY_SYS_CLK_ECO_ATRIM7       Amplitude is 1.0 Vpp
1166:.\Generated_Source\PSoC4/CyLib.c ****         *
1167:.\Generated_Source\PSoC4/CyLib.c ****         *  fTrim: Filter frequency trim
1168:.\Generated_Source\PSoC4/CyLib.c ****         *       Parameter                   Value Description
1169:.\Generated_Source\PSoC4/CyLib.c ****         *   CY_SYS_CLK_ECO_FTRIM0       Crystal frequency > 30 MHz
1170:.\Generated_Source\PSoC4/CyLib.c ****         *   CY_SYS_CLK_ECO_FTRIM1       24 MHz < Crystal frequency <= 30 MHz
1171:.\Generated_Source\PSoC4/CyLib.c ****         *   CY_SYS_CLK_ECO_FTRIM2       17 MHz < Crystal frequency <= 24 MHz
1172:.\Generated_Source\PSoC4/CyLib.c ****         *   CY_SYS_CLK_ECO_FTRIM3       Crystal frequency <= 17 MHz
1173:.\Generated_Source\PSoC4/CyLib.c ****         *
1174:.\Generated_Source\PSoC4/CyLib.c ****         *  rTrim: Feedback resistor trim
1175:.\Generated_Source\PSoC4/CyLib.c ****         *       Parameter                   Value Description
1176:.\Generated_Source\PSoC4/CyLib.c ****         *   CY_SYS_CLK_ECO_RTRIM0       Crystal frequency > 30 MHz
1177:.\Generated_Source\PSoC4/CyLib.c ****         *   CY_SYS_CLK_ECO_RTRIM1       24 MHz < Crystal frequency <= 30 MHz
1178:.\Generated_Source\PSoC4/CyLib.c ****         *   CY_SYS_CLK_ECO_RTRIM2       17 MHz < Crystal frequency <= 24 MHz
1179:.\Generated_Source\PSoC4/CyLib.c ****         *   CY_SYS_CLK_ECO_RTRIM3       Crystal frequency <= 17 MHz        *
1180:.\Generated_Source\PSoC4/CyLib.c ****         *
1181:.\Generated_Source\PSoC4/CyLib.c ****         *  gTrim: Amplifier gain trim. Calculate the minimum required gm
ARM GAS  C:\Users\kylep\AppData\Local\Temp\ccAJ1He0.s 			page 33


1182:.\Generated_Source\PSoC4/CyLib.c ****         *         (trans-conductance value). Divide the calculated gm value by
1183:.\Generated_Source\PSoC4/CyLib.c ****         *         4.5 to obtain an integer value 'result'. For more information
1184:.\Generated_Source\PSoC4/CyLib.c ****         *         please refer to the device TRM.
1185:.\Generated_Source\PSoC4/CyLib.c ****         *       Parameter                   Value Description
1186:.\Generated_Source\PSoC4/CyLib.c ****         *   CY_SYS_CLK_ECO_GTRIM0       If result = 1
1187:.\Generated_Source\PSoC4/CyLib.c ****         *   CY_SYS_CLK_ECO_GTRIM1       If result = 0
1188:.\Generated_Source\PSoC4/CyLib.c ****         *   CY_SYS_CLK_ECO_GTRIM2       If result = 2
1189:.\Generated_Source\PSoC4/CyLib.c ****         *   CY_SYS_CLK_ECO_GTRIM2       If result = 3
1190:.\Generated_Source\PSoC4/CyLib.c **** 
1191:.\Generated_Source\PSoC4/CyLib.c ****         * Return:
1192:.\Generated_Source\PSoC4/CyLib.c ****         *  None
1193:.\Generated_Source\PSoC4/CyLib.c ****         *
1194:.\Generated_Source\PSoC4/CyLib.c ****         * Side Effects:
1195:.\Generated_Source\PSoC4/CyLib.c ****         *  Use care when setting the amplitude trim field because driving a crystal
1196:.\Generated_Source\PSoC4/CyLib.c ****         *  beyond its rated limit can permanently damage the crystal.
1197:.\Generated_Source\PSoC4/CyLib.c ****         *******************************************************************************/
1198:.\Generated_Source\PSoC4/CyLib.c ****         void CySysClkConfigureEcoTrim(uint32 wDTrim, uint32 aTrim, uint32 fTrim, uint32 rTrim, uint
1199:.\Generated_Source\PSoC4/CyLib.c ****         {
1200:.\Generated_Source\PSoC4/CyLib.c ****             uint8  interruptState;
1201:.\Generated_Source\PSoC4/CyLib.c ****             uint32 regTmp;
1202:.\Generated_Source\PSoC4/CyLib.c **** 
1203:.\Generated_Source\PSoC4/CyLib.c ****             interruptState = CyEnterCriticalSection();
1204:.\Generated_Source\PSoC4/CyLib.c **** 
1205:.\Generated_Source\PSoC4/CyLib.c ****             regTmp  = CY_SYS_CLK_ECO_TRIM0_REG & ~(CY_SYS_CLK_ECO_TRIM0_WDTRIM_MASK | CY_SYS_CLK_EC
1206:.\Generated_Source\PSoC4/CyLib.c ****             regTmp |= ((uint32) (wDTrim << CY_SYS_CLK_ECO_TRIM0_WDTRIM_SHIFT) & CY_SYS_CLK_ECO_TRIM
1207:.\Generated_Source\PSoC4/CyLib.c ****             regTmp |= ((uint32) (aTrim << CY_SYS_CLK_ECO_TRIM0_ATRIM_SHIFT) & CY_SYS_CLK_ECO_TRIM0_
1208:.\Generated_Source\PSoC4/CyLib.c ****             CY_SYS_CLK_ECO_TRIM0_REG = regTmp;
1209:.\Generated_Source\PSoC4/CyLib.c **** 
1210:.\Generated_Source\PSoC4/CyLib.c ****             regTmp  = CY_SYS_CLK_ECO_TRIM1_REG & ~(CY_SYS_CLK_ECO_TRIM1_FTRIM_MASK |
1211:.\Generated_Source\PSoC4/CyLib.c ****                                                    CY_SYS_CLK_ECO_TRIM1_RTRIM_MASK |
1212:.\Generated_Source\PSoC4/CyLib.c ****                                                    CY_SYS_CLK_ECO_TRIM1_GTRIM_MASK);
1213:.\Generated_Source\PSoC4/CyLib.c ****             regTmp |= ((uint32) (fTrim << CY_SYS_CLK_ECO_TRIM1_FTRIM_SHIFT) & CY_SYS_CLK_ECO_TRIM1_
1214:.\Generated_Source\PSoC4/CyLib.c ****             regTmp |= ((uint32) (rTrim << CY_SYS_CLK_ECO_TRIM1_RTRIM_SHIFT) & CY_SYS_CLK_ECO_TRIM1_
1215:.\Generated_Source\PSoC4/CyLib.c ****             regTmp |= ((uint32) (gTrim << CY_SYS_CLK_ECO_TRIM1_GTRIM_SHIFT) & CY_SYS_CLK_ECO_TRIM1_
1216:.\Generated_Source\PSoC4/CyLib.c **** 
1217:.\Generated_Source\PSoC4/CyLib.c ****             CY_SYS_CLK_ECO_TRIM1_REG = regTmp;
1218:.\Generated_Source\PSoC4/CyLib.c **** 
1219:.\Generated_Source\PSoC4/CyLib.c ****             CyExitCriticalSection(interruptState);
1220:.\Generated_Source\PSoC4/CyLib.c ****         }
1221:.\Generated_Source\PSoC4/CyLib.c **** 
1222:.\Generated_Source\PSoC4/CyLib.c **** 
1223:.\Generated_Source\PSoC4/CyLib.c ****         /*******************************************************************************
1224:.\Generated_Source\PSoC4/CyLib.c ****         * Function Name: CySysClkConfigureEcoDrive
1225:.\Generated_Source\PSoC4/CyLib.c ****         ********************************************************************************
1226:.\Generated_Source\PSoC4/CyLib.c ****         *
1227:.\Generated_Source\PSoC4/CyLib.c ****         * Summary:
1228:.\Generated_Source\PSoC4/CyLib.c ****         *  Selects trim setting values for ECO based on crystal parameters. Use care
1229:.\Generated_Source\PSoC4/CyLib.c ****         *  when setting the driveLevel parameter because driving a crystal beyond its
1230:.\Generated_Source\PSoC4/CyLib.c ****         *  rated limit can permanently damage the crystal.
1231:.\Generated_Source\PSoC4/CyLib.c ****         *
1232:.\Generated_Source\PSoC4/CyLib.c ****         *  This API is available only for PSoC 4200L devices only.
1233:.\Generated_Source\PSoC4/CyLib.c ****         *
1234:.\Generated_Source\PSoC4/CyLib.c ****         * Parameters:
1235:.\Generated_Source\PSoC4/CyLib.c ****         *  freq: frequency of the crystal in kHz.
1236:.\Generated_Source\PSoC4/CyLib.c ****         *  cLoad: crystal load capacitance in pF.
1237:.\Generated_Source\PSoC4/CyLib.c ****         *  esr: equivalent series resistance of the crystal in ohm.
1238:.\Generated_Source\PSoC4/CyLib.c ****         *  maxAmplitude: maximum amplitude level in mV. Calculate as
ARM GAS  C:\Users\kylep\AppData\Local\Temp\ccAJ1He0.s 			page 34


1239:.\Generated_Source\PSoC4/CyLib.c ****         *  ((sqrt(driveLevel in uW / 2 / esr))/(3.14 * freq * cLoad)) * 10^9.
1240:.\Generated_Source\PSoC4/CyLib.c ****         *
1241:.\Generated_Source\PSoC4/CyLib.c ****         *  The Automatic Gain Control (AGC) is disabled when the specified maximum
1242:.\Generated_Source\PSoC4/CyLib.c ****         *  amplitude level equals or above 2. In this case the amplitude is not
1243:.\Generated_Source\PSoC4/CyLib.c ****         *  explicitly controlled and will grow until it saturates to the supply rail
1244:.\Generated_Source\PSoC4/CyLib.c ****         *  (1.8V nom). WARNING: use care when disabling AGC because driving a crystal
1245:.\Generated_Source\PSoC4/CyLib.c ****         *  beyond its rated limit can permanently damage the crystal.
1246:.\Generated_Source\PSoC4/CyLib.c ****         *
1247:.\Generated_Source\PSoC4/CyLib.c ****         * Return:
1248:.\Generated_Source\PSoC4/CyLib.c ****         *  status:
1249:.\Generated_Source\PSoC4/CyLib.c ****         *  CYRET_SUCCESS - ECO configuration completed successfully.
1250:.\Generated_Source\PSoC4/CyLib.c ****         *  CYRET_BAD_PARAM - One or more invalid parameters
1251:.\Generated_Source\PSoC4/CyLib.c ****         *
1252:.\Generated_Source\PSoC4/CyLib.c ****         *******************************************************************************/
1253:.\Generated_Source\PSoC4/CyLib.c ****         cystatus CySysClkConfigureEcoDrive(uint32 freq, uint32 cLoad, uint32 esr, uint32 maxAmplitu
1254:.\Generated_Source\PSoC4/CyLib.c ****         {
1255:.\Generated_Source\PSoC4/CyLib.c ****             cystatus returnStatus = CYRET_SUCCESS;
1256:.\Generated_Source\PSoC4/CyLib.c **** 
1257:.\Generated_Source\PSoC4/CyLib.c ****             uint32 wDTrim;
1258:.\Generated_Source\PSoC4/CyLib.c ****             uint32 aTrim;
1259:.\Generated_Source\PSoC4/CyLib.c ****             uint32 fTrim;
1260:.\Generated_Source\PSoC4/CyLib.c ****             uint32 rTrim;
1261:.\Generated_Source\PSoC4/CyLib.c ****             uint32 gTrim;
1262:.\Generated_Source\PSoC4/CyLib.c **** 
1263:.\Generated_Source\PSoC4/CyLib.c ****             uint32 gmMin;
1264:.\Generated_Source\PSoC4/CyLib.c **** 
1265:.\Generated_Source\PSoC4/CyLib.c **** 
1266:.\Generated_Source\PSoC4/CyLib.c ****             if ((maxAmplitude < CY_SYS_CLK_ECO_MAX_AMPL_MIN_mV) ||
1267:.\Generated_Source\PSoC4/CyLib.c ****                 (freq < CY_SYS_CLK_ECO_FREQ_KHZ_MIN) || (freq > CY_SYS_CLK_ECO_FREQ_KHZ_MAX))
1268:.\Generated_Source\PSoC4/CyLib.c ****             {
1269:.\Generated_Source\PSoC4/CyLib.c ****                 returnStatus = CYRET_BAD_PARAM;
1270:.\Generated_Source\PSoC4/CyLib.c ****             }
1271:.\Generated_Source\PSoC4/CyLib.c ****             else
1272:.\Generated_Source\PSoC4/CyLib.c ****             {
1273:.\Generated_Source\PSoC4/CyLib.c ****                 /* Calculate amplitude trim */
1274:.\Generated_Source\PSoC4/CyLib.c ****                 aTrim = (maxAmplitude < CY_SYS_CLK_ECO_TRIM_BOUNDARY) ? ((maxAmplitude/100u) - 4u) 
1275:.\Generated_Source\PSoC4/CyLib.c **** 
1276:.\Generated_Source\PSoC4/CyLib.c ****                 if (maxAmplitude < CY_SYS_CLK_ECO_AMPL_FOR_ATRIM0)
1277:.\Generated_Source\PSoC4/CyLib.c ****                 {
1278:.\Generated_Source\PSoC4/CyLib.c ****                     aTrim = CY_SYS_CLK_ECO_ATRIM0;
1279:.\Generated_Source\PSoC4/CyLib.c ****                 }
1280:.\Generated_Source\PSoC4/CyLib.c ****                 else if (maxAmplitude < CY_SYS_CLK_ECO_AMPL_FOR_ATRIM1)
1281:.\Generated_Source\PSoC4/CyLib.c ****                 {
1282:.\Generated_Source\PSoC4/CyLib.c ****                     aTrim = CY_SYS_CLK_ECO_ATRIM1;
1283:.\Generated_Source\PSoC4/CyLib.c ****                 }
1284:.\Generated_Source\PSoC4/CyLib.c ****                 else if (maxAmplitude < CY_SYS_CLK_ECO_AMPL_FOR_ATRIM2)
1285:.\Generated_Source\PSoC4/CyLib.c ****                 {
1286:.\Generated_Source\PSoC4/CyLib.c ****                     aTrim = CY_SYS_CLK_ECO_ATRIM2;
1287:.\Generated_Source\PSoC4/CyLib.c ****                 }
1288:.\Generated_Source\PSoC4/CyLib.c ****                 else if (maxAmplitude < CY_SYS_CLK_ECO_AMPL_FOR_ATRIM3)
1289:.\Generated_Source\PSoC4/CyLib.c ****                 {
1290:.\Generated_Source\PSoC4/CyLib.c ****                     aTrim = CY_SYS_CLK_ECO_ATRIM3;
1291:.\Generated_Source\PSoC4/CyLib.c ****                 }
1292:.\Generated_Source\PSoC4/CyLib.c ****                 else if (maxAmplitude < CY_SYS_CLK_ECO_AMPL_FOR_ATRIM4)
1293:.\Generated_Source\PSoC4/CyLib.c ****                 {
1294:.\Generated_Source\PSoC4/CyLib.c ****                     aTrim = CY_SYS_CLK_ECO_ATRIM4;
1295:.\Generated_Source\PSoC4/CyLib.c ****                 }
ARM GAS  C:\Users\kylep\AppData\Local\Temp\ccAJ1He0.s 			page 35


1296:.\Generated_Source\PSoC4/CyLib.c ****                 else if (maxAmplitude < CY_SYS_CLK_ECO_AMPL_FOR_ATRIM5)
1297:.\Generated_Source\PSoC4/CyLib.c ****                 {
1298:.\Generated_Source\PSoC4/CyLib.c ****                     aTrim = CY_SYS_CLK_ECO_ATRIM5;
1299:.\Generated_Source\PSoC4/CyLib.c ****                 }
1300:.\Generated_Source\PSoC4/CyLib.c ****                 else if (maxAmplitude < CY_SYS_CLK_ECO_AMPL_FOR_ATRIM6)
1301:.\Generated_Source\PSoC4/CyLib.c ****                 {
1302:.\Generated_Source\PSoC4/CyLib.c ****                     aTrim = CY_SYS_CLK_ECO_ATRIM6;
1303:.\Generated_Source\PSoC4/CyLib.c ****                 }
1304:.\Generated_Source\PSoC4/CyLib.c ****                 else
1305:.\Generated_Source\PSoC4/CyLib.c ****                 {
1306:.\Generated_Source\PSoC4/CyLib.c ****                     aTrim = CY_SYS_CLK_ECO_ATRIM7;
1307:.\Generated_Source\PSoC4/CyLib.c ****                 }
1308:.\Generated_Source\PSoC4/CyLib.c **** 
1309:.\Generated_Source\PSoC4/CyLib.c ****                 /* Calculate Watchdog trim. */
1310:.\Generated_Source\PSoC4/CyLib.c ****                 wDTrim = (maxAmplitude < CY_SYS_CLK_ECO_TRIM_BOUNDARY) ? ((maxAmplitude/200u) - 2u)
1311:.\Generated_Source\PSoC4/CyLib.c **** 
1312:.\Generated_Source\PSoC4/CyLib.c ****                 /* Calculate amplifier gain trim. */
1313:.\Generated_Source\PSoC4/CyLib.c ****                 gmMin = (uint32) (((((CY_SYS_CLK_ECO_GMMIN_COEFFICIENT * freq * cLoad) / 1000) * ((
1314:.\Generated_Source\PSoC4/CyLib.c ****                 if (gmMin > 3u)
1315:.\Generated_Source\PSoC4/CyLib.c ****                 {
1316:.\Generated_Source\PSoC4/CyLib.c ****                     returnStatus = CYRET_BAD_PARAM;
1317:.\Generated_Source\PSoC4/CyLib.c ****                     gTrim = 0u;
1318:.\Generated_Source\PSoC4/CyLib.c ****                 }
1319:.\Generated_Source\PSoC4/CyLib.c ****                 else if (gmMin > 1u)
1320:.\Generated_Source\PSoC4/CyLib.c ****                 {
1321:.\Generated_Source\PSoC4/CyLib.c ****                     gTrim = gmMin;
1322:.\Generated_Source\PSoC4/CyLib.c ****                 }
1323:.\Generated_Source\PSoC4/CyLib.c ****                 else
1324:.\Generated_Source\PSoC4/CyLib.c ****                 {
1325:.\Generated_Source\PSoC4/CyLib.c ****                     gTrim = (gmMin == 1u) ? 0u : 1u;
1326:.\Generated_Source\PSoC4/CyLib.c ****                 }
1327:.\Generated_Source\PSoC4/CyLib.c **** 
1328:.\Generated_Source\PSoC4/CyLib.c ****                 /* Calculate feedback resistor trim */
1329:.\Generated_Source\PSoC4/CyLib.c ****                 if (freq > CY_SYS_CLK_ECO_FREQ_FOR_FTRIM0)
1330:.\Generated_Source\PSoC4/CyLib.c ****                 {
1331:.\Generated_Source\PSoC4/CyLib.c ****                     rTrim = CY_SYS_CLK_ECO_FTRIM0;
1332:.\Generated_Source\PSoC4/CyLib.c ****                 }
1333:.\Generated_Source\PSoC4/CyLib.c ****                 else if (freq > CY_SYS_CLK_ECO_FREQ_FOR_FTRIM1)
1334:.\Generated_Source\PSoC4/CyLib.c ****                 {
1335:.\Generated_Source\PSoC4/CyLib.c ****                     rTrim = CY_SYS_CLK_ECO_FTRIM1;
1336:.\Generated_Source\PSoC4/CyLib.c ****                 }
1337:.\Generated_Source\PSoC4/CyLib.c ****                 else if (freq > CY_SYS_CLK_ECO_FREQ_FOR_FTRIM2)
1338:.\Generated_Source\PSoC4/CyLib.c ****                 {
1339:.\Generated_Source\PSoC4/CyLib.c ****                     rTrim = CY_SYS_CLK_ECO_FTRIM2;
1340:.\Generated_Source\PSoC4/CyLib.c ****                 }
1341:.\Generated_Source\PSoC4/CyLib.c ****                 else
1342:.\Generated_Source\PSoC4/CyLib.c ****                 {
1343:.\Generated_Source\PSoC4/CyLib.c ****                     rTrim = CY_SYS_CLK_ECO_FTRIM3;
1344:.\Generated_Source\PSoC4/CyLib.c ****                 }
1345:.\Generated_Source\PSoC4/CyLib.c **** 
1346:.\Generated_Source\PSoC4/CyLib.c ****                 /* Calculate filter frequency trim */
1347:.\Generated_Source\PSoC4/CyLib.c ****                 fTrim = rTrim;
1348:.\Generated_Source\PSoC4/CyLib.c **** 
1349:.\Generated_Source\PSoC4/CyLib.c ****                 CySysClkConfigureEcoTrim(wDTrim, aTrim, fTrim, rTrim, gTrim);
1350:.\Generated_Source\PSoC4/CyLib.c **** 
1351:.\Generated_Source\PSoC4/CyLib.c ****                 /* Automatic Gain Control (AGC) enable */
1352:.\Generated_Source\PSoC4/CyLib.c ****                 if (maxAmplitude < 2u)
ARM GAS  C:\Users\kylep\AppData\Local\Temp\ccAJ1He0.s 			page 36


1353:.\Generated_Source\PSoC4/CyLib.c ****                 {
1354:.\Generated_Source\PSoC4/CyLib.c ****                     /* The oscillation amplitude is controlled to the level selected by amplitude t
1355:.\Generated_Source\PSoC4/CyLib.c ****                     CY_SYS_CLK_ECO_CONFIG_REG |= CY_SYS_CLK_ECO_CONFIG_AGC_EN;
1356:.\Generated_Source\PSoC4/CyLib.c ****                 }
1357:.\Generated_Source\PSoC4/CyLib.c ****                 else
1358:.\Generated_Source\PSoC4/CyLib.c ****                 {
1359:.\Generated_Source\PSoC4/CyLib.c ****                     /* The amplitude is not explicitly controlled and will grow until it saturates 
1360:.\Generated_Source\PSoC4/CyLib.c ****                     * supply rail (1.8V nom).
1361:.\Generated_Source\PSoC4/CyLib.c ****                     */
1362:.\Generated_Source\PSoC4/CyLib.c ****                     CY_SYS_CLK_ECO_CONFIG_REG &= (uint32) ~CY_SYS_CLK_ECO_CONFIG_AGC_EN;
1363:.\Generated_Source\PSoC4/CyLib.c ****                 }
1364:.\Generated_Source\PSoC4/CyLib.c ****             }
1365:.\Generated_Source\PSoC4/CyLib.c **** 
1366:.\Generated_Source\PSoC4/CyLib.c ****             return (returnStatus);
1367:.\Generated_Source\PSoC4/CyLib.c ****         }
1368:.\Generated_Source\PSoC4/CyLib.c **** 
1369:.\Generated_Source\PSoC4/CyLib.c ****     #endif /* CY_IP_ECO_BLESS */
1370:.\Generated_Source\PSoC4/CyLib.c **** 
1371:.\Generated_Source\PSoC4/CyLib.c **** #endif /* (CY_IP_ECO) */
1372:.\Generated_Source\PSoC4/CyLib.c **** 
1373:.\Generated_Source\PSoC4/CyLib.c **** 
1374:.\Generated_Source\PSoC4/CyLib.c **** #if (CY_IP_SRSSV2 && CY_IP_PLL)
1375:.\Generated_Source\PSoC4/CyLib.c ****     /*******************************************************************************
1376:.\Generated_Source\PSoC4/CyLib.c ****     * Function Name: CySysClkPllStart
1377:.\Generated_Source\PSoC4/CyLib.c ****     ********************************************************************************
1378:.\Generated_Source\PSoC4/CyLib.c ****     *
1379:.\Generated_Source\PSoC4/CyLib.c ****     * Summary:
1380:.\Generated_Source\PSoC4/CyLib.c ****     *  Enables the PLL. Optionally waits for it to become stable. Waits at least
1381:.\Generated_Source\PSoC4/CyLib.c ****     *  250 us or until it is detected that the PLL is stable.
1382:.\Generated_Source\PSoC4/CyLib.c ****     *
1383:.\Generated_Source\PSoC4/CyLib.c ****     *  Clears the unlock occurred status bit by calling CySysClkPllGetUnlockStatus(),
1384:.\Generated_Source\PSoC4/CyLib.c ****     *  once the PLL is locked if the wait parameter is 1).
1385:.\Generated_Source\PSoC4/CyLib.c ****     *
1386:.\Generated_Source\PSoC4/CyLib.c ****     *  This API is available only for PSoC 4200L devices.
1387:.\Generated_Source\PSoC4/CyLib.c ****     *
1388:.\Generated_Source\PSoC4/CyLib.c ****     * Parameters:
1389:.\Generated_Source\PSoC4/CyLib.c ****     *  PLL:
1390:.\Generated_Source\PSoC4/CyLib.c ****     *  0   PLL#0
1391:.\Generated_Source\PSoC4/CyLib.c ****     *  1   PLL#1
1392:.\Generated_Source\PSoC4/CyLib.c ****     *
1393:.\Generated_Source\PSoC4/CyLib.c ****     *  wait:
1394:.\Generated_Source\PSoC4/CyLib.c ****     *  0 - Return immediately after configuration.
1395:.\Generated_Source\PSoC4/CyLib.c ****     *  1 - Wait for PLL lock or timeout. This API shall use the CyDelayUs() to
1396:.\Generated_Source\PSoC4/CyLib.c ****     *  implement the timeout feature.
1397:.\Generated_Source\PSoC4/CyLib.c ****     *
1398:.\Generated_Source\PSoC4/CyLib.c ****     * Return:
1399:.\Generated_Source\PSoC4/CyLib.c ****     *  CYRET_SUCCESS - Completed successfully.
1400:.\Generated_Source\PSoC4/CyLib.c ****     *
1401:.\Generated_Source\PSoC4/CyLib.c ****     *  CYRET_TIMEOUT - The timeout occurred without detecting a stable clock.  If the
1402:.\Generated_Source\PSoC4/CyLib.c ****     *  input source of the clock is jittery, then the lock indication may not occur.
1403:.\Generated_Source\PSoC4/CyLib.c ****     *  However, after the timeout has expired, the generated PLL clock can still be
1404:.\Generated_Source\PSoC4/CyLib.c ****     *  used.
1405:.\Generated_Source\PSoC4/CyLib.c ****     *
1406:.\Generated_Source\PSoC4/CyLib.c ****     *  CYRET_BAD_PARAM - Either the PLL or wait parameter is invalid.
1407:.\Generated_Source\PSoC4/CyLib.c ****     *
1408:.\Generated_Source\PSoC4/CyLib.c ****     *******************************************************************************/
1409:.\Generated_Source\PSoC4/CyLib.c ****     cystatus CySysClkPllStart(uint32 pll, uint32 wait)
ARM GAS  C:\Users\kylep\AppData\Local\Temp\ccAJ1He0.s 			page 37


1410:.\Generated_Source\PSoC4/CyLib.c ****     {
1411:.\Generated_Source\PSoC4/CyLib.c ****         uint32 counts = CY_SYS_CLK_PLL_MAX_STARTUP_US;
1412:.\Generated_Source\PSoC4/CyLib.c ****         uint8  interruptState;
1413:.\Generated_Source\PSoC4/CyLib.c ****         cystatus returnStatus = CYRET_SUCCESS;
1414:.\Generated_Source\PSoC4/CyLib.c **** 
1415:.\Generated_Source\PSoC4/CyLib.c ****         if((pll < CY_IP_PLL_NR) && (wait <= 1u))
1416:.\Generated_Source\PSoC4/CyLib.c ****         {
1417:.\Generated_Source\PSoC4/CyLib.c ****             interruptState = CyEnterCriticalSection();
1418:.\Generated_Source\PSoC4/CyLib.c **** 
1419:.\Generated_Source\PSoC4/CyLib.c ****             /* Isolate PLL outputs */
1420:.\Generated_Source\PSoC4/CyLib.c ****             CY_SYS_CLK_PLL_BASE.pll[pll].config &= (uint32) ~CY_SYS_CLK_PLL_CONFIG_ISOLATE;
1421:.\Generated_Source\PSoC4/CyLib.c **** 
1422:.\Generated_Source\PSoC4/CyLib.c ****             /* Enable PLL */
1423:.\Generated_Source\PSoC4/CyLib.c ****             CY_SYS_CLK_PLL_BASE.pll[pll].config |= CY_SYS_CLK_PLL_CONFIG_ENABLE;
1424:.\Generated_Source\PSoC4/CyLib.c **** 
1425:.\Generated_Source\PSoC4/CyLib.c ****             CyExitCriticalSection(interruptState);
1426:.\Generated_Source\PSoC4/CyLib.c **** 
1427:.\Generated_Source\PSoC4/CyLib.c ****             /* De-isolate >= CY_SYS_CLK_PLL_MIN_STARTUP_US after PLL enabled */
1428:.\Generated_Source\PSoC4/CyLib.c ****             CyDelayUs(CY_SYS_CLK_PLL_MIN_STARTUP_US);
1429:.\Generated_Source\PSoC4/CyLib.c ****             interruptState = CyEnterCriticalSection();
1430:.\Generated_Source\PSoC4/CyLib.c ****             CY_SYS_CLK_PLL_BASE.pll[pll].config |= CY_SYS_CLK_PLL_CONFIG_ISOLATE;
1431:.\Generated_Source\PSoC4/CyLib.c ****             CyExitCriticalSection(interruptState);
1432:.\Generated_Source\PSoC4/CyLib.c **** 
1433:.\Generated_Source\PSoC4/CyLib.c ****             if(wait != 0u)
1434:.\Generated_Source\PSoC4/CyLib.c ****             {
1435:.\Generated_Source\PSoC4/CyLib.c ****                 returnStatus = CYRET_TIMEOUT;
1436:.\Generated_Source\PSoC4/CyLib.c **** 
1437:.\Generated_Source\PSoC4/CyLib.c ****                 while(0u != counts)
1438:.\Generated_Source\PSoC4/CyLib.c ****                 {
1439:.\Generated_Source\PSoC4/CyLib.c **** 
1440:.\Generated_Source\PSoC4/CyLib.c ****                     if(0u != CySysClkPllGetLockStatus(pll))
1441:.\Generated_Source\PSoC4/CyLib.c ****                     {
1442:.\Generated_Source\PSoC4/CyLib.c ****                         returnStatus = CYRET_SUCCESS;
1443:.\Generated_Source\PSoC4/CyLib.c ****                         (void) CySysClkPllGetUnlockStatus(pll);
1444:.\Generated_Source\PSoC4/CyLib.c ****                         break;
1445:.\Generated_Source\PSoC4/CyLib.c ****                     }
1446:.\Generated_Source\PSoC4/CyLib.c **** 
1447:.\Generated_Source\PSoC4/CyLib.c ****                     CyDelayUs(1u);
1448:.\Generated_Source\PSoC4/CyLib.c ****                     counts--;
1449:.\Generated_Source\PSoC4/CyLib.c ****                 }
1450:.\Generated_Source\PSoC4/CyLib.c ****             }
1451:.\Generated_Source\PSoC4/CyLib.c ****         }
1452:.\Generated_Source\PSoC4/CyLib.c ****         else
1453:.\Generated_Source\PSoC4/CyLib.c ****         {
1454:.\Generated_Source\PSoC4/CyLib.c ****             returnStatus = CYRET_BAD_PARAM;
1455:.\Generated_Source\PSoC4/CyLib.c ****         }
1456:.\Generated_Source\PSoC4/CyLib.c **** 
1457:.\Generated_Source\PSoC4/CyLib.c ****         return (returnStatus);
1458:.\Generated_Source\PSoC4/CyLib.c ****     }
1459:.\Generated_Source\PSoC4/CyLib.c **** 
1460:.\Generated_Source\PSoC4/CyLib.c **** 
1461:.\Generated_Source\PSoC4/CyLib.c ****     /*******************************************************************************
1462:.\Generated_Source\PSoC4/CyLib.c ****     * Function Name: CySysClkPllGetLockStatus
1463:.\Generated_Source\PSoC4/CyLib.c ****     ********************************************************************************
1464:.\Generated_Source\PSoC4/CyLib.c ****     *
1465:.\Generated_Source\PSoC4/CyLib.c ****     * Summary:
1466:.\Generated_Source\PSoC4/CyLib.c ****     *  Returns non-zero if the output of the specified PLL output is locked.
ARM GAS  C:\Users\kylep\AppData\Local\Temp\ccAJ1He0.s 			page 38


1467:.\Generated_Source\PSoC4/CyLib.c ****     *
1468:.\Generated_Source\PSoC4/CyLib.c ****     *  This API is available only for PSoC 4200L devices.
1469:.\Generated_Source\PSoC4/CyLib.c ****     *
1470:.\Generated_Source\PSoC4/CyLib.c ****     * Parameters: PLL:
1471:.\Generated_Source\PSoC4/CyLib.c ****     *  0   PLL#0
1472:.\Generated_Source\PSoC4/CyLib.c ****     *  1   PLL#1
1473:.\Generated_Source\PSoC4/CyLib.c ****     *
1474:.\Generated_Source\PSoC4/CyLib.c ****     * Return:
1475:.\Generated_Source\PSoC4/CyLib.c ****     *  A non-zero value when the specified PLL is locked.
1476:.\Generated_Source\PSoC4/CyLib.c ****     *
1477:.\Generated_Source\PSoC4/CyLib.c ****     *******************************************************************************/
1478:.\Generated_Source\PSoC4/CyLib.c ****     uint32 CySysClkPllGetLockStatus(uint32 pll)
1479:.\Generated_Source\PSoC4/CyLib.c ****     {
1480:.\Generated_Source\PSoC4/CyLib.c ****         uint8  interruptState;
1481:.\Generated_Source\PSoC4/CyLib.c ****         uint32 returnStatus;
1482:.\Generated_Source\PSoC4/CyLib.c **** 
1483:.\Generated_Source\PSoC4/CyLib.c ****         CYASSERT(pll < CY_IP_PLL_NR);
1484:.\Generated_Source\PSoC4/CyLib.c **** 
1485:.\Generated_Source\PSoC4/CyLib.c ****         interruptState = CyEnterCriticalSection();
1486:.\Generated_Source\PSoC4/CyLib.c **** 
1487:.\Generated_Source\PSoC4/CyLib.c ****         /* PLL is locked if reported so for two consecutive read. */
1488:.\Generated_Source\PSoC4/CyLib.c ****         returnStatus = CY_SYS_CLK_PLL_BASE.pll[pll].status & CY_SYS_CLK_PLL_STATUS_LOCKED;
1489:.\Generated_Source\PSoC4/CyLib.c ****         if(0u != returnStatus)
1490:.\Generated_Source\PSoC4/CyLib.c ****         {
1491:.\Generated_Source\PSoC4/CyLib.c ****             returnStatus = CY_SYS_CLK_PLL_BASE.pll[pll].status & CY_SYS_CLK_PLL_STATUS_LOCKED;
1492:.\Generated_Source\PSoC4/CyLib.c ****         }
1493:.\Generated_Source\PSoC4/CyLib.c **** 
1494:.\Generated_Source\PSoC4/CyLib.c ****         CyExitCriticalSection(interruptState);
1495:.\Generated_Source\PSoC4/CyLib.c **** 
1496:.\Generated_Source\PSoC4/CyLib.c ****         return (returnStatus);
1497:.\Generated_Source\PSoC4/CyLib.c ****     }
1498:.\Generated_Source\PSoC4/CyLib.c **** 
1499:.\Generated_Source\PSoC4/CyLib.c ****     /*******************************************************************************
1500:.\Generated_Source\PSoC4/CyLib.c ****     * Function Name: CySysClkPllStop
1501:.\Generated_Source\PSoC4/CyLib.c ****     ********************************************************************************
1502:.\Generated_Source\PSoC4/CyLib.c ****     *
1503:.\Generated_Source\PSoC4/CyLib.c ****     * Summary:
1504:.\Generated_Source\PSoC4/CyLib.c ****     *  Disables the PLL and isolates its outputs.
1505:.\Generated_Source\PSoC4/CyLib.c ****     *
1506:.\Generated_Source\PSoC4/CyLib.c ****     *  Ensures that either PLL is not the source of HFCLK before it is disabled,
1507:.\Generated_Source\PSoC4/CyLib.c ****     *  otherwise, the CPU will halt.
1508:.\Generated_Source\PSoC4/CyLib.c ****     *
1509:.\Generated_Source\PSoC4/CyLib.c ****     *  This API is available only for PSoC 4200L devices.
1510:.\Generated_Source\PSoC4/CyLib.c ****     *
1511:.\Generated_Source\PSoC4/CyLib.c ****     * Parameters: PLL:
1512:.\Generated_Source\PSoC4/CyLib.c ****     *  0   PLL#0
1513:.\Generated_Source\PSoC4/CyLib.c ****     *  1   PLL#1
1514:.\Generated_Source\PSoC4/CyLib.c ****     *
1515:.\Generated_Source\PSoC4/CyLib.c ****     * Return:
1516:.\Generated_Source\PSoC4/CyLib.c ****     *  None
1517:.\Generated_Source\PSoC4/CyLib.c ****     *
1518:.\Generated_Source\PSoC4/CyLib.c ****     *******************************************************************************/
1519:.\Generated_Source\PSoC4/CyLib.c ****     void CySysClkPllStop(uint32 pll)
1520:.\Generated_Source\PSoC4/CyLib.c ****     {
1521:.\Generated_Source\PSoC4/CyLib.c ****         uint8  interruptState;
1522:.\Generated_Source\PSoC4/CyLib.c **** 
1523:.\Generated_Source\PSoC4/CyLib.c ****         if (pll < CY_IP_PLL_NR)
ARM GAS  C:\Users\kylep\AppData\Local\Temp\ccAJ1He0.s 			page 39


1524:.\Generated_Source\PSoC4/CyLib.c ****         {
1525:.\Generated_Source\PSoC4/CyLib.c ****             interruptState = CyEnterCriticalSection();
1526:.\Generated_Source\PSoC4/CyLib.c ****             CY_SYS_CLK_PLL_BASE.pll[pll].config &= (uint32) ~(CY_SYS_CLK_PLL_CONFIG_ISOLATE | CY_SY
1527:.\Generated_Source\PSoC4/CyLib.c ****             CyExitCriticalSection(interruptState);
1528:.\Generated_Source\PSoC4/CyLib.c ****         }
1529:.\Generated_Source\PSoC4/CyLib.c ****     }
1530:.\Generated_Source\PSoC4/CyLib.c **** 
1531:.\Generated_Source\PSoC4/CyLib.c **** 
1532:.\Generated_Source\PSoC4/CyLib.c ****     /*******************************************************************************
1533:.\Generated_Source\PSoC4/CyLib.c ****     * Function Name: CySysClkPllSetPQ
1534:.\Generated_Source\PSoC4/CyLib.c ****     ********************************************************************************
1535:.\Generated_Source\PSoC4/CyLib.c ****     *
1536:.\Generated_Source\PSoC4/CyLib.c ****     * Summary:
1537:.\Generated_Source\PSoC4/CyLib.c ****     *  Sets feedback (P) and reference the (Q) divider value. This API also sets the
1538:.\Generated_Source\PSoC4/CyLib.c ****     *  programmable charge pump current value. Note that the PLL has to be disabled
1539:.\Generated_Source\PSoC4/CyLib.c ****     *  before calling this API. If this function is called while any PLL is sourcing,
1540:.\Generated_Source\PSoC4/CyLib.c ****     *  the SYSCLK will return an error.
1541:.\Generated_Source\PSoC4/CyLib.c ****     *
1542:.\Generated_Source\PSoC4/CyLib.c ****     *  The PLL must not be the system clock source when calling this function. The
1543:.\Generated_Source\PSoC4/CyLib.c ****     *  PLL output will glitch during this function call.
1544:.\Generated_Source\PSoC4/CyLib.c ****     *
1545:.\Generated_Source\PSoC4/CyLib.c ****     *  This API is available only for PSoC 4200L devices.
1546:.\Generated_Source\PSoC4/CyLib.c ****     *
1547:.\Generated_Source\PSoC4/CyLib.c ****     * Parameters:
1548:.\Generated_Source\PSoC4/CyLib.c ****     *  PLL:
1549:.\Generated_Source\PSoC4/CyLib.c ****     *   0   PLL#0
1550:.\Generated_Source\PSoC4/CyLib.c ****     *   1   PLL#1
1551:.\Generated_Source\PSoC4/CyLib.c ****     *
1552:.\Generated_Source\PSoC4/CyLib.c ****     *  feedback: P divider
1553:.\Generated_Source\PSoC4/CyLib.c ****     *   Range 4 - 259. Control bits for the feedback divider
1554:.\Generated_Source\PSoC4/CyLib.c ****     *
1555:.\Generated_Source\PSoC4/CyLib.c ****     *  reference: The Q divider.
1556:.\Generated_Source\PSoC4/CyLib.c ****     *   Range 1 - 64. Divide by the reference.
1557:.\Generated_Source\PSoC4/CyLib.c ****     *
1558:.\Generated_Source\PSoC4/CyLib.c ****     *  current: Charge the pump current in uA. The 2 uA for output frequencies
1559:.\Generated_Source\PSoC4/CyLib.c ****     *  of 67 MHz or less, and 3 uA for higher output frequencies. The default
1560:.\Generated_Source\PSoC4/CyLib.c ****     *  value is 2 uA.
1561:.\Generated_Source\PSoC4/CyLib.c ****     *
1562:.\Generated_Source\PSoC4/CyLib.c ****     * Return:
1563:.\Generated_Source\PSoC4/CyLib.c ****     *  CYRET_SUCCESS - Completed successfully.
1564:.\Generated_Source\PSoC4/CyLib.c ****     *  CYRET_BAD_PARAM - The parameters are out of range or the specified PLL sources
1565:.\Generated_Source\PSoC4/CyLib.c ****     *  the system clock.
1566:.\Generated_Source\PSoC4/CyLib.c ****     *
1567:.\Generated_Source\PSoC4/CyLib.c ****     *******************************************************************************/
1568:.\Generated_Source\PSoC4/CyLib.c ****     cystatus CySysClkPllSetPQ(uint32 pll, uint32 feedback, uint32 reference, uint32 current)
1569:.\Generated_Source\PSoC4/CyLib.c ****     {
1570:.\Generated_Source\PSoC4/CyLib.c ****         uint32   regTmp;
1571:.\Generated_Source\PSoC4/CyLib.c ****         cystatus tmp;
1572:.\Generated_Source\PSoC4/CyLib.c ****         uint8    interruptState;
1573:.\Generated_Source\PSoC4/CyLib.c ****         cystatus returnStatus = CYRET_BAD_PARAM;
1574:.\Generated_Source\PSoC4/CyLib.c **** 
1575:.\Generated_Source\PSoC4/CyLib.c ****         interruptState = CyEnterCriticalSection();
1576:.\Generated_Source\PSoC4/CyLib.c **** 
1577:.\Generated_Source\PSoC4/CyLib.c ****         tmp = CySysClkPllConfigChangeAllowed(pll);
1578:.\Generated_Source\PSoC4/CyLib.c **** 
1579:.\Generated_Source\PSoC4/CyLib.c ****         if ((pll < CY_IP_PLL_NR) &&
1580:.\Generated_Source\PSoC4/CyLib.c ****             (feedback  >= CY_SYS_CLK_PLL_CONFIG_FEEDBACK_DIV_MIN)  && (feedback  <= CY_SYS_CLK_PLL_
ARM GAS  C:\Users\kylep\AppData\Local\Temp\ccAJ1He0.s 			page 40


1581:.\Generated_Source\PSoC4/CyLib.c ****             (reference >= CY_SYS_CLK_PLL_CONFIG_REFERENCE_DIV_MIN) && (reference <= CY_SYS_CLK_PLL_
1582:.\Generated_Source\PSoC4/CyLib.c ****             (current   >= CY_SYS_CLK_PLL_CONFIG_ICP_SEL_MIN )      && (current   <= CY_SYS_CLK_PLL_
1583:.\Generated_Source\PSoC4/CyLib.c ****             (CYRET_SUCCESS == tmp))
1584:.\Generated_Source\PSoC4/CyLib.c ****         {
1585:.\Generated_Source\PSoC4/CyLib.c ****             /* Set new feedback, reference and current values */
1586:.\Generated_Source\PSoC4/CyLib.c ****             regTmp  = CY_SYS_CLK_PLL_BASE.pll[pll].config & (uint32) ~(CY_SYS_CLK_PLL_CONFIG_FEEDBA
1587:.\Generated_Source\PSoC4/CyLib.c ****                                                                        CY_SYS_CLK_PLL_CONFIG_REFERE
1588:.\Generated_Source\PSoC4/CyLib.c ****                                                                        CY_SYS_CLK_PLL_CONFIG_ICP_SE
1589:.\Generated_Source\PSoC4/CyLib.c **** 
1590:.\Generated_Source\PSoC4/CyLib.c ****             regTmp |= ((feedback << CY_SYS_CLK_PLL_CONFIG_FEEDBACK_DIV_SHIFT) & CY_SYS_CLK_PLL_CONF
1591:.\Generated_Source\PSoC4/CyLib.c ****             regTmp |= (((reference - 1u) << CY_SYS_CLK_PLL_CONFIG_REFERENCE_DIV_SHIFT) & CY_SYS_CLK
1592:.\Generated_Source\PSoC4/CyLib.c ****             regTmp |= ((current << CY_SYS_CLK_PLL_CONFIG_ICP_SEL_SHIFT) & CY_SYS_CLK_PLL_CONFIG_ICP
1593:.\Generated_Source\PSoC4/CyLib.c **** 
1594:.\Generated_Source\PSoC4/CyLib.c ****             CY_SYS_CLK_PLL_BASE.pll[pll].config = regTmp;
1595:.\Generated_Source\PSoC4/CyLib.c **** 
1596:.\Generated_Source\PSoC4/CyLib.c ****             returnStatus = CYRET_SUCCESS;
1597:.\Generated_Source\PSoC4/CyLib.c ****         }
1598:.\Generated_Source\PSoC4/CyLib.c **** 
1599:.\Generated_Source\PSoC4/CyLib.c ****         CyExitCriticalSection(interruptState);
1600:.\Generated_Source\PSoC4/CyLib.c **** 
1601:.\Generated_Source\PSoC4/CyLib.c ****         return (returnStatus);
1602:.\Generated_Source\PSoC4/CyLib.c ****     }
1603:.\Generated_Source\PSoC4/CyLib.c **** 
1604:.\Generated_Source\PSoC4/CyLib.c **** 
1605:.\Generated_Source\PSoC4/CyLib.c ****     /*******************************************************************************
1606:.\Generated_Source\PSoC4/CyLib.c ****     * Function Name: CySysClkPllSetBypassMode
1607:.\Generated_Source\PSoC4/CyLib.c ****     ********************************************************************************
1608:.\Generated_Source\PSoC4/CyLib.c ****     *
1609:.\Generated_Source\PSoC4/CyLib.c ****     * Summary:
1610:.\Generated_Source\PSoC4/CyLib.c ****     *  Sets the bypass mode for the specified PLL.
1611:.\Generated_Source\PSoC4/CyLib.c ****     *
1612:.\Generated_Source\PSoC4/CyLib.c ****     *  The PLL must not be the system clock source when calling this function.
1613:.\Generated_Source\PSoC4/CyLib.c ****     *  The PLL output will glitch during this function call.
1614:.\Generated_Source\PSoC4/CyLib.c ****     *
1615:.\Generated_Source\PSoC4/CyLib.c ****     *  This API is available only for PSoC 4200L devices.
1616:.\Generated_Source\PSoC4/CyLib.c ****     *
1617:.\Generated_Source\PSoC4/CyLib.c ****     * Parameters:
1618:.\Generated_Source\PSoC4/CyLib.c ****     *  PLL:
1619:.\Generated_Source\PSoC4/CyLib.c ****     *   0   PLL#0
1620:.\Generated_Source\PSoC4/CyLib.c ****     *   1   PLL#1
1621:.\Generated_Source\PSoC4/CyLib.c ****     *
1622:.\Generated_Source\PSoC4/CyLib.c ****     *  bypass: The bypass mode.
1623:.\Generated_Source\PSoC4/CyLib.c ****     *   CY_SYS_PLL_BYPASS_AUTO - Automatic usage of the lock indicator. When unlocked,
1624:.\Generated_Source\PSoC4/CyLib.c ****     *   automatically selects PLL the reference input (bypass mode). When locked,
1625:.\Generated_Source\PSoC4/CyLib.c ****     *   automatically selects the PLL output.
1626:.\Generated_Source\PSoC4/CyLib.c ****     *
1627:.\Generated_Source\PSoC4/CyLib.c ****     *   CY_SYS_PLL_BYPASS_PLL_REF - Selects the PLL reference input (bypass mode).
1628:.\Generated_Source\PSoC4/CyLib.c ****     *   Ignores the lock indicator.
1629:.\Generated_Source\PSoC4/CyLib.c ****     *
1630:.\Generated_Source\PSoC4/CyLib.c ****     *   CY_SYS_PLL_BYPASS_PLL_OUT - Selects the PLL output.  Ignores the lock indicator.
1631:.\Generated_Source\PSoC4/CyLib.c ****     *
1632:.\Generated_Source\PSoC4/CyLib.c ****     * Return:
1633:.\Generated_Source\PSoC4/CyLib.c ****     *  None
1634:.\Generated_Source\PSoC4/CyLib.c ****     *
1635:.\Generated_Source\PSoC4/CyLib.c ****     *******************************************************************************/
1636:.\Generated_Source\PSoC4/CyLib.c ****     void CySysClkPllSetBypassMode(uint32 pll, uint32 bypass)
1637:.\Generated_Source\PSoC4/CyLib.c ****     {
ARM GAS  C:\Users\kylep\AppData\Local\Temp\ccAJ1He0.s 			page 41


1638:.\Generated_Source\PSoC4/CyLib.c ****         uint32 regTmp;
1639:.\Generated_Source\PSoC4/CyLib.c ****         uint8  interruptState;
1640:.\Generated_Source\PSoC4/CyLib.c **** 
1641:.\Generated_Source\PSoC4/CyLib.c ****         interruptState = CyEnterCriticalSection();
1642:.\Generated_Source\PSoC4/CyLib.c **** 
1643:.\Generated_Source\PSoC4/CyLib.c ****         if ((pll < CY_IP_PLL_NR) && (bypass <= CY_SYS_PLL_BYPASS_PLL_OUT))
1644:.\Generated_Source\PSoC4/CyLib.c ****         {
1645:.\Generated_Source\PSoC4/CyLib.c ****             regTmp  = CY_SYS_CLK_PLL_BASE.pll[pll].config & (uint32) ~CY_SYS_CLK_PLL_CONFIG_BYPASS_
1646:.\Generated_Source\PSoC4/CyLib.c ****             regTmp |=  (uint32)(bypass << CY_SYS_CLK_PLL_CONFIG_BYPASS_SEL_SHIFT);
1647:.\Generated_Source\PSoC4/CyLib.c ****             CY_SYS_CLK_PLL_BASE.pll[pll].config = regTmp;
1648:.\Generated_Source\PSoC4/CyLib.c ****         }
1649:.\Generated_Source\PSoC4/CyLib.c **** 
1650:.\Generated_Source\PSoC4/CyLib.c ****         CyExitCriticalSection(interruptState);
1651:.\Generated_Source\PSoC4/CyLib.c ****     }
1652:.\Generated_Source\PSoC4/CyLib.c **** 
1653:.\Generated_Source\PSoC4/CyLib.c **** 
1654:.\Generated_Source\PSoC4/CyLib.c ****     /*******************************************************************************
1655:.\Generated_Source\PSoC4/CyLib.c ****     * Function Name: CySysClkPllGetBypassMode
1656:.\Generated_Source\PSoC4/CyLib.c ****     ********************************************************************************
1657:.\Generated_Source\PSoC4/CyLib.c ****     *
1658:.\Generated_Source\PSoC4/CyLib.c ****     * Summary:
1659:.\Generated_Source\PSoC4/CyLib.c ****     *  Gets the bypass mode for the specified PLL.
1660:.\Generated_Source\PSoC4/CyLib.c ****     *  This API is available only for PSoC 4200L devices.
1661:.\Generated_Source\PSoC4/CyLib.c ****     *
1662:.\Generated_Source\PSoC4/CyLib.c ****     * Parameters:
1663:.\Generated_Source\PSoC4/CyLib.c ****     *  PLL:
1664:.\Generated_Source\PSoC4/CyLib.c ****     *   0   PLL#0
1665:.\Generated_Source\PSoC4/CyLib.c ****     *   1   PLL#1
1666:.\Generated_Source\PSoC4/CyLib.c ****     *
1667:.\Generated_Source\PSoC4/CyLib.c ****     *  Return
1668:.\Generated_Source\PSoC4/CyLib.c ****     *  bypass: Bypass mode.
1669:.\Generated_Source\PSoC4/CyLib.c ****     *   The same as the parameter of the CySysClkPllSetBypassMode().
1670:.\Generated_Source\PSoC4/CyLib.c ****     *
1671:.\Generated_Source\PSoC4/CyLib.c ****     *******************************************************************************/
1672:.\Generated_Source\PSoC4/CyLib.c ****     static uint32 CySysClkPllGetBypassMode(uint32 pll)
1673:.\Generated_Source\PSoC4/CyLib.c ****     {
1674:.\Generated_Source\PSoC4/CyLib.c ****         uint32 returnValue;
1675:.\Generated_Source\PSoC4/CyLib.c ****         uint8  interruptState;
1676:.\Generated_Source\PSoC4/CyLib.c **** 
1677:.\Generated_Source\PSoC4/CyLib.c ****         CYASSERT(pll < CY_IP_PLL_NR);
1678:.\Generated_Source\PSoC4/CyLib.c **** 
1679:.\Generated_Source\PSoC4/CyLib.c ****         interruptState = CyEnterCriticalSection();
1680:.\Generated_Source\PSoC4/CyLib.c **** 
1681:.\Generated_Source\PSoC4/CyLib.c ****         returnValue = CY_SYS_CLK_PLL_BASE.pll[pll].config & CY_SYS_CLK_PLL_CONFIG_BYPASS_SEL_MASK;
1682:.\Generated_Source\PSoC4/CyLib.c ****         returnValue =  returnValue >> CY_SYS_CLK_PLL_CONFIG_BYPASS_SEL_SHIFT;
1683:.\Generated_Source\PSoC4/CyLib.c **** 
1684:.\Generated_Source\PSoC4/CyLib.c ****         CyExitCriticalSection(interruptState);
1685:.\Generated_Source\PSoC4/CyLib.c **** 
1686:.\Generated_Source\PSoC4/CyLib.c ****         return (returnValue);
1687:.\Generated_Source\PSoC4/CyLib.c ****     }
1688:.\Generated_Source\PSoC4/CyLib.c **** 
1689:.\Generated_Source\PSoC4/CyLib.c **** 
1690:.\Generated_Source\PSoC4/CyLib.c ****     /*******************************************************************************
1691:.\Generated_Source\PSoC4/CyLib.c ****     * Function Name: CySysClkPllConfigChangeAllowed
1692:.\Generated_Source\PSoC4/CyLib.c ****     ********************************************************************************
1693:.\Generated_Source\PSoC4/CyLib.c ****     *
1694:.\Generated_Source\PSoC4/CyLib.c ****     * Summary:
ARM GAS  C:\Users\kylep\AppData\Local\Temp\ccAJ1He0.s 			page 42


1695:.\Generated_Source\PSoC4/CyLib.c ****     *  The function returns non-zero value if the specified PLL sources the System
1696:.\Generated_Source\PSoC4/CyLib.c ****     *  clock and the PLL is not in the bypass mode.
1697:.\Generated_Source\PSoC4/CyLib.c ****     *
1698:.\Generated_Source\PSoC4/CyLib.c ****     *  This API is available only for PSoC 4200L devices.
1699:.\Generated_Source\PSoC4/CyLib.c ****     *
1700:.\Generated_Source\PSoC4/CyLib.c ****     * Parameters:
1701:.\Generated_Source\PSoC4/CyLib.c ****     *  PLL:
1702:.\Generated_Source\PSoC4/CyLib.c ****     *   0   PLL#0
1703:.\Generated_Source\PSoC4/CyLib.c ****     *   1   PLL#1
1704:.\Generated_Source\PSoC4/CyLib.c ****     *
1705:.\Generated_Source\PSoC4/CyLib.c ****     * Return:
1706:.\Generated_Source\PSoC4/CyLib.c ****     *  Non-zero value when the specified PLL sources the System clock and the PLL
1707:.\Generated_Source\PSoC4/CyLib.c ****     *  is not in the bypass mode.
1708:.\Generated_Source\PSoC4/CyLib.c ****     *
1709:.\Generated_Source\PSoC4/CyLib.c ****     *******************************************************************************/
1710:.\Generated_Source\PSoC4/CyLib.c ****     static cystatus CySysClkPllConfigChangeAllowed(uint32 pll)
1711:.\Generated_Source\PSoC4/CyLib.c ****     {
1712:.\Generated_Source\PSoC4/CyLib.c ****         uint32   pllBypassMode;
1713:.\Generated_Source\PSoC4/CyLib.c ****         uint32   sysclkSource;
1714:.\Generated_Source\PSoC4/CyLib.c ****         cystatus returnValue = CYRET_LOCKED;
1715:.\Generated_Source\PSoC4/CyLib.c **** 
1716:.\Generated_Source\PSoC4/CyLib.c ****         sysclkSource  = CySysClkGetSysclkSource();
1717:.\Generated_Source\PSoC4/CyLib.c ****         pllBypassMode = CySysClkPllGetBypassMode(pll);
1718:.\Generated_Source\PSoC4/CyLib.c **** 
1719:.\Generated_Source\PSoC4/CyLib.c ****         if ((CY_SYS_PLL_BYPASS_PLL_REF == pllBypassMode)             ||
1720:.\Generated_Source\PSoC4/CyLib.c ****             ((CY_SYS_CLK_HFCLK_PLL0 != sysclkSource) && (0u == pll)) ||
1721:.\Generated_Source\PSoC4/CyLib.c ****             ((CY_SYS_CLK_HFCLK_PLL1 != sysclkSource) && (1u == pll)))
1722:.\Generated_Source\PSoC4/CyLib.c ****         {
1723:.\Generated_Source\PSoC4/CyLib.c ****             returnValue = CYRET_SUCCESS;
1724:.\Generated_Source\PSoC4/CyLib.c ****         }
1725:.\Generated_Source\PSoC4/CyLib.c **** 
1726:.\Generated_Source\PSoC4/CyLib.c ****         return (returnValue);
1727:.\Generated_Source\PSoC4/CyLib.c ****     }
1728:.\Generated_Source\PSoC4/CyLib.c **** 
1729:.\Generated_Source\PSoC4/CyLib.c **** 
1730:.\Generated_Source\PSoC4/CyLib.c ****     /*******************************************************************************
1731:.\Generated_Source\PSoC4/CyLib.c ****     * Function Name: CySysClkPllGetUnlockStatus
1732:.\Generated_Source\PSoC4/CyLib.c ****     ********************************************************************************
1733:.\Generated_Source\PSoC4/CyLib.c ****     *
1734:.\Generated_Source\PSoC4/CyLib.c ****     * Summary:
1735:.\Generated_Source\PSoC4/CyLib.c ****     *  Returns a non-zero value if the specified PLL output was unlocked.
1736:.\Generated_Source\PSoC4/CyLib.c ****     *  The unlock status is an indicator that the PLL has lost a lock at least once
1737:.\Generated_Source\PSoC4/CyLib.c ****     *  during its operation. The unlock status is cleared once it is read using
1738:.\Generated_Source\PSoC4/CyLib.c ****     *  this API.
1739:.\Generated_Source\PSoC4/CyLib.c ****     *
1740:.\Generated_Source\PSoC4/CyLib.c ****     *  This API is available only for PSoC 4200L devices.
1741:.\Generated_Source\PSoC4/CyLib.c ****     *
1742:.\Generated_Source\PSoC4/CyLib.c ****     * Parameters:
1743:.\Generated_Source\PSoC4/CyLib.c ****     *  PLL:
1744:.\Generated_Source\PSoC4/CyLib.c ****     *   0   PLL#0
1745:.\Generated_Source\PSoC4/CyLib.c ****     *   1   PLL#1
1746:.\Generated_Source\PSoC4/CyLib.c ****     *
1747:.\Generated_Source\PSoC4/CyLib.c ****     * Return:
1748:.\Generated_Source\PSoC4/CyLib.c ****     *  Non-zero value when the specified PLL was unlocked.
1749:.\Generated_Source\PSoC4/CyLib.c ****     *
1750:.\Generated_Source\PSoC4/CyLib.c ****     *******************************************************************************/
1751:.\Generated_Source\PSoC4/CyLib.c ****     uint32 CySysClkPllGetUnlockStatus(uint32 pll)
ARM GAS  C:\Users\kylep\AppData\Local\Temp\ccAJ1He0.s 			page 43


1752:.\Generated_Source\PSoC4/CyLib.c ****     {
1753:.\Generated_Source\PSoC4/CyLib.c ****         uint32 returnStatus = 0u;
1754:.\Generated_Source\PSoC4/CyLib.c ****         uint8  interruptState;
1755:.\Generated_Source\PSoC4/CyLib.c **** 
1756:.\Generated_Source\PSoC4/CyLib.c ****         interruptState = CyEnterCriticalSection();
1757:.\Generated_Source\PSoC4/CyLib.c **** 
1758:.\Generated_Source\PSoC4/CyLib.c ****         returnStatus = CY_SYS_CLK_PLL_BASE.pll[pll].test & CY_SYS_CLK_PLL_TEST_UNLOCK_OCCURRED_MASK
1759:.\Generated_Source\PSoC4/CyLib.c ****         CY_SYS_CLK_PLL_BASE.pll[pll].test |= CY_SYS_CLK_PLL_TEST_UNLOCK_OCCURRED_MASK;
1760:.\Generated_Source\PSoC4/CyLib.c **** 
1761:.\Generated_Source\PSoC4/CyLib.c ****         CyExitCriticalSection(interruptState);
1762:.\Generated_Source\PSoC4/CyLib.c **** 
1763:.\Generated_Source\PSoC4/CyLib.c ****         return (returnStatus);
1764:.\Generated_Source\PSoC4/CyLib.c ****     }
1765:.\Generated_Source\PSoC4/CyLib.c **** 
1766:.\Generated_Source\PSoC4/CyLib.c **** 
1767:.\Generated_Source\PSoC4/CyLib.c ****     /*******************************************************************************
1768:.\Generated_Source\PSoC4/CyLib.c ****     * Function Name: CySysClkPllSetFrequency
1769:.\Generated_Source\PSoC4/CyLib.c ****     ********************************************************************************
1770:.\Generated_Source\PSoC4/CyLib.c ****     *
1771:.\Generated_Source\PSoC4/CyLib.c ****     * Summary:
1772:.\Generated_Source\PSoC4/CyLib.c ****     *  Configures either PLL#0 or PLL#1 for the requested input/output frequencies.
1773:.\Generated_Source\PSoC4/CyLib.c ****     *  The input frequency is the frequency of the source to the PLL. The source is
1774:.\Generated_Source\PSoC4/CyLib.c ****     *  set using the CySysClkPllSetSource() function.
1775:.\Generated_Source\PSoC4/CyLib.c ****     *
1776:.\Generated_Source\PSoC4/CyLib.c ****     *  The PLL must not be the system clock source when calling this function. The
1777:.\Generated_Source\PSoC4/CyLib.c ****     *  PLL output will glitch during this function call.
1778:.\Generated_Source\PSoC4/CyLib.c ****     *
1779:.\Generated_Source\PSoC4/CyLib.c ****     *  This API is available only for PSoC 4200L devices.
1780:.\Generated_Source\PSoC4/CyLib.c ****     *
1781:.\Generated_Source\PSoC4/CyLib.c ****     * Parameters:
1782:.\Generated_Source\PSoC4/CyLib.c ****     *  PLL:
1783:.\Generated_Source\PSoC4/CyLib.c ****     *   0   PLL#0
1784:.\Generated_Source\PSoC4/CyLib.c ****     *   1   PLL#1
1785:.\Generated_Source\PSoC4/CyLib.c ****     *
1786:.\Generated_Source\PSoC4/CyLib.c ****     *  inputFreq:
1787:.\Generated_Source\PSoC4/CyLib.c ****     *   The reference frequency in KHz. The valid range is from 1000 to 49152 KHz.
1788:.\Generated_Source\PSoC4/CyLib.c ****     *
1789:.\Generated_Source\PSoC4/CyLib.c ****     *  pllFreq:
1790:.\Generated_Source\PSoC4/CyLib.c ****     *   The target frequency in KHz. The valid range is from 22500 to 49152 KHz.
1791:.\Generated_Source\PSoC4/CyLib.c ****     *
1792:.\Generated_Source\PSoC4/CyLib.c ****     * divider:
1793:.\Generated_Source\PSoC4/CyLib.c ****     *  The output clock divider for the PLL:
1794:.\Generated_Source\PSoC4/CyLib.c ****     *  CY_SYS_PLL_OUTPUT_DIVPASS    Pass Through
1795:.\Generated_Source\PSoC4/CyLib.c ****     *  CY_SYS_PLL_OUTPUT_DIV2       Divide by 2
1796:.\Generated_Source\PSoC4/CyLib.c ****     *  CY_SYS_PLL_OUTPUT_DIV4       Divide by 4
1797:.\Generated_Source\PSoC4/CyLib.c ****     *  CY_SYS_PLL_OUTPUT_DIV8       Divide by 8
1798:.\Generated_Source\PSoC4/CyLib.c ****     *
1799:.\Generated_Source\PSoC4/CyLib.c ****     * freqTol:
1800:.\Generated_Source\PSoC4/CyLib.c ****     *  The tolerance in ppm, 10 ppm is equal to 0.001%.
1801:.\Generated_Source\PSoC4/CyLib.c ****     *
1802:.\Generated_Source\PSoC4/CyLib.c ****     * Return:
1803:.\Generated_Source\PSoC4/CyLib.c ****     *  CYRET_SUCCESS - The PLL was successfully configured for the requested
1804:.\Generated_Source\PSoC4/CyLib.c ****     *  frequency.
1805:.\Generated_Source\PSoC4/CyLib.c ****     *
1806:.\Generated_Source\PSoC4/CyLib.c ****     *  CYRET_BAD_PARAM - The PLL was not able to successfully configure for the
1807:.\Generated_Source\PSoC4/CyLib.c ****     *  requested frequency.
1808:.\Generated_Source\PSoC4/CyLib.c ****     *
ARM GAS  C:\Users\kylep\AppData\Local\Temp\ccAJ1He0.s 			page 44


1809:.\Generated_Source\PSoC4/CyLib.c ****     *******************************************************************************/
1810:.\Generated_Source\PSoC4/CyLib.c ****     cystatus CySysClkPllSetFrequency(uint32 pll, uint32 inputFreq, uint32 pllFreq, uint32 divider, 
1811:.\Generated_Source\PSoC4/CyLib.c ****     {
1812:.\Generated_Source\PSoC4/CyLib.c ****         uint32 qMin;
1813:.\Generated_Source\PSoC4/CyLib.c ****         uint32 qMax;
1814:.\Generated_Source\PSoC4/CyLib.c **** 
1815:.\Generated_Source\PSoC4/CyLib.c ****         uint32 qVal = CY_SYS_CLK_PLL_INVALID;
1816:.\Generated_Source\PSoC4/CyLib.c ****         uint32 pVal = CY_SYS_CLK_PLL_INVALID;
1817:.\Generated_Source\PSoC4/CyLib.c **** 
1818:.\Generated_Source\PSoC4/CyLib.c ****         uint32 q;
1819:.\Generated_Source\PSoC4/CyLib.c ****         uint32 p;
1820:.\Generated_Source\PSoC4/CyLib.c **** 
1821:.\Generated_Source\PSoC4/CyLib.c ****         uint32 fvco;
1822:.\Generated_Source\PSoC4/CyLib.c ****         int32 ferr;
1823:.\Generated_Source\PSoC4/CyLib.c **** 
1824:.\Generated_Source\PSoC4/CyLib.c ****         cystatus tmp;
1825:.\Generated_Source\PSoC4/CyLib.c ****         cystatus returnStatus = CYRET_BAD_PARAM;
1826:.\Generated_Source\PSoC4/CyLib.c **** 
1827:.\Generated_Source\PSoC4/CyLib.c **** 
1828:.\Generated_Source\PSoC4/CyLib.c ****         tmp = CySysClkPllConfigChangeAllowed(pll);
1829:.\Generated_Source\PSoC4/CyLib.c **** 
1830:.\Generated_Source\PSoC4/CyLib.c ****         if ((pll < CY_IP_PLL_NR) &&
1831:.\Generated_Source\PSoC4/CyLib.c ****             (inputFreq  >= CY_SYS_CLK_PLL_INPUT_FREQ_MIN )  && (inputFreq  <= CY_SYS_CLK_PLL_INPUT_
1832:.\Generated_Source\PSoC4/CyLib.c ****             (pllFreq >= CY_SYS_CLK_PLL_OUTPUT_FREQ_MIN ) && (pllFreq <= CY_SYS_CLK_PLL_OUTPUT_FREQ_
1833:.\Generated_Source\PSoC4/CyLib.c ****             (divider <= CY_SYS_PLL_OUTPUT_DIV8) &&
1834:.\Generated_Source\PSoC4/CyLib.c ****             (CYRET_SUCCESS == tmp))
1835:.\Generated_Source\PSoC4/CyLib.c ****         {
1836:.\Generated_Source\PSoC4/CyLib.c **** 
1837:.\Generated_Source\PSoC4/CyLib.c ****             /* Minimum feed forward loop divisor */
1838:.\Generated_Source\PSoC4/CyLib.c ****             qMin = (inputFreq + (CY_SYS_CLK_PLL_FPFDMAX - 1u)) / CY_SYS_CLK_PLL_FPFDMAX;
1839:.\Generated_Source\PSoC4/CyLib.c ****             qMin = (qMin < CY_SYS_CLK_PLL_QMINIP) ? CY_SYS_CLK_PLL_QMINIP : qMin;
1840:.\Generated_Source\PSoC4/CyLib.c **** 
1841:.\Generated_Source\PSoC4/CyLib.c ****             /* Maximum feed forward loop divisor */
1842:.\Generated_Source\PSoC4/CyLib.c ****             qMax = inputFreq / CY_SYS_CLK_PLL_FPFDMIN;
1843:.\Generated_Source\PSoC4/CyLib.c ****             qMax = (qMax > CY_SYS_CLK_PLL_QMAXIP) ? CY_SYS_CLK_PLL_QMAXIP : qMax;
1844:.\Generated_Source\PSoC4/CyLib.c **** 
1845:.\Generated_Source\PSoC4/CyLib.c ****             if (qMin <= qMax)
1846:.\Generated_Source\PSoC4/CyLib.c ****             {
1847:.\Generated_Source\PSoC4/CyLib.c ****                 for(q = qMin; q <= qMax; q++)
1848:.\Generated_Source\PSoC4/CyLib.c ****                 {
1849:.\Generated_Source\PSoC4/CyLib.c ****                     /* Solve for the feedback divisor value */
1850:.\Generated_Source\PSoC4/CyLib.c **** 
1851:.\Generated_Source\PSoC4/CyLib.c ****                     /* INT((pllFreq * q ) / inputFreq), where INT is normal rounding  */
1852:.\Generated_Source\PSoC4/CyLib.c ****                     p = ((pllFreq * q) + (inputFreq / 2u)) / inputFreq;
1853:.\Generated_Source\PSoC4/CyLib.c **** 
1854:.\Generated_Source\PSoC4/CyLib.c ****                     /* Calculate the actual VCO frequency (FVCO) */
1855:.\Generated_Source\PSoC4/CyLib.c ****                     fvco = ((inputFreq * p) / q);
1856:.\Generated_Source\PSoC4/CyLib.c **** 
1857:.\Generated_Source\PSoC4/CyLib.c ****                     /* Calculate the frequency error (FERR) */
1858:.\Generated_Source\PSoC4/CyLib.c ****                     ferr = ((1000000 * ((int32) fvco - (int32) pllFreq))/ (int32) pllFreq);
1859:.\Generated_Source\PSoC4/CyLib.c **** 
1860:.\Generated_Source\PSoC4/CyLib.c ****                     /* Bound check the frequency error and decide next action */
1861:.\Generated_Source\PSoC4/CyLib.c ****                     if ((( -1 * (int32) freqTol) <= ferr) && (ferr <= (int32) freqTol))
1862:.\Generated_Source\PSoC4/CyLib.c ****                     {
1863:.\Generated_Source\PSoC4/CyLib.c ****                         qVal = q;
1864:.\Generated_Source\PSoC4/CyLib.c ****                         pVal = p;
1865:.\Generated_Source\PSoC4/CyLib.c ****                         break;
ARM GAS  C:\Users\kylep\AppData\Local\Temp\ccAJ1He0.s 			page 45


1866:.\Generated_Source\PSoC4/CyLib.c ****                     }
1867:.\Generated_Source\PSoC4/CyLib.c ****                 }
1868:.\Generated_Source\PSoC4/CyLib.c **** 
1869:.\Generated_Source\PSoC4/CyLib.c **** 
1870:.\Generated_Source\PSoC4/CyLib.c ****                 if ((pVal != CY_SYS_CLK_PLL_INVALID) && (qVal != CY_SYS_CLK_PLL_INVALID))
1871:.\Generated_Source\PSoC4/CyLib.c ****                 {
1872:.\Generated_Source\PSoC4/CyLib.c ****                     if (CySysClkPllSetPQ(pll, pVal, qVal, CY_SYS_CLK_PLL_CURRENT_DEFAULT) == CYRET_
1873:.\Generated_Source\PSoC4/CyLib.c ****                     {
1874:.\Generated_Source\PSoC4/CyLib.c ****                         returnStatus = CySysClkPllSetOutputDivider(pll, divider);
1875:.\Generated_Source\PSoC4/CyLib.c ****                     }
1876:.\Generated_Source\PSoC4/CyLib.c ****                 }
1877:.\Generated_Source\PSoC4/CyLib.c ****             }
1878:.\Generated_Source\PSoC4/CyLib.c **** 
1879:.\Generated_Source\PSoC4/CyLib.c ****         }
1880:.\Generated_Source\PSoC4/CyLib.c **** 
1881:.\Generated_Source\PSoC4/CyLib.c ****         return (returnStatus);
1882:.\Generated_Source\PSoC4/CyLib.c ****     }
1883:.\Generated_Source\PSoC4/CyLib.c **** 
1884:.\Generated_Source\PSoC4/CyLib.c **** 
1885:.\Generated_Source\PSoC4/CyLib.c ****     /*******************************************************************************
1886:.\Generated_Source\PSoC4/CyLib.c ****     * Function Name: CySysClkPllSetSource
1887:.\Generated_Source\PSoC4/CyLib.c ****     ********************************************************************************
1888:.\Generated_Source\PSoC4/CyLib.c ****     *
1889:.\Generated_Source\PSoC4/CyLib.c ****     * Summary:
1890:.\Generated_Source\PSoC4/CyLib.c ****     *  Sets the input clock source to the PLL. The PLL must not be the system clock
1891:.\Generated_Source\PSoC4/CyLib.c ****     *  source when calling this function. The PLL output will glitch during this
1892:.\Generated_Source\PSoC4/CyLib.c ****     *  function call.
1893:.\Generated_Source\PSoC4/CyLib.c ****     *
1894:.\Generated_Source\PSoC4/CyLib.c ****     *  This API is available only for PSoC 4200L devices.
1895:.\Generated_Source\PSoC4/CyLib.c ****     *
1896:.\Generated_Source\PSoC4/CyLib.c ****     * Parameters:
1897:.\Generated_Source\PSoC4/CyLib.c ****     *  PLL:
1898:.\Generated_Source\PSoC4/CyLib.c ****     *  0   PLL#0
1899:.\Generated_Source\PSoC4/CyLib.c ****     *  1   PLL#1
1900:.\Generated_Source\PSoC4/CyLib.c ****     *
1901:.\Generated_Source\PSoC4/CyLib.c ****     * source:
1902:.\Generated_Source\PSoC4/CyLib.c ****     *  CY_SYS_PLL_SOURCE_IMO        IMO
1903:.\Generated_Source\PSoC4/CyLib.c ****     *  CY_SYS_PLL_SOURCE_EXTCLK     External Clock
1904:.\Generated_Source\PSoC4/CyLib.c ****     *  CY_SYS_PLL_SOURCE_ECO        ECO
1905:.\Generated_Source\PSoC4/CyLib.c ****     *  CY_SYS_PLL_SOURCE_DSI0       DSI_OUT[0]
1906:.\Generated_Source\PSoC4/CyLib.c ****     *  CY_SYS_PLL_SOURCE_DSI1       DSI_OUT[1]
1907:.\Generated_Source\PSoC4/CyLib.c ****     *  CY_SYS_PLL_SOURCE_DSI2       DSI_OUT[2]
1908:.\Generated_Source\PSoC4/CyLib.c ****     *  CY_SYS_PLL_SOURCE_DSI3       DSI_OUT[3]
1909:.\Generated_Source\PSoC4/CyLib.c ****     *
1910:.\Generated_Source\PSoC4/CyLib.c ****     * Return:
1911:.\Generated_Source\PSoC4/CyLib.c ****     *  None
1912:.\Generated_Source\PSoC4/CyLib.c ****     *
1913:.\Generated_Source\PSoC4/CyLib.c ****     *******************************************************************************/
1914:.\Generated_Source\PSoC4/CyLib.c ****     void CySysClkPllSetSource(uint32 pll, uint32 source)
1915:.\Generated_Source\PSoC4/CyLib.c ****     {
1916:.\Generated_Source\PSoC4/CyLib.c ****         uint32 regTmp;
1917:.\Generated_Source\PSoC4/CyLib.c ****         uint8  interruptState;
1918:.\Generated_Source\PSoC4/CyLib.c **** 
1919:.\Generated_Source\PSoC4/CyLib.c ****         interruptState = CyEnterCriticalSection();
1920:.\Generated_Source\PSoC4/CyLib.c **** 
1921:.\Generated_Source\PSoC4/CyLib.c ****         if (pll < CY_IP_PLL_NR)
1922:.\Generated_Source\PSoC4/CyLib.c ****         {
ARM GAS  C:\Users\kylep\AppData\Local\Temp\ccAJ1He0.s 			page 46


1923:.\Generated_Source\PSoC4/CyLib.c ****             regTmp = CY_SYS_CLK_SELECT_REG & (uint32) ~CY_SYS_CLK_SELECT_PLL_MASK(pll);
1924:.\Generated_Source\PSoC4/CyLib.c ****             regTmp |= ((source << CY_SYS_CLK_SELECT_PLL_SHIFT(pll)) & CY_SYS_CLK_SELECT_PLL_MASK(pl
1925:.\Generated_Source\PSoC4/CyLib.c ****             CY_SYS_CLK_SELECT_REG = regTmp;
1926:.\Generated_Source\PSoC4/CyLib.c ****         }
1927:.\Generated_Source\PSoC4/CyLib.c **** 
1928:.\Generated_Source\PSoC4/CyLib.c ****         CyExitCriticalSection(interruptState);
1929:.\Generated_Source\PSoC4/CyLib.c ****     }
1930:.\Generated_Source\PSoC4/CyLib.c **** 
1931:.\Generated_Source\PSoC4/CyLib.c **** 
1932:.\Generated_Source\PSoC4/CyLib.c ****     /*******************************************************************************
1933:.\Generated_Source\PSoC4/CyLib.c ****     * Function Name: CySysClkPllSetOutputDivider
1934:.\Generated_Source\PSoC4/CyLib.c ****     ********************************************************************************
1935:.\Generated_Source\PSoC4/CyLib.c ****     *
1936:.\Generated_Source\PSoC4/CyLib.c ****     * Summary:
1937:.\Generated_Source\PSoC4/CyLib.c ****     *  Sets the output clock divider for the PLL.
1938:.\Generated_Source\PSoC4/CyLib.c ****     *
1939:.\Generated_Source\PSoC4/CyLib.c ****     *  The PLL must not be the System Clock source when calling this function. The
1940:.\Generated_Source\PSoC4/CyLib.c ****     *  PLL output will glitch during this function call.
1941:.\Generated_Source\PSoC4/CyLib.c ****     *
1942:.\Generated_Source\PSoC4/CyLib.c ****     *  This API is available only for PSoC 4200L devices.
1943:.\Generated_Source\PSoC4/CyLib.c ****     *
1944:.\Generated_Source\PSoC4/CyLib.c ****     * Parameters:
1945:.\Generated_Source\PSoC4/CyLib.c ****     *  PLL:
1946:.\Generated_Source\PSoC4/CyLib.c ****     *   0   PLL#0
1947:.\Generated_Source\PSoC4/CyLib.c ****     *   1   PLL#1
1948:.\Generated_Source\PSoC4/CyLib.c ****     *
1949:.\Generated_Source\PSoC4/CyLib.c ****     * divider:
1950:.\Generated_Source\PSoC4/CyLib.c ****     *  CY_SYS_PLL_OUTPUT_DIVPASS    Pass through
1951:.\Generated_Source\PSoC4/CyLib.c ****     *  CY_SYS_PLL_OUTPUT_DIV2       Divide by 2
1952:.\Generated_Source\PSoC4/CyLib.c ****     *  CY_SYS_PLL_OUTPUT_DIV4       Divide by 4
1953:.\Generated_Source\PSoC4/CyLib.c ****     *  CY_SYS_PLL_OUTPUT_DIV8       Divide by 8
1954:.\Generated_Source\PSoC4/CyLib.c ****     *
1955:.\Generated_Source\PSoC4/CyLib.c ****     * Return:
1956:.\Generated_Source\PSoC4/CyLib.c ****     *  CYRET_SUCCESS   - Completed successfully.
1957:.\Generated_Source\PSoC4/CyLib.c ****     *  CYRET_BAD_PARAM - The parameters are out of range or the specified PLL
1958:.\Generated_Source\PSoC4/CyLib.c ****     *                    sources the System clock.
1959:.\Generated_Source\PSoC4/CyLib.c ****     *
1960:.\Generated_Source\PSoC4/CyLib.c ****     *******************************************************************************/
1961:.\Generated_Source\PSoC4/CyLib.c ****     cystatus CySysClkPllSetOutputDivider(uint32 pll, uint32 divider)
1962:.\Generated_Source\PSoC4/CyLib.c ****     {
1963:.\Generated_Source\PSoC4/CyLib.c ****         uint32   tmpReg;
1964:.\Generated_Source\PSoC4/CyLib.c ****         uint8    interruptState;
1965:.\Generated_Source\PSoC4/CyLib.c ****         cystatus returnStatus = CYRET_BAD_PARAM;
1966:.\Generated_Source\PSoC4/CyLib.c ****         cystatus tmp;
1967:.\Generated_Source\PSoC4/CyLib.c **** 
1968:.\Generated_Source\PSoC4/CyLib.c **** 
1969:.\Generated_Source\PSoC4/CyLib.c ****         interruptState = CyEnterCriticalSection();
1970:.\Generated_Source\PSoC4/CyLib.c **** 
1971:.\Generated_Source\PSoC4/CyLib.c ****         tmp = CySysClkPllConfigChangeAllowed(pll);
1972:.\Generated_Source\PSoC4/CyLib.c **** 
1973:.\Generated_Source\PSoC4/CyLib.c ****         if ((pll < CY_IP_PLL_NR) && (CYRET_SUCCESS == tmp) && (divider <= CY_SYS_PLL_OUTPUT_DIV8))
1974:.\Generated_Source\PSoC4/CyLib.c ****         {
1975:.\Generated_Source\PSoC4/CyLib.c ****             tmpReg  = CY_SYS_CLK_PLL_BASE.pll[pll].config & (uint32) ~(CY_SYS_CLK_PLL_CONFIG_OUTPUT
1976:.\Generated_Source\PSoC4/CyLib.c ****             tmpReg |= ((divider << CY_SYS_CLK_PLL_CONFIG_OUTPUT_DIV_SHIFT) & CY_SYS_CLK_PLL_CONFIG_
1977:.\Generated_Source\PSoC4/CyLib.c **** 
1978:.\Generated_Source\PSoC4/CyLib.c ****             CY_SYS_CLK_PLL_BASE.pll[pll].config = tmpReg;
1979:.\Generated_Source\PSoC4/CyLib.c **** 
ARM GAS  C:\Users\kylep\AppData\Local\Temp\ccAJ1He0.s 			page 47


1980:.\Generated_Source\PSoC4/CyLib.c ****             returnStatus = CYRET_SUCCESS;
1981:.\Generated_Source\PSoC4/CyLib.c ****         }
1982:.\Generated_Source\PSoC4/CyLib.c **** 
1983:.\Generated_Source\PSoC4/CyLib.c ****         CyExitCriticalSection(interruptState);
1984:.\Generated_Source\PSoC4/CyLib.c **** 
1985:.\Generated_Source\PSoC4/CyLib.c ****         return (returnStatus);
1986:.\Generated_Source\PSoC4/CyLib.c ****     }
1987:.\Generated_Source\PSoC4/CyLib.c **** #endif /* (CY_IP_SRSSV2 && CY_IP_PLL) */
1988:.\Generated_Source\PSoC4/CyLib.c **** 
1989:.\Generated_Source\PSoC4/CyLib.c **** 
1990:.\Generated_Source\PSoC4/CyLib.c **** #if(CY_IP_SRSSV2)
1991:.\Generated_Source\PSoC4/CyLib.c **** 
1992:.\Generated_Source\PSoC4/CyLib.c ****     /*******************************************************************************
1993:.\Generated_Source\PSoC4/CyLib.c ****     * Function Name: CySysLvdEnable
1994:.\Generated_Source\PSoC4/CyLib.c ****     ********************************************************************************
1995:.\Generated_Source\PSoC4/CyLib.c ****     *
1996:.\Generated_Source\PSoC4/CyLib.c ****     * Summary:
1997:.\Generated_Source\PSoC4/CyLib.c ****     *  Enables the output of the low-voltage monitor when Vddd is at or below the
1998:.\Generated_Source\PSoC4/CyLib.c ****     *  trip point, configures the device to generate an interrupt, and sets the
1999:.\Generated_Source\PSoC4/CyLib.c ****     *  voltage trip level.
2000:.\Generated_Source\PSoC4/CyLib.c ****     *
2001:.\Generated_Source\PSoC4/CyLib.c ****     * Parameters:
2002:.\Generated_Source\PSoC4/CyLib.c ****     *  threshold: Threshold selection for Low Voltage Detect circuit.
2003:.\Generated_Source\PSoC4/CyLib.c ****     *  Threshold variation is +/- 2.5% from these typical voltage choices.
2004:.\Generated_Source\PSoC4/CyLib.c ****     *         Define                     Voltage threshold
2005:.\Generated_Source\PSoC4/CyLib.c ****     *    CY_LVD_THRESHOLD_1_75_V       1.7500 V
2006:.\Generated_Source\PSoC4/CyLib.c ****     *    CY_LVD_THRESHOLD_1_80_V       1.8000 V
2007:.\Generated_Source\PSoC4/CyLib.c ****     *    CY_LVD_THRESHOLD_1_90_V       1.9000 V
2008:.\Generated_Source\PSoC4/CyLib.c ****     *    CY_LVD_THRESHOLD_2_00_V       2.0000 V
2009:.\Generated_Source\PSoC4/CyLib.c ****     *    CY_LVD_THRESHOLD_2_10_V       2.1000 V
2010:.\Generated_Source\PSoC4/CyLib.c ****     *    CY_LVD_THRESHOLD_2_20_V       2.2000 V
2011:.\Generated_Source\PSoC4/CyLib.c ****     *    CY_LVD_THRESHOLD_2_30_V       2.3000 V
2012:.\Generated_Source\PSoC4/CyLib.c ****     *    CY_LVD_THRESHOLD_2_40_V       2.4000 V
2013:.\Generated_Source\PSoC4/CyLib.c ****     *    CY_LVD_THRESHOLD_2_50_V       2.5000 V
2014:.\Generated_Source\PSoC4/CyLib.c ****     *    CY_LVD_THRESHOLD_2_60_V       2.6000 V
2015:.\Generated_Source\PSoC4/CyLib.c ****     *    CY_LVD_THRESHOLD_2_70_V       2.7000 V
2016:.\Generated_Source\PSoC4/CyLib.c ****     *    CY_LVD_THRESHOLD_2_80_V       2.8000 V
2017:.\Generated_Source\PSoC4/CyLib.c ****     *    CY_LVD_THRESHOLD_2_90_V       2.9000 V
2018:.\Generated_Source\PSoC4/CyLib.c ****     *    CY_LVD_THRESHOLD_3_00_V       3.0000 V
2019:.\Generated_Source\PSoC4/CyLib.c ****     *    CY_LVD_THRESHOLD_3_20_V       3.2000 V
2020:.\Generated_Source\PSoC4/CyLib.c ****     *    CY_LVD_THRESHOLD_4_50_V       4.5000 V
2021:.\Generated_Source\PSoC4/CyLib.c ****     *
2022:.\Generated_Source\PSoC4/CyLib.c ****     * Return:
2023:.\Generated_Source\PSoC4/CyLib.c ****     *  None
2024:.\Generated_Source\PSoC4/CyLib.c ****     *
2025:.\Generated_Source\PSoC4/CyLib.c ****     *******************************************************************************/
2026:.\Generated_Source\PSoC4/CyLib.c ****     void CySysLvdEnable(uint32 threshold)
2027:.\Generated_Source\PSoC4/CyLib.c ****     {
 638              		.loc 1 2027 0
 639              		.cfi_startproc
 640 0000 80B5     		push	{r7, lr}
 641              		.cfi_def_cfa_offset 8
 642              		.cfi_offset 7, -8
 643              		.cfi_offset 14, -4
 644 0002 82B0     		sub	sp, sp, #8
 645              		.cfi_def_cfa_offset 16
 646 0004 00AF     		add	r7, sp, #0
ARM GAS  C:\Users\kylep\AppData\Local\Temp\ccAJ1He0.s 			page 48


 647              		.cfi_def_cfa_register 7
 648 0006 7860     		str	r0, [r7, #4]
2028:.\Generated_Source\PSoC4/CyLib.c ****         /* Prevent propagating a false interrupt */
2029:.\Generated_Source\PSoC4/CyLib.c ****         CY_LVD_PWR_INTR_MASK_REG   &= (uint32) ~CY_LVD_PROPAGATE_INT_TO_CPU;
 649              		.loc 1 2029 0
 650 0008 134B     		ldr	r3, .L31
 651 000a 134A     		ldr	r2, .L31
 652 000c 1268     		ldr	r2, [r2]
 653 000e 0221     		mov	r1, #2
 654 0010 8A43     		bic	r2, r1
 655 0012 1A60     		str	r2, [r3]
2030:.\Generated_Source\PSoC4/CyLib.c **** 
2031:.\Generated_Source\PSoC4/CyLib.c ****         /* Set specified threshold */
2032:.\Generated_Source\PSoC4/CyLib.c ****         CY_LVD_PWR_VMON_CONFIG_REG = (CY_LVD_PWR_VMON_CONFIG_REG & ~CY_LVD_PWR_VMON_CONFIG_LVD_SEL_
 656              		.loc 1 2032 0
 657 0014 114B     		ldr	r3, .L31+4
 658 0016 114A     		ldr	r2, .L31+4
 659 0018 1268     		ldr	r2, [r2]
 660 001a 1E21     		mov	r1, #30
 661 001c 8A43     		bic	r2, r1
 662 001e 111C     		mov	r1, r2
2033:.\Generated_Source\PSoC4/CyLib.c ****                 ((threshold << CY_LVD_PWR_VMON_CONFIG_LVD_SEL_SHIFT) & CY_LVD_PWR_VMON_CONFIG_LVD_S
 663              		.loc 1 2033 0
 664 0020 7A68     		ldr	r2, [r7, #4]
 665 0022 5200     		lsl	r2, r2, #1
 666 0024 1E20     		mov	r0, #30
 667 0026 0240     		and	r2, r0
2032:.\Generated_Source\PSoC4/CyLib.c ****                 ((threshold << CY_LVD_PWR_VMON_CONFIG_LVD_SEL_SHIFT) & CY_LVD_PWR_VMON_CONFIG_LVD_S
 668              		.loc 1 2032 0
 669 0028 0A43     		orr	r2, r1
 670 002a 1A60     		str	r2, [r3]
2034:.\Generated_Source\PSoC4/CyLib.c **** 
2035:.\Generated_Source\PSoC4/CyLib.c ****         /* Enable the LVD. This may cause a false LVD event. */
2036:.\Generated_Source\PSoC4/CyLib.c ****         CY_LVD_PWR_VMON_CONFIG_REG |= CY_LVD_PWR_VMON_CONFIG_LVD_EN;
 671              		.loc 1 2036 0
 672 002c 0B4B     		ldr	r3, .L31+4
 673 002e 0B4A     		ldr	r2, .L31+4
 674 0030 1268     		ldr	r2, [r2]
 675 0032 0121     		mov	r1, #1
 676 0034 0A43     		orr	r2, r1
 677 0036 1A60     		str	r2, [r3]
2037:.\Generated_Source\PSoC4/CyLib.c **** 
2038:.\Generated_Source\PSoC4/CyLib.c ****         /* Wait for the circuit to stabilize */
2039:.\Generated_Source\PSoC4/CyLib.c ****         CyDelayUs(CY_LVD_STABILIZE_TIMEOUT_US);
 678              		.loc 1 2039 0
 679 0038 FA23     		mov	r3, #250
 680 003a 9B00     		lsl	r3, r3, #2
 681 003c 181C     		mov	r0, r3
 682 003e FFF7FEFF 		bl	CyDelayUs
2040:.\Generated_Source\PSoC4/CyLib.c **** 
2041:.\Generated_Source\PSoC4/CyLib.c ****         /* Clear the false event */
2042:.\Generated_Source\PSoC4/CyLib.c ****         CySysLvdClearInterrupt();
 683              		.loc 1 2042 0
 684 0042 FFF7FEFF 		bl	CySysLvdClearInterrupt
2043:.\Generated_Source\PSoC4/CyLib.c **** 
2044:.\Generated_Source\PSoC4/CyLib.c ****         /* Unmask the interrupt */
2045:.\Generated_Source\PSoC4/CyLib.c ****         CY_LVD_PWR_INTR_MASK_REG   |= CY_LVD_PROPAGATE_INT_TO_CPU;
ARM GAS  C:\Users\kylep\AppData\Local\Temp\ccAJ1He0.s 			page 49


 685              		.loc 1 2045 0
 686 0046 044B     		ldr	r3, .L31
 687 0048 034A     		ldr	r2, .L31
 688 004a 1268     		ldr	r2, [r2]
 689 004c 0221     		mov	r1, #2
 690 004e 0A43     		orr	r2, r1
 691 0050 1A60     		str	r2, [r3]
2046:.\Generated_Source\PSoC4/CyLib.c ****     }
 692              		.loc 1 2046 0
 693 0052 BD46     		mov	sp, r7
 694 0054 02B0     		add	sp, sp, #8
 695              		@ sp needed
 696 0056 80BD     		pop	{r7, pc}
 697              	.L32:
 698              		.align	2
 699              	.L31:
 700 0058 08000B40 		.word	1074462728
 701 005c 18000B40 		.word	1074462744
 702              		.cfi_endproc
 703              	.LFE6:
 704              		.size	CySysLvdEnable, .-CySysLvdEnable
 705              		.section	.text.CySysLvdDisable,"ax",%progbits
 706              		.align	2
 707              		.global	CySysLvdDisable
 708              		.code	16
 709              		.thumb_func
 710              		.type	CySysLvdDisable, %function
 711              	CySysLvdDisable:
 712              	.LFB7:
2047:.\Generated_Source\PSoC4/CyLib.c **** 
2048:.\Generated_Source\PSoC4/CyLib.c **** 
2049:.\Generated_Source\PSoC4/CyLib.c ****     /*******************************************************************************
2050:.\Generated_Source\PSoC4/CyLib.c ****     * Function Name: CySysLvdDisable
2051:.\Generated_Source\PSoC4/CyLib.c ****     ********************************************************************************
2052:.\Generated_Source\PSoC4/CyLib.c ****     *
2053:.\Generated_Source\PSoC4/CyLib.c ****     * Summary:
2054:.\Generated_Source\PSoC4/CyLib.c ****     *  Disables the low voltage detection. A low voltage interrupt is disabled.
2055:.\Generated_Source\PSoC4/CyLib.c ****     *
2056:.\Generated_Source\PSoC4/CyLib.c ****     * Parameters:
2057:.\Generated_Source\PSoC4/CyLib.c ****     *  None
2058:.\Generated_Source\PSoC4/CyLib.c ****     *
2059:.\Generated_Source\PSoC4/CyLib.c ****     * Return:
2060:.\Generated_Source\PSoC4/CyLib.c ****     *  None
2061:.\Generated_Source\PSoC4/CyLib.c ****     *
2062:.\Generated_Source\PSoC4/CyLib.c ****     *******************************************************************************/
2063:.\Generated_Source\PSoC4/CyLib.c ****     void CySysLvdDisable(void)
2064:.\Generated_Source\PSoC4/CyLib.c ****     {
 713              		.loc 1 2064 0
 714              		.cfi_startproc
 715 0000 80B5     		push	{r7, lr}
 716              		.cfi_def_cfa_offset 8
 717              		.cfi_offset 7, -8
 718              		.cfi_offset 14, -4
 719 0002 00AF     		add	r7, sp, #0
 720              		.cfi_def_cfa_register 7
2065:.\Generated_Source\PSoC4/CyLib.c ****         CY_LVD_PWR_INTR_MASK_REG   &= ~CY_LVD_PROPAGATE_INT_TO_CPU;
 721              		.loc 1 2065 0
ARM GAS  C:\Users\kylep\AppData\Local\Temp\ccAJ1He0.s 			page 50


 722 0004 064B     		ldr	r3, .L34
 723 0006 064A     		ldr	r2, .L34
 724 0008 1268     		ldr	r2, [r2]
 725 000a 0221     		mov	r1, #2
 726 000c 8A43     		bic	r2, r1
 727 000e 1A60     		str	r2, [r3]
2066:.\Generated_Source\PSoC4/CyLib.c ****         CY_LVD_PWR_VMON_CONFIG_REG &= ~CY_LVD_PWR_VMON_CONFIG_LVD_EN;
 728              		.loc 1 2066 0
 729 0010 044B     		ldr	r3, .L34+4
 730 0012 044A     		ldr	r2, .L34+4
 731 0014 1268     		ldr	r2, [r2]
 732 0016 0121     		mov	r1, #1
 733 0018 8A43     		bic	r2, r1
 734 001a 1A60     		str	r2, [r3]
2067:.\Generated_Source\PSoC4/CyLib.c ****     }
 735              		.loc 1 2067 0
 736 001c BD46     		mov	sp, r7
 737              		@ sp needed
 738 001e 80BD     		pop	{r7, pc}
 739              	.L35:
 740              		.align	2
 741              	.L34:
 742 0020 08000B40 		.word	1074462728
 743 0024 18000B40 		.word	1074462744
 744              		.cfi_endproc
 745              	.LFE7:
 746              		.size	CySysLvdDisable, .-CySysLvdDisable
 747              		.section	.text.CySysLvdGetInterruptSource,"ax",%progbits
 748              		.align	2
 749              		.global	CySysLvdGetInterruptSource
 750              		.code	16
 751              		.thumb_func
 752              		.type	CySysLvdGetInterruptSource, %function
 753              	CySysLvdGetInterruptSource:
 754              	.LFB8:
2068:.\Generated_Source\PSoC4/CyLib.c **** 
2069:.\Generated_Source\PSoC4/CyLib.c **** 
2070:.\Generated_Source\PSoC4/CyLib.c ****     /*******************************************************************************
2071:.\Generated_Source\PSoC4/CyLib.c ****     * Function Name: CySysLvdGetInterruptSource
2072:.\Generated_Source\PSoC4/CyLib.c ****     ********************************************************************************
2073:.\Generated_Source\PSoC4/CyLib.c ****     *
2074:.\Generated_Source\PSoC4/CyLib.c ****     * Summary:
2075:.\Generated_Source\PSoC4/CyLib.c ****     *  Gets the low voltage detection interrupt status (without clearing).
2076:.\Generated_Source\PSoC4/CyLib.c ****     *
2077:.\Generated_Source\PSoC4/CyLib.c ****     * Parameters:
2078:.\Generated_Source\PSoC4/CyLib.c ****     *  None
2079:.\Generated_Source\PSoC4/CyLib.c ****     *
2080:.\Generated_Source\PSoC4/CyLib.c ****     * Return:
2081:.\Generated_Source\PSoC4/CyLib.c ****     *  Interrupt request value:
2082:.\Generated_Source\PSoC4/CyLib.c ****     *    CY_SYS_LVD_INT - Indicates an Low Voltage Detect interrupt
2083:.\Generated_Source\PSoC4/CyLib.c ****     *
2084:.\Generated_Source\PSoC4/CyLib.c ****     *******************************************************************************/
2085:.\Generated_Source\PSoC4/CyLib.c ****     uint32 CySysLvdGetInterruptSource(void)
2086:.\Generated_Source\PSoC4/CyLib.c ****     {
 755              		.loc 1 2086 0
 756              		.cfi_startproc
 757 0000 80B5     		push	{r7, lr}
ARM GAS  C:\Users\kylep\AppData\Local\Temp\ccAJ1He0.s 			page 51


 758              		.cfi_def_cfa_offset 8
 759              		.cfi_offset 7, -8
 760              		.cfi_offset 14, -4
 761 0002 00AF     		add	r7, sp, #0
 762              		.cfi_def_cfa_register 7
2087:.\Generated_Source\PSoC4/CyLib.c ****         return (CY_LVD_PWR_INTR_REG & CY_SYS_LVD_INT);
 763              		.loc 1 2087 0
 764 0004 034B     		ldr	r3, .L38
 765 0006 1B68     		ldr	r3, [r3]
 766 0008 0222     		mov	r2, #2
 767 000a 1340     		and	r3, r2
2088:.\Generated_Source\PSoC4/CyLib.c ****     }
 768              		.loc 1 2088 0
 769 000c 181C     		mov	r0, r3
 770 000e BD46     		mov	sp, r7
 771              		@ sp needed
 772 0010 80BD     		pop	{r7, pc}
 773              	.L39:
 774 0012 C046     		.align	2
 775              	.L38:
 776 0014 04000B40 		.word	1074462724
 777              		.cfi_endproc
 778              	.LFE8:
 779              		.size	CySysLvdGetInterruptSource, .-CySysLvdGetInterruptSource
 780              		.section	.text.CySysLvdClearInterrupt,"ax",%progbits
 781              		.align	2
 782              		.global	CySysLvdClearInterrupt
 783              		.code	16
 784              		.thumb_func
 785              		.type	CySysLvdClearInterrupt, %function
 786              	CySysLvdClearInterrupt:
 787              	.LFB9:
2089:.\Generated_Source\PSoC4/CyLib.c **** 
2090:.\Generated_Source\PSoC4/CyLib.c **** 
2091:.\Generated_Source\PSoC4/CyLib.c ****     /*******************************************************************************
2092:.\Generated_Source\PSoC4/CyLib.c ****     * Function Name: CySysLvdClearInterrupt
2093:.\Generated_Source\PSoC4/CyLib.c ****     ********************************************************************************
2094:.\Generated_Source\PSoC4/CyLib.c ****     *
2095:.\Generated_Source\PSoC4/CyLib.c ****     * Summary:
2096:.\Generated_Source\PSoC4/CyLib.c ****     *  Clears the low voltage detection interrupt status.
2097:.\Generated_Source\PSoC4/CyLib.c ****     *
2098:.\Generated_Source\PSoC4/CyLib.c ****     * Parameters:
2099:.\Generated_Source\PSoC4/CyLib.c ****     *  None
2100:.\Generated_Source\PSoC4/CyLib.c ****     *
2101:.\Generated_Source\PSoC4/CyLib.c ****     * Return:
2102:.\Generated_Source\PSoC4/CyLib.c ****     *  None
2103:.\Generated_Source\PSoC4/CyLib.c ****     *
2104:.\Generated_Source\PSoC4/CyLib.c ****     *******************************************************************************/
2105:.\Generated_Source\PSoC4/CyLib.c ****     void CySysLvdClearInterrupt(void)
2106:.\Generated_Source\PSoC4/CyLib.c ****     {
 788              		.loc 1 2106 0
 789              		.cfi_startproc
 790 0000 80B5     		push	{r7, lr}
 791              		.cfi_def_cfa_offset 8
 792              		.cfi_offset 7, -8
 793              		.cfi_offset 14, -4
 794 0002 00AF     		add	r7, sp, #0
ARM GAS  C:\Users\kylep\AppData\Local\Temp\ccAJ1He0.s 			page 52


 795              		.cfi_def_cfa_register 7
2107:.\Generated_Source\PSoC4/CyLib.c ****         CY_LVD_PWR_INTR_REG = CY_SYS_LVD_INT;
 796              		.loc 1 2107 0
 797 0004 024B     		ldr	r3, .L41
 798 0006 0222     		mov	r2, #2
 799 0008 1A60     		str	r2, [r3]
2108:.\Generated_Source\PSoC4/CyLib.c ****     }
 800              		.loc 1 2108 0
 801 000a BD46     		mov	sp, r7
 802              		@ sp needed
 803 000c 80BD     		pop	{r7, pc}
 804              	.L42:
 805 000e C046     		.align	2
 806              	.L41:
 807 0010 04000B40 		.word	1074462724
 808              		.cfi_endproc
 809              	.LFE9:
 810              		.size	CySysLvdClearInterrupt, .-CySysLvdClearInterrupt
 811              		.section	.text.CySysGetResetReason,"ax",%progbits
 812              		.align	2
 813              		.global	CySysGetResetReason
 814              		.code	16
 815              		.thumb_func
 816              		.type	CySysGetResetReason, %function
 817              	CySysGetResetReason:
 818              	.LFB10:
2109:.\Generated_Source\PSoC4/CyLib.c **** 
2110:.\Generated_Source\PSoC4/CyLib.c **** #endif /* (CY_IP_SRSSV2) */
2111:.\Generated_Source\PSoC4/CyLib.c **** 
2112:.\Generated_Source\PSoC4/CyLib.c **** 
2113:.\Generated_Source\PSoC4/CyLib.c **** /*******************************************************************************
2114:.\Generated_Source\PSoC4/CyLib.c **** * Function Name: CySysGetResetReason
2115:.\Generated_Source\PSoC4/CyLib.c **** ********************************************************************************
2116:.\Generated_Source\PSoC4/CyLib.c **** *
2117:.\Generated_Source\PSoC4/CyLib.c **** * Summary:
2118:.\Generated_Source\PSoC4/CyLib.c **** *  Reports the cause for the latest reset(s) that occurred in the system. All
2119:.\Generated_Source\PSoC4/CyLib.c **** *  the bits in the RES_CAUSE register assert when the corresponding reset cause
2120:.\Generated_Source\PSoC4/CyLib.c **** *  occurs and must be cleared by the firmware. These bits are cleared by the
2121:.\Generated_Source\PSoC4/CyLib.c **** *  hardware only during XRES, POR, or a detected brown-out.
2122:.\Generated_Source\PSoC4/CyLib.c **** *
2123:.\Generated_Source\PSoC4/CyLib.c **** * Parameters:
2124:.\Generated_Source\PSoC4/CyLib.c **** *  reason: bits in the RES_CAUSE register to clear.
2125:.\Generated_Source\PSoC4/CyLib.c **** *   CY_SYS_RESET_WDT       - WDT caused a reset
2126:.\Generated_Source\PSoC4/CyLib.c **** *   CY_SYS_RESET_PROTFAULT - Occured protection violation that requires reset
2127:.\Generated_Source\PSoC4/CyLib.c **** *   CY_SYS_RESET_SW        - Cortex-M0 requested a system reset.
2128:.\Generated_Source\PSoC4/CyLib.c **** *
2129:.\Generated_Source\PSoC4/CyLib.c **** * Return:
2130:.\Generated_Source\PSoC4/CyLib.c **** *  Status. Same enumerated bit values as used for the reason parameter.
2131:.\Generated_Source\PSoC4/CyLib.c **** *
2132:.\Generated_Source\PSoC4/CyLib.c **** *******************************************************************************/
2133:.\Generated_Source\PSoC4/CyLib.c **** uint32 CySysGetResetReason(uint32 reason)
2134:.\Generated_Source\PSoC4/CyLib.c **** {
 819              		.loc 1 2134 0
 820              		.cfi_startproc
 821 0000 80B5     		push	{r7, lr}
 822              		.cfi_def_cfa_offset 8
 823              		.cfi_offset 7, -8
ARM GAS  C:\Users\kylep\AppData\Local\Temp\ccAJ1He0.s 			page 53


 824              		.cfi_offset 14, -4
 825 0002 84B0     		sub	sp, sp, #16
 826              		.cfi_def_cfa_offset 24
 827 0004 00AF     		add	r7, sp, #0
 828              		.cfi_def_cfa_register 7
 829 0006 7860     		str	r0, [r7, #4]
2135:.\Generated_Source\PSoC4/CyLib.c ****     uint32 returnStatus;
2136:.\Generated_Source\PSoC4/CyLib.c **** 
2137:.\Generated_Source\PSoC4/CyLib.c ****     reason &= (CY_SYS_RESET_WDT | CY_SYS_RESET_PROTFAULT | CY_SYS_RESET_SW);
 830              		.loc 1 2137 0
 831 0008 7B68     		ldr	r3, [r7, #4]
 832 000a 1922     		mov	r2, #25
 833 000c 1340     		and	r3, r2
 834 000e 7B60     		str	r3, [r7, #4]
2138:.\Generated_Source\PSoC4/CyLib.c ****     returnStatus = CY_SYS_RES_CAUSE_REG &
 835              		.loc 1 2138 0
 836 0010 064B     		ldr	r3, .L45
 837 0012 1B68     		ldr	r3, [r3]
 838 0014 1922     		mov	r2, #25
 839 0016 1340     		and	r3, r2
 840 0018 FB60     		str	r3, [r7, #12]
2139:.\Generated_Source\PSoC4/CyLib.c ****                   (CY_SYS_RESET_WDT | CY_SYS_RESET_PROTFAULT | CY_SYS_RESET_SW);
2140:.\Generated_Source\PSoC4/CyLib.c ****     CY_SYS_RES_CAUSE_REG = reason;
 841              		.loc 1 2140 0
 842 001a 044B     		ldr	r3, .L45
 843 001c 7A68     		ldr	r2, [r7, #4]
 844 001e 1A60     		str	r2, [r3]
2141:.\Generated_Source\PSoC4/CyLib.c **** 
2142:.\Generated_Source\PSoC4/CyLib.c ****     return (returnStatus);
 845              		.loc 1 2142 0
 846 0020 FB68     		ldr	r3, [r7, #12]
2143:.\Generated_Source\PSoC4/CyLib.c **** }
 847              		.loc 1 2143 0
 848 0022 181C     		mov	r0, r3
 849 0024 BD46     		mov	sp, r7
 850 0026 04B0     		add	sp, sp, #16
 851              		@ sp needed
 852 0028 80BD     		pop	{r7, pc}
 853              	.L46:
 854 002a C046     		.align	2
 855              	.L45:
 856 002c 00030B40 		.word	1074463488
 857              		.cfi_endproc
 858              	.LFE10:
 859              		.size	CySysGetResetReason, .-CySysGetResetReason
 860              		.section	.text.CyDisableInts,"ax",%progbits
 861              		.align	2
 862              		.global	CyDisableInts
 863              		.code	16
 864              		.thumb_func
 865              		.type	CyDisableInts, %function
 866              	CyDisableInts:
 867              	.LFB11:
2144:.\Generated_Source\PSoC4/CyLib.c **** 
2145:.\Generated_Source\PSoC4/CyLib.c **** 
2146:.\Generated_Source\PSoC4/CyLib.c **** /*******************************************************************************
2147:.\Generated_Source\PSoC4/CyLib.c **** * Function Name: CyDisableInts
ARM GAS  C:\Users\kylep\AppData\Local\Temp\ccAJ1He0.s 			page 54


2148:.\Generated_Source\PSoC4/CyLib.c **** ********************************************************************************
2149:.\Generated_Source\PSoC4/CyLib.c **** *
2150:.\Generated_Source\PSoC4/CyLib.c **** * Summary:
2151:.\Generated_Source\PSoC4/CyLib.c **** *  Disables all interrupts.
2152:.\Generated_Source\PSoC4/CyLib.c **** *
2153:.\Generated_Source\PSoC4/CyLib.c **** * Parameters:
2154:.\Generated_Source\PSoC4/CyLib.c **** *  None
2155:.\Generated_Source\PSoC4/CyLib.c **** *
2156:.\Generated_Source\PSoC4/CyLib.c **** * Return:
2157:.\Generated_Source\PSoC4/CyLib.c **** *  32 bit mask of previously enabled interrupts.
2158:.\Generated_Source\PSoC4/CyLib.c **** *
2159:.\Generated_Source\PSoC4/CyLib.c **** *******************************************************************************/
2160:.\Generated_Source\PSoC4/CyLib.c **** uint32 CyDisableInts(void)
2161:.\Generated_Source\PSoC4/CyLib.c **** {
 868              		.loc 1 2161 0
 869              		.cfi_startproc
 870 0000 80B5     		push	{r7, lr}
 871              		.cfi_def_cfa_offset 8
 872              		.cfi_offset 7, -8
 873              		.cfi_offset 14, -4
 874 0002 82B0     		sub	sp, sp, #8
 875              		.cfi_def_cfa_offset 16
 876 0004 00AF     		add	r7, sp, #0
 877              		.cfi_def_cfa_register 7
2162:.\Generated_Source\PSoC4/CyLib.c ****     uint32 intState;
2163:.\Generated_Source\PSoC4/CyLib.c **** 
2164:.\Generated_Source\PSoC4/CyLib.c ****     /* Get current interrupt state. */
2165:.\Generated_Source\PSoC4/CyLib.c ****     intState = CY_INT_CLEAR_REG;
 878              		.loc 1 2165 0
 879 0006 064B     		ldr	r3, .L49
 880 0008 1B68     		ldr	r3, [r3]
 881 000a 7B60     		str	r3, [r7, #4]
2166:.\Generated_Source\PSoC4/CyLib.c **** 
2167:.\Generated_Source\PSoC4/CyLib.c ****     /* Disable all interrupts. */
2168:.\Generated_Source\PSoC4/CyLib.c ****     CY_INT_CLEAR_REG = CY_INT_CLEAR_DISABLE_ALL;
 882              		.loc 1 2168 0
 883 000c 044B     		ldr	r3, .L49
 884 000e 0122     		mov	r2, #1
 885 0010 5242     		neg	r2, r2
 886 0012 1A60     		str	r2, [r3]
2169:.\Generated_Source\PSoC4/CyLib.c **** 
2170:.\Generated_Source\PSoC4/CyLib.c ****     return (intState);
 887              		.loc 1 2170 0
 888 0014 7B68     		ldr	r3, [r7, #4]
2171:.\Generated_Source\PSoC4/CyLib.c **** }
 889              		.loc 1 2171 0
 890 0016 181C     		mov	r0, r3
 891 0018 BD46     		mov	sp, r7
 892 001a 02B0     		add	sp, sp, #8
 893              		@ sp needed
 894 001c 80BD     		pop	{r7, pc}
 895              	.L50:
 896 001e C046     		.align	2
 897              	.L49:
 898 0020 80E100E0 		.word	-536813184
 899              		.cfi_endproc
 900              	.LFE11:
ARM GAS  C:\Users\kylep\AppData\Local\Temp\ccAJ1He0.s 			page 55


 901              		.size	CyDisableInts, .-CyDisableInts
 902              		.section	.text.CyEnableInts,"ax",%progbits
 903              		.align	2
 904              		.global	CyEnableInts
 905              		.code	16
 906              		.thumb_func
 907              		.type	CyEnableInts, %function
 908              	CyEnableInts:
 909              	.LFB12:
2172:.\Generated_Source\PSoC4/CyLib.c **** 
2173:.\Generated_Source\PSoC4/CyLib.c **** 
2174:.\Generated_Source\PSoC4/CyLib.c **** /*******************************************************************************
2175:.\Generated_Source\PSoC4/CyLib.c **** * Function Name: CyEnableInts
2176:.\Generated_Source\PSoC4/CyLib.c **** ********************************************************************************
2177:.\Generated_Source\PSoC4/CyLib.c **** *
2178:.\Generated_Source\PSoC4/CyLib.c **** * Summary:
2179:.\Generated_Source\PSoC4/CyLib.c **** *  Enables interrupts to a given state.
2180:.\Generated_Source\PSoC4/CyLib.c **** *
2181:.\Generated_Source\PSoC4/CyLib.c **** * Parameters:
2182:.\Generated_Source\PSoC4/CyLib.c **** *   mask, 32 bit mask of interrupts to enable.
2183:.\Generated_Source\PSoC4/CyLib.c **** *
2184:.\Generated_Source\PSoC4/CyLib.c **** * Return:
2185:.\Generated_Source\PSoC4/CyLib.c **** *  None
2186:.\Generated_Source\PSoC4/CyLib.c **** *
2187:.\Generated_Source\PSoC4/CyLib.c **** *******************************************************************************/
2188:.\Generated_Source\PSoC4/CyLib.c **** void CyEnableInts(uint32 mask)
2189:.\Generated_Source\PSoC4/CyLib.c **** {
 910              		.loc 1 2189 0
 911              		.cfi_startproc
 912 0000 80B5     		push	{r7, lr}
 913              		.cfi_def_cfa_offset 8
 914              		.cfi_offset 7, -8
 915              		.cfi_offset 14, -4
 916 0002 82B0     		sub	sp, sp, #8
 917              		.cfi_def_cfa_offset 16
 918 0004 00AF     		add	r7, sp, #0
 919              		.cfi_def_cfa_register 7
 920 0006 7860     		str	r0, [r7, #4]
2190:.\Generated_Source\PSoC4/CyLib.c ****     CY_INT_ENABLE_REG = mask;
 921              		.loc 1 2190 0
 922 0008 024B     		ldr	r3, .L52
 923 000a 7A68     		ldr	r2, [r7, #4]
 924 000c 1A60     		str	r2, [r3]
2191:.\Generated_Source\PSoC4/CyLib.c **** }
 925              		.loc 1 2191 0
 926 000e BD46     		mov	sp, r7
 927 0010 02B0     		add	sp, sp, #8
 928              		@ sp needed
 929 0012 80BD     		pop	{r7, pc}
 930              	.L53:
 931              		.align	2
 932              	.L52:
 933 0014 00E100E0 		.word	-536813312
 934              		.cfi_endproc
 935              	.LFE12:
 936              		.size	CyEnableInts, .-CyEnableInts
 937              		.section	.text.CyIntSetSysVector,"ax",%progbits
ARM GAS  C:\Users\kylep\AppData\Local\Temp\ccAJ1He0.s 			page 56


 938              		.align	2
 939              		.global	CyIntSetSysVector
 940              		.code	16
 941              		.thumb_func
 942              		.type	CyIntSetSysVector, %function
 943              	CyIntSetSysVector:
 944              	.LFB13:
2192:.\Generated_Source\PSoC4/CyLib.c **** 
2193:.\Generated_Source\PSoC4/CyLib.c **** 
2194:.\Generated_Source\PSoC4/CyLib.c **** /*******************************************************************************
2195:.\Generated_Source\PSoC4/CyLib.c **** * Function Name: CyIntSetSysVector
2196:.\Generated_Source\PSoC4/CyLib.c **** ********************************************************************************
2197:.\Generated_Source\PSoC4/CyLib.c **** *
2198:.\Generated_Source\PSoC4/CyLib.c **** * Summary:
2199:.\Generated_Source\PSoC4/CyLib.c **** *  Sets the interrupt vector of the specified system interrupt number. These
2200:.\Generated_Source\PSoC4/CyLib.c **** *  interrupts are for SysTick, PendSV and others.
2201:.\Generated_Source\PSoC4/CyLib.c **** *
2202:.\Generated_Source\PSoC4/CyLib.c **** * Parameters:
2203:.\Generated_Source\PSoC4/CyLib.c **** *  number: System interrupt number:
2204:.\Generated_Source\PSoC4/CyLib.c **** *    CY_INT_NMI_IRQN        - Non Maskable Interrupt
2205:.\Generated_Source\PSoC4/CyLib.c **** *    CY_INT_HARD_FAULT_IRQN - Hard Fault Interrupt
2206:.\Generated_Source\PSoC4/CyLib.c **** *    CY_INT_SVCALL_IRQN     - SV Call Interrupt
2207:.\Generated_Source\PSoC4/CyLib.c **** *    CY_INT_PEND_SV_IRQN    - Pend SV Interrupt
2208:.\Generated_Source\PSoC4/CyLib.c **** *    CY_INT_SYSTICK_IRQN    - System Tick Interrupt
2209:.\Generated_Source\PSoC4/CyLib.c **** *
2210:.\Generated_Source\PSoC4/CyLib.c **** *  address: Pointer to an interrupt service routine.
2211:.\Generated_Source\PSoC4/CyLib.c **** *
2212:.\Generated_Source\PSoC4/CyLib.c **** * Return:
2213:.\Generated_Source\PSoC4/CyLib.c **** *  The old ISR vector at this location.
2214:.\Generated_Source\PSoC4/CyLib.c **** *
2215:.\Generated_Source\PSoC4/CyLib.c **** *******************************************************************************/
2216:.\Generated_Source\PSoC4/CyLib.c **** cyisraddress CyIntSetSysVector(uint8 number, cyisraddress address)
2217:.\Generated_Source\PSoC4/CyLib.c **** {
 945              		.loc 1 2217 0
 946              		.cfi_startproc
 947 0000 80B5     		push	{r7, lr}
 948              		.cfi_def_cfa_offset 8
 949              		.cfi_offset 7, -8
 950              		.cfi_offset 14, -4
 951 0002 84B0     		sub	sp, sp, #16
 952              		.cfi_def_cfa_offset 24
 953 0004 00AF     		add	r7, sp, #0
 954              		.cfi_def_cfa_register 7
 955 0006 021C     		mov	r2, r0
 956 0008 3960     		str	r1, [r7]
 957 000a FB1D     		add	r3, r7, #7
 958 000c 1A70     		strb	r2, [r3]
2218:.\Generated_Source\PSoC4/CyLib.c ****     cyisraddress oldIsr;
2219:.\Generated_Source\PSoC4/CyLib.c ****     cyisraddress *ramVectorTable = (cyisraddress *) CY_INT_VECT_TABLE;
 959              		.loc 1 2219 0
 960 000e 8023     		mov	r3, #128
 961 0010 9B05     		lsl	r3, r3, #22
 962 0012 FB60     		str	r3, [r7, #12]
2220:.\Generated_Source\PSoC4/CyLib.c **** 
2221:.\Generated_Source\PSoC4/CyLib.c ****     CYASSERT(number < CY_INT_IRQ_BASE);
2222:.\Generated_Source\PSoC4/CyLib.c **** 
2223:.\Generated_Source\PSoC4/CyLib.c ****     /* Save old Interrupt service routine. */
ARM GAS  C:\Users\kylep\AppData\Local\Temp\ccAJ1He0.s 			page 57


2224:.\Generated_Source\PSoC4/CyLib.c ****     oldIsr = ramVectorTable[number];
 963              		.loc 1 2224 0
 964 0014 FB1D     		add	r3, r7, #7
 965 0016 1B78     		ldrb	r3, [r3]
 966 0018 9B00     		lsl	r3, r3, #2
 967 001a FA68     		ldr	r2, [r7, #12]
 968 001c D318     		add	r3, r2, r3
 969 001e 1B68     		ldr	r3, [r3]
 970 0020 BB60     		str	r3, [r7, #8]
2225:.\Generated_Source\PSoC4/CyLib.c **** 
2226:.\Generated_Source\PSoC4/CyLib.c ****     /* Set new Interrupt service routine. */
2227:.\Generated_Source\PSoC4/CyLib.c ****     ramVectorTable[number] = address;
 971              		.loc 1 2227 0
 972 0022 FB1D     		add	r3, r7, #7
 973 0024 1B78     		ldrb	r3, [r3]
 974 0026 9B00     		lsl	r3, r3, #2
 975 0028 FA68     		ldr	r2, [r7, #12]
 976 002a D318     		add	r3, r2, r3
 977 002c 3A68     		ldr	r2, [r7]
 978 002e 1A60     		str	r2, [r3]
2228:.\Generated_Source\PSoC4/CyLib.c **** 
2229:.\Generated_Source\PSoC4/CyLib.c ****     return(oldIsr);
 979              		.loc 1 2229 0
 980 0030 BB68     		ldr	r3, [r7, #8]
2230:.\Generated_Source\PSoC4/CyLib.c **** }
 981              		.loc 1 2230 0
 982 0032 181C     		mov	r0, r3
 983 0034 BD46     		mov	sp, r7
 984 0036 04B0     		add	sp, sp, #16
 985              		@ sp needed
 986 0038 80BD     		pop	{r7, pc}
 987              		.cfi_endproc
 988              	.LFE13:
 989              		.size	CyIntSetSysVector, .-CyIntSetSysVector
 990 003a C046     		.section	.text.CyIntGetSysVector,"ax",%progbits
 991              		.align	2
 992              		.global	CyIntGetSysVector
 993              		.code	16
 994              		.thumb_func
 995              		.type	CyIntGetSysVector, %function
 996              	CyIntGetSysVector:
 997              	.LFB14:
2231:.\Generated_Source\PSoC4/CyLib.c **** 
2232:.\Generated_Source\PSoC4/CyLib.c **** 
2233:.\Generated_Source\PSoC4/CyLib.c **** /*******************************************************************************
2234:.\Generated_Source\PSoC4/CyLib.c **** * Function Name: CyIntGetSysVector
2235:.\Generated_Source\PSoC4/CyLib.c **** ********************************************************************************
2236:.\Generated_Source\PSoC4/CyLib.c **** *
2237:.\Generated_Source\PSoC4/CyLib.c **** * Summary:
2238:.\Generated_Source\PSoC4/CyLib.c **** *   Gets the interrupt vector of the specified system interrupt number. These
2239:.\Generated_Source\PSoC4/CyLib.c **** *   interrupts are for SysTick, PendSV and others.
2240:.\Generated_Source\PSoC4/CyLib.c **** *
2241:.\Generated_Source\PSoC4/CyLib.c **** * Parameters:
2242:.\Generated_Source\PSoC4/CyLib.c **** *  number: System interrupt number:
2243:.\Generated_Source\PSoC4/CyLib.c **** *    CY_INT_NMI_IRQN        - Non Maskable Interrupt
2244:.\Generated_Source\PSoC4/CyLib.c **** *    CY_INT_HARD_FAULT_IRQN - Hard Fault Interrupt
2245:.\Generated_Source\PSoC4/CyLib.c **** *    CY_INT_SVCALL_IRQN     - SV Call Interrupt
ARM GAS  C:\Users\kylep\AppData\Local\Temp\ccAJ1He0.s 			page 58


2246:.\Generated_Source\PSoC4/CyLib.c **** *    CY_INT_PEND_SV_IRQN    - Pend SV Interrupt
2247:.\Generated_Source\PSoC4/CyLib.c **** *    CY_INT_SYSTICK_IRQN    - System Tick Interrupt
2248:.\Generated_Source\PSoC4/CyLib.c **** *
2249:.\Generated_Source\PSoC4/CyLib.c **** * Return:
2250:.\Generated_Source\PSoC4/CyLib.c **** *   Address of the ISR in the interrupt vector table.
2251:.\Generated_Source\PSoC4/CyLib.c **** *
2252:.\Generated_Source\PSoC4/CyLib.c **** *******************************************************************************/
2253:.\Generated_Source\PSoC4/CyLib.c **** cyisraddress CyIntGetSysVector(uint8 number)
2254:.\Generated_Source\PSoC4/CyLib.c **** {
 998              		.loc 1 2254 0
 999              		.cfi_startproc
 1000 0000 80B5     		push	{r7, lr}
 1001              		.cfi_def_cfa_offset 8
 1002              		.cfi_offset 7, -8
 1003              		.cfi_offset 14, -4
 1004 0002 84B0     		sub	sp, sp, #16
 1005              		.cfi_def_cfa_offset 24
 1006 0004 00AF     		add	r7, sp, #0
 1007              		.cfi_def_cfa_register 7
 1008 0006 021C     		mov	r2, r0
 1009 0008 FB1D     		add	r3, r7, #7
 1010 000a 1A70     		strb	r2, [r3]
2255:.\Generated_Source\PSoC4/CyLib.c ****     cyisraddress *ramVectorTable = (cyisraddress *) CY_INT_VECT_TABLE;
 1011              		.loc 1 2255 0
 1012 000c 8023     		mov	r3, #128
 1013 000e 9B05     		lsl	r3, r3, #22
 1014 0010 FB60     		str	r3, [r7, #12]
2256:.\Generated_Source\PSoC4/CyLib.c **** 
2257:.\Generated_Source\PSoC4/CyLib.c ****     CYASSERT(number < CY_INT_IRQ_BASE);
2258:.\Generated_Source\PSoC4/CyLib.c **** 
2259:.\Generated_Source\PSoC4/CyLib.c ****     return(ramVectorTable[number]);
 1015              		.loc 1 2259 0
 1016 0012 FB1D     		add	r3, r7, #7
 1017 0014 1B78     		ldrb	r3, [r3]
 1018 0016 9B00     		lsl	r3, r3, #2
 1019 0018 FA68     		ldr	r2, [r7, #12]
 1020 001a D318     		add	r3, r2, r3
 1021 001c 1B68     		ldr	r3, [r3]
2260:.\Generated_Source\PSoC4/CyLib.c **** }
 1022              		.loc 1 2260 0
 1023 001e 181C     		mov	r0, r3
 1024 0020 BD46     		mov	sp, r7
 1025 0022 04B0     		add	sp, sp, #16
 1026              		@ sp needed
 1027 0024 80BD     		pop	{r7, pc}
 1028              		.cfi_endproc
 1029              	.LFE14:
 1030              		.size	CyIntGetSysVector, .-CyIntGetSysVector
 1031 0026 C046     		.section	.text.CyIntSetVector,"ax",%progbits
 1032              		.align	2
 1033              		.global	CyIntSetVector
 1034              		.code	16
 1035              		.thumb_func
 1036              		.type	CyIntSetVector, %function
 1037              	CyIntSetVector:
 1038              	.LFB15:
2261:.\Generated_Source\PSoC4/CyLib.c **** 
ARM GAS  C:\Users\kylep\AppData\Local\Temp\ccAJ1He0.s 			page 59


2262:.\Generated_Source\PSoC4/CyLib.c **** 
2263:.\Generated_Source\PSoC4/CyLib.c **** /*******************************************************************************
2264:.\Generated_Source\PSoC4/CyLib.c **** * Function Name: CyIntSetVector
2265:.\Generated_Source\PSoC4/CyLib.c **** ********************************************************************************
2266:.\Generated_Source\PSoC4/CyLib.c **** *
2267:.\Generated_Source\PSoC4/CyLib.c **** * Summary:
2268:.\Generated_Source\PSoC4/CyLib.c **** *  Sets the interrupt vector of the specified interrupt number.
2269:.\Generated_Source\PSoC4/CyLib.c **** *
2270:.\Generated_Source\PSoC4/CyLib.c **** * Parameters:
2271:.\Generated_Source\PSoC4/CyLib.c **** *  number: Valid range [0-31].  Interrupt number
2272:.\Generated_Source\PSoC4/CyLib.c **** *  address: Pointer to an interrupt service routine
2273:.\Generated_Source\PSoC4/CyLib.c **** *
2274:.\Generated_Source\PSoC4/CyLib.c **** * Return:
2275:.\Generated_Source\PSoC4/CyLib.c **** *   Previous interrupt vector value.
2276:.\Generated_Source\PSoC4/CyLib.c **** *
2277:.\Generated_Source\PSoC4/CyLib.c **** *******************************************************************************/
2278:.\Generated_Source\PSoC4/CyLib.c **** cyisraddress CyIntSetVector(uint8 number, cyisraddress address)
2279:.\Generated_Source\PSoC4/CyLib.c **** {
 1039              		.loc 1 2279 0
 1040              		.cfi_startproc
 1041 0000 80B5     		push	{r7, lr}
 1042              		.cfi_def_cfa_offset 8
 1043              		.cfi_offset 7, -8
 1044              		.cfi_offset 14, -4
 1045 0002 84B0     		sub	sp, sp, #16
 1046              		.cfi_def_cfa_offset 24
 1047 0004 00AF     		add	r7, sp, #0
 1048              		.cfi_def_cfa_register 7
 1049 0006 021C     		mov	r2, r0
 1050 0008 3960     		str	r1, [r7]
 1051 000a FB1D     		add	r3, r7, #7
 1052 000c 1A70     		strb	r2, [r3]
2280:.\Generated_Source\PSoC4/CyLib.c ****     cyisraddress oldIsr;
2281:.\Generated_Source\PSoC4/CyLib.c ****     cyisraddress *ramVectorTable = (cyisraddress *) CY_INT_VECT_TABLE;
 1053              		.loc 1 2281 0
 1054 000e 8023     		mov	r3, #128
 1055 0010 9B05     		lsl	r3, r3, #22
 1056 0012 FB60     		str	r3, [r7, #12]
2282:.\Generated_Source\PSoC4/CyLib.c **** 
2283:.\Generated_Source\PSoC4/CyLib.c ****     CYASSERT(number < CY_NUM_INTERRUPTS);
2284:.\Generated_Source\PSoC4/CyLib.c **** 
2285:.\Generated_Source\PSoC4/CyLib.c ****     /* Save old Interrupt service routine. */
2286:.\Generated_Source\PSoC4/CyLib.c ****     oldIsr = ramVectorTable[CY_INT_IRQ_BASE + number];
 1057              		.loc 1 2286 0
 1058 0014 FB1D     		add	r3, r7, #7
 1059 0016 1B78     		ldrb	r3, [r3]
 1060 0018 1033     		add	r3, r3, #16
 1061 001a 9B00     		lsl	r3, r3, #2
 1062 001c FA68     		ldr	r2, [r7, #12]
 1063 001e D318     		add	r3, r2, r3
 1064 0020 1B68     		ldr	r3, [r3]
 1065 0022 BB60     		str	r3, [r7, #8]
2287:.\Generated_Source\PSoC4/CyLib.c **** 
2288:.\Generated_Source\PSoC4/CyLib.c ****     /* Set new Interrupt service routine. */
2289:.\Generated_Source\PSoC4/CyLib.c ****     ramVectorTable[CY_INT_IRQ_BASE + number] = address;
 1066              		.loc 1 2289 0
 1067 0024 FB1D     		add	r3, r7, #7
ARM GAS  C:\Users\kylep\AppData\Local\Temp\ccAJ1He0.s 			page 60


 1068 0026 1B78     		ldrb	r3, [r3]
 1069 0028 1033     		add	r3, r3, #16
 1070 002a 9B00     		lsl	r3, r3, #2
 1071 002c FA68     		ldr	r2, [r7, #12]
 1072 002e D318     		add	r3, r2, r3
 1073 0030 3A68     		ldr	r2, [r7]
 1074 0032 1A60     		str	r2, [r3]
2290:.\Generated_Source\PSoC4/CyLib.c **** 
2291:.\Generated_Source\PSoC4/CyLib.c ****     return(oldIsr);
 1075              		.loc 1 2291 0
 1076 0034 BB68     		ldr	r3, [r7, #8]
2292:.\Generated_Source\PSoC4/CyLib.c **** }
 1077              		.loc 1 2292 0
 1078 0036 181C     		mov	r0, r3
 1079 0038 BD46     		mov	sp, r7
 1080 003a 04B0     		add	sp, sp, #16
 1081              		@ sp needed
 1082 003c 80BD     		pop	{r7, pc}
 1083              		.cfi_endproc
 1084              	.LFE15:
 1085              		.size	CyIntSetVector, .-CyIntSetVector
 1086 003e C046     		.section	.text.CyIntGetVector,"ax",%progbits
 1087              		.align	2
 1088              		.global	CyIntGetVector
 1089              		.code	16
 1090              		.thumb_func
 1091              		.type	CyIntGetVector, %function
 1092              	CyIntGetVector:
 1093              	.LFB16:
2293:.\Generated_Source\PSoC4/CyLib.c **** 
2294:.\Generated_Source\PSoC4/CyLib.c **** 
2295:.\Generated_Source\PSoC4/CyLib.c **** /*******************************************************************************
2296:.\Generated_Source\PSoC4/CyLib.c **** * Function Name: CyIntGetVector
2297:.\Generated_Source\PSoC4/CyLib.c **** ********************************************************************************
2298:.\Generated_Source\PSoC4/CyLib.c **** *
2299:.\Generated_Source\PSoC4/CyLib.c **** * Summary:
2300:.\Generated_Source\PSoC4/CyLib.c **** *  Gets the interrupt vector of the specified interrupt number.
2301:.\Generated_Source\PSoC4/CyLib.c **** *
2302:.\Generated_Source\PSoC4/CyLib.c **** * Parameters:
2303:.\Generated_Source\PSoC4/CyLib.c **** *  number: Valid range [0-31].  Interrupt number
2304:.\Generated_Source\PSoC4/CyLib.c **** *
2305:.\Generated_Source\PSoC4/CyLib.c **** * Return:
2306:.\Generated_Source\PSoC4/CyLib.c **** *  Address of the ISR in the interrupt vector table.
2307:.\Generated_Source\PSoC4/CyLib.c **** *
2308:.\Generated_Source\PSoC4/CyLib.c **** *******************************************************************************/
2309:.\Generated_Source\PSoC4/CyLib.c **** cyisraddress CyIntGetVector(uint8 number)
2310:.\Generated_Source\PSoC4/CyLib.c **** {
 1094              		.loc 1 2310 0
 1095              		.cfi_startproc
 1096 0000 80B5     		push	{r7, lr}
 1097              		.cfi_def_cfa_offset 8
 1098              		.cfi_offset 7, -8
 1099              		.cfi_offset 14, -4
 1100 0002 84B0     		sub	sp, sp, #16
 1101              		.cfi_def_cfa_offset 24
 1102 0004 00AF     		add	r7, sp, #0
 1103              		.cfi_def_cfa_register 7
ARM GAS  C:\Users\kylep\AppData\Local\Temp\ccAJ1He0.s 			page 61


 1104 0006 021C     		mov	r2, r0
 1105 0008 FB1D     		add	r3, r7, #7
 1106 000a 1A70     		strb	r2, [r3]
2311:.\Generated_Source\PSoC4/CyLib.c ****     cyisraddress *ramVectorTable = (cyisraddress *) CY_INT_VECT_TABLE;
 1107              		.loc 1 2311 0
 1108 000c 8023     		mov	r3, #128
 1109 000e 9B05     		lsl	r3, r3, #22
 1110 0010 FB60     		str	r3, [r7, #12]
2312:.\Generated_Source\PSoC4/CyLib.c **** 
2313:.\Generated_Source\PSoC4/CyLib.c ****     CYASSERT(number < CY_NUM_INTERRUPTS);
2314:.\Generated_Source\PSoC4/CyLib.c **** 
2315:.\Generated_Source\PSoC4/CyLib.c ****     return (ramVectorTable[CY_INT_IRQ_BASE + number]);
 1111              		.loc 1 2315 0
 1112 0012 FB1D     		add	r3, r7, #7
 1113 0014 1B78     		ldrb	r3, [r3]
 1114 0016 1033     		add	r3, r3, #16
 1115 0018 9B00     		lsl	r3, r3, #2
 1116 001a FA68     		ldr	r2, [r7, #12]
 1117 001c D318     		add	r3, r2, r3
 1118 001e 1B68     		ldr	r3, [r3]
2316:.\Generated_Source\PSoC4/CyLib.c **** }
 1119              		.loc 1 2316 0
 1120 0020 181C     		mov	r0, r3
 1121 0022 BD46     		mov	sp, r7
 1122 0024 04B0     		add	sp, sp, #16
 1123              		@ sp needed
 1124 0026 80BD     		pop	{r7, pc}
 1125              		.cfi_endproc
 1126              	.LFE16:
 1127              		.size	CyIntGetVector, .-CyIntGetVector
 1128              		.section	.text.CyIntSetPriority,"ax",%progbits
 1129              		.align	2
 1130              		.global	CyIntSetPriority
 1131              		.code	16
 1132              		.thumb_func
 1133              		.type	CyIntSetPriority, %function
 1134              	CyIntSetPriority:
 1135              	.LFB17:
2317:.\Generated_Source\PSoC4/CyLib.c **** 
2318:.\Generated_Source\PSoC4/CyLib.c **** /*******************************************************************************
2319:.\Generated_Source\PSoC4/CyLib.c **** * Function Name: CyIntSetPriority
2320:.\Generated_Source\PSoC4/CyLib.c **** ********************************************************************************
2321:.\Generated_Source\PSoC4/CyLib.c **** *
2322:.\Generated_Source\PSoC4/CyLib.c **** * Summary:
2323:.\Generated_Source\PSoC4/CyLib.c **** *  Sets the priority of the interrupt.
2324:.\Generated_Source\PSoC4/CyLib.c **** *
2325:.\Generated_Source\PSoC4/CyLib.c **** * Parameters:
2326:.\Generated_Source\PSoC4/CyLib.c **** *  priority: Priority of the interrupt. 0 - 3, 0 being the highest.
2327:.\Generated_Source\PSoC4/CyLib.c **** *  number: The number of the interrupt, 0 - 31.
2328:.\Generated_Source\PSoC4/CyLib.c **** *
2329:.\Generated_Source\PSoC4/CyLib.c **** * Return:
2330:.\Generated_Source\PSoC4/CyLib.c **** *  None
2331:.\Generated_Source\PSoC4/CyLib.c **** *
2332:.\Generated_Source\PSoC4/CyLib.c **** *******************************************************************************/
2333:.\Generated_Source\PSoC4/CyLib.c **** void CyIntSetPriority(uint8 number, uint8 priority)
2334:.\Generated_Source\PSoC4/CyLib.c **** {
 1136              		.loc 1 2334 0
ARM GAS  C:\Users\kylep\AppData\Local\Temp\ccAJ1He0.s 			page 62


 1137              		.cfi_startproc
 1138 0000 90B5     		push	{r4, r7, lr}
 1139              		.cfi_def_cfa_offset 12
 1140              		.cfi_offset 4, -12
 1141              		.cfi_offset 7, -8
 1142              		.cfi_offset 14, -4
 1143 0002 87B0     		sub	sp, sp, #28
 1144              		.cfi_def_cfa_offset 40
 1145 0004 00AF     		add	r7, sp, #0
 1146              		.cfi_def_cfa_register 7
 1147 0006 021C     		mov	r2, r0
 1148 0008 FB1D     		add	r3, r7, #7
 1149 000a 1A70     		strb	r2, [r3]
 1150 000c BB1D     		add	r3, r7, #6
 1151 000e 0A1C     		add	r2, r1, #0
 1152 0010 1A70     		strb	r2, [r3]
2335:.\Generated_Source\PSoC4/CyLib.c ****     uint8 interruptState;
2336:.\Generated_Source\PSoC4/CyLib.c ****     uint32 shift;
2337:.\Generated_Source\PSoC4/CyLib.c ****     uint32 value;
2338:.\Generated_Source\PSoC4/CyLib.c **** 
2339:.\Generated_Source\PSoC4/CyLib.c ****     CYASSERT(priority <= CY_MIN_PRIORITY);
2340:.\Generated_Source\PSoC4/CyLib.c ****     CYASSERT(number < CY_NUM_INTERRUPTS);
2341:.\Generated_Source\PSoC4/CyLib.c **** 
2342:.\Generated_Source\PSoC4/CyLib.c ****     shift = CY_INT_PRIORITY_SHIFT(number);
 1153              		.loc 1 2342 0
 1154 0012 FB1D     		add	r3, r7, #7
 1155 0014 1B78     		ldrb	r3, [r3]
 1156 0016 0322     		mov	r2, #3
 1157 0018 1340     		and	r3, r2
 1158 001a DB00     		lsl	r3, r3, #3
 1159 001c 0633     		add	r3, r3, #6
 1160 001e 7B61     		str	r3, [r7, #20]
2343:.\Generated_Source\PSoC4/CyLib.c **** 
2344:.\Generated_Source\PSoC4/CyLib.c ****     interruptState = CyEnterCriticalSection();
 1161              		.loc 1 2344 0
 1162 0020 1323     		mov	r3, #19
 1163 0022 FC18     		add	r4, r7, r3
 1164 0024 FFF7FEFF 		bl	CyEnterCriticalSection
 1165 0028 031C     		mov	r3, r0
 1166 002a 2370     		strb	r3, [r4]
2345:.\Generated_Source\PSoC4/CyLib.c **** 
2346:.\Generated_Source\PSoC4/CyLib.c ****     value = CY_INT_PRIORITY_REG(number);
 1167              		.loc 1 2346 0
 1168 002c FB1D     		add	r3, r7, #7
 1169 002e 1B78     		ldrb	r3, [r3]
 1170 0030 9B08     		lsr	r3, r3, #2
 1171 0032 DBB2     		uxtb	r3, r3
 1172 0034 9B00     		lsl	r3, r3, #2
 1173 0036 144A     		ldr	r2, .L63
 1174 0038 9446     		mov	ip, r2
 1175 003a 6344     		add	r3, r3, ip
 1176 003c 1B68     		ldr	r3, [r3]
 1177 003e FB60     		str	r3, [r7, #12]
2347:.\Generated_Source\PSoC4/CyLib.c ****     value &= (uint32)(~((uint32)(CY_INT_PRIORITY_MASK << shift)));
 1178              		.loc 1 2347 0
 1179 0040 7B69     		ldr	r3, [r7, #20]
 1180 0042 0322     		mov	r2, #3
ARM GAS  C:\Users\kylep\AppData\Local\Temp\ccAJ1He0.s 			page 63


 1181 0044 9A40     		lsl	r2, r2, r3
 1182 0046 131C     		mov	r3, r2
 1183 0048 DA43     		mvn	r2, r3
 1184 004a FB68     		ldr	r3, [r7, #12]
 1185 004c 1340     		and	r3, r2
 1186 004e FB60     		str	r3, [r7, #12]
2348:.\Generated_Source\PSoC4/CyLib.c ****     value |= ((uint32)priority << shift);
 1187              		.loc 1 2348 0
 1188 0050 BB1D     		add	r3, r7, #6
 1189 0052 1A78     		ldrb	r2, [r3]
 1190 0054 7B69     		ldr	r3, [r7, #20]
 1191 0056 9A40     		lsl	r2, r2, r3
 1192 0058 131C     		mov	r3, r2
 1193 005a FA68     		ldr	r2, [r7, #12]
 1194 005c 1343     		orr	r3, r2
 1195 005e FB60     		str	r3, [r7, #12]
2349:.\Generated_Source\PSoC4/CyLib.c ****     CY_INT_PRIORITY_REG(number) = value;
 1196              		.loc 1 2349 0
 1197 0060 FB1D     		add	r3, r7, #7
 1198 0062 1B78     		ldrb	r3, [r3]
 1199 0064 9B08     		lsr	r3, r3, #2
 1200 0066 DBB2     		uxtb	r3, r3
 1201 0068 9B00     		lsl	r3, r3, #2
 1202 006a 074A     		ldr	r2, .L63
 1203 006c 9446     		mov	ip, r2
 1204 006e 6344     		add	r3, r3, ip
 1205 0070 FA68     		ldr	r2, [r7, #12]
 1206 0072 1A60     		str	r2, [r3]
2350:.\Generated_Source\PSoC4/CyLib.c **** 
2351:.\Generated_Source\PSoC4/CyLib.c ****     CyExitCriticalSection(interruptState);
 1207              		.loc 1 2351 0
 1208 0074 1323     		mov	r3, #19
 1209 0076 FB18     		add	r3, r7, r3
 1210 0078 1B78     		ldrb	r3, [r3]
 1211 007a 181C     		mov	r0, r3
 1212 007c FFF7FEFF 		bl	CyExitCriticalSection
2352:.\Generated_Source\PSoC4/CyLib.c **** }
 1213              		.loc 1 2352 0
 1214 0080 BD46     		mov	sp, r7
 1215 0082 07B0     		add	sp, sp, #28
 1216              		@ sp needed
 1217 0084 90BD     		pop	{r4, r7, pc}
 1218              	.L64:
 1219 0086 C046     		.align	2
 1220              	.L63:
 1221 0088 00E400E0 		.word	-536812544
 1222              		.cfi_endproc
 1223              	.LFE17:
 1224              		.size	CyIntSetPriority, .-CyIntSetPriority
 1225              		.section	.text.CyIntGetPriority,"ax",%progbits
 1226              		.align	2
 1227              		.global	CyIntGetPriority
 1228              		.code	16
 1229              		.thumb_func
 1230              		.type	CyIntGetPriority, %function
 1231              	CyIntGetPriority:
 1232              	.LFB18:
ARM GAS  C:\Users\kylep\AppData\Local\Temp\ccAJ1He0.s 			page 64


2353:.\Generated_Source\PSoC4/CyLib.c **** 
2354:.\Generated_Source\PSoC4/CyLib.c **** 
2355:.\Generated_Source\PSoC4/CyLib.c **** /*******************************************************************************
2356:.\Generated_Source\PSoC4/CyLib.c **** * Function Name: CyIntGetPriority
2357:.\Generated_Source\PSoC4/CyLib.c **** ********************************************************************************
2358:.\Generated_Source\PSoC4/CyLib.c **** *
2359:.\Generated_Source\PSoC4/CyLib.c **** * Summary:
2360:.\Generated_Source\PSoC4/CyLib.c **** *  Gets the priority of the interrupt.
2361:.\Generated_Source\PSoC4/CyLib.c **** *
2362:.\Generated_Source\PSoC4/CyLib.c **** * Parameters:
2363:.\Generated_Source\PSoC4/CyLib.c **** *  number: The number of the interrupt, 0 - 31.
2364:.\Generated_Source\PSoC4/CyLib.c **** *
2365:.\Generated_Source\PSoC4/CyLib.c **** * Return:
2366:.\Generated_Source\PSoC4/CyLib.c **** *  Priority of the interrupt. 0 - 3, 0 being the highest.
2367:.\Generated_Source\PSoC4/CyLib.c **** *
2368:.\Generated_Source\PSoC4/CyLib.c **** *******************************************************************************/
2369:.\Generated_Source\PSoC4/CyLib.c **** uint8 CyIntGetPriority(uint8 number)
2370:.\Generated_Source\PSoC4/CyLib.c **** {
 1233              		.loc 1 2370 0
 1234              		.cfi_startproc
 1235 0000 80B5     		push	{r7, lr}
 1236              		.cfi_def_cfa_offset 8
 1237              		.cfi_offset 7, -8
 1238              		.cfi_offset 14, -4
 1239 0002 84B0     		sub	sp, sp, #16
 1240              		.cfi_def_cfa_offset 24
 1241 0004 00AF     		add	r7, sp, #0
 1242              		.cfi_def_cfa_register 7
 1243 0006 021C     		mov	r2, r0
 1244 0008 FB1D     		add	r3, r7, #7
 1245 000a 1A70     		strb	r2, [r3]
2371:.\Generated_Source\PSoC4/CyLib.c ****     uint8 priority;
2372:.\Generated_Source\PSoC4/CyLib.c **** 
2373:.\Generated_Source\PSoC4/CyLib.c ****     CYASSERT(number < CY_NUM_INTERRUPTS);
2374:.\Generated_Source\PSoC4/CyLib.c **** 
2375:.\Generated_Source\PSoC4/CyLib.c ****     priority = (uint8) (CY_INT_PRIORITY_REG(number) >> CY_INT_PRIORITY_SHIFT(number));
 1246              		.loc 1 2375 0
 1247 000c FB1D     		add	r3, r7, #7
 1248 000e 1B78     		ldrb	r3, [r3]
 1249 0010 9B08     		lsr	r3, r3, #2
 1250 0012 DBB2     		uxtb	r3, r3
 1251 0014 9B00     		lsl	r3, r3, #2
 1252 0016 0C4A     		ldr	r2, .L67
 1253 0018 9446     		mov	ip, r2
 1254 001a 6344     		add	r3, r3, ip
 1255 001c 1B68     		ldr	r3, [r3]
 1256 001e FA1D     		add	r2, r7, #7
 1257 0020 1278     		ldrb	r2, [r2]
 1258 0022 0321     		mov	r1, #3
 1259 0024 0A40     		and	r2, r1
 1260 0026 D200     		lsl	r2, r2, #3
 1261 0028 0632     		add	r2, r2, #6
 1262 002a D340     		lsr	r3, r3, r2
 1263 002c 1A1C     		mov	r2, r3
 1264 002e 0F23     		mov	r3, #15
 1265 0030 FB18     		add	r3, r7, r3
 1266 0032 1A70     		strb	r2, [r3]
ARM GAS  C:\Users\kylep\AppData\Local\Temp\ccAJ1He0.s 			page 65


2376:.\Generated_Source\PSoC4/CyLib.c **** 
2377:.\Generated_Source\PSoC4/CyLib.c ****     return (priority & (uint8) CY_INT_PRIORITY_MASK);
 1267              		.loc 1 2377 0
 1268 0034 0F23     		mov	r3, #15
 1269 0036 FB18     		add	r3, r7, r3
 1270 0038 1B78     		ldrb	r3, [r3]
 1271 003a 0322     		mov	r2, #3
 1272 003c 1340     		and	r3, r2
 1273 003e DBB2     		uxtb	r3, r3
2378:.\Generated_Source\PSoC4/CyLib.c **** }
 1274              		.loc 1 2378 0
 1275 0040 181C     		mov	r0, r3
 1276 0042 BD46     		mov	sp, r7
 1277 0044 04B0     		add	sp, sp, #16
 1278              		@ sp needed
 1279 0046 80BD     		pop	{r7, pc}
 1280              	.L68:
 1281              		.align	2
 1282              	.L67:
 1283 0048 00E400E0 		.word	-536812544
 1284              		.cfi_endproc
 1285              	.LFE18:
 1286              		.size	CyIntGetPriority, .-CyIntGetPriority
 1287              		.section	.text.CyIntEnable,"ax",%progbits
 1288              		.align	2
 1289              		.global	CyIntEnable
 1290              		.code	16
 1291              		.thumb_func
 1292              		.type	CyIntEnable, %function
 1293              	CyIntEnable:
 1294              	.LFB19:
2379:.\Generated_Source\PSoC4/CyLib.c **** 
2380:.\Generated_Source\PSoC4/CyLib.c **** 
2381:.\Generated_Source\PSoC4/CyLib.c **** /*******************************************************************************
2382:.\Generated_Source\PSoC4/CyLib.c **** * Function Name: CyIntEnable
2383:.\Generated_Source\PSoC4/CyLib.c **** ********************************************************************************
2384:.\Generated_Source\PSoC4/CyLib.c **** *
2385:.\Generated_Source\PSoC4/CyLib.c **** * Summary:
2386:.\Generated_Source\PSoC4/CyLib.c **** *  Enables the specified interrupt number.
2387:.\Generated_Source\PSoC4/CyLib.c **** *
2388:.\Generated_Source\PSoC4/CyLib.c **** * Parameters:
2389:.\Generated_Source\PSoC4/CyLib.c **** *  number: Valid range [0-31].  Interrupt number
2390:.\Generated_Source\PSoC4/CyLib.c **** *
2391:.\Generated_Source\PSoC4/CyLib.c **** * Return:
2392:.\Generated_Source\PSoC4/CyLib.c **** *  None
2393:.\Generated_Source\PSoC4/CyLib.c **** *
2394:.\Generated_Source\PSoC4/CyLib.c **** *******************************************************************************/
2395:.\Generated_Source\PSoC4/CyLib.c **** void CyIntEnable(uint8 number)
2396:.\Generated_Source\PSoC4/CyLib.c **** {
 1295              		.loc 1 2396 0
 1296              		.cfi_startproc
 1297 0000 80B5     		push	{r7, lr}
 1298              		.cfi_def_cfa_offset 8
 1299              		.cfi_offset 7, -8
 1300              		.cfi_offset 14, -4
 1301 0002 82B0     		sub	sp, sp, #8
 1302              		.cfi_def_cfa_offset 16
ARM GAS  C:\Users\kylep\AppData\Local\Temp\ccAJ1He0.s 			page 66


 1303 0004 00AF     		add	r7, sp, #0
 1304              		.cfi_def_cfa_register 7
 1305 0006 021C     		mov	r2, r0
 1306 0008 FB1D     		add	r3, r7, #7
 1307 000a 1A70     		strb	r2, [r3]
2397:.\Generated_Source\PSoC4/CyLib.c ****     CY_INT_ENABLE_REG = ((uint32) 0x01u << (CY_INT_ENABLE_RANGE_MASK & number));
 1308              		.loc 1 2397 0
 1309 000c 054B     		ldr	r3, .L70
 1310 000e FA1D     		add	r2, r7, #7
 1311 0010 1278     		ldrb	r2, [r2]
 1312 0012 1F21     		mov	r1, #31
 1313 0014 0A40     		and	r2, r1
 1314 0016 0121     		mov	r1, #1
 1315 0018 9140     		lsl	r1, r1, r2
 1316 001a 0A1C     		mov	r2, r1
 1317 001c 1A60     		str	r2, [r3]
2398:.\Generated_Source\PSoC4/CyLib.c **** }
 1318              		.loc 1 2398 0
 1319 001e BD46     		mov	sp, r7
 1320 0020 02B0     		add	sp, sp, #8
 1321              		@ sp needed
 1322 0022 80BD     		pop	{r7, pc}
 1323              	.L71:
 1324              		.align	2
 1325              	.L70:
 1326 0024 00E100E0 		.word	-536813312
 1327              		.cfi_endproc
 1328              	.LFE19:
 1329              		.size	CyIntEnable, .-CyIntEnable
 1330              		.section	.text.CyIntGetState,"ax",%progbits
 1331              		.align	2
 1332              		.global	CyIntGetState
 1333              		.code	16
 1334              		.thumb_func
 1335              		.type	CyIntGetState, %function
 1336              	CyIntGetState:
 1337              	.LFB20:
2399:.\Generated_Source\PSoC4/CyLib.c **** 
2400:.\Generated_Source\PSoC4/CyLib.c **** 
2401:.\Generated_Source\PSoC4/CyLib.c **** /*******************************************************************************
2402:.\Generated_Source\PSoC4/CyLib.c **** * Function Name: CyIntGetState
2403:.\Generated_Source\PSoC4/CyLib.c **** ********************************************************************************
2404:.\Generated_Source\PSoC4/CyLib.c **** *
2405:.\Generated_Source\PSoC4/CyLib.c **** * Summary:
2406:.\Generated_Source\PSoC4/CyLib.c **** *  Gets the enable state of the specified interrupt number.
2407:.\Generated_Source\PSoC4/CyLib.c **** *
2408:.\Generated_Source\PSoC4/CyLib.c **** * Parameters:
2409:.\Generated_Source\PSoC4/CyLib.c **** *  number: Valid range [0-31].  Interrupt number.
2410:.\Generated_Source\PSoC4/CyLib.c **** *
2411:.\Generated_Source\PSoC4/CyLib.c **** * Return:
2412:.\Generated_Source\PSoC4/CyLib.c **** *  Enable status: 1 if enabled, 0 if disabled
2413:.\Generated_Source\PSoC4/CyLib.c **** *
2414:.\Generated_Source\PSoC4/CyLib.c **** *******************************************************************************/
2415:.\Generated_Source\PSoC4/CyLib.c **** uint8 CyIntGetState(uint8 number)
2416:.\Generated_Source\PSoC4/CyLib.c **** {
 1338              		.loc 1 2416 0
 1339              		.cfi_startproc
ARM GAS  C:\Users\kylep\AppData\Local\Temp\ccAJ1He0.s 			page 67


 1340 0000 80B5     		push	{r7, lr}
 1341              		.cfi_def_cfa_offset 8
 1342              		.cfi_offset 7, -8
 1343              		.cfi_offset 14, -4
 1344 0002 82B0     		sub	sp, sp, #8
 1345              		.cfi_def_cfa_offset 16
 1346 0004 00AF     		add	r7, sp, #0
 1347              		.cfi_def_cfa_register 7
 1348 0006 021C     		mov	r2, r0
 1349 0008 FB1D     		add	r3, r7, #7
 1350 000a 1A70     		strb	r2, [r3]
2417:.\Generated_Source\PSoC4/CyLib.c ****     /* Get state of interrupt. */
2418:.\Generated_Source\PSoC4/CyLib.c ****     return ((0u != (CY_INT_ENABLE_REG & ((uint32) 0x01u << (CY_INT_ENABLE_RANGE_MASK & number)))) ?
 1351              		.loc 1 2418 0
 1352 000c 074B     		ldr	r3, .L74
 1353 000e 1A68     		ldr	r2, [r3]
 1354 0010 FB1D     		add	r3, r7, #7
 1355 0012 1B78     		ldrb	r3, [r3]
 1356 0014 1F21     		mov	r1, #31
 1357 0016 0B40     		and	r3, r1
 1358 0018 DA40     		lsr	r2, r2, r3
 1359 001a 131C     		mov	r3, r2
 1360 001c DBB2     		uxtb	r3, r3
 1361 001e 0122     		mov	r2, #1
 1362 0020 1340     		and	r3, r2
 1363 0022 DBB2     		uxtb	r3, r3
2419:.\Generated_Source\PSoC4/CyLib.c **** }
 1364              		.loc 1 2419 0
 1365 0024 181C     		mov	r0, r3
 1366 0026 BD46     		mov	sp, r7
 1367 0028 02B0     		add	sp, sp, #8
 1368              		@ sp needed
 1369 002a 80BD     		pop	{r7, pc}
 1370              	.L75:
 1371              		.align	2
 1372              	.L74:
 1373 002c 00E100E0 		.word	-536813312
 1374              		.cfi_endproc
 1375              	.LFE20:
 1376              		.size	CyIntGetState, .-CyIntGetState
 1377              		.section	.text.CyIntDisable,"ax",%progbits
 1378              		.align	2
 1379              		.global	CyIntDisable
 1380              		.code	16
 1381              		.thumb_func
 1382              		.type	CyIntDisable, %function
 1383              	CyIntDisable:
 1384              	.LFB21:
2420:.\Generated_Source\PSoC4/CyLib.c **** 
2421:.\Generated_Source\PSoC4/CyLib.c **** 
2422:.\Generated_Source\PSoC4/CyLib.c **** /*******************************************************************************
2423:.\Generated_Source\PSoC4/CyLib.c **** * Function Name: CyIntDisable
2424:.\Generated_Source\PSoC4/CyLib.c **** ********************************************************************************
2425:.\Generated_Source\PSoC4/CyLib.c **** *
2426:.\Generated_Source\PSoC4/CyLib.c **** * Summary:
2427:.\Generated_Source\PSoC4/CyLib.c **** *   Disables the specified interrupt number.
2428:.\Generated_Source\PSoC4/CyLib.c **** *
ARM GAS  C:\Users\kylep\AppData\Local\Temp\ccAJ1He0.s 			page 68


2429:.\Generated_Source\PSoC4/CyLib.c **** * Parameters:
2430:.\Generated_Source\PSoC4/CyLib.c **** *   number: Valid range [0-31].  Interrupt number.
2431:.\Generated_Source\PSoC4/CyLib.c **** *
2432:.\Generated_Source\PSoC4/CyLib.c **** * Return:
2433:.\Generated_Source\PSoC4/CyLib.c **** *  None
2434:.\Generated_Source\PSoC4/CyLib.c **** *
2435:.\Generated_Source\PSoC4/CyLib.c **** *******************************************************************************/
2436:.\Generated_Source\PSoC4/CyLib.c **** void CyIntDisable(uint8 number)
2437:.\Generated_Source\PSoC4/CyLib.c **** {
 1385              		.loc 1 2437 0
 1386              		.cfi_startproc
 1387 0000 80B5     		push	{r7, lr}
 1388              		.cfi_def_cfa_offset 8
 1389              		.cfi_offset 7, -8
 1390              		.cfi_offset 14, -4
 1391 0002 82B0     		sub	sp, sp, #8
 1392              		.cfi_def_cfa_offset 16
 1393 0004 00AF     		add	r7, sp, #0
 1394              		.cfi_def_cfa_register 7
 1395 0006 021C     		mov	r2, r0
 1396 0008 FB1D     		add	r3, r7, #7
 1397 000a 1A70     		strb	r2, [r3]
2438:.\Generated_Source\PSoC4/CyLib.c ****     CY_INT_CLEAR_REG = ((uint32) 0x01u << (CY_INT_ENABLE_RANGE_MASK & number));
 1398              		.loc 1 2438 0
 1399 000c 054B     		ldr	r3, .L77
 1400 000e FA1D     		add	r2, r7, #7
 1401 0010 1278     		ldrb	r2, [r2]
