ARM GAS  C:\Users\kylep\AppData\Local\Temp\ccWR86sf.s 			page 1


   1              		.cpu cortex-m0
   2              		.fpu softvfp
   3              		.eabi_attribute 20, 1
   4              		.eabi_attribute 21, 1
   5              		.eabi_attribute 23, 3
   6              		.eabi_attribute 24, 1
   7              		.eabi_attribute 25, 1
   8              		.eabi_attribute 26, 1
   9              		.eabi_attribute 30, 6
  10              		.eabi_attribute 34, 0
  11              		.eabi_attribute 18, 4
  12              		.code	16
  13              		.file	"DriverControl.c"
  14              		.text
  15              	.Ltext0:
  16              		.cfi_sections	.debug_frame
  17              		.data
  18              		.align	2
  19              		.type	ThermalLimitArray, %object
  20              		.size	ThermalLimitArray, 16
  21              	ThermalLimitArray:
  22 0000 C201     		.short	450
  23 0002 6400     		.short	100
  24 0004 9001     		.short	400
  25 0006 6400     		.short	100
  26 0008 6400     		.short	100
  27 000a 5000     		.short	80
  28 000c 2C01     		.short	300
  29 000e 6400     		.short	100
  30              		.align	2
  31              		.type	PositionData, %object
  32              		.size	PositionData, 3
  33              	PositionData:
  34 0010 00       		.byte	0
  35 0011 00       		.byte	0
  36 0012 01       		.byte	1
  37 0013 00       		.align	2
  38              		.type	RegulationData, %object
  39              		.size	RegulationData, 5
  40              	RegulationData:
  41 0014 00       		.byte	0
  42 0015 00       		.byte	0
  43 0016 00       		.byte	0
  44 0017 00       		.byte	0
  45 0018 FF       		.byte	-1
  46 0019 000000   		.align	2
  47              		.type	VoltageSenseData, %object
  48              		.size	VoltageSenseData, 2
  49              	VoltageSenseData:
  50 001c 01       		.byte	1
  51 001d FF       		.byte	-1
  52 001e 0000     		.section	.text.getPreviousBrightness,"ax",%progbits
  53              		.align	2
  54              		.global	getPreviousBrightness
  55              		.code	16
  56              		.thumb_func
  57              		.type	getPreviousBrightness, %function
ARM GAS  C:\Users\kylep\AppData\Local\Temp\ccWR86sf.s 			page 2


  58              	getPreviousBrightness:
  59              	.LFB34:
  60              		.file 1 ".\\DriverControl.c"
   1:.\DriverControl.c **** /* ========================================
   2:.\DriverControl.c ****  *
   3:.\DriverControl.c ****  * Copyright YOUR COMPANY, THE YEAR
   4:.\DriverControl.c ****  * All Rights Reserved
   5:.\DriverControl.c ****  * UNPUBLISHED, LICENSED SOFTWARE.
   6:.\DriverControl.c ****  *
   7:.\DriverControl.c ****  * CONFIDENTIAL AND PROPRIETARY INFORMATION
   8:.\DriverControl.c ****  * WHICH IS THE PROPERTY OF your company.
   9:.\DriverControl.c ****  *
  10:.\DriverControl.c ****  * ========================================
  11:.\DriverControl.c **** */
  12:.\DriverControl.c **** /**********CHANGE LOG**********/
  13:.\DriverControl.c **** 
  14:.\DriverControl.c **** 
  15:.\DriverControl.c **** /**********PREPROCESSOR DIRECTIVES**********/
  16:.\DriverControl.c **** #include "CommonVariables.h"
  17:.\DriverControl.c **** #include "DriverControl.h"
  18:.\DriverControl.c **** #include "BrightnessCommManager.h"
  19:.\DriverControl.c **** 
  20:.\DriverControl.c **** #define MAX_ADC_CONVERSION_WAIT_LIMIT   5
  21:.\DriverControl.c **** #define SAMPLE_COUNT_PER_CYCLE          1
  22:.\DriverControl.c **** #define BRIGHTNESS_CHANGE_PER_SAMPLE    1
  23:.\DriverControl.c **** 
  24:.\DriverControl.c **** #define RAMP_DOWN_RATE                  1
  25:.\DriverControl.c **** #define STEADY_INCREASE_RATE            1
  26:.\DriverControl.c **** #define STEADY_DECREASE_RATE            1
  27:.\DriverControl.c **** 
  28:.\DriverControl.c **** #define MAX_SCALING_FACTOR              0xFF
  29:.\DriverControl.c **** #define SAFE_TEMPERATURE_TOLERANCE      0
  30:.\DriverControl.c **** 
  31:.\DriverControl.c **** #define VOLTAGE_SENSE_LOWER_BOUND       670
  32:.\DriverControl.c **** #define VOLTAGE_SENSE_UPPER_BOUND       870
  33:.\DriverControl.c ****     
  34:.\DriverControl.c **** /**********DEFINED CONSTANTS**********/
  35:.\DriverControl.c **** enum RegulationState
  36:.\DriverControl.c **** {
  37:.\DriverControl.c ****     STARTUP,
  38:.\DriverControl.c ****     STEADY_INCREASE,
  39:.\DriverControl.c ****     STEADY_DECREASE,
  40:.\DriverControl.c ****     NO_CHANGE
  41:.\DriverControl.c **** };
  42:.\DriverControl.c **** 
  43:.\DriverControl.c **** enum TemperatureStatus
  44:.\DriverControl.c **** {
  45:.\DriverControl.c ****     WITHIN_TOLERANCE,
  46:.\DriverControl.c ****     EXCEEDED_UPPER_BOUND,
  47:.\DriverControl.c ****     EXCEEDED_LOWER_BOUND,
  48:.\DriverControl.c ****     ERROR
  49:.\DriverControl.c **** };
  50:.\DriverControl.c **** 
  51:.\DriverControl.c **** typedef struct
  52:.\DriverControl.c **** {
  53:.\DriverControl.c ****     const int16 MAX_TEMPERATURE;
  54:.\DriverControl.c ****     const int16 SAFE_TEMPERATURE;
ARM GAS  C:\Users\kylep\AppData\Local\Temp\ccWR86sf.s 			page 3


  55:.\DriverControl.c **** }ThermalLimit;
  56:.\DriverControl.c **** 
  57:.\DriverControl.c **** static ThermalLimit ThermalLimitArray[ADC_SAMPLE_COUNT] = 
  58:.\DriverControl.c **** {
  59:.\DriverControl.c ****     {450, 100}, //LED
  60:.\DriverControl.c ****     {400, 100}, //SwitchNode    
  61:.\DriverControl.c ****     {100,  80}, //Micro
  62:.\DriverControl.c ****     {300, 100}  //Ambient
  63:.\DriverControl.c **** };
  64:.\DriverControl.c **** 
  65:.\DriverControl.c **** /**********DATA STRUCTURES**********/
  66:.\DriverControl.c **** typedef struct
  67:.\DriverControl.c **** {
  68:.\DriverControl.c ****     uint8 ID_Number;
  69:.\DriverControl.c ****     uint8 driverCount;
  70:.\DriverControl.c ****     uint8 bLastDriverInChain;
  71:.\DriverControl.c **** }DriverProperties;
  72:.\DriverControl.c **** 
  73:.\DriverControl.c **** static DriverProperties PositionData = {0, 0, TRUE};
  74:.\DriverControl.c **** 
  75:.\DriverControl.c **** typedef struct
  76:.\DriverControl.c **** {
  77:.\DriverControl.c ****     uint8 requestedBrightness;
  78:.\DriverControl.c ****     uint8 regulatedBrightness;
  79:.\DriverControl.c ****     uint8 previousBrightness;
  80:.\DriverControl.c ****     enum RegulationState currentState;
  81:.\DriverControl.c ****     uint8 scalingFactor;
  82:.\DriverControl.c **** }RegulationProperties;
  83:.\DriverControl.c **** 
  84:.\DriverControl.c **** static RegulationProperties RegulationData = {0, 0, 0, STARTUP, 0xFF};
  85:.\DriverControl.c **** 
  86:.\DriverControl.c **** typedef struct
  87:.\DriverControl.c **** {
  88:.\DriverControl.c ****     uint8 bEnable;
  89:.\DriverControl.c ****     uint8 scalingFactor;
  90:.\DriverControl.c **** }VoltageSenseProperties;
  91:.\DriverControl.c **** 
  92:.\DriverControl.c **** static VoltageSenseProperties VoltageSenseData = {TRUE, 0xFF};
  93:.\DriverControl.c **** 
  94:.\DriverControl.c **** /**********GLOBAL VARIABLES**********/
  95:.\DriverControl.c **** 
  96:.\DriverControl.c **** 
  97:.\DriverControl.c **** /**********LOCAL FUNCTION PROTOTYPES**********/
  98:.\DriverControl.c **** static enum TemperatureStatus getTemperatureStatus(int16* TemperatureData,
  99:.\DriverControl.c ****     uint8 length, int16 tolerance);
 100:.\DriverControl.c **** 
 101:.\DriverControl.c **** /**********DEFINED GLOBAL FUNCTIONS**********/
 102:.\DriverControl.c **** uint8 getPreviousBrightness(void)
 103:.\DriverControl.c **** {
  61              		.loc 1 103 0
  62              		.cfi_startproc
  63 0000 80B5     		push	{r7, lr}
  64              		.cfi_def_cfa_offset 8
  65              		.cfi_offset 7, -8
  66              		.cfi_offset 14, -4
  67 0002 00AF     		add	r7, sp, #0
  68              		.cfi_def_cfa_register 7
ARM GAS  C:\Users\kylep\AppData\Local\Temp\ccWR86sf.s 			page 4


 104:.\DriverControl.c ****     return RegulationData.previousBrightness;
  69              		.loc 1 104 0
  70 0004 024B     		ldr	r3, .L3
  71 0006 9B78     		ldrb	r3, [r3, #2]
 105:.\DriverControl.c **** }
  72              		.loc 1 105 0
  73 0008 181C     		mov	r0, r3
  74 000a BD46     		mov	sp, r7
  75              		@ sp needed
  76 000c 80BD     		pop	{r7, pc}
  77              	.L4:
  78 000e C046     		.align	2
  79              	.L3:
  80 0010 14000000 		.word	RegulationData
  81              		.cfi_endproc
  82              	.LFE34:
  83              		.size	getPreviousBrightness, .-getPreviousBrightness
  84              		.section	.text.getDriverID,"ax",%progbits
  85              		.align	2
  86              		.global	getDriverID
  87              		.code	16
  88              		.thumb_func
  89              		.type	getDriverID, %function
  90              	getDriverID:
  91              	.LFB35:
 106:.\DriverControl.c **** 
 107:.\DriverControl.c **** /*******************************************************************************
 108:.\DriverControl.c **** * Function Name: getDriverID
 109:.\DriverControl.c **** ********************************************************************************
 110:.\DriverControl.c **** *
 111:.\DriverControl.c **** * Summary:
 112:.\DriverControl.c **** *  Returns the ID number of this driver.
 113:.\DriverControl.c **** *
 114:.\DriverControl.c **** * Parameters:
 115:.\DriverControl.c **** *  None.
 116:.\DriverControl.c **** *
 117:.\DriverControl.c **** * Return:
 118:.\DriverControl.c **** *  Value 1 for head module, 2 - 8 for trailer module
 119:.\DriverControl.c **** *
 120:.\DriverControl.c **** *******************************************************************************/
 121:.\DriverControl.c **** uint8 getDriverID(void)
 122:.\DriverControl.c **** {
  92              		.loc 1 122 0
  93              		.cfi_startproc
  94 0000 80B5     		push	{r7, lr}
  95              		.cfi_def_cfa_offset 8
  96              		.cfi_offset 7, -8
  97              		.cfi_offset 14, -4
  98 0002 00AF     		add	r7, sp, #0
  99              		.cfi_def_cfa_register 7
 123:.\DriverControl.c ****     return PositionData.ID_Number;
 100              		.loc 1 123 0
 101 0004 024B     		ldr	r3, .L7
 102 0006 1B78     		ldrb	r3, [r3]
 124:.\DriverControl.c **** }
 103              		.loc 1 124 0
 104 0008 181C     		mov	r0, r3
ARM GAS  C:\Users\kylep\AppData\Local\Temp\ccWR86sf.s 			page 5


 105 000a BD46     		mov	sp, r7
 106              		@ sp needed
 107 000c 80BD     		pop	{r7, pc}
 108              	.L8:
 109 000e C046     		.align	2
 110              	.L7:
 111 0010 10000000 		.word	PositionData
 112              		.cfi_endproc
 113              	.LFE35:
 114              		.size	getDriverID, .-getDriverID
 115              		.section	.text.setIdentityByComm,"ax",%progbits
 116              		.align	2
 117              		.global	setIdentityByComm
 118              		.code	16
 119              		.thumb_func
 120              		.type	setIdentityByComm, %function
 121              	setIdentityByComm:
 122              	.LFB36:
 125:.\DriverControl.c **** 
 126:.\DriverControl.c **** /*******************************************************************************
 127:.\DriverControl.c **** * Function Name: setIdentityByComm
 128:.\DriverControl.c **** ********************************************************************************
 129:.\DriverControl.c **** *
 130:.\DriverControl.c **** * Summary:
 131:.\DriverControl.c **** *  Sets the ID number for this driver based on UART communication. The number
 132:.\DriverControl.c **** *  assigned is the driver position away from the controller.
 133:.\DriverControl.c **** *
 134:.\DriverControl.c **** * Parameters:
 135:.\DriverControl.c **** *  positionNumber: The ID number based on position in the chain.
 136:.\DriverControl.c **** *
 137:.\DriverControl.c **** * Return:
 138:.\DriverControl.c **** *  SUCCESS for valid input, FAILURE otherwise
 139:.\DriverControl.c **** *
 140:.\DriverControl.c **** *******************************************************************************/
 141:.\DriverControl.c **** uint8 setIdentityByComm(uint8 positionNumber)
 142:.\DriverControl.c **** {
 123              		.loc 1 142 0
 124              		.cfi_startproc
 125 0000 80B5     		push	{r7, lr}
 126              		.cfi_def_cfa_offset 8
 127              		.cfi_offset 7, -8
 128              		.cfi_offset 14, -4
 129 0002 82B0     		sub	sp, sp, #8
 130              		.cfi_def_cfa_offset 16
 131 0004 00AF     		add	r7, sp, #0
 132              		.cfi_def_cfa_register 7
 133 0006 021C     		mov	r2, r0
 134 0008 FB1D     		add	r3, r7, #7
 135 000a 1A70     		strb	r2, [r3]
 143:.\DriverControl.c ****     if(positionNumber < HEAD_MODULE_ID || positionNumber > MAX_DRIVER_COUNT)
 136              		.loc 1 143 0
 137 000c FB1D     		add	r3, r7, #7
 138 000e 1B78     		ldrb	r3, [r3]
 139 0010 002B     		cmp	r3, #0
 140 0012 03D0     		beq	.L10
 141              		.loc 1 143 0 is_stmt 0 discriminator 1
 142 0014 FB1D     		add	r3, r7, #7
ARM GAS  C:\Users\kylep\AppData\Local\Temp\ccWR86sf.s 			page 6


 143 0016 1B78     		ldrb	r3, [r3]
 144 0018 082B     		cmp	r3, #8
 145 001a 01D9     		bls	.L11
 146              	.L10:
 144:.\DriverControl.c ****         return FAILURE;
 147              		.loc 1 144 0 is_stmt 1
 148 001c 0123     		mov	r3, #1
 149 001e 04E0     		b	.L12
 150              	.L11:
 145:.\DriverControl.c ****     
 146:.\DriverControl.c ****     PositionData.ID_Number = positionNumber;
 151              		.loc 1 146 0
 152 0020 044B     		ldr	r3, .L13
 153 0022 FA1D     		add	r2, r7, #7
 154 0024 1278     		ldrb	r2, [r2]
 155 0026 1A70     		strb	r2, [r3]
 147:.\DriverControl.c ****     
 148:.\DriverControl.c ****     return SUCCESS;
 156              		.loc 1 148 0
 157 0028 0023     		mov	r3, #0
 158              	.L12:
 149:.\DriverControl.c **** }
 159              		.loc 1 149 0
 160 002a 181C     		mov	r0, r3
 161 002c BD46     		mov	sp, r7
 162 002e 02B0     		add	sp, sp, #8
 163              		@ sp needed
 164 0030 80BD     		pop	{r7, pc}
 165              	.L14:
 166 0032 C046     		.align	2
 167              	.L13:
 168 0034 10000000 		.word	PositionData
 169              		.cfi_endproc
 170              	.LFE36:
 171              		.size	setIdentityByComm, .-setIdentityByComm
 172              		.section	.text.setDriverCount,"ax",%progbits
 173              		.align	2
 174              		.global	setDriverCount
 175              		.code	16
 176              		.thumb_func
 177              		.type	setDriverCount, %function
 178              	setDriverCount:
 179              	.LFB37:
 150:.\DriverControl.c **** 
 151:.\DriverControl.c **** /*******************************************************************************
 152:.\DriverControl.c **** * Function Name: setDriverCount
 153:.\DriverControl.c **** ********************************************************************************
 154:.\DriverControl.c **** *
 155:.\DriverControl.c **** * Summary:
 156:.\DriverControl.c **** *  Sets the number of drivers in the chain.
 157:.\DriverControl.c **** *
 158:.\DriverControl.c **** * Parameters:
 159:.\DriverControl.c **** *  newDriverCount: The updated number of drivers in the chain.
 160:.\DriverControl.c **** *
 161:.\DriverControl.c **** * Return:
 162:.\DriverControl.c **** *  SUCCESS for valid input, FAILURE otherwise
 163:.\DriverControl.c **** *
ARM GAS  C:\Users\kylep\AppData\Local\Temp\ccWR86sf.s 			page 7


 164:.\DriverControl.c **** *******************************************************************************/
 165:.\DriverControl.c **** uint8 setDriverCount(uint8 newDriverCount)
 166:.\DriverControl.c **** {
 180              		.loc 1 166 0
 181              		.cfi_startproc
 182 0000 80B5     		push	{r7, lr}
 183              		.cfi_def_cfa_offset 8
 184              		.cfi_offset 7, -8
 185              		.cfi_offset 14, -4
 186 0002 82B0     		sub	sp, sp, #8
 187              		.cfi_def_cfa_offset 16
 188 0004 00AF     		add	r7, sp, #0
 189              		.cfi_def_cfa_register 7
 190 0006 021C     		mov	r2, r0
 191 0008 FB1D     		add	r3, r7, #7
 192 000a 1A70     		strb	r2, [r3]
 167:.\DriverControl.c ****     if(newDriverCount < HEAD_MODULE_ID || newDriverCount > MAX_DRIVER_COUNT)
 193              		.loc 1 167 0
 194 000c FB1D     		add	r3, r7, #7
 195 000e 1B78     		ldrb	r3, [r3]
 196 0010 002B     		cmp	r3, #0
 197 0012 03D0     		beq	.L16
 198              		.loc 1 167 0 is_stmt 0 discriminator 1
 199 0014 FB1D     		add	r3, r7, #7
 200 0016 1B78     		ldrb	r3, [r3]
 201 0018 082B     		cmp	r3, #8
 202 001a 01D9     		bls	.L17
 203              	.L16:
 168:.\DriverControl.c ****         return FAILURE;
 204              		.loc 1 168 0 is_stmt 1
 205 001c 0123     		mov	r3, #1
 206 001e 04E0     		b	.L18
 207              	.L17:
 169:.\DriverControl.c ****     
 170:.\DriverControl.c ****     PositionData.driverCount = newDriverCount;
 208              		.loc 1 170 0
 209 0020 044B     		ldr	r3, .L19
 210 0022 FA1D     		add	r2, r7, #7
 211 0024 1278     		ldrb	r2, [r2]
 212 0026 5A70     		strb	r2, [r3, #1]
 171:.\DriverControl.c ****     
 172:.\DriverControl.c ****     return SUCCESS;
 213              		.loc 1 172 0
 214 0028 0023     		mov	r3, #0
 215              	.L18:
 173:.\DriverControl.c **** }
 216              		.loc 1 173 0
 217 002a 181C     		mov	r0, r3
 218 002c BD46     		mov	sp, r7
 219 002e 02B0     		add	sp, sp, #8
 220              		@ sp needed
 221 0030 80BD     		pop	{r7, pc}
 222              	.L20:
 223 0032 C046     		.align	2
 224              	.L19:
 225 0034 10000000 		.word	PositionData
 226              		.cfi_endproc
ARM GAS  C:\Users\kylep\AppData\Local\Temp\ccWR86sf.s 			page 8


 227              	.LFE37:
 228              		.size	setDriverCount, .-setDriverCount
 229              		.section	.text.isLastDriverInChain,"ax",%progbits
 230              		.align	2
 231              		.global	isLastDriverInChain
 232              		.code	16
 233              		.thumb_func
 234              		.type	isLastDriverInChain, %function
 235              	isLastDriverInChain:
 236              	.LFB38:
 174:.\DriverControl.c **** 
 175:.\DriverControl.c **** /*******************************************************************************
 176:.\DriverControl.c **** * Function Name: isLastDriverInChain
 177:.\DriverControl.c **** ********************************************************************************
 178:.\DriverControl.c **** *
 179:.\DriverControl.c **** * Summary:
 180:.\DriverControl.c **** *  Determines if this driver is at the end of the chain.
 181:.\DriverControl.c **** *
 182:.\DriverControl.c **** * Parameters:
 183:.\DriverControl.c **** *  None.
 184:.\DriverControl.c **** *
 185:.\DriverControl.c **** * Return:
 186:.\DriverControl.c **** *  TRUE if last driver in the chain, FALSE if otherwise
 187:.\DriverControl.c **** *
 188:.\DriverControl.c **** *******************************************************************************/
 189:.\DriverControl.c **** uint8 isLastDriverInChain(void)
 190:.\DriverControl.c **** {
 237              		.loc 1 190 0
 238              		.cfi_startproc
 239 0000 80B5     		push	{r7, lr}
 240              		.cfi_def_cfa_offset 8
 241              		.cfi_offset 7, -8
 242              		.cfi_offset 14, -4
 243 0002 00AF     		add	r7, sp, #0
 244              		.cfi_def_cfa_register 7
 191:.\DriverControl.c ****     return PositionData.bLastDriverInChain;
 245              		.loc 1 191 0
 246 0004 024B     		ldr	r3, .L23
 247 0006 9B78     		ldrb	r3, [r3, #2]
 192:.\DriverControl.c **** }
 248              		.loc 1 192 0
 249 0008 181C     		mov	r0, r3
 250 000a BD46     		mov	sp, r7
 251              		@ sp needed
 252 000c 80BD     		pop	{r7, pc}
 253              	.L24:
 254 000e C046     		.align	2
 255              	.L23:
 256 0010 10000000 		.word	PositionData
 257              		.cfi_endproc
 258              	.LFE38:
 259              		.size	isLastDriverInChain, .-isLastDriverInChain
 260              		.section	.text.setAsNotLastDriverInChain,"ax",%progbits
 261              		.align	2
 262              		.global	setAsNotLastDriverInChain
 263              		.code	16
 264              		.thumb_func
ARM GAS  C:\Users\kylep\AppData\Local\Temp\ccWR86sf.s 			page 9


 265              		.type	setAsNotLastDriverInChain, %function
 266              	setAsNotLastDriverInChain:
 267              	.LFB39:
 193:.\DriverControl.c **** 
 194:.\DriverControl.c **** /*******************************************************************************
 195:.\DriverControl.c **** * Function Name: setAsNotLastDriverInChain
 196:.\DriverControl.c **** ********************************************************************************
 197:.\DriverControl.c **** *
 198:.\DriverControl.c **** * Summary:
 199:.\DriverControl.c **** *  At the start of the program, this driver is assumed to the be the last driver
 200:.\DriverControl.c **** *  in the chain. If an ACK packet is received at startup, this function is called
 201:.\DriverControl.c **** *  to update the status for not being in the last driver.
 202:.\DriverControl.c **** *
 203:.\DriverControl.c **** * Parameters:
 204:.\DriverControl.c **** *  None.
 205:.\DriverControl.c **** *
 206:.\DriverControl.c **** * Return:
 207:.\DriverControl.c **** *  None.
 208:.\DriverControl.c **** *
 209:.\DriverControl.c **** *******************************************************************************/
 210:.\DriverControl.c **** void setAsNotLastDriverInChain(void)
 211:.\DriverControl.c **** {
 268              		.loc 1 211 0
 269              		.cfi_startproc
 270 0000 80B5     		push	{r7, lr}
 271              		.cfi_def_cfa_offset 8
 272              		.cfi_offset 7, -8
 273              		.cfi_offset 14, -4
 274 0002 00AF     		add	r7, sp, #0
 275              		.cfi_def_cfa_register 7
 212:.\DriverControl.c ****     PositionData.bLastDriverInChain = FALSE;
 276              		.loc 1 212 0
 277 0004 024B     		ldr	r3, .L26
 278 0006 0022     		mov	r2, #0
 279 0008 9A70     		strb	r2, [r3, #2]
 213:.\DriverControl.c **** }
 280              		.loc 1 213 0
 281 000a BD46     		mov	sp, r7
 282              		@ sp needed
 283 000c 80BD     		pop	{r7, pc}
 284              	.L27:
 285 000e C046     		.align	2
 286              	.L26:
 287 0010 10000000 		.word	PositionData
 288              		.cfi_endproc
 289              	.LFE39:
 290              		.size	setAsNotLastDriverInChain, .-setAsNotLastDriverInChain
 291              		.section	.text.checkForUnderVoltage,"ax",%progbits
 292              		.align	2
 293              		.global	checkForUnderVoltage
 294              		.code	16
 295              		.thumb_func
 296              		.type	checkForUnderVoltage, %function
 297              	checkForUnderVoltage:
 298              	.LFB40:
 214:.\DriverControl.c **** 
 215:.\DriverControl.c **** /*******************************************************************************
ARM GAS  C:\Users\kylep\AppData\Local\Temp\ccWR86sf.s 			page 10


 216:.\DriverControl.c **** * Function Name: checkForUnderVoltage
 217:.\DriverControl.c **** ********************************************************************************
 218:.\DriverControl.c **** *
 219:.\DriverControl.c **** * Summary:
 220:.\DriverControl.c **** *  Takes in the voltage sense reading and updates the undervoltage status.
 221:.\DriverControl.c **** *
 222:.\DriverControl.c **** * Parameters:
 223:.\DriverControl.c **** *  ADC_Value: The voltage sense reading
 224:.\DriverControl.c **** *
 225:.\DriverControl.c **** * Return:
 226:.\DriverControl.c **** *  None.
 227:.\DriverControl.c **** *
 228:.\DriverControl.c **** *******************************************************************************/
 229:.\DriverControl.c **** void checkForUnderVoltage(uint16 ADC_Value)
 230:.\DriverControl.c **** {
 299              		.loc 1 230 0
 300              		.cfi_startproc
 301 0000 80B5     		push	{r7, lr}
 302              		.cfi_def_cfa_offset 8
 303              		.cfi_offset 7, -8
 304              		.cfi_offset 14, -4
 305 0002 82B0     		sub	sp, sp, #8
 306              		.cfi_def_cfa_offset 16
 307 0004 00AF     		add	r7, sp, #0
 308              		.cfi_def_cfa_register 7
 309 0006 021C     		mov	r2, r0
 310 0008 BB1D     		add	r3, r7, #6
 311 000a 1A80     		strh	r2, [r3]
 231:.\DriverControl.c ****     if((VoltageSenseData.bEnable == TRUE) && (ADC_Value < VOLTAGE_SENSE_LOWER_BOUND))
 312              		.loc 1 231 0
 313 000c 114B     		ldr	r3, .L31
 314 000e 1B78     		ldrb	r3, [r3]
 315 0010 012B     		cmp	r3, #1
 316 0012 0DD1     		bne	.L29
 317              		.loc 1 231 0 is_stmt 0 discriminator 1
 318 0014 BB1D     		add	r3, r7, #6
 319 0016 1B88     		ldrh	r3, [r3]
 320 0018 0F4A     		ldr	r2, .L31+4
 321 001a 9342     		cmp	r3, r2
 322 001c 08D8     		bhi	.L29
 232:.\DriverControl.c ****     {
 233:.\DriverControl.c ****         VoltageSenseData.bEnable = FALSE;
 323              		.loc 1 233 0 is_stmt 1
 324 001e 0D4B     		ldr	r3, .L31
 325 0020 0022     		mov	r2, #0
 326 0022 1A70     		strb	r2, [r3]
 234:.\DriverControl.c ****         LED_Timer_Stop();
 327              		.loc 1 234 0
 328 0024 FFF7FEFF 		bl	LED_Timer_Stop
 235:.\DriverControl.c ****         VoltageSenseData.scalingFactor = 0;
 329              		.loc 1 235 0
 330 0028 0A4B     		ldr	r3, .L31
 331 002a 0022     		mov	r2, #0
 332 002c 5A70     		strb	r2, [r3, #1]
 333 002e 0DE0     		b	.L28
 334              	.L29:
 236:.\DriverControl.c ****     }
ARM GAS  C:\Users\kylep\AppData\Local\Temp\ccWR86sf.s 			page 11


 237:.\DriverControl.c ****     else if((VoltageSenseData.bEnable == FALSE) && (ADC_Value > (VOLTAGE_SENSE_UPPER_BOUND)))
 335              		.loc 1 237 0
 336 0030 084B     		ldr	r3, .L31
 337 0032 1B78     		ldrb	r3, [r3]
 338 0034 002B     		cmp	r3, #0
 339 0036 09D1     		bne	.L28
 340              		.loc 1 237 0 is_stmt 0 discriminator 1
 341 0038 BB1D     		add	r3, r7, #6
 342 003a 1B88     		ldrh	r3, [r3]
 343 003c 074A     		ldr	r2, .L31+8
 344 003e 9342     		cmp	r3, r2
 345 0040 04D9     		bls	.L28
 238:.\DriverControl.c ****     {
 239:.\DriverControl.c ****         VoltageSenseData.bEnable = TRUE;
 346              		.loc 1 239 0 is_stmt 1
 347 0042 044B     		ldr	r3, .L31
 348 0044 0122     		mov	r2, #1
 349 0046 1A70     		strb	r2, [r3]
 240:.\DriverControl.c ****         LED_Timer_Start();
 350              		.loc 1 240 0
 351 0048 FFF7FEFF 		bl	LED_Timer_Start
 352              	.L28:
 241:.\DriverControl.c ****     }
 242:.\DriverControl.c **** }
 353              		.loc 1 242 0
 354 004c BD46     		mov	sp, r7
 355 004e 02B0     		add	sp, sp, #8
 356              		@ sp needed
 357 0050 80BD     		pop	{r7, pc}
 358              	.L32:
 359 0052 C046     		.align	2
 360              	.L31:
 361 0054 1C000000 		.word	VoltageSenseData
 362 0058 9D020000 		.word	669
 363 005c 66030000 		.word	870
 364              		.cfi_endproc
 365              	.LFE40:
 366              		.size	checkForUnderVoltage, .-checkForUnderVoltage
 367              		.section	.text.processSoftStart,"ax",%progbits
 368              		.align	2
 369              		.global	processSoftStart
 370              		.code	16
 371              		.thumb_func
 372              		.type	processSoftStart, %function
 373              	processSoftStart:
 374              	.LFB41:
 243:.\DriverControl.c **** 
 244:.\DriverControl.c **** /*******************************************************************************
 245:.\DriverControl.c **** * Function Name: processSoftStart
 246:.\DriverControl.c **** ********************************************************************************
 247:.\DriverControl.c **** *
 248:.\DriverControl.c **** * Summary:
 249:.\DriverControl.c **** *  Called in LED_ISR, increases the brightness from full on to full off in 1 second.
 250:.\DriverControl.c **** *
 251:.\DriverControl.c **** * Parameters:
 252:.\DriverControl.c **** *  None.
 253:.\DriverControl.c **** *
ARM GAS  C:\Users\kylep\AppData\Local\Temp\ccWR86sf.s 			page 12


 254:.\DriverControl.c **** * Return:
 255:.\DriverControl.c **** *  None.
 256:.\DriverControl.c **** *
 257:.\DriverControl.c **** *******************************************************************************/
 258:.\DriverControl.c **** void processSoftStart(void)
 259:.\DriverControl.c **** {
 375              		.loc 1 259 0
 376              		.cfi_startproc
 377 0000 80B5     		push	{r7, lr}
 378              		.cfi_def_cfa_offset 8
 379              		.cfi_offset 7, -8
 380              		.cfi_offset 14, -4
 381 0002 00AF     		add	r7, sp, #0
 382              		.cfi_def_cfa_register 7
 260:.\DriverControl.c ****     LED_Timer_ClearInterrupt(LED_Timer_INTR_MASK_TC);
 383              		.loc 1 260 0
 384 0004 0120     		mov	r0, #1
 385 0006 FFF7FEFF 		bl	LED_Timer_ClearInterrupt
 261:.\DriverControl.c ****     
 262:.\DriverControl.c ****     if(VoltageSenseData.scalingFactor < 0xFF)
 386              		.loc 1 262 0
 387 000a 074B     		ldr	r3, .L36
 388 000c 5B78     		ldrb	r3, [r3, #1]
 389 000e FF2B     		cmp	r3, #255
 390 0010 06D0     		beq	.L34
 263:.\DriverControl.c ****         VoltageSenseData.scalingFactor++;
 391              		.loc 1 263 0
 392 0012 054B     		ldr	r3, .L36
 393 0014 5B78     		ldrb	r3, [r3, #1]
 394 0016 0133     		add	r3, r3, #1
 395 0018 DAB2     		uxtb	r2, r3
 396 001a 034B     		ldr	r3, .L36
 397 001c 5A70     		strb	r2, [r3, #1]
 398 001e 01E0     		b	.L33
 399              	.L34:
 264:.\DriverControl.c ****     else
 265:.\DriverControl.c ****         LED_Timer_Stop();
 400              		.loc 1 265 0
 401 0020 FFF7FEFF 		bl	LED_Timer_Stop
 402              	.L33:
 266:.\DriverControl.c **** }
 403              		.loc 1 266 0
 404 0024 BD46     		mov	sp, r7
 405              		@ sp needed
 406 0026 80BD     		pop	{r7, pc}
 407              	.L37:
 408              		.align	2
 409              	.L36:
 410 0028 1C000000 		.word	VoltageSenseData
 411              		.cfi_endproc
 412              	.LFE41:
 413              		.size	processSoftStart, .-processSoftStart
 414              		.section	.text.updateBrightnessLevel,"ax",%progbits
 415              		.align	2
 416              		.global	updateBrightnessLevel
 417              		.code	16
 418              		.thumb_func
ARM GAS  C:\Users\kylep\AppData\Local\Temp\ccWR86sf.s 			page 13


 419              		.type	updateBrightnessLevel, %function
 420              	updateBrightnessLevel:
 421              	.LFB42:
 267:.\DriverControl.c **** 
 268:.\DriverControl.c **** /*******************************************************************************
 269:.\DriverControl.c **** * Function Name: updateBrightnessLevel
 270:.\DriverControl.c **** ********************************************************************************
 271:.\DriverControl.c **** *
 272:.\DriverControl.c **** * Summary:
 273:.\DriverControl.c **** *  Updates the brightness of the LED. Resulting brightness may not match the
 274:.\DriverControl.c **** *  requested brightness depending on temperature regulation state.
 275:.\DriverControl.c **** *
 276:.\DriverControl.c **** * Parameters:
 277:.\DriverControl.c **** *  brightnessLevel: The desired brightness level for the LED.
 278:.\DriverControl.c **** *
 279:.\DriverControl.c **** * Return:
 280:.\DriverControl.c **** *  The resulting brightness level of the LED
 281:.\DriverControl.c **** *
 282:.\DriverControl.c **** *******************************************************************************/
 283:.\DriverControl.c **** uint8 updateBrightnessLevel(uint8 brightnessLevel, uint8 bRegulated)
 284:.\DriverControl.c **** {
 422              		.loc 1 284 0
 423              		.cfi_startproc
 424 0000 80B5     		push	{r7, lr}
 425              		.cfi_def_cfa_offset 8
 426              		.cfi_offset 7, -8
 427              		.cfi_offset 14, -4
 428 0002 82B0     		sub	sp, sp, #8
 429              		.cfi_def_cfa_offset 16
 430 0004 00AF     		add	r7, sp, #0
 431              		.cfi_def_cfa_register 7
 432 0006 021C     		mov	r2, r0
 433 0008 FB1D     		add	r3, r7, #7
 434 000a 1A70     		strb	r2, [r3]
 435 000c BB1D     		add	r3, r7, #6
 436 000e 0A1C     		add	r2, r1, #0
 437 0010 1A70     		strb	r2, [r3]
 285:.\DriverControl.c ****     if(bRegulated != TRUE && bRegulated != FALSE)
 438              		.loc 1 285 0
 439 0012 BB1D     		add	r3, r7, #6
 440 0014 1B78     		ldrb	r3, [r3]
 441 0016 012B     		cmp	r3, #1
 442 0018 05D0     		beq	.L39
 443              		.loc 1 285 0 is_stmt 0 discriminator 1
 444 001a BB1D     		add	r3, r7, #6
 445 001c 1B78     		ldrb	r3, [r3]
 446 001e 002B     		cmp	r3, #0
 447 0020 01D0     		beq	.L39
 286:.\DriverControl.c ****     return 0;
 448              		.loc 1 286 0 is_stmt 1
 449 0022 0023     		mov	r3, #0
 450 0024 4AE0     		b	.L40
 451              	.L39:
 287:.\DriverControl.c ****     
 288:.\DriverControl.c ****    // brightnessLevel = (uint8)((uint16)(VoltageSenseData.scalingFactor)*
 289:.\DriverControl.c ****    //                     (uint16)(brightnessLevel) / MAX_SCALING_FACTOR);
 290:.\DriverControl.c ****     
ARM GAS  C:\Users\kylep\AppData\Local\Temp\ccWR86sf.s 			page 14


 291:.\DriverControl.c ****     if(brightnessLevel != RegulationData.requestedBrightness)
 452              		.loc 1 291 0
 453 0026 274B     		ldr	r3, .L48
 454 0028 1B78     		ldrb	r3, [r3]
 455 002a FA1D     		add	r2, r7, #7
 456 002c 1278     		ldrb	r2, [r2]
 457 002e 9A42     		cmp	r2, r3
 458 0030 03D0     		beq	.L41
 292:.\DriverControl.c ****         RegulationData.requestedBrightness = brightnessLevel;
 459              		.loc 1 292 0
 460 0032 244B     		ldr	r3, .L48
 461 0034 FA1D     		add	r2, r7, #7
 462 0036 1278     		ldrb	r2, [r2]
 463 0038 1A70     		strb	r2, [r3]
 464              	.L41:
 293:.\DriverControl.c ****     
 294:.\DriverControl.c ****     if((PositionData.ID_Number != HEAD_MODULE_ID) || (bRegulated == FALSE))
 465              		.loc 1 294 0
 466 003a 234B     		ldr	r3, .L48+4
 467 003c 1B78     		ldrb	r3, [r3]
 468 003e 012B     		cmp	r3, #1
 469 0040 03D1     		bne	.L42
 470              		.loc 1 294 0 is_stmt 0 discriminator 1
 471 0042 BB1D     		add	r3, r7, #6
 472 0044 1B78     		ldrb	r3, [r3]
 473 0046 002B     		cmp	r3, #0
 474 0048 1CD1     		bne	.L43
 475              	.L42:
 295:.\DriverControl.c ****     {   
 296:.\DriverControl.c ****         if(RegulationData.requestedBrightness != RegulationData.previousBrightness)
 476              		.loc 1 296 0 is_stmt 1
 477 004a 1E4B     		ldr	r3, .L48
 478 004c 1A78     		ldrb	r2, [r3]
 479 004e 1D4B     		ldr	r3, .L48
 480 0050 9B78     		ldrb	r3, [r3, #2]
 481 0052 9A42     		cmp	r2, r3
 482 0054 0FD0     		beq	.L44
 297:.\DriverControl.c ****         {
 298:.\DriverControl.c ****             if(RegulationData.requestedBrightness > 0)
 483              		.loc 1 298 0
 484 0056 1B4B     		ldr	r3, .L48
 485 0058 1B78     		ldrb	r3, [r3]
 486 005a 002B     		cmp	r3, #0
 487 005c 08D0     		beq	.L45
 299:.\DriverControl.c ****             {
 300:.\DriverControl.c ****                 PWM_Enable_Write(TRUE);
 488              		.loc 1 300 0
 489 005e 0120     		mov	r0, #1
 490 0060 FFF7FEFF 		bl	PWM_Enable_Write
 301:.\DriverControl.c ****                 PWM_WriteCompare(RegulationData.requestedBrightness);
 491              		.loc 1 301 0
 492 0064 174B     		ldr	r3, .L48
 493 0066 1B78     		ldrb	r3, [r3]
 494 0068 181C     		mov	r0, r3
 495 006a FFF7FEFF 		bl	PWM_WriteCompare
 496 006e 02E0     		b	.L44
 497              	.L45:
ARM GAS  C:\Users\kylep\AppData\Local\Temp\ccWR86sf.s 			page 15


 302:.\DriverControl.c ****             }
 303:.\DriverControl.c ****             else
 304:.\DriverControl.c ****             {
 305:.\DriverControl.c ****                 PWM_Enable_Write(FALSE);
 498              		.loc 1 305 0
 499 0070 0020     		mov	r0, #0
 500 0072 FFF7FEFF 		bl	PWM_Enable_Write
 501              	.L44:
 306:.\DriverControl.c ****             }
 307:.\DriverControl.c ****         };
 308:.\DriverControl.c ****         
 309:.\DriverControl.c ****         RegulationData.previousBrightness = RegulationData.requestedBrightness;
 502              		.loc 1 309 0
 503 0076 134B     		ldr	r3, .L48
 504 0078 1A78     		ldrb	r2, [r3]
 505 007a 124B     		ldr	r3, .L48
 506 007c 9A70     		strb	r2, [r3, #2]
 310:.\DriverControl.c ****         return RegulationData.requestedBrightness;
 507              		.loc 1 310 0
 508 007e 114B     		ldr	r3, .L48
 509 0080 1B78     		ldrb	r3, [r3]
 510 0082 1BE0     		b	.L40
 511              	.L43:
 311:.\DriverControl.c ****     }
 312:.\DriverControl.c ****     
 313:.\DriverControl.c ****     if(RegulationData.regulatedBrightness != RegulationData.previousBrightness)
 512              		.loc 1 313 0
 513 0084 0F4B     		ldr	r3, .L48
 514 0086 5A78     		ldrb	r2, [r3, #1]
 515 0088 0E4B     		ldr	r3, .L48
 516 008a 9B78     		ldrb	r3, [r3, #2]
 517 008c 9A42     		cmp	r2, r3
 518 008e 0FD0     		beq	.L46
 314:.\DriverControl.c ****     {
 315:.\DriverControl.c ****         if(RegulationData.regulatedBrightness > 0)
 519              		.loc 1 315 0
 520 0090 0C4B     		ldr	r3, .L48
 521 0092 5B78     		ldrb	r3, [r3, #1]
 522 0094 002B     		cmp	r3, #0
 523 0096 08D0     		beq	.L47
 316:.\DriverControl.c ****         {
 317:.\DriverControl.c ****             PWM_Enable_Write(TRUE);
 524              		.loc 1 317 0
 525 0098 0120     		mov	r0, #1
 526 009a FFF7FEFF 		bl	PWM_Enable_Write
 318:.\DriverControl.c ****             PWM_WriteCompare(RegulationData.regulatedBrightness);
 527              		.loc 1 318 0
 528 009e 094B     		ldr	r3, .L48
 529 00a0 5B78     		ldrb	r3, [r3, #1]
 530 00a2 181C     		mov	r0, r3
 531 00a4 FFF7FEFF 		bl	PWM_WriteCompare
 532 00a8 02E0     		b	.L46
 533              	.L47:
 319:.\DriverControl.c ****         }
 320:.\DriverControl.c ****         else
 321:.\DriverControl.c ****             PWM_Enable_Write(FALSE);
 534              		.loc 1 321 0
ARM GAS  C:\Users\kylep\AppData\Local\Temp\ccWR86sf.s 			page 16


 535 00aa 0020     		mov	r0, #0
 536 00ac FFF7FEFF 		bl	PWM_Enable_Write
 537              	.L46:
 322:.\DriverControl.c ****     }
 323:.\DriverControl.c ****     
 324:.\DriverControl.c ****     RegulationData.previousBrightness = RegulationData.regulatedBrightness;    
 538              		.loc 1 324 0
 539 00b0 044B     		ldr	r3, .L48
 540 00b2 5A78     		ldrb	r2, [r3, #1]
 541 00b4 034B     		ldr	r3, .L48
 542 00b6 9A70     		strb	r2, [r3, #2]
 325:.\DriverControl.c ****     return RegulationData.regulatedBrightness;
 543              		.loc 1 325 0
 544 00b8 024B     		ldr	r3, .L48
 545 00ba 5B78     		ldrb	r3, [r3, #1]
 546              	.L40:
 326:.\DriverControl.c **** }
 547              		.loc 1 326 0
 548 00bc 181C     		mov	r0, r3
 549 00be BD46     		mov	sp, r7
 550 00c0 02B0     		add	sp, sp, #8
 551              		@ sp needed
 552 00c2 80BD     		pop	{r7, pc}
 553              	.L49:
 554              		.align	2
 555              	.L48:
 556 00c4 14000000 		.word	RegulationData
 557 00c8 10000000 		.word	PositionData
 558              		.cfi_endproc
 559              	.LFE42:
 560              		.size	updateBrightnessLevel, .-updateBrightnessLevel
 561              		.section	.text.getMaxTemperature,"ax",%progbits
 562              		.align	2
 563              		.global	getMaxTemperature
 564              		.code	16
 565              		.thumb_func
 566              		.type	getMaxTemperature, %function
 567              	getMaxTemperature:
 568              	.LFB43:
 327:.\DriverControl.c **** 
 328:.\DriverControl.c **** /*******************************************************************************
 329:.\DriverControl.c **** * Function Name: getMaxTemperature
 330:.\DriverControl.c **** ********************************************************************************
 331:.\DriverControl.c **** *
 332:.\DriverControl.c **** * Summary:
 333:.\DriverControl.c **** *  Obtains the next temperature sample from ADC.
 334:.\DriverControl.c **** *
 335:.\DriverControl.c **** * Parameters:
 336:.\DriverControl.c **** *  None.
 337:.\DriverControl.c **** *
 338:.\DriverControl.c **** * Return:
 339:.\DriverControl.c **** *  The next temperature sample from ADC
 340:.\DriverControl.c **** *
 341:.\DriverControl.c **** *******************************************************************************/
 342:.\DriverControl.c **** int16 getMaxTemperature(enum TemperaturePoint channelNumber)
 343:.\DriverControl.c **** {
 569              		.loc 1 343 0
ARM GAS  C:\Users\kylep\AppData\Local\Temp\ccWR86sf.s 			page 17


 570              		.cfi_startproc
 571 0000 80B5     		push	{r7, lr}
 572              		.cfi_def_cfa_offset 8
 573              		.cfi_offset 7, -8
 574              		.cfi_offset 14, -4
 575 0002 82B0     		sub	sp, sp, #8
 576              		.cfi_def_cfa_offset 16
 577 0004 00AF     		add	r7, sp, #0
 578              		.cfi_def_cfa_register 7
 579 0006 021C     		mov	r2, r0
 580 0008 FB1D     		add	r3, r7, #7
 581 000a 1A70     		strb	r2, [r3]
 344:.\DriverControl.c ****     if(channelNumber < LED || channelNumber > MICRO)
 582              		.loc 1 344 0
 583 000c FB1D     		add	r3, r7, #7
 584 000e 1B78     		ldrb	r3, [r3]
 585 0010 022B     		cmp	r3, #2
 586 0012 01D9     		bls	.L51
 345:.\DriverControl.c ****         return 0;
 587              		.loc 1 345 0
 588 0014 0023     		mov	r3, #0
 589 0016 04E0     		b	.L52
 590              	.L51:
 346:.\DriverControl.c ****     
 347:.\DriverControl.c ****     return ThermalLimitArray[channelNumber].MAX_TEMPERATURE;
 591              		.loc 1 347 0
 592 0018 FB1D     		add	r3, r7, #7
 593 001a 1A78     		ldrb	r2, [r3]
 594 001c 034B     		ldr	r3, .L53
 595 001e 9200     		lsl	r2, r2, #2
 596 0020 D35A     		ldrh	r3, [r2, r3]
 597              	.L52:
 598 0022 1BB2     		sxth	r3, r3
 348:.\DriverControl.c **** }
 599              		.loc 1 348 0
 600 0024 181C     		mov	r0, r3
 601 0026 BD46     		mov	sp, r7
 602 0028 02B0     		add	sp, sp, #8
 603              		@ sp needed
 604 002a 80BD     		pop	{r7, pc}
 605              	.L54:
 606              		.align	2
 607              	.L53:
 608 002c 00000000 		.word	ThermalLimitArray
 609              		.cfi_endproc
 610              	.LFE43:
 611              		.size	getMaxTemperature, .-getMaxTemperature
 612              		.global	__aeabi_i2f
 613              		.global	__aeabi_fmul
 614              		.global	__aeabi_f2d
 615              		.global	__aeabi_ddiv
 616              		.global	__aeabi_d2f
 617              		.global	__aeabi_f2iz
 618              		.section	.text.getTemperatureSample,"ax",%progbits
 619              		.align	2
 620              		.global	getTemperatureSample
 621              		.code	16
ARM GAS  C:\Users\kylep\AppData\Local\Temp\ccWR86sf.s 			page 18


 622              		.thumb_func
 623              		.type	getTemperatureSample, %function
 624              	getTemperatureSample:
 625              	.LFB44:
 349:.\DriverControl.c **** 
 350:.\DriverControl.c **** /*******************************************************************************
 351:.\DriverControl.c **** * Function Name: getTemperatureSample
 352:.\DriverControl.c **** ********************************************************************************
 353:.\DriverControl.c **** *
 354:.\DriverControl.c **** * Summary:
 355:.\DriverControl.c **** *  Obtains the next temperature sample(s) from ADC. This function can return a
 356:.\DriverControl.c **** *  single sample or multiple samples in one call.
 357:.\DriverControl.c **** *
 358:.\DriverControl.c **** * Parameters:
 359:.\DriverControl.c **** *  bSingleSample: TRUE for single sample, FALSE for multiple samples
 360:.\DriverControl.c **** *  channelNumber: Channel selection for single sample: LED, SWITCH_NODE, AMBIENT, or MICRO
 361:.\DriverControl.c **** *  sampleArray: Reference to the array that contains 4 temperature samples
 362:.\DriverControl.c **** *  length: Size of the array in # of temperature points
 363:.\DriverControl.c **** *
 364:.\DriverControl.c **** * Return:
 365:.\DriverControl.c **** *  Single temperature value or Reference to array of 4 temperature samples
 366:.\DriverControl.c **** *
 367:.\DriverControl.c **** *******************************************************************************/
 368:.\DriverControl.c **** int16 getTemperatureSample(uint8 bSingleSample, enum TemperaturePoint channelNumber, 
 369:.\DriverControl.c ****     int16* sampleArray, uint8 length)
 370:.\DriverControl.c **** {  
 626              		.loc 1 370 0
 627              		.cfi_startproc
 628 0000 90B5     		push	{r4, r7, lr}
 629              		.cfi_def_cfa_offset 12
 630              		.cfi_offset 4, -12
 631              		.cfi_offset 7, -8
 632              		.cfi_offset 14, -4
 633 0002 87B0     		sub	sp, sp, #28
 634              		.cfi_def_cfa_offset 40
 635 0004 00AF     		add	r7, sp, #0
 636              		.cfi_def_cfa_register 7
 637 0006 041C     		mov	r4, r0
 638 0008 081C     		mov	r0, r1
 639 000a 3A60     		str	r2, [r7]
 640 000c 191C     		mov	r1, r3
 641 000e FB1D     		add	r3, r7, #7
 642 0010 221C     		add	r2, r4, #0
 643 0012 1A70     		strb	r2, [r3]
 644 0014 BB1D     		add	r3, r7, #6
 645 0016 021C     		add	r2, r0, #0
 646 0018 1A70     		strb	r2, [r3]
 647 001a 7B1D     		add	r3, r7, #5
 648 001c 0A1C     		add	r2, r1, #0
 649 001e 1A70     		strb	r2, [r3]
 371:.\DriverControl.c ****     uint8 ADC_WaitCount = 0;
 650              		.loc 1 371 0
 651 0020 1723     		mov	r3, #23
 652 0022 FB18     		add	r3, r7, r3
 653 0024 0022     		mov	r2, #0
 654 0026 1A70     		strb	r2, [r3]
 372:.\DriverControl.c ****     int16 temperatureSample_16 = 0;
ARM GAS  C:\Users\kylep\AppData\Local\Temp\ccWR86sf.s 			page 19


 655              		.loc 1 372 0
 656 0028 1423     		mov	r3, #20
 657 002a FB18     		add	r3, r7, r3
 658 002c 0022     		mov	r2, #0
 659 002e 1A80     		strh	r2, [r3]
 373:.\DriverControl.c ****     float temperatureSample_float = 0;
 660              		.loc 1 373 0
 661 0030 0023     		mov	r3, #0
 662 0032 FB60     		str	r3, [r7, #12]
 374:.\DriverControl.c ****     uint32 channelIndex = 0;    
 663              		.loc 1 374 0
 664 0034 0023     		mov	r3, #0
 665 0036 3B61     		str	r3, [r7, #16]
 375:.\DriverControl.c ****     
 376:.\DriverControl.c ****     if((bSingleSample != TRUE) && (bSingleSample != FALSE))
 666              		.loc 1 376 0
 667 0038 FB1D     		add	r3, r7, #7
 668 003a 1B78     		ldrb	r3, [r3]
 669 003c 012B     		cmp	r3, #1
 670 003e 05D0     		beq	.L56
 671              		.loc 1 376 0 is_stmt 0 discriminator 1
 672 0040 FB1D     		add	r3, r7, #7
 673 0042 1B78     		ldrb	r3, [r3]
 674 0044 002B     		cmp	r3, #0
 675 0046 01D0     		beq	.L56
 377:.\DriverControl.c ****         return 0;
 676              		.loc 1 377 0 is_stmt 1
 677 0048 0023     		mov	r3, #0
 678 004a CFE0     		b	.L57
 679              	.L56:
 378:.\DriverControl.c ****     
 379:.\DriverControl.c ****     if(bSingleSample)
 680              		.loc 1 379 0
 681 004c FB1D     		add	r3, r7, #7
 682 004e 1B78     		ldrb	r3, [r3]
 683 0050 002B     		cmp	r3, #0
 684 0052 05D0     		beq	.L58
 380:.\DriverControl.c ****     {   //Input check for single sample
 381:.\DriverControl.c ****         if(channelNumber < LED || channelNumber > VOLTAGE_SENSE)
 685              		.loc 1 381 0
 686 0054 BB1D     		add	r3, r7, #6
 687 0056 1B78     		ldrb	r3, [r3]
 688 0058 032B     		cmp	r3, #3
 689 005a 0AD9     		bls	.L59
 382:.\DriverControl.c ****             return 0;
 690              		.loc 1 382 0
 691 005c 0023     		mov	r3, #0
 692 005e C5E0     		b	.L57
 693              	.L58:
 383:.\DriverControl.c ****     }
 384:.\DriverControl.c ****     else
 385:.\DriverControl.c ****     {   //Input check for multiple samples
 386:.\DriverControl.c ****         if(sampleArray == NULL || length > ADC_SAMPLE_COUNT)
 694              		.loc 1 386 0
 695 0060 3B68     		ldr	r3, [r7]
 696 0062 002B     		cmp	r3, #0
 697 0064 03D0     		beq	.L60
ARM GAS  C:\Users\kylep\AppData\Local\Temp\ccWR86sf.s 			page 20


 698              		.loc 1 386 0 is_stmt 0 discriminator 1
 699 0066 7B1D     		add	r3, r7, #5
 700 0068 1B78     		ldrb	r3, [r3]
 701 006a 042B     		cmp	r3, #4
 702 006c 01D9     		bls	.L59
 703              	.L60:
 387:.\DriverControl.c ****             return 0;
 704              		.loc 1 387 0 is_stmt 1
 705 006e 0023     		mov	r3, #0
 706 0070 BCE0     		b	.L57
 707              	.L59:
 388:.\DriverControl.c ****     }
 389:.\DriverControl.c ****     
 390:.\DriverControl.c ****     while(!ADC_SAR_Seq_IsEndConversion(ADC_SAR_Seq_RETURN_STATUS) 
 708              		.loc 1 390 0 discriminator 1
 709 0072 09E0     		b	.L61
 710              	.L63:
 391:.\DriverControl.c ****         && (ADC_WaitCount < MAX_ADC_CONVERSION_WAIT_LIMIT))
 392:.\DriverControl.c ****     {   //Wait for ADC conversion to complete
 393:.\DriverControl.c ****         ADC_WaitCount++;
 711              		.loc 1 393 0
 712 0074 1723     		mov	r3, #23
 713 0076 FB18     		add	r3, r7, r3
 714 0078 1A78     		ldrb	r2, [r3]
 715 007a 1723     		mov	r3, #23
 716 007c FB18     		add	r3, r7, r3
 717 007e 0132     		add	r2, r2, #1
 718 0080 1A70     		strb	r2, [r3]
 394:.\DriverControl.c ****         CyDelayUs(8);
 719              		.loc 1 394 0
 720 0082 0820     		mov	r0, #8
 721 0084 FFF7FEFF 		bl	CyDelayUs
 722              	.L61:
 390:.\DriverControl.c ****         && (ADC_WaitCount < MAX_ADC_CONVERSION_WAIT_LIMIT))
 723              		.loc 1 390 0
 724 0088 0120     		mov	r0, #1
 725 008a FFF7FEFF 		bl	ADC_SAR_Seq_IsEndConversion
 726 008e 031E     		sub	r3, r0, #0
 727 0090 04D1     		bne	.L62
 391:.\DriverControl.c ****         && (ADC_WaitCount < MAX_ADC_CONVERSION_WAIT_LIMIT))
 728              		.loc 1 391 0
 729 0092 1723     		mov	r3, #23
 730 0094 FB18     		add	r3, r7, r3
 731 0096 1B78     		ldrb	r3, [r3]
 732 0098 042B     		cmp	r3, #4
 733 009a EBD9     		bls	.L63
 734              	.L62:
 395:.\DriverControl.c ****     }
 396:.\DriverControl.c ****     
 397:.\DriverControl.c ****     if(ADC_WaitCount > MAX_ADC_CONVERSION_WAIT_LIMIT)
 735              		.loc 1 397 0
 736 009c 1723     		mov	r3, #23
 737 009e FB18     		add	r3, r7, r3
 738 00a0 1B78     		ldrb	r3, [r3]
 739 00a2 052B     		cmp	r3, #5
 740 00a4 01D9     		bls	.L64
 398:.\DriverControl.c ****         return 0;   //For case when conversion doesn't complete
ARM GAS  C:\Users\kylep\AppData\Local\Temp\ccWR86sf.s 			page 21


 741              		.loc 1 398 0
 742 00a6 0023     		mov	r3, #0
 743 00a8 A0E0     		b	.L57
 744              	.L64:
 399:.\DriverControl.c ****     
 400:.\DriverControl.c ****     if(bSingleSample)
 745              		.loc 1 400 0
 746 00aa FB1D     		add	r3, r7, #7
 747 00ac 1B78     		ldrb	r3, [r3]
 748 00ae 002B     		cmp	r3, #0
 749 00b0 46D0     		beq	.L65
 401:.\DriverControl.c ****     {   //Get single sample
 402:.\DriverControl.c ****         if(channelNumber == MICRO)
 750              		.loc 1 402 0
 751 00b2 BB1D     		add	r3, r7, #6
 752 00b4 1B78     		ldrb	r3, [r3]
 753 00b6 022B     		cmp	r3, #2
 754 00b8 2CD1     		bne	.L66
 403:.\DriverControl.c ****         {
 404:.\DriverControl.c ****             temperatureSample_float = (float)(ADC_SAR_Seq_GetResult16(MICRO + 1));
 755              		.loc 1 404 0
 756 00ba 0320     		mov	r0, #3
 757 00bc FFF7FEFF 		bl	ADC_SAR_Seq_GetResult16
 758 00c0 031C     		mov	r3, r0
 759 00c2 181C     		mov	r0, r3
 760 00c4 FFF7FEFF 		bl	__aeabi_i2f
 761 00c8 031C     		add	r3, r0, #0
 762 00ca FB60     		str	r3, [r7, #12]
 405:.\DriverControl.c ****             temperatureSample_float = temperatureSample_float * 5 / 1.024;
 763              		.loc 1 405 0
 764 00cc F868     		ldr	r0, [r7, #12]
 765 00ce 4A49     		ldr	r1, .L72
 766 00d0 FFF7FEFF 		bl	__aeabi_fmul
 767 00d4 031C     		add	r3, r0, #0
 768 00d6 181C     		add	r0, r3, #0
 769 00d8 FFF7FEFF 		bl	__aeabi_f2d
 770 00dc 031C     		mov	r3, r0
 771 00de 0C1C     		mov	r4, r1
 772 00e0 181C     		mov	r0, r3
 773 00e2 211C     		mov	r1, r4
 774 00e4 454A     		ldr	r2, .L72+4
 775 00e6 464B     		ldr	r3, .L72+8
 776 00e8 FFF7FEFF 		bl	__aeabi_ddiv
 777 00ec 031C     		mov	r3, r0
 778 00ee 0C1C     		mov	r4, r1
 779 00f0 181C     		mov	r0, r3
 780 00f2 211C     		mov	r1, r4
 781 00f4 FFF7FEFF 		bl	__aeabi_d2f
 782 00f8 031C     		add	r3, r0, #0
 783 00fa FB60     		str	r3, [r7, #12]
 406:.\DriverControl.c ****             temperatureSample_16 = (int16)(DieTemp_CountsTo_Celsius((int32)(temperatureSample_float
 784              		.loc 1 406 0
 785 00fc F868     		ldr	r0, [r7, #12]
 786 00fe FFF7FEFF 		bl	__aeabi_f2iz
 787 0102 031C     		mov	r3, r0
 788 0104 181C     		mov	r0, r3
 789 0106 FFF7FEFF 		bl	DieTemp_CountsTo_Celsius
ARM GAS  C:\Users\kylep\AppData\Local\Temp\ccWR86sf.s 			page 22


 790 010a 021C     		mov	r2, r0
 791 010c 1423     		mov	r3, #20
 792 010e FB18     		add	r3, r7, r3
 793 0110 1A80     		strh	r2, [r3]
 794 0112 68E0     		b	.L69
 795              	.L66:
 407:.\DriverControl.c ****         }
 408:.\DriverControl.c ****         else
 409:.\DriverControl.c ****         {
 410:.\DriverControl.c ****             if(channelNumber == VOLTAGE_SENSE)
 796              		.loc 1 410 0
 797 0114 BB1D     		add	r3, r7, #6
 798 0116 1B78     		ldrb	r3, [r3]
 799 0118 032B     		cmp	r3, #3
 800 011a 07D1     		bne	.L68
 411:.\DriverControl.c ****                 temperatureSample_16 = ADC_SAR_Seq_GetResult16((uint32)(VOLTAGE_SENSE - 1));
 801              		.loc 1 411 0
 802 011c 1423     		mov	r3, #20
 803 011e FC18     		add	r4, r7, r3
 804 0120 0220     		mov	r0, #2
 805 0122 FFF7FEFF 		bl	ADC_SAR_Seq_GetResult16
 806 0126 031C     		mov	r3, r0
 807 0128 2380     		strh	r3, [r4]
 808 012a 5CE0     		b	.L69
 809              	.L68:
 412:.\DriverControl.c ****             else
 413:.\DriverControl.c ****                 temperatureSample_16 = ADC_SAR_Seq_GetResult16((uint32)(channelNumber));
 810              		.loc 1 413 0
 811 012c BB1D     		add	r3, r7, #6
 812 012e 1B78     		ldrb	r3, [r3]
 813 0130 1422     		mov	r2, #20
 814 0132 BC18     		add	r4, r7, r2
 815 0134 181C     		mov	r0, r3
 816 0136 FFF7FEFF 		bl	ADC_SAR_Seq_GetResult16
 817 013a 031C     		mov	r3, r0
 818 013c 2380     		strh	r3, [r4]
 819 013e 52E0     		b	.L69
 820              	.L65:
 414:.\DriverControl.c ****         }
 415:.\DriverControl.c ****     }
 416:.\DriverControl.c ****     else
 417:.\DriverControl.c ****     {   //Get 4 temperature samples
 418:.\DriverControl.c ****         for(channelIndex = 0; channelIndex < (ADC_SAMPLE_COUNT - 2); channelIndex++)
 821              		.loc 1 418 0
 822 0140 0023     		mov	r3, #0
 823 0142 3B61     		str	r3, [r7, #16]
 824 0144 12E0     		b	.L70
 825              	.L71:
 419:.\DriverControl.c ****         {
 420:.\DriverControl.c ****             temperatureSample_16 = ADC_SAR_Seq_GetResult16(channelIndex);
 826              		.loc 1 420 0 discriminator 3
 827 0146 1423     		mov	r3, #20
 828 0148 FC18     		add	r4, r7, r3
 829 014a 3B69     		ldr	r3, [r7, #16]
 830 014c 181C     		mov	r0, r3
 831 014e FFF7FEFF 		bl	ADC_SAR_Seq_GetResult16
 832 0152 031C     		mov	r3, r0
ARM GAS  C:\Users\kylep\AppData\Local\Temp\ccWR86sf.s 			page 23


 833 0154 2380     		strh	r3, [r4]
 421:.\DriverControl.c ****             sampleArray[channelIndex] = temperatureSample_16;
 834              		.loc 1 421 0 discriminator 3
 835 0156 3B69     		ldr	r3, [r7, #16]
 836 0158 5B00     		lsl	r3, r3, #1
 837 015a 3A68     		ldr	r2, [r7]
 838 015c D318     		add	r3, r2, r3
 839 015e 1422     		mov	r2, #20
 840 0160 BA18     		add	r2, r7, r2
 841 0162 1288     		ldrh	r2, [r2]
 842 0164 1A80     		strh	r2, [r3]
 418:.\DriverControl.c ****         {
 843              		.loc 1 418 0 discriminator 3
 844 0166 3B69     		ldr	r3, [r7, #16]
 845 0168 0133     		add	r3, r3, #1
 846 016a 3B61     		str	r3, [r7, #16]
 847              	.L70:
 418:.\DriverControl.c ****         {
 848              		.loc 1 418 0 is_stmt 0 discriminator 1
 849 016c 3B69     		ldr	r3, [r7, #16]
 850 016e 012B     		cmp	r3, #1
 851 0170 E9D9     		bls	.L71
 422:.\DriverControl.c ****         }
 423:.\DriverControl.c ****             
 424:.\DriverControl.c ****         temperatureSample_float = (float)(ADC_SAR_Seq_GetResult16(MICRO + 1));
 852              		.loc 1 424 0 is_stmt 1
 853 0172 0320     		mov	r0, #3
 854 0174 FFF7FEFF 		bl	ADC_SAR_Seq_GetResult16
 855 0178 031C     		mov	r3, r0
 856 017a 181C     		mov	r0, r3
 857 017c FFF7FEFF 		bl	__aeabi_i2f
 858 0180 031C     		add	r3, r0, #0
 859 0182 FB60     		str	r3, [r7, #12]
 425:.\DriverControl.c ****         temperatureSample_float = temperatureSample_float * 5 / 1.024;
 860              		.loc 1 425 0
 861 0184 F868     		ldr	r0, [r7, #12]
 862 0186 1C49     		ldr	r1, .L72
 863 0188 FFF7FEFF 		bl	__aeabi_fmul
 864 018c 031C     		add	r3, r0, #0
 865 018e 181C     		add	r0, r3, #0
 866 0190 FFF7FEFF 		bl	__aeabi_f2d
 867 0194 031C     		mov	r3, r0
 868 0196 0C1C     		mov	r4, r1
 869 0198 181C     		mov	r0, r3
 870 019a 211C     		mov	r1, r4
 871 019c 174A     		ldr	r2, .L72+4
 872 019e 184B     		ldr	r3, .L72+8
 873 01a0 FFF7FEFF 		bl	__aeabi_ddiv
 874 01a4 031C     		mov	r3, r0
 875 01a6 0C1C     		mov	r4, r1
 876 01a8 181C     		mov	r0, r3
 877 01aa 211C     		mov	r1, r4
 878 01ac FFF7FEFF 		bl	__aeabi_d2f
 879 01b0 031C     		add	r3, r0, #0
 880 01b2 FB60     		str	r3, [r7, #12]
 426:.\DriverControl.c ****         sampleArray[ADC_SAMPLE_COUNT - 2]
 881              		.loc 1 426 0
ARM GAS  C:\Users\kylep\AppData\Local\Temp\ccWR86sf.s 			page 24


 882 01b4 3B68     		ldr	r3, [r7]
 883 01b6 1C1D     		add	r4, r3, #4
 427:.\DriverControl.c ****             = (int16)(DieTemp_CountsTo_Celsius((int32)(temperatureSample_float)));
 884              		.loc 1 427 0
 885 01b8 F868     		ldr	r0, [r7, #12]
 886 01ba FFF7FEFF 		bl	__aeabi_f2iz
 887 01be 031C     		mov	r3, r0
 888 01c0 181C     		mov	r0, r3
 889 01c2 FFF7FEFF 		bl	DieTemp_CountsTo_Celsius
 890 01c6 031C     		mov	r3, r0
 891 01c8 9BB2     		uxth	r3, r3
 892 01ca 2380     		strh	r3, [r4]
 428:.\DriverControl.c ****             
 429:.\DriverControl.c ****         temperatureSample_16 = ADC_SAR_Seq_GetResult16(VOLTAGE_SENSE - 1);
 893              		.loc 1 429 0
 894 01cc 1423     		mov	r3, #20
 895 01ce FC18     		add	r4, r7, r3
 896 01d0 0220     		mov	r0, #2
 897 01d2 FFF7FEFF 		bl	ADC_SAR_Seq_GetResult16
 898 01d6 031C     		mov	r3, r0
 899 01d8 2380     		strh	r3, [r4]
 430:.\DriverControl.c ****             sampleArray[ADC_SAMPLE_COUNT - 1] = temperatureSample_16;
 900              		.loc 1 430 0
 901 01da 3B68     		ldr	r3, [r7]
 902 01dc 0633     		add	r3, r3, #6
 903 01de 1422     		mov	r2, #20
 904 01e0 BA18     		add	r2, r7, r2
 905 01e2 1288     		ldrh	r2, [r2]
 906 01e4 1A80     		strh	r2, [r3]
 907              	.L69:
 431:.\DriverControl.c ****     }
 432:.\DriverControl.c ****     
 433:.\DriverControl.c ****     return temperatureSample_16;
 908              		.loc 1 433 0
 909 01e6 1423     		mov	r3, #20
 910 01e8 FB18     		add	r3, r7, r3
 911 01ea 1B88     		ldrh	r3, [r3]
 912              	.L57:
 913 01ec 1BB2     		sxth	r3, r3
 434:.\DriverControl.c **** }
 914              		.loc 1 434 0
 915 01ee 181C     		mov	r0, r3
 916 01f0 BD46     		mov	sp, r7
 917 01f2 07B0     		add	sp, sp, #28
 918              		@ sp needed
 919 01f4 90BD     		pop	{r4, r7, pc}
 920              	.L73:
 921 01f6 C046     		.align	2
 922              	.L72:
 923 01f8 0000A040 		.word	1084227584
 924 01fc FCA9F1D2 		.word	-755914244
 925 0200 4D62F03F 		.word	1072718413
 926              		.cfi_endproc
 927              	.LFE44:
 928              		.size	getTemperatureSample, .-getTemperatureSample
 929              		.section	.text.getNewMaxBrightness,"ax",%progbits
 930              		.align	2
ARM GAS  C:\Users\kylep\AppData\Local\Temp\ccWR86sf.s 			page 25


 931              		.global	getNewMaxBrightness
 932              		.code	16
 933              		.thumb_func
 934              		.type	getNewMaxBrightness, %function
 935              	getNewMaxBrightness:
 936              	.LFB45:
 435:.\DriverControl.c **** 
 436:.\DriverControl.c **** /*******************************************************************************
 437:.\DriverControl.c **** * Function Name: getNewMaxBrightness
 438:.\DriverControl.c **** ********************************************************************************
 439:.\DriverControl.c **** *
 440:.\DriverControl.c **** * Summary:
 441:.\DriverControl.c **** *  Returns the new max brightness that was adjusted during regulation.
 442:.\DriverControl.c **** *
 443:.\DriverControl.c **** * Parameters:
 444:.\DriverControl.c **** *  None
 445:.\DriverControl.c **** *
 446:.\DriverControl.c **** * Return:
 447:.\DriverControl.c **** *  Adjusted max brightness
 448:.\DriverControl.c **** *
 449:.\DriverControl.c **** *******************************************************************************/
 450:.\DriverControl.c **** uint8 getNewMaxBrightness(void)
 451:.\DriverControl.c **** {
 937              		.loc 1 451 0
 938              		.cfi_startproc
 939 0000 80B5     		push	{r7, lr}
 940              		.cfi_def_cfa_offset 8
 941              		.cfi_offset 7, -8
 942              		.cfi_offset 14, -4
 943 0002 00AF     		add	r7, sp, #0
 944              		.cfi_def_cfa_register 7
 452:.\DriverControl.c ****     return RegulationData.scalingFactor;
 945              		.loc 1 452 0
 946 0004 024B     		ldr	r3, .L76
 947 0006 1B79     		ldrb	r3, [r3, #4]
 453:.\DriverControl.c **** }
 948              		.loc 1 453 0
 949 0008 181C     		mov	r0, r3
 950 000a BD46     		mov	sp, r7
 951              		@ sp needed
 952 000c 80BD     		pop	{r7, pc}
 953              	.L77:
 954 000e C046     		.align	2
 955              	.L76:
 956 0010 14000000 		.word	RegulationData
 957              		.cfi_endproc
 958              	.LFE45:
 959              		.size	getNewMaxBrightness, .-getNewMaxBrightness
 960              		.global	__aeabi_idiv
 961              		.section	.text.regulateBrightness,"ax",%progbits
 962              		.align	2
 963              		.global	regulateBrightness
 964              		.code	16
 965              		.thumb_func
 966              		.type	regulateBrightness, %function
 967              	regulateBrightness:
 968              	.LFB46:
ARM GAS  C:\Users\kylep\AppData\Local\Temp\ccWR86sf.s 			page 26


 454:.\DriverControl.c **** 
 455:.\DriverControl.c **** /*******************************************************************************
 456:.\DriverControl.c **** * Function Name: regulateBrightness
 457:.\DriverControl.c **** ********************************************************************************
 458:.\DriverControl.c **** *
 459:.\DriverControl.c **** * Summary:
 460:.\DriverControl.c **** *  Adjusts the brightness of the LED based on 4 temperature readings
 461:.\DriverControl.c **** *  and the current regulation state.
 462:.\DriverControl.c **** *
 463:.\DriverControl.c **** * Parameters:
 464:.\DriverControl.c **** *  TemperatureData: Reference to the 4 temperature points
 465:.\DriverControl.c **** *  length: Size of array in # of temperature points
 466:.\DriverControl.c **** *
 467:.\DriverControl.c **** * Return:
 468:.\DriverControl.c **** *  The updated brightness based on regulation
 469:.\DriverControl.c **** *
 470:.\DriverControl.c **** *******************************************************************************/
 471:.\DriverControl.c **** uint8 regulateBrightness(int16* TemperatureData, uint8 length)
 472:.\DriverControl.c **** {
 969              		.loc 1 472 0
 970              		.cfi_startproc
 971 0000 90B5     		push	{r4, r7, lr}
 972              		.cfi_def_cfa_offset 12
 973              		.cfi_offset 4, -12
 974              		.cfi_offset 7, -8
 975              		.cfi_offset 14, -4
 976 0002 85B0     		sub	sp, sp, #20
 977              		.cfi_def_cfa_offset 32
 978 0004 00AF     		add	r7, sp, #0
 979              		.cfi_def_cfa_register 7
 980 0006 7860     		str	r0, [r7, #4]
 981 0008 0A1C     		mov	r2, r1
 982 000a FB1C     		add	r3, r7, #3
 983 000c 1A70     		strb	r2, [r3]
 473:.\DriverControl.c ****     static uint8 timerCountLocal = 0;
 474:.\DriverControl.c ****     enum TemperatureStatus temperatureStatus = WITHIN_TOLERANCE;
 984              		.loc 1 474 0
 985 000e 0F23     		mov	r3, #15
 986 0010 FB18     		add	r3, r7, r3
 987 0012 0022     		mov	r2, #0
 988 0014 1A70     		strb	r2, [r3]
 475:.\DriverControl.c ****     
 476:.\DriverControl.c ****     if(TemperatureData == NULL || length > ADC_SAMPLE_COUNT || PositionData.ID_Number != 1)
 989              		.loc 1 476 0
 990 0016 7B68     		ldr	r3, [r7, #4]
 991 0018 002B     		cmp	r3, #0
 992 001a 07D0     		beq	.L79
 993              		.loc 1 476 0 is_stmt 0 discriminator 1
 994 001c FB1C     		add	r3, r7, #3
 995 001e 1B78     		ldrb	r3, [r3]
 996 0020 042B     		cmp	r3, #4
 997 0022 03D8     		bhi	.L79
 998              		.loc 1 476 0 discriminator 2
 999 0024 6A4B     		ldr	r3, .L98
 1000 0026 1B78     		ldrb	r3, [r3]
 1001 0028 012B     		cmp	r3, #1
 1002 002a 01D0     		beq	.L80
ARM GAS  C:\Users\kylep\AppData\Local\Temp\ccWR86sf.s 			page 27


 1003              	.L79:
 477:.\DriverControl.c ****         return 0;
 1004              		.loc 1 477 0 is_stmt 1
 1005 002c 0023     		mov	r3, #0
 1006 002e CAE0     		b	.L81
 1007              	.L80:
 478:.\DriverControl.c ****     
 479:.\DriverControl.c ****     switch(RegulationData.currentState)
 1008              		.loc 1 479 0
 1009 0030 684B     		ldr	r3, .L98+4
 1010 0032 DB78     		ldrb	r3, [r3, #3]
 1011 0034 012B     		cmp	r3, #1
 1012 0036 5DD0     		beq	.L83
 1013 0038 02DC     		bgt	.L84
 1014 003a 002B     		cmp	r3, #0
 1015 003c 06D0     		beq	.L85
 1016 003e BDE0     		b	.L82
 1017              	.L84:
 1018 0040 022B     		cmp	r3, #2
 1019 0042 20D0     		beq	.L86
 1020 0044 032B     		cmp	r3, #3
 1021 0046 00D1     		bne	.LCB888
 1022 0048 8BE0     		b	.L87	@long jump
 1023              	.LCB888:
 1024 004a B7E0     		b	.L82
 1025              	.L85:
 480:.\DriverControl.c ****     {
 481:.\DriverControl.c ****         case STARTUP:
 482:.\DriverControl.c ****             if((timerCountLocal % SAMPLE_COUNT_PER_CYCLE) == 0)
 483:.\DriverControl.c ****             {
 484:.\DriverControl.c ****                 RegulationData.scalingFactor = MAX_SCALING_FACTOR;
 1026              		.loc 1 484 0
 1027 004c 614B     		ldr	r3, .L98+4
 1028 004e FF22     		mov	r2, #255
 1029 0050 1A71     		strb	r2, [r3, #4]
 485:.\DriverControl.c ****                 RegulationData.regulatedBrightness = RegulationData.requestedBrightness;
 1030              		.loc 1 485 0
 1031 0052 604B     		ldr	r3, .L98+4
 1032 0054 1A78     		ldrb	r2, [r3]
 1033 0056 5F4B     		ldr	r3, .L98+4
 1034 0058 5A70     		strb	r2, [r3, #1]
 486:.\DriverControl.c ****             }
 487:.\DriverControl.c ****             if((timerCountLocal % (SAMPLE_COUNT_PER_CYCLE * BRIGHTNESS_CHANGE_PER_SAMPLE)) == 0)
 488:.\DriverControl.c ****             {
 489:.\DriverControl.c ****                 temperatureStatus = getTemperatureStatus(TemperatureData, length, 0);
 1035              		.loc 1 489 0
 1036 005a 0F23     		mov	r3, #15
 1037 005c FC18     		add	r4, r7, r3
 1038 005e 7A68     		ldr	r2, [r7, #4]
 1039 0060 FB1C     		add	r3, r7, #3
 1040 0062 1B78     		ldrb	r3, [r3]
 1041 0064 101C     		mov	r0, r2
 1042 0066 191C     		mov	r1, r3
 1043 0068 0022     		mov	r2, #0
 1044 006a FFF7FEFF 		bl	getTemperatureStatus
 1045 006e 031C     		mov	r3, r0
 1046 0070 2370     		strb	r3, [r4]
ARM GAS  C:\Users\kylep\AppData\Local\Temp\ccWR86sf.s 			page 28


 490:.\DriverControl.c ****                 if(temperatureStatus == EXCEEDED_UPPER_BOUND)
 1047              		.loc 1 490 0
 1048 0072 0F23     		mov	r3, #15
 1049 0074 FB18     		add	r3, r7, r3
 1050 0076 1B78     		ldrb	r3, [r3]
 1051 0078 012B     		cmp	r3, #1
 1052 007a 03D1     		bne	.L88
 491:.\DriverControl.c ****                     RegulationData.currentState = STEADY_DECREASE;
 1053              		.loc 1 491 0
 1054 007c 554B     		ldr	r3, .L98+4
 1055 007e 0222     		mov	r2, #2
 1056 0080 DA70     		strb	r2, [r3, #3]
 492:.\DriverControl.c ****             }
 493:.\DriverControl.c ****             break;            
 1057              		.loc 1 493 0
 1058 0082 9BE0     		b	.L82
 1059              	.L88:
 1060 0084 9AE0     		b	.L82
 1061              	.L86:
 494:.\DriverControl.c ****         case STEADY_DECREASE:  
 495:.\DriverControl.c ****             if((timerCountLocal % SAMPLE_COUNT_PER_CYCLE) == 0)
 496:.\DriverControl.c ****             {
 497:.\DriverControl.c ****                 if(RegulationData.scalingFactor > 0)
 1062              		.loc 1 497 0
 1063 0086 534B     		ldr	r3, .L98+4
 1064 0088 1B79     		ldrb	r3, [r3, #4]
 1065 008a 002B     		cmp	r3, #0
 1066 008c 05D0     		beq	.L89
 498:.\DriverControl.c ****                     RegulationData.scalingFactor--;
 1067              		.loc 1 498 0
 1068 008e 514B     		ldr	r3, .L98+4
 1069 0090 1B79     		ldrb	r3, [r3, #4]
 1070 0092 013B     		sub	r3, r3, #1
 1071 0094 DAB2     		uxtb	r2, r3
 1072 0096 4F4B     		ldr	r3, .L98+4
 1073 0098 1A71     		strb	r2, [r3, #4]
 1074              	.L89:
 499:.\DriverControl.c ****             
 500:.\DriverControl.c ****                 RegulationData.regulatedBrightness = (uint8)((uint16)(RegulationData.requestedBrigh
 1075              		.loc 1 500 0
 1076 009a 4E4B     		ldr	r3, .L98+4
 1077 009c 1B78     		ldrb	r3, [r3]
 1078 009e 1A1C     		mov	r2, r3
 501:.\DriverControl.c ****                     (uint16)(RegulationData.scalingFactor) / MAX_SCALING_FACTOR);
 1079              		.loc 1 501 0
 1080 00a0 4C4B     		ldr	r3, .L98+4
 1081 00a2 1B79     		ldrb	r3, [r3, #4]
 500:.\DriverControl.c ****                     (uint16)(RegulationData.scalingFactor) / MAX_SCALING_FACTOR);
 1082              		.loc 1 500 0
 1083 00a4 5343     		mul	r3, r2
 1084              		.loc 1 501 0
 1085 00a6 181C     		mov	r0, r3
 1086 00a8 FF21     		mov	r1, #255
 1087 00aa FFF7FEFF 		bl	__aeabi_idiv
 1088 00ae 031C     		mov	r3, r0
 500:.\DriverControl.c ****                     (uint16)(RegulationData.scalingFactor) / MAX_SCALING_FACTOR);
 1089              		.loc 1 500 0
ARM GAS  C:\Users\kylep\AppData\Local\Temp\ccWR86sf.s 			page 29


 1090 00b0 DAB2     		uxtb	r2, r3
 1091 00b2 484B     		ldr	r3, .L98+4
 1092 00b4 5A70     		strb	r2, [r3, #1]
 502:.\DriverControl.c ****             }
 503:.\DriverControl.c ****             if((timerCountLocal % (SAMPLE_COUNT_PER_CYCLE * BRIGHTNESS_CHANGE_PER_SAMPLE)) == 0)
 504:.\DriverControl.c ****             {
 505:.\DriverControl.c ****                 temperatureStatus = getTemperatureStatus(TemperatureData, length,
 1093              		.loc 1 505 0
 1094 00b6 0F23     		mov	r3, #15
 1095 00b8 FC18     		add	r4, r7, r3
 1096 00ba 7A68     		ldr	r2, [r7, #4]
 1097 00bc FB1C     		add	r3, r7, #3
 1098 00be 1B78     		ldrb	r3, [r3]
 1099 00c0 101C     		mov	r0, r2
 1100 00c2 191C     		mov	r1, r3
 1101 00c4 0022     		mov	r2, #0
 1102 00c6 FFF7FEFF 		bl	getTemperatureStatus
 1103 00ca 031C     		mov	r3, r0
 1104 00cc 2370     		strb	r3, [r4]
 506:.\DriverControl.c ****                     SAFE_TEMPERATURE_TOLERANCE);
 507:.\DriverControl.c ****                 
 508:.\DriverControl.c ****                 if(temperatureStatus == WITHIN_TOLERANCE)
 1105              		.loc 1 508 0
 1106 00ce 0F23     		mov	r3, #15
 1107 00d0 FB18     		add	r3, r7, r3
 1108 00d2 1B78     		ldrb	r3, [r3]
 1109 00d4 002B     		cmp	r3, #0
 1110 00d6 03D1     		bne	.L90
 509:.\DriverControl.c ****                     RegulationData.currentState = NO_CHANGE;
 1111              		.loc 1 509 0
 1112 00d8 3E4B     		ldr	r3, .L98+4
 1113 00da 0322     		mov	r2, #3
 1114 00dc DA70     		strb	r2, [r3, #3]
 1115 00de 08E0     		b	.L91
 1116              	.L90:
 510:.\DriverControl.c ****                 else if(temperatureStatus == EXCEEDED_LOWER_BOUND)
 1117              		.loc 1 510 0
 1118 00e0 0F23     		mov	r3, #15
 1119 00e2 FB18     		add	r3, r7, r3
 1120 00e4 1B78     		ldrb	r3, [r3]
 1121 00e6 022B     		cmp	r3, #2
 1122 00e8 03D1     		bne	.L91
 511:.\DriverControl.c ****                     RegulationData.currentState = STEADY_INCREASE;
 1123              		.loc 1 511 0
 1124 00ea 3A4B     		ldr	r3, .L98+4
 1125 00ec 0122     		mov	r2, #1
 1126 00ee DA70     		strb	r2, [r3, #3]
 512:.\DriverControl.c ****             }
 513:.\DriverControl.c ****             break;
 1127              		.loc 1 513 0
 1128 00f0 64E0     		b	.L82
 1129              	.L91:
 1130 00f2 63E0     		b	.L82
 1131              	.L83:
 514:.\DriverControl.c ****         case STEADY_INCREASE:
 515:.\DriverControl.c ****             if((timerCountLocal % SAMPLE_COUNT_PER_CYCLE) == 0)
 516:.\DriverControl.c ****             {
ARM GAS  C:\Users\kylep\AppData\Local\Temp\ccWR86sf.s 			page 30


 517:.\DriverControl.c ****                 if(RegulationData.scalingFactor < MAX_SCALING_FACTOR)
 1132              		.loc 1 517 0
 1133 00f4 374B     		ldr	r3, .L98+4
 1134 00f6 1B79     		ldrb	r3, [r3, #4]
 1135 00f8 FF2B     		cmp	r3, #255
 1136 00fa 05D0     		beq	.L92
 518:.\DriverControl.c ****                     RegulationData.scalingFactor++;
 1137              		.loc 1 518 0
 1138 00fc 354B     		ldr	r3, .L98+4
 1139 00fe 1B79     		ldrb	r3, [r3, #4]
 1140 0100 0133     		add	r3, r3, #1
 1141 0102 DAB2     		uxtb	r2, r3
 1142 0104 334B     		ldr	r3, .L98+4
 1143 0106 1A71     		strb	r2, [r3, #4]
 1144              	.L92:
 519:.\DriverControl.c ****             
 520:.\DriverControl.c ****                 RegulationData.regulatedBrightness = (uint8)((uint16)(RegulationData.requestedBrigh
 1145              		.loc 1 520 0
 1146 0108 324B     		ldr	r3, .L98+4
 1147 010a 1B78     		ldrb	r3, [r3]
 1148 010c 1A1C     		mov	r2, r3
 521:.\DriverControl.c ****                     (uint16)(RegulationData.scalingFactor) / MAX_SCALING_FACTOR);
 1149              		.loc 1 521 0
 1150 010e 314B     		ldr	r3, .L98+4
 1151 0110 1B79     		ldrb	r3, [r3, #4]
 520:.\DriverControl.c ****                     (uint16)(RegulationData.scalingFactor) / MAX_SCALING_FACTOR);
 1152              		.loc 1 520 0
 1153 0112 5343     		mul	r3, r2
 1154              		.loc 1 521 0
 1155 0114 181C     		mov	r0, r3
 1156 0116 FF21     		mov	r1, #255
 1157 0118 FFF7FEFF 		bl	__aeabi_idiv
 1158 011c 031C     		mov	r3, r0
 520:.\DriverControl.c ****                     (uint16)(RegulationData.scalingFactor) / MAX_SCALING_FACTOR);
 1159              		.loc 1 520 0
 1160 011e DAB2     		uxtb	r2, r3
 1161 0120 2C4B     		ldr	r3, .L98+4
 1162 0122 5A70     		strb	r2, [r3, #1]
 522:.\DriverControl.c ****             }
 523:.\DriverControl.c ****             if((timerCountLocal % (SAMPLE_COUNT_PER_CYCLE * BRIGHTNESS_CHANGE_PER_SAMPLE)) == 0)
 524:.\DriverControl.c ****             {
 525:.\DriverControl.c ****                 temperatureStatus = getTemperatureStatus(TemperatureData, length,
 1163              		.loc 1 525 0
 1164 0124 0F23     		mov	r3, #15
 1165 0126 FC18     		add	r4, r7, r3
 1166 0128 7A68     		ldr	r2, [r7, #4]
 1167 012a FB1C     		add	r3, r7, #3
 1168 012c 1B78     		ldrb	r3, [r3]
 1169 012e 101C     		mov	r0, r2
 1170 0130 191C     		mov	r1, r3
 1171 0132 0022     		mov	r2, #0
 1172 0134 FFF7FEFF 		bl	getTemperatureStatus
 1173 0138 031C     		mov	r3, r0
 1174 013a 2370     		strb	r3, [r4]
 526:.\DriverControl.c ****                     SAFE_TEMPERATURE_TOLERANCE);
 527:.\DriverControl.c ****                 
 528:.\DriverControl.c ****                 if(temperatureStatus == EXCEEDED_UPPER_BOUND)
ARM GAS  C:\Users\kylep\AppData\Local\Temp\ccWR86sf.s 			page 31


 1175              		.loc 1 528 0
 1176 013c 0F23     		mov	r3, #15
 1177 013e FB18     		add	r3, r7, r3
 1178 0140 1B78     		ldrb	r3, [r3]
 1179 0142 012B     		cmp	r3, #1
 1180 0144 03D1     		bne	.L93
 529:.\DriverControl.c ****                     RegulationData.currentState = STEADY_DECREASE;
 1181              		.loc 1 529 0
 1182 0146 234B     		ldr	r3, .L98+4
 1183 0148 0222     		mov	r2, #2
 1184 014a DA70     		strb	r2, [r3, #3]
 1185 014c 08E0     		b	.L94
 1186              	.L93:
 530:.\DriverControl.c ****                 else if(temperatureStatus == WITHIN_TOLERANCE)
 1187              		.loc 1 530 0
 1188 014e 0F23     		mov	r3, #15
 1189 0150 FB18     		add	r3, r7, r3
 1190 0152 1B78     		ldrb	r3, [r3]
 1191 0154 002B     		cmp	r3, #0
 1192 0156 03D1     		bne	.L94
 531:.\DriverControl.c ****                     RegulationData.currentState = NO_CHANGE;
 1193              		.loc 1 531 0
 1194 0158 1E4B     		ldr	r3, .L98+4
 1195 015a 0322     		mov	r2, #3
 1196 015c DA70     		strb	r2, [r3, #3]
 532:.\DriverControl.c ****             }
 533:.\DriverControl.c ****             break;
 1197              		.loc 1 533 0
 1198 015e 2DE0     		b	.L82
 1199              	.L94:
 1200 0160 2CE0     		b	.L82
 1201              	.L87:
 534:.\DriverControl.c ****         case NO_CHANGE:
 535:.\DriverControl.c ****             if((timerCountLocal % SAMPLE_COUNT_PER_CYCLE) == 0)
 536:.\DriverControl.c ****             {
 537:.\DriverControl.c ****                 RegulationData.regulatedBrightness = (uint8)((uint16)(RegulationData.requestedBrigh
 1202              		.loc 1 537 0
 1203 0162 1C4B     		ldr	r3, .L98+4
 1204 0164 1B78     		ldrb	r3, [r3]
 1205 0166 1A1C     		mov	r2, r3
 538:.\DriverControl.c ****                     (uint16)(RegulationData.scalingFactor) / MAX_SCALING_FACTOR);
 1206              		.loc 1 538 0
 1207 0168 1A4B     		ldr	r3, .L98+4
 1208 016a 1B79     		ldrb	r3, [r3, #4]
 537:.\DriverControl.c ****                     (uint16)(RegulationData.scalingFactor) / MAX_SCALING_FACTOR);
 1209              		.loc 1 537 0
 1210 016c 5343     		mul	r3, r2
 1211              		.loc 1 538 0
 1212 016e 181C     		mov	r0, r3
 1213 0170 FF21     		mov	r1, #255
 1214 0172 FFF7FEFF 		bl	__aeabi_idiv
 1215 0176 031C     		mov	r3, r0
 537:.\DriverControl.c ****                     (uint16)(RegulationData.scalingFactor) / MAX_SCALING_FACTOR);
 1216              		.loc 1 537 0
 1217 0178 DAB2     		uxtb	r2, r3
 1218 017a 164B     		ldr	r3, .L98+4
 1219 017c 5A70     		strb	r2, [r3, #1]
ARM GAS  C:\Users\kylep\AppData\Local\Temp\ccWR86sf.s 			page 32


 539:.\DriverControl.c ****             }
 540:.\DriverControl.c ****             if((timerCountLocal % (SAMPLE_COUNT_PER_CYCLE * BRIGHTNESS_CHANGE_PER_SAMPLE)) == 0)
 541:.\DriverControl.c ****             {
 542:.\DriverControl.c ****                 temperatureStatus = getTemperatureStatus(TemperatureData, length,
 1220              		.loc 1 542 0
 1221 017e 0F23     		mov	r3, #15
 1222 0180 FC18     		add	r4, r7, r3
 1223 0182 7A68     		ldr	r2, [r7, #4]
 1224 0184 FB1C     		add	r3, r7, #3
 1225 0186 1B78     		ldrb	r3, [r3]
 1226 0188 101C     		mov	r0, r2
 1227 018a 191C     		mov	r1, r3
 1228 018c 0022     		mov	r2, #0
 1229 018e FFF7FEFF 		bl	getTemperatureStatus
 1230 0192 031C     		mov	r3, r0
 1231 0194 2370     		strb	r3, [r4]
 543:.\DriverControl.c ****                     SAFE_TEMPERATURE_TOLERANCE);
 544:.\DriverControl.c ****                 
 545:.\DriverControl.c ****                 if(temperatureStatus == EXCEEDED_UPPER_BOUND)
 1232              		.loc 1 545 0
 1233 0196 0F23     		mov	r3, #15
 1234 0198 FB18     		add	r3, r7, r3
 1235 019a 1B78     		ldrb	r3, [r3]
 1236 019c 012B     		cmp	r3, #1
 1237 019e 03D1     		bne	.L95
 546:.\DriverControl.c ****                     RegulationData.currentState = STEADY_DECREASE;
 1238              		.loc 1 546 0
 1239 01a0 0C4B     		ldr	r3, .L98+4
 1240 01a2 0222     		mov	r2, #2
 1241 01a4 DA70     		strb	r2, [r3, #3]
 1242 01a6 08E0     		b	.L96
 1243              	.L95:
 547:.\DriverControl.c ****                 else if(temperatureStatus == EXCEEDED_LOWER_BOUND)
 1244              		.loc 1 547 0
 1245 01a8 0F23     		mov	r3, #15
 1246 01aa FB18     		add	r3, r7, r3
 1247 01ac 1B78     		ldrb	r3, [r3]
 1248 01ae 022B     		cmp	r3, #2
 1249 01b0 03D1     		bne	.L96
 548:.\DriverControl.c ****                     RegulationData.currentState = STEADY_INCREASE;
 1250              		.loc 1 548 0
 1251 01b2 084B     		ldr	r3, .L98+4
 1252 01b4 0122     		mov	r2, #1
 1253 01b6 DA70     		strb	r2, [r3, #3]
 549:.\DriverControl.c ****             }
 550:.\DriverControl.c ****             break;
 1254              		.loc 1 550 0
 1255 01b8 FFE7     		b	.L97
 1256              	.L96:
 1257              	.L97:
 1258 01ba C046     		mov	r8, r8
 1259              	.L82:
 551:.\DriverControl.c ****     }
 552:.\DriverControl.c ****     
 553:.\DriverControl.c ****     timerCountLocal = (timerCountLocal + 1) % (SAMPLE_COUNT_PER_CYCLE * BRIGHTNESS_CHANGE_PER_SAMPL
 1260              		.loc 1 553 0
 1261 01bc 064B     		ldr	r3, .L98+8
ARM GAS  C:\Users\kylep\AppData\Local\Temp\ccWR86sf.s 			page 33


 1262 01be 0022     		mov	r2, #0
 1263 01c0 1A70     		strb	r2, [r3]
 554:.\DriverControl.c ****     return RegulationData.regulatedBrightness;    
 1264              		.loc 1 554 0
 1265 01c2 044B     		ldr	r3, .L98+4
 1266 01c4 5B78     		ldrb	r3, [r3, #1]
 1267              	.L81:
 555:.\DriverControl.c **** }
 1268              		.loc 1 555 0
 1269 01c6 181C     		mov	r0, r3
 1270 01c8 BD46     		mov	sp, r7
 1271 01ca 05B0     		add	sp, sp, #20
 1272              		@ sp needed
 1273 01cc 90BD     		pop	{r4, r7, pc}
 1274              	.L99:
 1275 01ce C046     		.align	2
 1276              	.L98:
 1277 01d0 10000000 		.word	PositionData
 1278 01d4 14000000 		.word	RegulationData
 1279 01d8 00000000 		.word	timerCountLocal.6214
 1280              		.cfi_endproc
 1281              	.LFE46:
 1282              		.size	regulateBrightness, .-regulateBrightness
 1283              		.section	.text.getTemperatureStatus,"ax",%progbits
 1284              		.align	2
 1285              		.code	16
 1286              		.thumb_func
 1287              		.type	getTemperatureStatus, %function
 1288              	getTemperatureStatus:
 1289              	.LFB47:
 556:.\DriverControl.c **** 
 557:.\DriverControl.c **** /**********DEFINED LOCAL FUNCTIONS**********/
 558:.\DriverControl.c **** /*******************************************************************************
 559:.\DriverControl.c **** * Function Name: getTemperatureStatus
 560:.\DriverControl.c **** ********************************************************************************
 561:.\DriverControl.c **** *
 562:.\DriverControl.c **** * Summary:
 563:.\DriverControl.c **** *  Returns temperature status based on 4 temperature points
 564:.\DriverControl.c **** *
 565:.\DriverControl.c **** * Parameters:
 566:.\DriverControl.c **** *  TemperatureData: Reference to the 4 temperature samples to check
 567:.\DriverControl.c **** *  length: Size of int16 array
 568:.\DriverControl.c **** *  tolerance: Tolerance amount for regulation (Range: temperature +/- tolerance)
 569:.\DriverControl.c **** *
 570:.\DriverControl.c **** * Return:
 571:.\DriverControl.c **** *  EXCEEDED_UPPER_BOUND, EXCEEDED_LOWER_BOUND, or WITHIN_TOLERANCE as valid inputs,
 572:.\DriverControl.c **** *  ERROR otherwise
 573:.\DriverControl.c **** *
 574:.\DriverControl.c **** *******************************************************************************/
 575:.\DriverControl.c **** static enum TemperatureStatus getTemperatureStatus(int16* TemperatureData,
 576:.\DriverControl.c ****     uint8 length, int16 tolerance)
 577:.\DriverControl.c **** {
 1290              		.loc 1 577 0
 1291              		.cfi_startproc
 1292 0000 80B5     		push	{r7, lr}
 1293              		.cfi_def_cfa_offset 8
 1294              		.cfi_offset 7, -8
ARM GAS  C:\Users\kylep\AppData\Local\Temp\ccWR86sf.s 			page 34


 1295              		.cfi_offset 14, -4
 1296 0002 84B0     		sub	sp, sp, #16
 1297              		.cfi_def_cfa_offset 24
 1298 0004 00AF     		add	r7, sp, #0
 1299              		.cfi_def_cfa_register 7
 1300 0006 7860     		str	r0, [r7, #4]
 1301 0008 081C     		mov	r0, r1
 1302 000a 111C     		mov	r1, r2
 1303 000c FB1C     		add	r3, r7, #3
 1304 000e 021C     		add	r2, r0, #0
 1305 0010 1A70     		strb	r2, [r3]
 1306 0012 3B1C     		mov	r3, r7
 1307 0014 0A1C     		add	r2, r1, #0
 1308 0016 1A80     		strh	r2, [r3]
 578:.\DriverControl.c ****     enum TemperaturePoint dataIndex = LED;
 1309              		.loc 1 578 0
 1310 0018 0F23     		mov	r3, #15
 1311 001a FB18     		add	r3, r7, r3
 1312 001c 0022     		mov	r2, #0
 1313 001e 1A70     		strb	r2, [r3]
 579:.\DriverControl.c ****     
 580:.\DriverControl.c ****     if(TemperatureData == NULL)
 1314              		.loc 1 580 0
 1315 0020 7B68     		ldr	r3, [r7, #4]
 1316 0022 002B     		cmp	r3, #0
 1317 0024 01D1     		bne	.L101
 581:.\DriverControl.c ****         return ERROR;
 1318              		.loc 1 581 0
 1319 0026 0323     		mov	r3, #3
 1320 0028 5AE0     		b	.L102
 1321              	.L101:
 582:.\DriverControl.c ****     
 583:.\DriverControl.c ****     if(length > ADC_SAMPLE_COUNT)
 1322              		.loc 1 583 0
 1323 002a FB1C     		add	r3, r7, #3
 1324 002c 1B78     		ldrb	r3, [r3]
 1325 002e 042B     		cmp	r3, #4
 1326 0030 01D9     		bls	.L103
 584:.\DriverControl.c ****         return ERROR;
 1327              		.loc 1 584 0
 1328 0032 0323     		mov	r3, #3
 1329 0034 54E0     		b	.L102
 1330              	.L103:
 585:.\DriverControl.c ****     
 586:.\DriverControl.c ****     for(dataIndex = LED; dataIndex < length; dataIndex++)
 1331              		.loc 1 586 0
 1332 0036 0F23     		mov	r3, #15
 1333 0038 FB18     		add	r3, r7, r3
 1334 003a 0022     		mov	r2, #0
 1335 003c 1A70     		strb	r2, [r3]
 1336 003e 1DE0     		b	.L104
 1337              	.L106:
 587:.\DriverControl.c ****     {
 588:.\DriverControl.c ****         if(TemperatureData[dataIndex] > 
 1338              		.loc 1 588 0
 1339 0040 0F23     		mov	r3, #15
 1340 0042 FB18     		add	r3, r7, r3
ARM GAS  C:\Users\kylep\AppData\Local\Temp\ccWR86sf.s 			page 35


 1341 0044 1B78     		ldrb	r3, [r3]
 1342 0046 5B00     		lsl	r3, r3, #1
 1343 0048 7A68     		ldr	r2, [r7, #4]
 1344 004a D318     		add	r3, r2, r3
 1345 004c 1B88     		ldrh	r3, [r3]
 1346 004e 1AB2     		sxth	r2, r3
 589:.\DriverControl.c ****             (ThermalLimitArray[dataIndex].MAX_TEMPERATURE + tolerance))
 1347              		.loc 1 589 0
 1348 0050 0F23     		mov	r3, #15
 1349 0052 FB18     		add	r3, r7, r3
 1350 0054 1978     		ldrb	r1, [r3]
 1351 0056 244B     		ldr	r3, .L110
 1352 0058 8900     		lsl	r1, r1, #2
 1353 005a CB5A     		ldrh	r3, [r1, r3]
 1354 005c 19B2     		sxth	r1, r3
 1355 005e 3B1C     		mov	r3, r7
 1356 0060 0020     		mov	r0, #0
 1357 0062 1B5E     		ldrsh	r3, [r3, r0]
 1358 0064 CB18     		add	r3, r1, r3
 588:.\DriverControl.c ****             (ThermalLimitArray[dataIndex].MAX_TEMPERATURE + tolerance))
 1359              		.loc 1 588 0
 1360 0066 9A42     		cmp	r2, r3
 1361 0068 01DD     		ble	.L105
 590:.\DriverControl.c ****             return EXCEEDED_UPPER_BOUND;
 1362              		.loc 1 590 0
 1363 006a 0123     		mov	r3, #1
 1364 006c 38E0     		b	.L102
 1365              	.L105:
 586:.\DriverControl.c ****     {
 1366              		.loc 1 586 0 discriminator 2
 1367 006e 0F23     		mov	r3, #15
 1368 0070 FB18     		add	r3, r7, r3
 1369 0072 1A78     		ldrb	r2, [r3]
 1370 0074 0F23     		mov	r3, #15
 1371 0076 FB18     		add	r3, r7, r3
 1372 0078 0132     		add	r2, r2, #1
 1373 007a 1A70     		strb	r2, [r3]
 1374              	.L104:
 586:.\DriverControl.c ****     {
 1375              		.loc 1 586 0 is_stmt 0 discriminator 1
 1376 007c 0F23     		mov	r3, #15
 1377 007e FA18     		add	r2, r7, r3
 1378 0080 FB1C     		add	r3, r7, #3
 1379 0082 1278     		ldrb	r2, [r2]
 1380 0084 1B78     		ldrb	r3, [r3]
 1381 0086 9A42     		cmp	r2, r3
 1382 0088 DAD3     		bcc	.L106
 591:.\DriverControl.c ****     }
 592:.\DriverControl.c ****     
 593:.\DriverControl.c ****     for(dataIndex = LED; dataIndex < length; dataIndex++)
 1383              		.loc 1 593 0 is_stmt 1
 1384 008a 0F23     		mov	r3, #15
 1385 008c FB18     		add	r3, r7, r3
 1386 008e 0022     		mov	r2, #0
 1387 0090 1A70     		strb	r2, [r3]
 1388 0092 1DE0     		b	.L107
 1389              	.L109:
ARM GAS  C:\Users\kylep\AppData\Local\Temp\ccWR86sf.s 			page 36


 594:.\DriverControl.c ****     {
 595:.\DriverControl.c ****         if(TemperatureData[dataIndex] < 
 1390              		.loc 1 595 0
 1391 0094 0F23     		mov	r3, #15
 1392 0096 FB18     		add	r3, r7, r3
 1393 0098 1B78     		ldrb	r3, [r3]
 1394 009a 5B00     		lsl	r3, r3, #1
 1395 009c 7A68     		ldr	r2, [r7, #4]
 1396 009e D318     		add	r3, r2, r3
 1397 00a0 1B88     		ldrh	r3, [r3]
 1398 00a2 1AB2     		sxth	r2, r3
 596:.\DriverControl.c ****             (ThermalLimitArray[dataIndex].MAX_TEMPERATURE - tolerance))
 1399              		.loc 1 596 0
 1400 00a4 0F23     		mov	r3, #15
 1401 00a6 FB18     		add	r3, r7, r3
 1402 00a8 1978     		ldrb	r1, [r3]
 1403 00aa 0F4B     		ldr	r3, .L110
 1404 00ac 8900     		lsl	r1, r1, #2
 1405 00ae CB5A     		ldrh	r3, [r1, r3]
 1406 00b0 19B2     		sxth	r1, r3
 1407 00b2 3B1C     		mov	r3, r7
 1408 00b4 0020     		mov	r0, #0
 1409 00b6 1B5E     		ldrsh	r3, [r3, r0]
 1410 00b8 CB1A     		sub	r3, r1, r3
 595:.\DriverControl.c ****             (ThermalLimitArray[dataIndex].MAX_TEMPERATURE - tolerance))
 1411              		.loc 1 595 0
 1412 00ba 9A42     		cmp	r2, r3
 1413 00bc 01DA     		bge	.L108
 597:.\DriverControl.c ****             return EXCEEDED_LOWER_BOUND;
 1414              		.loc 1 597 0
 1415 00be 0223     		mov	r3, #2
 1416 00c0 0EE0     		b	.L102
 1417              	.L108:
 593:.\DriverControl.c ****     {
 1418              		.loc 1 593 0 discriminator 2
 1419 00c2 0F23     		mov	r3, #15
 1420 00c4 FB18     		add	r3, r7, r3
 1421 00c6 1A78     		ldrb	r2, [r3]
 1422 00c8 0F23     		mov	r3, #15
 1423 00ca FB18     		add	r3, r7, r3
 1424 00cc 0132     		add	r2, r2, #1
 1425 00ce 1A70     		strb	r2, [r3]
 1426              	.L107:
 593:.\DriverControl.c ****     {
 1427              		.loc 1 593 0 is_stmt 0 discriminator 1
 1428 00d0 0F23     		mov	r3, #15
 1429 00d2 FA18     		add	r2, r7, r3
 1430 00d4 FB1C     		add	r3, r7, #3
 1431 00d6 1278     		ldrb	r2, [r2]
 1432 00d8 1B78     		ldrb	r3, [r3]
 1433 00da 9A42     		cmp	r2, r3
 1434 00dc DAD3     		bcc	.L109
 598:.\DriverControl.c ****     }
 599:.\DriverControl.c ****     
 600:.\DriverControl.c ****     return WITHIN_TOLERANCE;
 1435              		.loc 1 600 0 is_stmt 1
 1436 00de 0023     		mov	r3, #0
ARM GAS  C:\Users\kylep\AppData\Local\Temp\ccWR86sf.s 			page 37


 1437              	.L102:
 601:.\DriverControl.c **** }
 1438              		.loc 1 601 0
 1439 00e0 181C     		mov	r0, r3
 1440 00e2 BD46     		mov	sp, r7
 1441 00e4 04B0     		add	sp, sp, #16
 1442              		@ sp needed
 1443 00e6 80BD     		pop	{r7, pc}
 1444              	.L111:
 1445              		.align	2
 1446              	.L110:
 1447 00e8 00000000 		.word	ThermalLimitArray
 1448              		.cfi_endproc
 1449              	.LFE47:
 1450              		.size	getTemperatureStatus, .-getTemperatureStatus
 1451              		.bss
 1452              	timerCountLocal.6214:
 1453 0000 00       		.space	1
 1454              		.text
 1455              	.Letext0:
 1456              		.file 2 "Generated_Source\\PSoC4/cytypes.h"
 1457              		.file 3 ".\\DriverControl.h"