ARM GAS  C:\Users\faithc\AppData\Local\Temp\ccM21fnc.s 			page 1


   1              		.cpu cortex-m0
   2              		.fpu softvfp
   3              		.eabi_attribute 20, 1
   4              		.eabi_attribute 21, 1
   5              		.eabi_attribute 23, 3
   6              		.eabi_attribute 24, 1
   7              		.eabi_attribute 25, 1
   8              		.eabi_attribute 26, 1
   9              		.eabi_attribute 30, 6
  10              		.eabi_attribute 34, 0
  11              		.eabi_attribute 18, 4
  12              		.code	16
  13              		.file	"IO_Control.c"
  14              		.text
  15              	.Ltext0:
  16              		.cfi_sections	.debug_frame
  17              		.data
  18              		.align	2
  19              		.type	ThermalLimitArray, %object
  20              		.size	ThermalLimitArray, 16
  21              	ThermalLimitArray:
  22 0000 C201     		.short	450
  23 0002 6400     		.short	100
  24 0004 9001     		.short	400
  25 0006 6400     		.short	100
  26 0008 2C01     		.short	300
  27 000a 6400     		.short	100
  28 000c 6400     		.short	100
  29 000e 5000     		.short	80
  30              		.align	2
  31              		.type	PositionData, %object
  32              		.size	PositionData, 3
  33              	PositionData:
  34 0010 00       		.byte	0
  35 0011 00       		.byte	0
  36 0012 01       		.byte	1
  37 0013 00       		.align	2
  38              		.type	ThermalData, %object
  39              		.size	ThermalData, 5
  40              	ThermalData:
  41 0014 00       		.byte	0
  42 0015 00       		.byte	0
  43 0016 00       		.byte	0
  44 0017 00       		.byte	0
  45 0018 FF       		.byte	-1
  46 0019 000000   		.section	.text.toggleLED,"ax",%progbits
  47              		.align	2
  48              		.global	toggleLED
  49              		.code	16
  50              		.thumb_func
  51              		.type	toggleLED, %function
  52              	toggleLED:
  53              	.LFB34:
  54              		.file 1 ".\\IO_Control.c"
   1:.\IO_Control.c **** /* ========================================
   2:.\IO_Control.c ****  *
   3:.\IO_Control.c ****  * Copyright YOUR COMPANY, THE YEAR
ARM GAS  C:\Users\faithc\AppData\Local\Temp\ccM21fnc.s 			page 2


   4:.\IO_Control.c ****  * All Rights Reserved
   5:.\IO_Control.c ****  * UNPUBLISHED, LICENSED SOFTWARE.
   6:.\IO_Control.c ****  *
   7:.\IO_Control.c ****  * CONFIDENTIAL AND PROPRIETARY INFORMATION
   8:.\IO_Control.c ****  * WHICH IS THE PROPERTY OF your company.
   9:.\IO_Control.c ****  *
  10:.\IO_Control.c ****  * ========================================
  11:.\IO_Control.c **** */
  12:.\IO_Control.c **** /**********CHANGE LOG**********/
  13:.\IO_Control.c **** 
  14:.\IO_Control.c **** 
  15:.\IO_Control.c **** /**********PREPROCESSOR DIRECTIVES**********/
  16:.\IO_Control.c **** #include "CommonVariables.h"
  17:.\IO_Control.c **** #include "IO_Control.h"
  18:.\IO_Control.c **** #include "BrightnessCommManager.h"
  19:.\IO_Control.c **** 
  20:.\IO_Control.c **** #define MAX_ADC_CONVERSION_WAIT_LIMIT   5
  21:.\IO_Control.c **** #define SAMPLE_COUNT_PER_CYCLE          1
  22:.\IO_Control.c **** #define BRIGHTNESS_CHANGE_PER_SAMPLE    1
  23:.\IO_Control.c **** 
  24:.\IO_Control.c **** #define RAMP_DOWN_RATE                  1
  25:.\IO_Control.c **** #define STEADY_INCREASE_RATE            1
  26:.\IO_Control.c **** #define STEADY_DECREASE_RATE            1
  27:.\IO_Control.c **** 
  28:.\IO_Control.c **** #define MAX_SCALING_FACTOR              0xFF
  29:.\IO_Control.c **** #define SAFE_TEMPERATURE_TOLERANCE      0
  30:.\IO_Control.c ****     
  31:.\IO_Control.c **** /**********DEFINED CONSTANTS**********/
  32:.\IO_Control.c **** enum RegulationState
  33:.\IO_Control.c **** {
  34:.\IO_Control.c ****     STARTUP,
  35:.\IO_Control.c ****     STEADY_INCREASE,
  36:.\IO_Control.c ****     STEADY_DECREASE,
  37:.\IO_Control.c ****     NO_CHANGE
  38:.\IO_Control.c **** };
  39:.\IO_Control.c **** 
  40:.\IO_Control.c **** enum TemperatureStatus
  41:.\IO_Control.c **** {
  42:.\IO_Control.c ****     WITHIN_TOLERANCE,
  43:.\IO_Control.c ****     EXCEEDED_UPPER_BOUND,
  44:.\IO_Control.c ****     EXCEEDED_LOWER_BOUND,
  45:.\IO_Control.c ****     ERROR
  46:.\IO_Control.c **** };
  47:.\IO_Control.c **** 
  48:.\IO_Control.c **** typedef struct
  49:.\IO_Control.c **** {
  50:.\IO_Control.c ****     const int16 MAX_TEMPERATURE;
  51:.\IO_Control.c ****     const int16 SAFE_TEMPERATURE;
  52:.\IO_Control.c **** }ThermalLimit;
  53:.\IO_Control.c **** 
  54:.\IO_Control.c **** static ThermalLimit ThermalLimitArray[ADC_SAMPLE_COUNT] = 
  55:.\IO_Control.c **** {
  56:.\IO_Control.c ****     {450, 100}, //LED
  57:.\IO_Control.c ****     {400, 100}, //SwitchNode
  58:.\IO_Control.c ****     {300, 100}, //Ambient
  59:.\IO_Control.c ****     {100,  80}  //Micro
  60:.\IO_Control.c **** };
ARM GAS  C:\Users\faithc\AppData\Local\Temp\ccM21fnc.s 			page 3


  61:.\IO_Control.c **** 
  62:.\IO_Control.c **** /**********DATA STRUCTURES**********/
  63:.\IO_Control.c **** typedef struct
  64:.\IO_Control.c **** {
  65:.\IO_Control.c ****     uint8 ID_Number;
  66:.\IO_Control.c ****     uint8 driverCount;
  67:.\IO_Control.c ****     uint8 bLastDriverInChain;
  68:.\IO_Control.c **** }DriverProperties;
  69:.\IO_Control.c **** 
  70:.\IO_Control.c **** static DriverProperties PositionData = {0, 0, TRUE};
  71:.\IO_Control.c **** 
  72:.\IO_Control.c **** typedef struct
  73:.\IO_Control.c **** {
  74:.\IO_Control.c ****     uint8 requestedBrightness;
  75:.\IO_Control.c ****     uint8 regulatedBrightness;
  76:.\IO_Control.c ****     uint8 previousRegulatedBrightness;
  77:.\IO_Control.c ****     enum RegulationState currentState;
  78:.\IO_Control.c ****     uint8 scalingFactor;
  79:.\IO_Control.c **** }ThermalProperties;
  80:.\IO_Control.c **** 
  81:.\IO_Control.c **** static ThermalProperties ThermalData = {0, 0, 0, STARTUP, 0xFF};
  82:.\IO_Control.c **** 
  83:.\IO_Control.c **** /**********GLOBAL VARIABLES**********/
  84:.\IO_Control.c **** 
  85:.\IO_Control.c **** 
  86:.\IO_Control.c **** /**********LOCAL FUNCTION PROTOTYPES**********/
  87:.\IO_Control.c **** static enum TemperatureStatus getTemperatureStatus(int16* TemperatureData,
  88:.\IO_Control.c ****     uint8 length, int16 tolerance);
  89:.\IO_Control.c **** 
  90:.\IO_Control.c **** /**********DEFINED GLOBAL FUNCTIONS**********/
  91:.\IO_Control.c **** /*******************************************************************************
  92:.\IO_Control.c **** * Function Name: toggleLED
  93:.\IO_Control.c **** ********************************************************************************
  94:.\IO_Control.c **** *
  95:.\IO_Control.c **** * Summary:
  96:.\IO_Control.c **** *  Called in LED_ISR, toggles LED indicator at 1 Hz rate.
  97:.\IO_Control.c **** *
  98:.\IO_Control.c **** * Parameters:
  99:.\IO_Control.c **** *  None.
 100:.\IO_Control.c **** *
 101:.\IO_Control.c **** * Return:
 102:.\IO_Control.c **** *  None.
 103:.\IO_Control.c **** *
 104:.\IO_Control.c **** *******************************************************************************/
 105:.\IO_Control.c **** void toggleLED(void)
 106:.\IO_Control.c **** {
  55              		.loc 1 106 0
  56              		.cfi_startproc
  57 0000 80B5     		push	{r7, lr}
  58              		.cfi_def_cfa_offset 8
  59              		.cfi_offset 7, -8
  60              		.cfi_offset 14, -4
  61 0002 00AF     		add	r7, sp, #0
  62              		.cfi_def_cfa_register 7
 107:.\IO_Control.c ****     static uint8 bLED_On = FALSE;
 108:.\IO_Control.c ****     
 109:.\IO_Control.c ****     SecondsTimer_ClearInterrupt(SecondsTimer_INTR_MASK_TC);
ARM GAS  C:\Users\faithc\AppData\Local\Temp\ccM21fnc.s 			page 4


  63              		.loc 1 109 0
  64 0004 0120     		mov	r0, #1
  65 0006 FFF7FEFF 		bl	SecondsTimer_ClearInterrupt
 110:.\IO_Control.c ****     
 111:.\IO_Control.c ****     bLED_On = !bLED_On;
  66              		.loc 1 111 0
  67 000a 074B     		ldr	r3, .L2
  68 000c 1B78     		ldrb	r3, [r3]
  69 000e 5A42     		neg	r2, r3
  70 0010 5341     		adc	r3, r3, r2
  71 0012 DBB2     		uxtb	r3, r3
  72 0014 1A1C     		mov	r2, r3
  73 0016 044B     		ldr	r3, .L2
  74 0018 1A70     		strb	r2, [r3]
 112:.\IO_Control.c ****     LED_Output_Write(bLED_On);
  75              		.loc 1 112 0
  76 001a 034B     		ldr	r3, .L2
  77 001c 1B78     		ldrb	r3, [r3]
  78 001e 181C     		mov	r0, r3
  79 0020 FFF7FEFF 		bl	LED_Output_Write
 113:.\IO_Control.c **** }
  80              		.loc 1 113 0
  81 0024 BD46     		mov	sp, r7
  82              		@ sp needed
  83 0026 80BD     		pop	{r7, pc}
  84              	.L3:
  85              		.align	2
  86              	.L2:
  87 0028 00000000 		.word	bLED_On.6197
  88              		.cfi_endproc
  89              	.LFE34:
  90              		.size	toggleLED, .-toggleLED
  91              		.section	.text.getDriverID,"ax",%progbits
  92              		.align	2
  93              		.global	getDriverID
  94              		.code	16
  95              		.thumb_func
  96              		.type	getDriverID, %function
  97              	getDriverID:
  98              	.LFB35:
 114:.\IO_Control.c **** 
 115:.\IO_Control.c **** /*******************************************************************************
 116:.\IO_Control.c **** * Function Name: getDriverID
 117:.\IO_Control.c **** ********************************************************************************
 118:.\IO_Control.c **** *
 119:.\IO_Control.c **** * Summary:
 120:.\IO_Control.c **** *  Returns the ID number of this driver.
 121:.\IO_Control.c **** *
 122:.\IO_Control.c **** * Parameters:
 123:.\IO_Control.c **** *  None.
 124:.\IO_Control.c **** *
 125:.\IO_Control.c **** * Return:
 126:.\IO_Control.c **** *  Value 1 for head module, 2 - 8 for trailer module
 127:.\IO_Control.c **** *
 128:.\IO_Control.c **** *******************************************************************************/
 129:.\IO_Control.c **** uint8 getDriverID(void)
 130:.\IO_Control.c **** {
ARM GAS  C:\Users\faithc\AppData\Local\Temp\ccM21fnc.s 			page 5


  99              		.loc 1 130 0
 100              		.cfi_startproc
 101 0000 80B5     		push	{r7, lr}
 102              		.cfi_def_cfa_offset 8
 103              		.cfi_offset 7, -8
 104              		.cfi_offset 14, -4
 105 0002 00AF     		add	r7, sp, #0
 106              		.cfi_def_cfa_register 7
 131:.\IO_Control.c ****     return PositionData.ID_Number;
 107              		.loc 1 131 0
 108 0004 024B     		ldr	r3, .L6
 109 0006 1B78     		ldrb	r3, [r3]
 132:.\IO_Control.c **** }
 110              		.loc 1 132 0
 111 0008 181C     		mov	r0, r3
 112 000a BD46     		mov	sp, r7
 113              		@ sp needed
 114 000c 80BD     		pop	{r7, pc}
 115              	.L7:
 116 000e C046     		.align	2
 117              	.L6:
 118 0010 10000000 		.word	PositionData
 119              		.cfi_endproc
 120              	.LFE35:
 121              		.size	getDriverID, .-getDriverID
 122              		.section	.text.setIdentityByComm,"ax",%progbits
 123              		.align	2
 124              		.global	setIdentityByComm
 125              		.code	16
 126              		.thumb_func
 127              		.type	setIdentityByComm, %function
 128              	setIdentityByComm:
 129              	.LFB36:
 133:.\IO_Control.c **** 
 134:.\IO_Control.c **** /*******************************************************************************
 135:.\IO_Control.c **** * Function Name: setIdentityByComm
 136:.\IO_Control.c **** ********************************************************************************
 137:.\IO_Control.c **** *
 138:.\IO_Control.c **** * Summary:
 139:.\IO_Control.c **** *  Sets the ID number for this driver based on UART communication. The number
 140:.\IO_Control.c **** *  assigned is the driver position away from the controller.
 141:.\IO_Control.c **** *
 142:.\IO_Control.c **** * Parameters:
 143:.\IO_Control.c **** *  positionNumber: The ID number based on position in the chain.
 144:.\IO_Control.c **** *
 145:.\IO_Control.c **** * Return:
 146:.\IO_Control.c **** *  SUCCESS for valid input, FAILURE otherwise
 147:.\IO_Control.c **** *
 148:.\IO_Control.c **** *******************************************************************************/
 149:.\IO_Control.c **** uint8 setIdentityByComm(uint8 positionNumber)
 150:.\IO_Control.c **** {
 130              		.loc 1 150 0
 131              		.cfi_startproc
 132 0000 80B5     		push	{r7, lr}
 133              		.cfi_def_cfa_offset 8
 134              		.cfi_offset 7, -8
 135              		.cfi_offset 14, -4
ARM GAS  C:\Users\faithc\AppData\Local\Temp\ccM21fnc.s 			page 6


 136 0002 82B0     		sub	sp, sp, #8
 137              		.cfi_def_cfa_offset 16
 138 0004 00AF     		add	r7, sp, #0
 139              		.cfi_def_cfa_register 7
 140 0006 021C     		mov	r2, r0
 141 0008 FB1D     		add	r3, r7, #7
 142 000a 1A70     		strb	r2, [r3]
 151:.\IO_Control.c ****     if(positionNumber < 1 || positionNumber > MAX_DRIVER_COUNT)
 143              		.loc 1 151 0
 144 000c FB1D     		add	r3, r7, #7
 145 000e 1B78     		ldrb	r3, [r3]
 146 0010 002B     		cmp	r3, #0
 147 0012 03D0     		beq	.L9
 148              		.loc 1 151 0 is_stmt 0 discriminator 1
 149 0014 FB1D     		add	r3, r7, #7
 150 0016 1B78     		ldrb	r3, [r3]
 151 0018 082B     		cmp	r3, #8
 152 001a 01D9     		bls	.L10
 153              	.L9:
 152:.\IO_Control.c ****         return FAILURE;
 154              		.loc 1 152 0 is_stmt 1
 155 001c 0123     		mov	r3, #1
 156 001e 04E0     		b	.L11
 157              	.L10:
 153:.\IO_Control.c ****     
 154:.\IO_Control.c ****     PositionData.ID_Number = positionNumber;
 158              		.loc 1 154 0
 159 0020 044B     		ldr	r3, .L12
 160 0022 FA1D     		add	r2, r7, #7
 161 0024 1278     		ldrb	r2, [r2]
 162 0026 1A70     		strb	r2, [r3]
 155:.\IO_Control.c ****     
 156:.\IO_Control.c ****     return SUCCESS;
 163              		.loc 1 156 0
 164 0028 0023     		mov	r3, #0
 165              	.L11:
 157:.\IO_Control.c **** }
 166              		.loc 1 157 0
 167 002a 181C     		mov	r0, r3
 168 002c BD46     		mov	sp, r7
 169 002e 02B0     		add	sp, sp, #8
 170              		@ sp needed
 171 0030 80BD     		pop	{r7, pc}
 172              	.L13:
 173 0032 C046     		.align	2
 174              	.L12:
 175 0034 10000000 		.word	PositionData
 176              		.cfi_endproc
 177              	.LFE36:
 178              		.size	setIdentityByComm, .-setIdentityByComm
 179              		.section	.text.setDriverCount,"ax",%progbits
 180              		.align	2
 181              		.global	setDriverCount
 182              		.code	16
 183              		.thumb_func
 184              		.type	setDriverCount, %function
 185              	setDriverCount:
ARM GAS  C:\Users\faithc\AppData\Local\Temp\ccM21fnc.s 			page 7


 186              	.LFB37:
 158:.\IO_Control.c **** 
 159:.\IO_Control.c **** /*******************************************************************************
 160:.\IO_Control.c **** * Function Name: setDriverCount
 161:.\IO_Control.c **** ********************************************************************************
 162:.\IO_Control.c **** *
 163:.\IO_Control.c **** * Summary:
 164:.\IO_Control.c **** *  Sets the number of drivers in the chain.
 165:.\IO_Control.c **** *
 166:.\IO_Control.c **** * Parameters:
 167:.\IO_Control.c **** *  newDriverCount: The updated number of drivers in the chain.
 168:.\IO_Control.c **** *
 169:.\IO_Control.c **** * Return:
 170:.\IO_Control.c **** *  SUCCESS for valid input, FAILURE otherwise
 171:.\IO_Control.c **** *
 172:.\IO_Control.c **** *******************************************************************************/
 173:.\IO_Control.c **** uint8 setDriverCount(uint8 newDriverCount)
 174:.\IO_Control.c **** {
 187              		.loc 1 174 0
 188              		.cfi_startproc
 189 0000 80B5     		push	{r7, lr}
 190              		.cfi_def_cfa_offset 8
 191              		.cfi_offset 7, -8
 192              		.cfi_offset 14, -4
 193 0002 82B0     		sub	sp, sp, #8
 194              		.cfi_def_cfa_offset 16
 195 0004 00AF     		add	r7, sp, #0
 196              		.cfi_def_cfa_register 7
 197 0006 021C     		mov	r2, r0
 198 0008 FB1D     		add	r3, r7, #7
 199 000a 1A70     		strb	r2, [r3]
 175:.\IO_Control.c ****     if(newDriverCount < 1 || newDriverCount > MAX_DRIVER_COUNT)
 200              		.loc 1 175 0
 201 000c FB1D     		add	r3, r7, #7
 202 000e 1B78     		ldrb	r3, [r3]
 203 0010 002B     		cmp	r3, #0
 204 0012 03D0     		beq	.L15
 205              		.loc 1 175 0 is_stmt 0 discriminator 1
 206 0014 FB1D     		add	r3, r7, #7
 207 0016 1B78     		ldrb	r3, [r3]
 208 0018 082B     		cmp	r3, #8
 209 001a 01D9     		bls	.L16
 210              	.L15:
 176:.\IO_Control.c ****         return FAILURE;
 211              		.loc 1 176 0 is_stmt 1
 212 001c 0123     		mov	r3, #1
 213 001e 04E0     		b	.L17
 214              	.L16:
 177:.\IO_Control.c ****     
 178:.\IO_Control.c ****     PositionData.driverCount = newDriverCount;
 215              		.loc 1 178 0
 216 0020 044B     		ldr	r3, .L18
 217 0022 FA1D     		add	r2, r7, #7
 218 0024 1278     		ldrb	r2, [r2]
 219 0026 5A70     		strb	r2, [r3, #1]
 179:.\IO_Control.c ****     
 180:.\IO_Control.c ****     return SUCCESS;
ARM GAS  C:\Users\faithc\AppData\Local\Temp\ccM21fnc.s 			page 8


 220              		.loc 1 180 0
 221 0028 0023     		mov	r3, #0
 222              	.L17:
 181:.\IO_Control.c **** }
 223              		.loc 1 181 0
 224 002a 181C     		mov	r0, r3
 225 002c BD46     		mov	sp, r7
 226 002e 02B0     		add	sp, sp, #8
 227              		@ sp needed
 228 0030 80BD     		pop	{r7, pc}
 229              	.L19:
 230 0032 C046     		.align	2
 231              	.L18:
 232 0034 10000000 		.word	PositionData
 233              		.cfi_endproc
 234              	.LFE37:
 235              		.size	setDriverCount, .-setDriverCount
 236              		.section	.text.isLastDriverInChain,"ax",%progbits
 237              		.align	2
 238              		.global	isLastDriverInChain
 239              		.code	16
 240              		.thumb_func
 241              		.type	isLastDriverInChain, %function
 242              	isLastDriverInChain:
 243              	.LFB38:
 182:.\IO_Control.c **** 
 183:.\IO_Control.c **** /*******************************************************************************
 184:.\IO_Control.c **** * Function Name: isLastDriverInChain
 185:.\IO_Control.c **** ********************************************************************************
 186:.\IO_Control.c **** *
 187:.\IO_Control.c **** * Summary:
 188:.\IO_Control.c **** *  Determines if this driver is at the end of the chain.
 189:.\IO_Control.c **** *
 190:.\IO_Control.c **** * Parameters:
 191:.\IO_Control.c **** *  None.
 192:.\IO_Control.c **** *
 193:.\IO_Control.c **** * Return:
 194:.\IO_Control.c **** *  TRUE if last driver in the chain, FALSE if otherwise
 195:.\IO_Control.c **** *
 196:.\IO_Control.c **** *******************************************************************************/
 197:.\IO_Control.c **** uint8 isLastDriverInChain(void)
 198:.\IO_Control.c **** {
 244              		.loc 1 198 0
 245              		.cfi_startproc
 246 0000 80B5     		push	{r7, lr}
 247              		.cfi_def_cfa_offset 8
 248              		.cfi_offset 7, -8
 249              		.cfi_offset 14, -4
 250 0002 00AF     		add	r7, sp, #0
 251              		.cfi_def_cfa_register 7
 199:.\IO_Control.c ****     return PositionData.bLastDriverInChain;
 252              		.loc 1 199 0
 253 0004 024B     		ldr	r3, .L22
 254 0006 9B78     		ldrb	r3, [r3, #2]
 200:.\IO_Control.c **** }
 255              		.loc 1 200 0
 256 0008 181C     		mov	r0, r3
ARM GAS  C:\Users\faithc\AppData\Local\Temp\ccM21fnc.s 			page 9


 257 000a BD46     		mov	sp, r7
 258              		@ sp needed
 259 000c 80BD     		pop	{r7, pc}
 260              	.L23:
 261 000e C046     		.align	2
 262              	.L22:
 263 0010 10000000 		.word	PositionData
 264              		.cfi_endproc
 265              	.LFE38:
 266              		.size	isLastDriverInChain, .-isLastDriverInChain
 267              		.section	.text.setAsNotLastDriverInChain,"ax",%progbits
 268              		.align	2
 269              		.global	setAsNotLastDriverInChain
 270              		.code	16
 271              		.thumb_func
 272              		.type	setAsNotLastDriverInChain, %function
 273              	setAsNotLastDriverInChain:
 274              	.LFB39:
 201:.\IO_Control.c **** 
 202:.\IO_Control.c **** /*******************************************************************************
 203:.\IO_Control.c **** * Function Name: setAsNotLastDriverInChain
 204:.\IO_Control.c **** ********************************************************************************
 205:.\IO_Control.c **** *
 206:.\IO_Control.c **** * Summary:
 207:.\IO_Control.c **** *  At the start of the program, this driver is assumed to the be the last driver
 208:.\IO_Control.c **** *  in the chain. If an ACK packet is received at startup, this function is called
 209:.\IO_Control.c **** *  to update the status for not being in the last driver.
 210:.\IO_Control.c **** *
 211:.\IO_Control.c **** * Parameters:
 212:.\IO_Control.c **** *  None.
 213:.\IO_Control.c **** *
 214:.\IO_Control.c **** * Return:
 215:.\IO_Control.c **** *  None.
 216:.\IO_Control.c **** *
 217:.\IO_Control.c **** *******************************************************************************/
 218:.\IO_Control.c **** void setAsNotLastDriverInChain(void)
 219:.\IO_Control.c **** {
 275              		.loc 1 219 0
 276              		.cfi_startproc
 277 0000 80B5     		push	{r7, lr}
 278              		.cfi_def_cfa_offset 8
 279              		.cfi_offset 7, -8
 280              		.cfi_offset 14, -4
 281 0002 00AF     		add	r7, sp, #0
 282              		.cfi_def_cfa_register 7
 220:.\IO_Control.c ****     PositionData.bLastDriverInChain = FALSE;
 283              		.loc 1 220 0
 284 0004 024B     		ldr	r3, .L25
 285 0006 0022     		mov	r2, #0
 286 0008 9A70     		strb	r2, [r3, #2]
 221:.\IO_Control.c **** }
 287              		.loc 1 221 0
 288 000a BD46     		mov	sp, r7
 289              		@ sp needed
 290 000c 80BD     		pop	{r7, pc}
 291              	.L26:
 292 000e C046     		.align	2
ARM GAS  C:\Users\faithc\AppData\Local\Temp\ccM21fnc.s 			page 10


 293              	.L25:
 294 0010 10000000 		.word	PositionData
 295              		.cfi_endproc
 296              	.LFE39:
 297              		.size	setAsNotLastDriverInChain, .-setAsNotLastDriverInChain
 298              		.section	.text.updateBrightnessLevel,"ax",%progbits
 299              		.align	2
 300              		.global	updateBrightnessLevel
 301              		.code	16
 302              		.thumb_func
 303              		.type	updateBrightnessLevel, %function
 304              	updateBrightnessLevel:
 305              	.LFB40:
 222:.\IO_Control.c **** 
 223:.\IO_Control.c **** /*******************************************************************************
 224:.\IO_Control.c **** * Function Name: updateBrightnessLevel
 225:.\IO_Control.c **** ********************************************************************************
 226:.\IO_Control.c **** *
 227:.\IO_Control.c **** * Summary:
 228:.\IO_Control.c **** *  Updates the brightness of the LED. Resulting brightness may not match the
 229:.\IO_Control.c **** *  requested brightness depending on temperature regulation state.
 230:.\IO_Control.c **** *
 231:.\IO_Control.c **** * Parameters:
 232:.\IO_Control.c **** *  brightnessLevel: The desired brightness level for the LED.
 233:.\IO_Control.c **** *
 234:.\IO_Control.c **** * Return:
 235:.\IO_Control.c **** *  The resulting brightness level of the LED
 236:.\IO_Control.c **** *
 237:.\IO_Control.c **** *******************************************************************************/
 238:.\IO_Control.c **** uint8 updateBrightnessLevel(uint8 brightnessLevel)
 239:.\IO_Control.c **** {
 306              		.loc 1 239 0
 307              		.cfi_startproc
 308 0000 80B5     		push	{r7, lr}
 309              		.cfi_def_cfa_offset 8
 310              		.cfi_offset 7, -8
 311              		.cfi_offset 14, -4
 312 0002 82B0     		sub	sp, sp, #8
 313              		.cfi_def_cfa_offset 16
 314 0004 00AF     		add	r7, sp, #0
 315              		.cfi_def_cfa_register 7
 316 0006 021C     		mov	r2, r0
 317 0008 FB1D     		add	r3, r7, #7
 318 000a 1A70     		strb	r2, [r3]
 240:.\IO_Control.c ****     if(PositionData.ID_Number != 1)
 319              		.loc 1 240 0
 320 000c 254B     		ldr	r3, .L35
 321 000e 1B78     		ldrb	r3, [r3]
 322 0010 012B     		cmp	r3, #1
 323 0012 1CD0     		beq	.L28
 241:.\IO_Control.c ****     {
 242:.\IO_Control.c ****         if(brightnessLevel != ThermalData.requestedBrightness)
 324              		.loc 1 242 0
 325 0014 244B     		ldr	r3, .L35+4
 326 0016 1B78     		ldrb	r3, [r3]
 327 0018 FA1D     		add	r2, r7, #7
 328 001a 1278     		ldrb	r2, [r2]
ARM GAS  C:\Users\faithc\AppData\Local\Temp\ccM21fnc.s 			page 11


 329 001c 9A42     		cmp	r2, r3
 330 001e 13D0     		beq	.L29
 243:.\IO_Control.c ****         {
 244:.\IO_Control.c ****             ThermalData.requestedBrightness = brightnessLevel;
 331              		.loc 1 244 0
 332 0020 214B     		ldr	r3, .L35+4
 333 0022 FA1D     		add	r2, r7, #7
 334 0024 1278     		ldrb	r2, [r2]
 335 0026 1A70     		strb	r2, [r3]
 245:.\IO_Control.c ****             if(ThermalData.requestedBrightness > 0)
 336              		.loc 1 245 0
 337 0028 1F4B     		ldr	r3, .L35+4
 338 002a 1B78     		ldrb	r3, [r3]
 339 002c 002B     		cmp	r3, #0
 340 002e 08D0     		beq	.L30
 246:.\IO_Control.c ****             {
 247:.\IO_Control.c ****                 PWM_Enable_Write(TRUE);
 341              		.loc 1 247 0
 342 0030 0120     		mov	r0, #1
 343 0032 FFF7FEFF 		bl	PWM_Enable_Write
 248:.\IO_Control.c ****                 PWM_WriteCompare(ThermalData.requestedBrightness);
 344              		.loc 1 248 0
 345 0036 1C4B     		ldr	r3, .L35+4
 346 0038 1B78     		ldrb	r3, [r3]
 347 003a 181C     		mov	r0, r3
 348 003c FFF7FEFF 		bl	PWM_WriteCompare
 349 0040 02E0     		b	.L29
 350              	.L30:
 249:.\IO_Control.c ****             }
 250:.\IO_Control.c ****             else
 251:.\IO_Control.c ****                 PWM_Enable_Write(FALSE);
 351              		.loc 1 251 0
 352 0042 0020     		mov	r0, #0
 353 0044 FFF7FEFF 		bl	PWM_Enable_Write
 354              	.L29:
 252:.\IO_Control.c ****         }
 253:.\IO_Control.c ****         
 254:.\IO_Control.c ****         return ThermalData.requestedBrightness;
 355              		.loc 1 254 0
 356 0048 174B     		ldr	r3, .L35+4
 357 004a 1B78     		ldrb	r3, [r3]
 358 004c 25E0     		b	.L31
 359              	.L28:
 255:.\IO_Control.c ****     }
 256:.\IO_Control.c ****    
 257:.\IO_Control.c ****     //This should be head module by this point
 258:.\IO_Control.c ****     if(brightnessLevel != ThermalData.requestedBrightness)
 360              		.loc 1 258 0
 361 004e 164B     		ldr	r3, .L35+4
 362 0050 1B78     		ldrb	r3, [r3]
 363 0052 FA1D     		add	r2, r7, #7
 364 0054 1278     		ldrb	r2, [r2]
 365 0056 9A42     		cmp	r2, r3
 366 0058 03D0     		beq	.L32
 259:.\IO_Control.c ****         ThermalData.requestedBrightness = brightnessLevel;
 367              		.loc 1 259 0
 368 005a 134B     		ldr	r3, .L35+4
ARM GAS  C:\Users\faithc\AppData\Local\Temp\ccM21fnc.s 			page 12


 369 005c FA1D     		add	r2, r7, #7
 370 005e 1278     		ldrb	r2, [r2]
 371 0060 1A70     		strb	r2, [r3]
 372              	.L32:
 260:.\IO_Control.c ****     
 261:.\IO_Control.c ****     #if(ENABLE_REGULATION)
 262:.\IO_Control.c ****         if(ThermalData.regulatedBrightness != ThermalData.previousRegulatedBrightness)
 373              		.loc 1 262 0
 374 0062 114B     		ldr	r3, .L35+4
 375 0064 5A78     		ldrb	r2, [r3, #1]
 376 0066 104B     		ldr	r3, .L35+4
 377 0068 9B78     		ldrb	r3, [r3, #2]
 378 006a 9A42     		cmp	r2, r3
 379 006c 0FD0     		beq	.L33
 263:.\IO_Control.c ****         {
 264:.\IO_Control.c ****             if(ThermalData.regulatedBrightness > 0)
 380              		.loc 1 264 0
 381 006e 0E4B     		ldr	r3, .L35+4
 382 0070 5B78     		ldrb	r3, [r3, #1]
 383 0072 002B     		cmp	r3, #0
 384 0074 08D0     		beq	.L34
 265:.\IO_Control.c ****             {
 266:.\IO_Control.c ****                 PWM_Enable_Write(TRUE);
 385              		.loc 1 266 0
 386 0076 0120     		mov	r0, #1
 387 0078 FFF7FEFF 		bl	PWM_Enable_Write
 267:.\IO_Control.c ****                 PWM_WriteCompare(ThermalData.regulatedBrightness);
 388              		.loc 1 267 0
 389 007c 0A4B     		ldr	r3, .L35+4
 390 007e 5B78     		ldrb	r3, [r3, #1]
 391 0080 181C     		mov	r0, r3
 392 0082 FFF7FEFF 		bl	PWM_WriteCompare
 393 0086 02E0     		b	.L33
 394              	.L34:
 268:.\IO_Control.c ****             }
 269:.\IO_Control.c ****             else
 270:.\IO_Control.c ****                 PWM_Enable_Write(FALSE);
 395              		.loc 1 270 0
 396 0088 0020     		mov	r0, #0
 397 008a FFF7FEFF 		bl	PWM_Enable_Write
 398              	.L33:
 271:.\IO_Control.c ****         }
 272:.\IO_Control.c ****         
 273:.\IO_Control.c ****         ThermalData.previousRegulatedBrightness = ThermalData.regulatedBrightness;    
 399              		.loc 1 273 0
 400 008e 064B     		ldr	r3, .L35+4
 401 0090 5A78     		ldrb	r2, [r3, #1]
 402 0092 054B     		ldr	r3, .L35+4
 403 0094 9A70     		strb	r2, [r3, #2]
 274:.\IO_Control.c ****         return ThermalData.regulatedBrightness;
 404              		.loc 1 274 0
 405 0096 044B     		ldr	r3, .L35+4
 406 0098 5B78     		ldrb	r3, [r3, #1]
 407              	.L31:
 275:.\IO_Control.c ****     #else
 276:.\IO_Control.c ****         if(ThermalData.previousRegulatedBrightness != ThermalData.requestedBrightness)
 277:.\IO_Control.c ****         {
ARM GAS  C:\Users\faithc\AppData\Local\Temp\ccM21fnc.s 			page 13


 278:.\IO_Control.c ****             if(ThermalData.requestedBrightness > 0)
 279:.\IO_Control.c ****             {
 280:.\IO_Control.c ****                 PWM_Enable_Write(TRUE);
 281:.\IO_Control.c ****                 PWM_WriteCompare(ThermalData.requestedBrightness);
 282:.\IO_Control.c ****             }
 283:.\IO_Control.c ****             else
 284:.\IO_Control.c ****                 PWM_Enable_Write(FALSE);
 285:.\IO_Control.c ****         }
 286:.\IO_Control.c ****             
 287:.\IO_Control.c ****         ThermalData.previousRegulatedBrightness = ThermalData.requestedBrightness;  
 288:.\IO_Control.c ****         return ThermalData.requestedBrightness;
 289:.\IO_Control.c ****     #endif
 290:.\IO_Control.c **** }
 408              		.loc 1 290 0
 409 009a 181C     		mov	r0, r3
 410 009c BD46     		mov	sp, r7
 411 009e 02B0     		add	sp, sp, #8
 412              		@ sp needed
 413 00a0 80BD     		pop	{r7, pc}
 414              	.L36:
 415 00a2 C046     		.align	2
 416              	.L35:
 417 00a4 10000000 		.word	PositionData
 418 00a8 14000000 		.word	ThermalData
 419              		.cfi_endproc
 420              	.LFE40:
 421              		.size	updateBrightnessLevel, .-updateBrightnessLevel
 422              		.section	.text.getMaxTemperature,"ax",%progbits
 423              		.align	2
 424              		.global	getMaxTemperature
 425              		.code	16
 426              		.thumb_func
 427              		.type	getMaxTemperature, %function
 428              	getMaxTemperature:
 429              	.LFB41:
 291:.\IO_Control.c **** 
 292:.\IO_Control.c **** /*******************************************************************************
 293:.\IO_Control.c **** * Function Name: getMaxTemperature
 294:.\IO_Control.c **** ********************************************************************************
 295:.\IO_Control.c **** *
 296:.\IO_Control.c **** * Summary:
 297:.\IO_Control.c **** *  Obtains the next temperature sample from ADC.
 298:.\IO_Control.c **** *
 299:.\IO_Control.c **** * Parameters:
 300:.\IO_Control.c **** *  None.
 301:.\IO_Control.c **** *
 302:.\IO_Control.c **** * Return:
 303:.\IO_Control.c **** *  The next temperature sample from ADC
 304:.\IO_Control.c **** *
 305:.\IO_Control.c **** *******************************************************************************/
 306:.\IO_Control.c **** int16 getMaxTemperature(enum TemperaturePoint channelNumber)
 307:.\IO_Control.c **** {
 430              		.loc 1 307 0
 431              		.cfi_startproc
 432 0000 80B5     		push	{r7, lr}
 433              		.cfi_def_cfa_offset 8
 434              		.cfi_offset 7, -8
ARM GAS  C:\Users\faithc\AppData\Local\Temp\ccM21fnc.s 			page 14


 435              		.cfi_offset 14, -4
 436 0002 82B0     		sub	sp, sp, #8
 437              		.cfi_def_cfa_offset 16
 438 0004 00AF     		add	r7, sp, #0
 439              		.cfi_def_cfa_register 7
 440 0006 021C     		mov	r2, r0
 441 0008 FB1D     		add	r3, r7, #7
 442 000a 1A70     		strb	r2, [r3]
 308:.\IO_Control.c ****     if(channelNumber < LED || channelNumber > MICRO)
 443              		.loc 1 308 0
 444 000c FB1D     		add	r3, r7, #7
 445 000e 1B78     		ldrb	r3, [r3]
 446 0010 032B     		cmp	r3, #3
 447 0012 01D9     		bls	.L38
 309:.\IO_Control.c ****         return 0;
 448              		.loc 1 309 0
 449 0014 0023     		mov	r3, #0
 450 0016 04E0     		b	.L39
 451              	.L38:
 310:.\IO_Control.c ****     
 311:.\IO_Control.c ****     return ThermalLimitArray[channelNumber].MAX_TEMPERATURE;
 452              		.loc 1 311 0
 453 0018 FB1D     		add	r3, r7, #7
 454 001a 1A78     		ldrb	r2, [r3]
 455 001c 034B     		ldr	r3, .L40
 456 001e 9200     		lsl	r2, r2, #2
 457 0020 D35A     		ldrh	r3, [r2, r3]
 458              	.L39:
 459 0022 1BB2     		sxth	r3, r3
 312:.\IO_Control.c **** }
 460              		.loc 1 312 0
 461 0024 181C     		mov	r0, r3
 462 0026 BD46     		mov	sp, r7
 463 0028 02B0     		add	sp, sp, #8
 464              		@ sp needed
 465 002a 80BD     		pop	{r7, pc}
 466              	.L41:
 467              		.align	2
 468              	.L40:
 469 002c 00000000 		.word	ThermalLimitArray
 470              		.cfi_endproc
 471              	.LFE41:
 472              		.size	getMaxTemperature, .-getMaxTemperature
 473              		.global	__aeabi_i2f
 474              		.global	__aeabi_fmul
 475              		.global	__aeabi_f2d
 476              		.global	__aeabi_ddiv
 477              		.global	__aeabi_d2f
 478              		.global	__aeabi_f2iz
 479              		.section	.text.getTemperatureSample,"ax",%progbits
 480              		.align	2
 481              		.global	getTemperatureSample
 482              		.code	16
 483              		.thumb_func
 484              		.type	getTemperatureSample, %function
 485              	getTemperatureSample:
 486              	.LFB42:
ARM GAS  C:\Users\faithc\AppData\Local\Temp\ccM21fnc.s 			page 15


 313:.\IO_Control.c **** 
 314:.\IO_Control.c **** /*******************************************************************************
 315:.\IO_Control.c **** * Function Name: getTemperatureSample
 316:.\IO_Control.c **** ********************************************************************************
 317:.\IO_Control.c **** *
 318:.\IO_Control.c **** * Summary:
 319:.\IO_Control.c **** *  Obtains the next temperature sample(s) from ADC. This function can return a
 320:.\IO_Control.c **** *  single sample or multiple samples in one call.
 321:.\IO_Control.c **** *
 322:.\IO_Control.c **** * Parameters:
 323:.\IO_Control.c **** *  bSingleSample: TRUE for single sample, FALSE for multiple samples
 324:.\IO_Control.c **** *  channelNumber: Channel selection for single sample: LED, SWITCH_NODE, AMBIENT, or MICRO
 325:.\IO_Control.c **** *  sampleArray: Reference to the array that contains 4 temperature samples
 326:.\IO_Control.c **** *  length: Size of the array in # of temperature points
 327:.\IO_Control.c **** *
 328:.\IO_Control.c **** * Return:
 329:.\IO_Control.c **** *  Single temperature value or Reference to array of 4 temperature samples
 330:.\IO_Control.c **** *
 331:.\IO_Control.c **** *******************************************************************************/
 332:.\IO_Control.c **** int16 getTemperatureSample(uint8 bSingleSample, enum TemperaturePoint channelNumber, 
 333:.\IO_Control.c ****     int16* sampleArray, uint8 length)
 334:.\IO_Control.c **** {  
 487              		.loc 1 334 0
 488              		.cfi_startproc
 489 0000 90B5     		push	{r4, r7, lr}
 490              		.cfi_def_cfa_offset 12
 491              		.cfi_offset 4, -12
 492              		.cfi_offset 7, -8
 493              		.cfi_offset 14, -4
 494 0002 87B0     		sub	sp, sp, #28
 495              		.cfi_def_cfa_offset 40
 496 0004 00AF     		add	r7, sp, #0
 497              		.cfi_def_cfa_register 7
 498 0006 041C     		mov	r4, r0
 499 0008 081C     		mov	r0, r1
 500 000a 3A60     		str	r2, [r7]
 501 000c 191C     		mov	r1, r3
 502 000e FB1D     		add	r3, r7, #7
 503 0010 221C     		add	r2, r4, #0
 504 0012 1A70     		strb	r2, [r3]
 505 0014 BB1D     		add	r3, r7, #6
 506 0016 021C     		add	r2, r0, #0
 507 0018 1A70     		strb	r2, [r3]
 508 001a 7B1D     		add	r3, r7, #5
 509 001c 0A1C     		add	r2, r1, #0
 510 001e 1A70     		strb	r2, [r3]
 335:.\IO_Control.c ****     uint8 ADC_WaitCount = 0;
 511              		.loc 1 335 0
 512 0020 1723     		mov	r3, #23
 513 0022 FB18     		add	r3, r7, r3
 514 0024 0022     		mov	r2, #0
 515 0026 1A70     		strb	r2, [r3]
 336:.\IO_Control.c ****     int16 temperatureSample_16 = 0;
 516              		.loc 1 336 0
 517 0028 1423     		mov	r3, #20
 518 002a FB18     		add	r3, r7, r3
 519 002c 0022     		mov	r2, #0
ARM GAS  C:\Users\faithc\AppData\Local\Temp\ccM21fnc.s 			page 16


 520 002e 1A80     		strh	r2, [r3]
 337:.\IO_Control.c ****     float temperatureSample_float = 0;
 521              		.loc 1 337 0
 522 0030 0023     		mov	r3, #0
 523 0032 FB60     		str	r3, [r7, #12]
 338:.\IO_Control.c ****     uint32 channelIndex = 0;    
 524              		.loc 1 338 0
 525 0034 0023     		mov	r3, #0
 526 0036 3B61     		str	r3, [r7, #16]
 339:.\IO_Control.c ****     
 340:.\IO_Control.c ****     if((bSingleSample != TRUE) && (bSingleSample != FALSE))
 527              		.loc 1 340 0
 528 0038 FB1D     		add	r3, r7, #7
 529 003a 1B78     		ldrb	r3, [r3]
 530 003c 012B     		cmp	r3, #1
 531 003e 05D0     		beq	.L43
 532              		.loc 1 340 0 is_stmt 0 discriminator 1
 533 0040 FB1D     		add	r3, r7, #7
 534 0042 1B78     		ldrb	r3, [r3]
 535 0044 002B     		cmp	r3, #0
 536 0046 01D0     		beq	.L43
 341:.\IO_Control.c ****         return 0;
 537              		.loc 1 341 0 is_stmt 1
 538 0048 0023     		mov	r3, #0
 539 004a B8E0     		b	.L44
 540              	.L43:
 342:.\IO_Control.c ****     
 343:.\IO_Control.c ****     if(bSingleSample)
 541              		.loc 1 343 0
 542 004c FB1D     		add	r3, r7, #7
 543 004e 1B78     		ldrb	r3, [r3]
 544 0050 002B     		cmp	r3, #0
 545 0052 05D0     		beq	.L45
 344:.\IO_Control.c ****     {   //Input check for single sample
 345:.\IO_Control.c ****         if(channelNumber < LED || channelNumber > MICRO)
 546              		.loc 1 345 0
 547 0054 BB1D     		add	r3, r7, #6
 548 0056 1B78     		ldrb	r3, [r3]
 549 0058 032B     		cmp	r3, #3
 550 005a 0AD9     		bls	.L46
 346:.\IO_Control.c ****             return 0;
 551              		.loc 1 346 0
 552 005c 0023     		mov	r3, #0
 553 005e AEE0     		b	.L44
 554              	.L45:
 347:.\IO_Control.c ****     }
 348:.\IO_Control.c ****     else
 349:.\IO_Control.c ****     {   //Input check for multiple samples
 350:.\IO_Control.c ****         if(sampleArray == NULL || length != ADC_SAMPLE_COUNT)
 555              		.loc 1 350 0
 556 0060 3B68     		ldr	r3, [r7]
 557 0062 002B     		cmp	r3, #0
 558 0064 03D0     		beq	.L47
 559              		.loc 1 350 0 is_stmt 0 discriminator 1
 560 0066 7B1D     		add	r3, r7, #5
 561 0068 1B78     		ldrb	r3, [r3]
 562 006a 042B     		cmp	r3, #4
ARM GAS  C:\Users\faithc\AppData\Local\Temp\ccM21fnc.s 			page 17


 563 006c 01D0     		beq	.L46
 564              	.L47:
 351:.\IO_Control.c ****             return 0;
 565              		.loc 1 351 0 is_stmt 1
 566 006e 0023     		mov	r3, #0
 567 0070 A5E0     		b	.L44
 568              	.L46:
 352:.\IO_Control.c ****     }
 353:.\IO_Control.c ****     
 354:.\IO_Control.c ****     while(!ADC_SAR_Seq_IsEndConversion(ADC_SAR_Seq_RETURN_STATUS) 
 569              		.loc 1 354 0 discriminator 1
 570 0072 09E0     		b	.L48
 571              	.L50:
 355:.\IO_Control.c ****         && (ADC_WaitCount < MAX_ADC_CONVERSION_WAIT_LIMIT))
 356:.\IO_Control.c ****     {   //Wait for ADC conversion to complete
 357:.\IO_Control.c ****         ADC_WaitCount++;
 572              		.loc 1 357 0
 573 0074 1723     		mov	r3, #23
 574 0076 FB18     		add	r3, r7, r3
 575 0078 1A78     		ldrb	r2, [r3]
 576 007a 1723     		mov	r3, #23
 577 007c FB18     		add	r3, r7, r3
 578 007e 0132     		add	r2, r2, #1
 579 0080 1A70     		strb	r2, [r3]
 358:.\IO_Control.c ****         CyDelayUs(8);
 580              		.loc 1 358 0
 581 0082 0820     		mov	r0, #8
 582 0084 FFF7FEFF 		bl	CyDelayUs
 583              	.L48:
 354:.\IO_Control.c ****         && (ADC_WaitCount < MAX_ADC_CONVERSION_WAIT_LIMIT))
 584              		.loc 1 354 0
 585 0088 0120     		mov	r0, #1
 586 008a FFF7FEFF 		bl	ADC_SAR_Seq_IsEndConversion
 587 008e 031E     		sub	r3, r0, #0
 588 0090 04D1     		bne	.L49
 355:.\IO_Control.c ****         && (ADC_WaitCount < MAX_ADC_CONVERSION_WAIT_LIMIT))
 589              		.loc 1 355 0
 590 0092 1723     		mov	r3, #23
 591 0094 FB18     		add	r3, r7, r3
 592 0096 1B78     		ldrb	r3, [r3]
 593 0098 042B     		cmp	r3, #4
 594 009a EBD9     		bls	.L50
 595              	.L49:
 359:.\IO_Control.c ****     }
 360:.\IO_Control.c ****     
 361:.\IO_Control.c ****     if(ADC_WaitCount > MAX_ADC_CONVERSION_WAIT_LIMIT)
 596              		.loc 1 361 0
 597 009c 1723     		mov	r3, #23
 598 009e FB18     		add	r3, r7, r3
 599 00a0 1B78     		ldrb	r3, [r3]
 600 00a2 052B     		cmp	r3, #5
 601 00a4 01D9     		bls	.L51
 362:.\IO_Control.c ****         return 0;   //For case when conversion doesn't complete
 602              		.loc 1 362 0
 603 00a6 0023     		mov	r3, #0
 604 00a8 89E0     		b	.L44
 605              	.L51:
ARM GAS  C:\Users\faithc\AppData\Local\Temp\ccM21fnc.s 			page 18


 363:.\IO_Control.c ****     
 364:.\IO_Control.c ****     if(bSingleSample)
 606              		.loc 1 364 0
 607 00aa FB1D     		add	r3, r7, #7
 608 00ac 1B78     		ldrb	r3, [r3]
 609 00ae 002B     		cmp	r3, #0
 610 00b0 3CD0     		beq	.L52
 365:.\IO_Control.c ****     {   //Get single sample
 366:.\IO_Control.c ****         if(channelNumber < (ADC_SAMPLE_COUNT - 1))
 611              		.loc 1 366 0
 612 00b2 BB1D     		add	r3, r7, #6
 613 00b4 1B78     		ldrb	r3, [r3]
 614 00b6 022B     		cmp	r3, #2
 615 00b8 09D8     		bhi	.L53
 367:.\IO_Control.c ****             temperatureSample_16 = ADC_SAR_Seq_GetResult16((uint32)(channelNumber));
 616              		.loc 1 367 0
 617 00ba BB1D     		add	r3, r7, #6
 618 00bc 1B78     		ldrb	r3, [r3]
 619 00be 1422     		mov	r2, #20
 620 00c0 BC18     		add	r4, r7, r2
 621 00c2 181C     		mov	r0, r3
 622 00c4 FFF7FEFF 		bl	ADC_SAR_Seq_GetResult16
 623 00c8 031C     		mov	r3, r0
 624 00ca 2380     		strh	r3, [r4]
 625 00cc 74E0     		b	.L55
 626              	.L53:
 368:.\IO_Control.c ****         else
 369:.\IO_Control.c ****         {
 370:.\IO_Control.c ****             temperatureSample_float = (float)(ADC_SAR_Seq_GetResult16((uint32)(channelNumber)));
 627              		.loc 1 370 0
 628 00ce BB1D     		add	r3, r7, #6
 629 00d0 1B78     		ldrb	r3, [r3]
 630 00d2 181C     		mov	r0, r3
 631 00d4 FFF7FEFF 		bl	ADC_SAR_Seq_GetResult16
 632 00d8 031C     		mov	r3, r0
 633 00da 181C     		mov	r0, r3
 634 00dc FFF7FEFF 		bl	__aeabi_i2f
 635 00e0 031C     		add	r3, r0, #0
 636 00e2 FB60     		str	r3, [r7, #12]
 371:.\IO_Control.c ****             temperatureSample_float = temperatureSample_float * 5 / 1.024;
 637              		.loc 1 371 0
 638 00e4 F868     		ldr	r0, [r7, #12]
 639 00e6 3849     		ldr	r1, .L58
 640 00e8 FFF7FEFF 		bl	__aeabi_fmul
 641 00ec 031C     		add	r3, r0, #0
 642 00ee 181C     		add	r0, r3, #0
 643 00f0 FFF7FEFF 		bl	__aeabi_f2d
 644 00f4 031C     		mov	r3, r0
 645 00f6 0C1C     		mov	r4, r1
 646 00f8 181C     		mov	r0, r3
 647 00fa 211C     		mov	r1, r4
 648 00fc 334A     		ldr	r2, .L58+4
 649 00fe 344B     		ldr	r3, .L58+8
 650 0100 FFF7FEFF 		bl	__aeabi_ddiv
 651 0104 031C     		mov	r3, r0
 652 0106 0C1C     		mov	r4, r1
 653 0108 181C     		mov	r0, r3
ARM GAS  C:\Users\faithc\AppData\Local\Temp\ccM21fnc.s 			page 19


 654 010a 211C     		mov	r1, r4
 655 010c FFF7FEFF 		bl	__aeabi_d2f
 656 0110 031C     		add	r3, r0, #0
 657 0112 FB60     		str	r3, [r7, #12]
 372:.\IO_Control.c ****             temperatureSample_16 = (int16)(DieTemp_CountsTo_Celsius((int32)(temperatureSample_float
 658              		.loc 1 372 0
 659 0114 F868     		ldr	r0, [r7, #12]
 660 0116 FFF7FEFF 		bl	__aeabi_f2iz
 661 011a 031C     		mov	r3, r0
 662 011c 181C     		mov	r0, r3
 663 011e FFF7FEFF 		bl	DieTemp_CountsTo_Celsius
 664 0122 021C     		mov	r2, r0
 665 0124 1423     		mov	r3, #20
 666 0126 FB18     		add	r3, r7, r3
 667 0128 1A80     		strh	r2, [r3]
 668 012a 45E0     		b	.L55
 669              	.L52:
 373:.\IO_Control.c ****         }
 374:.\IO_Control.c ****     }
 375:.\IO_Control.c ****     else
 376:.\IO_Control.c ****     {   //Get 4 temperature samples
 377:.\IO_Control.c ****         for(channelIndex = 0; channelIndex < (ADC_SAMPLE_COUNT - 1); channelIndex++)
 670              		.loc 1 377 0
 671 012c 0023     		mov	r3, #0
 672 012e 3B61     		str	r3, [r7, #16]
 673 0130 12E0     		b	.L56
 674              	.L57:
 378:.\IO_Control.c ****         {
 379:.\IO_Control.c ****             temperatureSample_16 = ADC_SAR_Seq_GetResult16(channelIndex);
 675              		.loc 1 379 0 discriminator 3
 676 0132 1423     		mov	r3, #20
 677 0134 FC18     		add	r4, r7, r3
 678 0136 3B69     		ldr	r3, [r7, #16]
 679 0138 181C     		mov	r0, r3
 680 013a FFF7FEFF 		bl	ADC_SAR_Seq_GetResult16
 681 013e 031C     		mov	r3, r0
 682 0140 2380     		strh	r3, [r4]
 380:.\IO_Control.c ****             sampleArray[channelIndex] = temperatureSample_16;
 683              		.loc 1 380 0 discriminator 3
 684 0142 3B69     		ldr	r3, [r7, #16]
 685 0144 5B00     		lsl	r3, r3, #1
 686 0146 3A68     		ldr	r2, [r7]
 687 0148 D318     		add	r3, r2, r3
 688 014a 1422     		mov	r2, #20
 689 014c BA18     		add	r2, r7, r2
 690 014e 1288     		ldrh	r2, [r2]
 691 0150 1A80     		strh	r2, [r3]
 377:.\IO_Control.c ****         {
 692              		.loc 1 377 0 discriminator 3
 693 0152 3B69     		ldr	r3, [r7, #16]
 694 0154 0133     		add	r3, r3, #1
 695 0156 3B61     		str	r3, [r7, #16]
 696              	.L56:
 377:.\IO_Control.c ****         {
 697              		.loc 1 377 0 is_stmt 0 discriminator 1
 698 0158 3B69     		ldr	r3, [r7, #16]
 699 015a 022B     		cmp	r3, #2
ARM GAS  C:\Users\faithc\AppData\Local\Temp\ccM21fnc.s 			page 20


 700 015c E9D9     		bls	.L57
 381:.\IO_Control.c ****         }
 382:.\IO_Control.c ****             
 383:.\IO_Control.c ****         temperatureSample_float = (float)(ADC_SAR_Seq_GetResult16(ADC_SAMPLE_COUNT - 1));
 701              		.loc 1 383 0 is_stmt 1
 702 015e 0320     		mov	r0, #3
 703 0160 FFF7FEFF 		bl	ADC_SAR_Seq_GetResult16
 704 0164 031C     		mov	r3, r0
 705 0166 181C     		mov	r0, r3
 706 0168 FFF7FEFF 		bl	__aeabi_i2f
 707 016c 031C     		add	r3, r0, #0
 708 016e FB60     		str	r3, [r7, #12]
 384:.\IO_Control.c ****         temperatureSample_float = temperatureSample_float * 5 / 1.024;
 709              		.loc 1 384 0
 710 0170 F868     		ldr	r0, [r7, #12]
 711 0172 1549     		ldr	r1, .L58
 712 0174 FFF7FEFF 		bl	__aeabi_fmul
 713 0178 031C     		add	r3, r0, #0
 714 017a 181C     		add	r0, r3, #0
 715 017c FFF7FEFF 		bl	__aeabi_f2d
 716 0180 031C     		mov	r3, r0
 717 0182 0C1C     		mov	r4, r1
 718 0184 181C     		mov	r0, r3
 719 0186 211C     		mov	r1, r4
 720 0188 104A     		ldr	r2, .L58+4
 721 018a 114B     		ldr	r3, .L58+8
 722 018c FFF7FEFF 		bl	__aeabi_ddiv
 723 0190 031C     		mov	r3, r0
 724 0192 0C1C     		mov	r4, r1
 725 0194 181C     		mov	r0, r3
 726 0196 211C     		mov	r1, r4
 727 0198 FFF7FEFF 		bl	__aeabi_d2f
 728 019c 031C     		add	r3, r0, #0
 729 019e FB60     		str	r3, [r7, #12]
 385:.\IO_Control.c ****         sampleArray[ADC_SAMPLE_COUNT - 1]
 730              		.loc 1 385 0
 731 01a0 3B68     		ldr	r3, [r7]
 732 01a2 9C1D     		add	r4, r3, #6
 386:.\IO_Control.c ****             = (int16)(DieTemp_CountsTo_Celsius((int32)(temperatureSample_float)));
 733              		.loc 1 386 0
 734 01a4 F868     		ldr	r0, [r7, #12]
 735 01a6 FFF7FEFF 		bl	__aeabi_f2iz
 736 01aa 031C     		mov	r3, r0
 737 01ac 181C     		mov	r0, r3
 738 01ae FFF7FEFF 		bl	DieTemp_CountsTo_Celsius
 739 01b2 031C     		mov	r3, r0
 740 01b4 9BB2     		uxth	r3, r3
 741 01b6 2380     		strh	r3, [r4]
 742              	.L55:
 387:.\IO_Control.c ****     }
 388:.\IO_Control.c ****     
 389:.\IO_Control.c ****     return temperatureSample_16;
 743              		.loc 1 389 0
 744 01b8 1423     		mov	r3, #20
 745 01ba FB18     		add	r3, r7, r3
 746 01bc 1B88     		ldrh	r3, [r3]
 747              	.L44:
ARM GAS  C:\Users\faithc\AppData\Local\Temp\ccM21fnc.s 			page 21


 748 01be 1BB2     		sxth	r3, r3
 390:.\IO_Control.c **** }
 749              		.loc 1 390 0
 750 01c0 181C     		mov	r0, r3
 751 01c2 BD46     		mov	sp, r7
 752 01c4 07B0     		add	sp, sp, #28
 753              		@ sp needed
 754 01c6 90BD     		pop	{r4, r7, pc}
 755              	.L59:
 756              		.align	2
 757              	.L58:
 758 01c8 0000A040 		.word	1084227584
 759 01cc FCA9F1D2 		.word	-755914244
 760 01d0 4D62F03F 		.word	1072718413
 761              		.cfi_endproc
 762              	.LFE42:
 763              		.size	getTemperatureSample, .-getTemperatureSample
 764              		.global	__aeabi_idiv
 765              		.section	.text.regulateBrightness,"ax",%progbits
 766              		.align	2
 767              		.global	regulateBrightness
 768              		.code	16
 769              		.thumb_func
 770              		.type	regulateBrightness, %function
 771              	regulateBrightness:
 772              	.LFB43:
 391:.\IO_Control.c **** 
 392:.\IO_Control.c **** /*******************************************************************************
 393:.\IO_Control.c **** * Function Name: regulateBrightness
 394:.\IO_Control.c **** ********************************************************************************
 395:.\IO_Control.c **** *
 396:.\IO_Control.c **** * Summary:
 397:.\IO_Control.c **** *  Adjusts the brightness of the LED based on 4 temperature readings
 398:.\IO_Control.c **** *  and the current regulation state.
 399:.\IO_Control.c **** *
 400:.\IO_Control.c **** * Parameters:
 401:.\IO_Control.c **** *  TemperatureData: Reference to the 4 temperature points
 402:.\IO_Control.c **** *  length: Size of array in # of temperature points
 403:.\IO_Control.c **** *
 404:.\IO_Control.c **** * Return:
 405:.\IO_Control.c **** *  The updated brightness based on regulation
 406:.\IO_Control.c **** *
 407:.\IO_Control.c **** *******************************************************************************/
 408:.\IO_Control.c **** uint8 regulateBrightness(int16* TemperatureData, uint8 length)
 409:.\IO_Control.c **** {
 773              		.loc 1 409 0
 774              		.cfi_startproc
 775 0000 90B5     		push	{r4, r7, lr}
 776              		.cfi_def_cfa_offset 12
 777              		.cfi_offset 4, -12
 778              		.cfi_offset 7, -8
 779              		.cfi_offset 14, -4
 780 0002 85B0     		sub	sp, sp, #20
 781              		.cfi_def_cfa_offset 32
 782 0004 00AF     		add	r7, sp, #0
 783              		.cfi_def_cfa_register 7
 784 0006 7860     		str	r0, [r7, #4]
ARM GAS  C:\Users\faithc\AppData\Local\Temp\ccM21fnc.s 			page 22


 785 0008 0A1C     		mov	r2, r1
 786 000a FB1C     		add	r3, r7, #3
 787 000c 1A70     		strb	r2, [r3]
 410:.\IO_Control.c ****     static uint8 timerCount = 0;
 411:.\IO_Control.c ****     enum TemperatureStatus temperatureStatus = WITHIN_TOLERANCE;
 788              		.loc 1 411 0
 789 000e 0F23     		mov	r3, #15
 790 0010 FB18     		add	r3, r7, r3
 791 0012 0022     		mov	r2, #0
 792 0014 1A70     		strb	r2, [r3]
 412:.\IO_Control.c ****     
 413:.\IO_Control.c ****     if(TemperatureData == NULL || length != ADC_SAMPLE_COUNT || PositionData.ID_Number != 1)
 793              		.loc 1 413 0
 794 0016 7B68     		ldr	r3, [r7, #4]
 795 0018 002B     		cmp	r3, #0
 796 001a 07D0     		beq	.L61
 797              		.loc 1 413 0 is_stmt 0 discriminator 1
 798 001c FB1C     		add	r3, r7, #3
 799 001e 1B78     		ldrb	r3, [r3]
 800 0020 042B     		cmp	r3, #4
 801 0022 03D1     		bne	.L61
 802              		.loc 1 413 0 discriminator 2
 803 0024 664B     		ldr	r3, .L80
 804 0026 1B78     		ldrb	r3, [r3]
 805 0028 012B     		cmp	r3, #1
 806 002a 01D0     		beq	.L62
 807              	.L61:
 414:.\IO_Control.c ****         return 0;
 808              		.loc 1 414 0 is_stmt 1
 809 002c 0023     		mov	r3, #0
 810 002e C2E0     		b	.L63
 811              	.L62:
 415:.\IO_Control.c ****     
 416:.\IO_Control.c ****     #if(ENABLE_REGULATION)        
 417:.\IO_Control.c ****     switch(ThermalData.currentState)
 812              		.loc 1 417 0
 813 0030 644B     		ldr	r3, .L80+4
 814 0032 DB78     		ldrb	r3, [r3, #3]
 815 0034 012B     		cmp	r3, #1
 816 0036 59D0     		beq	.L65
 817 0038 02DC     		bgt	.L66
 818 003a 002B     		cmp	r3, #0
 819 003c 06D0     		beq	.L67
 820 003e B5E0     		b	.L64
 821              	.L66:
 822 0040 022B     		cmp	r3, #2
 823 0042 1ED0     		beq	.L68
 824 0044 032B     		cmp	r3, #3
 825 0046 00D1     		bne	.LCB714
 826 0048 85E0     		b	.L69	@long jump
 827              	.LCB714:
 828 004a AFE0     		b	.L64
 829              	.L67:
 418:.\IO_Control.c ****     {
 419:.\IO_Control.c ****         case STARTUP:
 420:.\IO_Control.c ****             if((timerCount % SAMPLE_COUNT_PER_CYCLE) == 0)
 421:.\IO_Control.c ****             {
ARM GAS  C:\Users\faithc\AppData\Local\Temp\ccM21fnc.s 			page 23


 422:.\IO_Control.c ****                 ThermalData.scalingFactor = MAX_SCALING_FACTOR;
 830              		.loc 1 422 0
 831 004c 5D4B     		ldr	r3, .L80+4
 832 004e FF22     		mov	r2, #255
 833 0050 1A71     		strb	r2, [r3, #4]
 423:.\IO_Control.c ****                 ThermalData.regulatedBrightness = ThermalData.requestedBrightness;
 834              		.loc 1 423 0
 835 0052 5C4B     		ldr	r3, .L80+4
 836 0054 1A78     		ldrb	r2, [r3]
 837 0056 5B4B     		ldr	r3, .L80+4
 838 0058 5A70     		strb	r2, [r3, #1]
 424:.\IO_Control.c ****             }
 425:.\IO_Control.c ****             if((timerCount % (SAMPLE_COUNT_PER_CYCLE * BRIGHTNESS_CHANGE_PER_SAMPLE)) == 0)
 426:.\IO_Control.c ****             {
 427:.\IO_Control.c ****                 temperatureStatus = getTemperatureStatus(TemperatureData, ADC_SAMPLE_COUNT, 0);
 839              		.loc 1 427 0
 840 005a 0F23     		mov	r3, #15
 841 005c FC18     		add	r4, r7, r3
 842 005e 7B68     		ldr	r3, [r7, #4]
 843 0060 181C     		mov	r0, r3
 844 0062 0421     		mov	r1, #4
 845 0064 0022     		mov	r2, #0
 846 0066 FFF7FEFF 		bl	getTemperatureStatus
 847 006a 031C     		mov	r3, r0
 848 006c 2370     		strb	r3, [r4]
 428:.\IO_Control.c ****                 if(temperatureStatus == EXCEEDED_UPPER_BOUND)
 849              		.loc 1 428 0
 850 006e 0F23     		mov	r3, #15
 851 0070 FB18     		add	r3, r7, r3
 852 0072 1B78     		ldrb	r3, [r3]
 853 0074 012B     		cmp	r3, #1
 854 0076 03D1     		bne	.L70
 429:.\IO_Control.c ****                     ThermalData.currentState = STEADY_DECREASE;
 855              		.loc 1 429 0
 856 0078 524B     		ldr	r3, .L80+4
 857 007a 0222     		mov	r2, #2
 858 007c DA70     		strb	r2, [r3, #3]
 430:.\IO_Control.c ****             }
 431:.\IO_Control.c ****             break;            
 859              		.loc 1 431 0
 860 007e 95E0     		b	.L64
 861              	.L70:
 862 0080 94E0     		b	.L64
 863              	.L68:
 432:.\IO_Control.c ****         case STEADY_DECREASE:  
 433:.\IO_Control.c ****             if((timerCount % SAMPLE_COUNT_PER_CYCLE) == 0)
 434:.\IO_Control.c ****             {
 435:.\IO_Control.c ****                 if(ThermalData.scalingFactor > 0)
 864              		.loc 1 435 0
 865 0082 504B     		ldr	r3, .L80+4
 866 0084 1B79     		ldrb	r3, [r3, #4]
 867 0086 002B     		cmp	r3, #0
 868 0088 05D0     		beq	.L71
 436:.\IO_Control.c ****                     ThermalData.scalingFactor--;
 869              		.loc 1 436 0
 870 008a 4E4B     		ldr	r3, .L80+4
 871 008c 1B79     		ldrb	r3, [r3, #4]
ARM GAS  C:\Users\faithc\AppData\Local\Temp\ccM21fnc.s 			page 24


 872 008e 013B     		sub	r3, r3, #1
 873 0090 DAB2     		uxtb	r2, r3
 874 0092 4C4B     		ldr	r3, .L80+4
 875 0094 1A71     		strb	r2, [r3, #4]
 876              	.L71:
 437:.\IO_Control.c ****             
 438:.\IO_Control.c ****                 ThermalData.regulatedBrightness = (uint8)((uint16)(ThermalData.requestedBrightness)
 877              		.loc 1 438 0
 878 0096 4B4B     		ldr	r3, .L80+4
 879 0098 1B78     		ldrb	r3, [r3]
 880 009a 1A1C     		mov	r2, r3
 439:.\IO_Control.c ****                     (uint16)(ThermalData.scalingFactor) / MAX_SCALING_FACTOR);
 881              		.loc 1 439 0
 882 009c 494B     		ldr	r3, .L80+4
 883 009e 1B79     		ldrb	r3, [r3, #4]
 438:.\IO_Control.c ****                     (uint16)(ThermalData.scalingFactor) / MAX_SCALING_FACTOR);
 884              		.loc 1 438 0
 885 00a0 5343     		mul	r3, r2
 886              		.loc 1 439 0
 887 00a2 181C     		mov	r0, r3
 888 00a4 FF21     		mov	r1, #255
 889 00a6 FFF7FEFF 		bl	__aeabi_idiv
 890 00aa 031C     		mov	r3, r0
 438:.\IO_Control.c ****                     (uint16)(ThermalData.scalingFactor) / MAX_SCALING_FACTOR);
 891              		.loc 1 438 0
 892 00ac DAB2     		uxtb	r2, r3
 893 00ae 454B     		ldr	r3, .L80+4
 894 00b0 5A70     		strb	r2, [r3, #1]
 440:.\IO_Control.c ****             }
 441:.\IO_Control.c ****             if((timerCount % (SAMPLE_COUNT_PER_CYCLE * BRIGHTNESS_CHANGE_PER_SAMPLE)) == 0)
 442:.\IO_Control.c ****             {
 443:.\IO_Control.c ****                 temperatureStatus = getTemperatureStatus(TemperatureData, ADC_SAMPLE_COUNT,
 895              		.loc 1 443 0
 896 00b2 0F23     		mov	r3, #15
 897 00b4 FC18     		add	r4, r7, r3
 898 00b6 7B68     		ldr	r3, [r7, #4]
 899 00b8 181C     		mov	r0, r3
 900 00ba 0421     		mov	r1, #4
 901 00bc 0022     		mov	r2, #0
 902 00be FFF7FEFF 		bl	getTemperatureStatus
 903 00c2 031C     		mov	r3, r0
 904 00c4 2370     		strb	r3, [r4]
 444:.\IO_Control.c ****                     SAFE_TEMPERATURE_TOLERANCE);
 445:.\IO_Control.c ****                 
 446:.\IO_Control.c ****                 if(temperatureStatus == WITHIN_TOLERANCE)
 905              		.loc 1 446 0
 906 00c6 0F23     		mov	r3, #15
 907 00c8 FB18     		add	r3, r7, r3
 908 00ca 1B78     		ldrb	r3, [r3]
 909 00cc 002B     		cmp	r3, #0
 910 00ce 03D1     		bne	.L72
 447:.\IO_Control.c ****                     ThermalData.currentState = NO_CHANGE;
 911              		.loc 1 447 0
 912 00d0 3C4B     		ldr	r3, .L80+4
 913 00d2 0322     		mov	r2, #3
 914 00d4 DA70     		strb	r2, [r3, #3]
 915 00d6 08E0     		b	.L73
ARM GAS  C:\Users\faithc\AppData\Local\Temp\ccM21fnc.s 			page 25


 916              	.L72:
 448:.\IO_Control.c ****                 else if(temperatureStatus == EXCEEDED_LOWER_BOUND)
 917              		.loc 1 448 0
 918 00d8 0F23     		mov	r3, #15
 919 00da FB18     		add	r3, r7, r3
 920 00dc 1B78     		ldrb	r3, [r3]
 921 00de 022B     		cmp	r3, #2
 922 00e0 03D1     		bne	.L73
 449:.\IO_Control.c ****                     ThermalData.currentState = STEADY_INCREASE;
 923              		.loc 1 449 0
 924 00e2 384B     		ldr	r3, .L80+4
 925 00e4 0122     		mov	r2, #1
 926 00e6 DA70     		strb	r2, [r3, #3]
 450:.\IO_Control.c ****             }
 451:.\IO_Control.c ****             break;
 927              		.loc 1 451 0
 928 00e8 60E0     		b	.L64
 929              	.L73:
 930 00ea 5FE0     		b	.L64
 931              	.L65:
 452:.\IO_Control.c ****         case STEADY_INCREASE:
 453:.\IO_Control.c ****             if((timerCount % SAMPLE_COUNT_PER_CYCLE) == 0)
 454:.\IO_Control.c ****             {
 455:.\IO_Control.c ****                 if(ThermalData.scalingFactor < MAX_SCALING_FACTOR)
 932              		.loc 1 455 0
 933 00ec 354B     		ldr	r3, .L80+4
 934 00ee 1B79     		ldrb	r3, [r3, #4]
 935 00f0 FF2B     		cmp	r3, #255
 936 00f2 05D0     		beq	.L74
 456:.\IO_Control.c ****                     ThermalData.scalingFactor++;
 937              		.loc 1 456 0
 938 00f4 334B     		ldr	r3, .L80+4
 939 00f6 1B79     		ldrb	r3, [r3, #4]
 940 00f8 0133     		add	r3, r3, #1
 941 00fa DAB2     		uxtb	r2, r3
 942 00fc 314B     		ldr	r3, .L80+4
 943 00fe 1A71     		strb	r2, [r3, #4]
 944              	.L74:
 457:.\IO_Control.c ****             
 458:.\IO_Control.c ****                 ThermalData.regulatedBrightness = (uint8)((uint16)(ThermalData.requestedBrightness)
 945              		.loc 1 458 0
 946 0100 304B     		ldr	r3, .L80+4
 947 0102 1B78     		ldrb	r3, [r3]
 948 0104 1A1C     		mov	r2, r3
 459:.\IO_Control.c ****                     (uint16)(ThermalData.scalingFactor) / MAX_SCALING_FACTOR);
 949              		.loc 1 459 0
 950 0106 2F4B     		ldr	r3, .L80+4
 951 0108 1B79     		ldrb	r3, [r3, #4]
 458:.\IO_Control.c ****                     (uint16)(ThermalData.scalingFactor) / MAX_SCALING_FACTOR);
 952              		.loc 1 458 0
 953 010a 5343     		mul	r3, r2
 954              		.loc 1 459 0
 955 010c 181C     		mov	r0, r3
 956 010e FF21     		mov	r1, #255
 957 0110 FFF7FEFF 		bl	__aeabi_idiv
 958 0114 031C     		mov	r3, r0
 458:.\IO_Control.c ****                     (uint16)(ThermalData.scalingFactor) / MAX_SCALING_FACTOR);
ARM GAS  C:\Users\faithc\AppData\Local\Temp\ccM21fnc.s 			page 26


 959              		.loc 1 458 0
 960 0116 DAB2     		uxtb	r2, r3
 961 0118 2A4B     		ldr	r3, .L80+4
 962 011a 5A70     		strb	r2, [r3, #1]
 460:.\IO_Control.c ****             }
 461:.\IO_Control.c ****             if((timerCount % (SAMPLE_COUNT_PER_CYCLE * BRIGHTNESS_CHANGE_PER_SAMPLE)) == 0)
 462:.\IO_Control.c ****             {
 463:.\IO_Control.c ****                 temperatureStatus = getTemperatureStatus(TemperatureData, ADC_SAMPLE_COUNT,
 963              		.loc 1 463 0
 964 011c 0F23     		mov	r3, #15
 965 011e FC18     		add	r4, r7, r3
 966 0120 7B68     		ldr	r3, [r7, #4]
 967 0122 181C     		mov	r0, r3
 968 0124 0421     		mov	r1, #4
 969 0126 0022     		mov	r2, #0
 970 0128 FFF7FEFF 		bl	getTemperatureStatus
 971 012c 031C     		mov	r3, r0
 972 012e 2370     		strb	r3, [r4]
 464:.\IO_Control.c ****                     SAFE_TEMPERATURE_TOLERANCE);
 465:.\IO_Control.c ****                 
 466:.\IO_Control.c ****                 if(temperatureStatus == EXCEEDED_UPPER_BOUND)
 973              		.loc 1 466 0
 974 0130 0F23     		mov	r3, #15
 975 0132 FB18     		add	r3, r7, r3
 976 0134 1B78     		ldrb	r3, [r3]
 977 0136 012B     		cmp	r3, #1
 978 0138 03D1     		bne	.L75
 467:.\IO_Control.c ****                     ThermalData.currentState = STEADY_DECREASE;
 979              		.loc 1 467 0
 980 013a 224B     		ldr	r3, .L80+4
 981 013c 0222     		mov	r2, #2
 982 013e DA70     		strb	r2, [r3, #3]
 983 0140 08E0     		b	.L76
 984              	.L75:
 468:.\IO_Control.c ****                 else if(temperatureStatus == WITHIN_TOLERANCE)
 985              		.loc 1 468 0
 986 0142 0F23     		mov	r3, #15
 987 0144 FB18     		add	r3, r7, r3
 988 0146 1B78     		ldrb	r3, [r3]
 989 0148 002B     		cmp	r3, #0
 990 014a 03D1     		bne	.L76
 469:.\IO_Control.c ****                     ThermalData.currentState = NO_CHANGE;
 991              		.loc 1 469 0
 992 014c 1D4B     		ldr	r3, .L80+4
 993 014e 0322     		mov	r2, #3
 994 0150 DA70     		strb	r2, [r3, #3]
 470:.\IO_Control.c ****             }
 471:.\IO_Control.c ****             break;
 995              		.loc 1 471 0
 996 0152 2BE0     		b	.L64
 997              	.L76:
 998 0154 2AE0     		b	.L64
 999              	.L69:
 472:.\IO_Control.c ****         case NO_CHANGE:
 473:.\IO_Control.c ****             if((timerCount % SAMPLE_COUNT_PER_CYCLE) == 0)
 474:.\IO_Control.c ****             {
 475:.\IO_Control.c ****                 ThermalData.regulatedBrightness = (uint8)((uint16)(ThermalData.requestedBrightness)
ARM GAS  C:\Users\faithc\AppData\Local\Temp\ccM21fnc.s 			page 27


 1000              		.loc 1 475 0
 1001 0156 1B4B     		ldr	r3, .L80+4
 1002 0158 1B78     		ldrb	r3, [r3]
 1003 015a 1A1C     		mov	r2, r3
 476:.\IO_Control.c ****                     (uint16)(ThermalData.scalingFactor) / MAX_SCALING_FACTOR);
 1004              		.loc 1 476 0
 1005 015c 194B     		ldr	r3, .L80+4
 1006 015e 1B79     		ldrb	r3, [r3, #4]
 475:.\IO_Control.c ****                     (uint16)(ThermalData.scalingFactor) / MAX_SCALING_FACTOR);
 1007              		.loc 1 475 0
 1008 0160 5343     		mul	r3, r2
 1009              		.loc 1 476 0
 1010 0162 181C     		mov	r0, r3
 1011 0164 FF21     		mov	r1, #255
 1012 0166 FFF7FEFF 		bl	__aeabi_idiv
 1013 016a 031C     		mov	r3, r0
 475:.\IO_Control.c ****                     (uint16)(ThermalData.scalingFactor) / MAX_SCALING_FACTOR);
 1014              		.loc 1 475 0
 1015 016c DAB2     		uxtb	r2, r3
 1016 016e 154B     		ldr	r3, .L80+4
 1017 0170 5A70     		strb	r2, [r3, #1]
 477:.\IO_Control.c ****             }
 478:.\IO_Control.c ****             if((timerCount % (SAMPLE_COUNT_PER_CYCLE * BRIGHTNESS_CHANGE_PER_SAMPLE)) == 0)
 479:.\IO_Control.c ****             {
 480:.\IO_Control.c ****                 temperatureStatus = getTemperatureStatus(TemperatureData, ADC_SAMPLE_COUNT,
 1018              		.loc 1 480 0
 1019 0172 0F23     		mov	r3, #15
 1020 0174 FC18     		add	r4, r7, r3
 1021 0176 7B68     		ldr	r3, [r7, #4]
 1022 0178 181C     		mov	r0, r3
 1023 017a 0421     		mov	r1, #4
 1024 017c 0022     		mov	r2, #0
 1025 017e FFF7FEFF 		bl	getTemperatureStatus
 1026 0182 031C     		mov	r3, r0
 1027 0184 2370     		strb	r3, [r4]
 481:.\IO_Control.c ****                     SAFE_TEMPERATURE_TOLERANCE);
 482:.\IO_Control.c ****                 
 483:.\IO_Control.c ****                 if(temperatureStatus == EXCEEDED_UPPER_BOUND)
 1028              		.loc 1 483 0
 1029 0186 0F23     		mov	r3, #15
 1030 0188 FB18     		add	r3, r7, r3
 1031 018a 1B78     		ldrb	r3, [r3]
 1032 018c 012B     		cmp	r3, #1
 1033 018e 03D1     		bne	.L77
 484:.\IO_Control.c ****                     ThermalData.currentState = STEADY_DECREASE;
 1034              		.loc 1 484 0
 1035 0190 0C4B     		ldr	r3, .L80+4
 1036 0192 0222     		mov	r2, #2
 1037 0194 DA70     		strb	r2, [r3, #3]
 1038 0196 08E0     		b	.L78
 1039              	.L77:
 485:.\IO_Control.c ****                 else if(temperatureStatus == EXCEEDED_LOWER_BOUND)
 1040              		.loc 1 485 0
 1041 0198 0F23     		mov	r3, #15
 1042 019a FB18     		add	r3, r7, r3
 1043 019c 1B78     		ldrb	r3, [r3]
 1044 019e 022B     		cmp	r3, #2
ARM GAS  C:\Users\faithc\AppData\Local\Temp\ccM21fnc.s 			page 28


 1045 01a0 03D1     		bne	.L78
 486:.\IO_Control.c ****                     ThermalData.currentState = STEADY_INCREASE;
 1046              		.loc 1 486 0
 1047 01a2 084B     		ldr	r3, .L80+4
 1048 01a4 0122     		mov	r2, #1
 1049 01a6 DA70     		strb	r2, [r3, #3]
 487:.\IO_Control.c ****             }
 488:.\IO_Control.c ****             break;
 1050              		.loc 1 488 0
 1051 01a8 FFE7     		b	.L79
 1052              	.L78:
 1053              	.L79:
 1054 01aa C046     		mov	r8, r8
 1055              	.L64:
 489:.\IO_Control.c ****     }
 490:.\IO_Control.c ****     
 491:.\IO_Control.c ****     timerCount = (timerCount + 1) % (SAMPLE_COUNT_PER_CYCLE * BRIGHTNESS_CHANGE_PER_SAMPLE);   
 1056              		.loc 1 491 0
 1057 01ac 064B     		ldr	r3, .L80+8
 1058 01ae 0022     		mov	r2, #0
 1059 01b0 1A70     		strb	r2, [r3]
 492:.\IO_Control.c ****     return ThermalData.regulatedBrightness;    
 1060              		.loc 1 492 0
 1061 01b2 044B     		ldr	r3, .L80+4
 1062 01b4 5B78     		ldrb	r3, [r3, #1]
 1063              	.L63:
 493:.\IO_Control.c ****     #else
 494:.\IO_Control.c ****     return ThermalData.requestedBrightness;    
 495:.\IO_Control.c ****     #endif
 496:.\IO_Control.c **** }
 1064              		.loc 1 496 0
 1065 01b6 181C     		mov	r0, r3
 1066 01b8 BD46     		mov	sp, r7
 1067 01ba 05B0     		add	sp, sp, #20
 1068              		@ sp needed
 1069 01bc 90BD     		pop	{r4, r7, pc}
 1070              	.L81:
 1071 01be C046     		.align	2
 1072              	.L80:
 1073 01c0 10000000 		.word	PositionData
 1074 01c4 14000000 		.word	ThermalData
 1075 01c8 01000000 		.word	timerCount.6239
 1076              		.cfi_endproc
 1077              	.LFE43:
 1078              		.size	regulateBrightness, .-regulateBrightness
 1079              		.section	.text.getTemperatureStatus,"ax",%progbits
 1080              		.align	2
 1081              		.code	16
 1082              		.thumb_func
 1083              		.type	getTemperatureStatus, %function
 1084              	getTemperatureStatus:
 1085              	.LFB44:
 497:.\IO_Control.c **** 
 498:.\IO_Control.c **** /**********DEFINED LOCAL FUNCTIONS**********/
 499:.\IO_Control.c **** /*******************************************************************************
 500:.\IO_Control.c **** * Function Name: getTemperatureStatus
 501:.\IO_Control.c **** ********************************************************************************
ARM GAS  C:\Users\faithc\AppData\Local\Temp\ccM21fnc.s 			page 29


 502:.\IO_Control.c **** *
 503:.\IO_Control.c **** * Summary:
 504:.\IO_Control.c **** *  Returns temperature status based on 4 temperature points
 505:.\IO_Control.c **** *
 506:.\IO_Control.c **** * Parameters:
 507:.\IO_Control.c **** *  TemperatureData: Reference to the 4 temperature samples to check
 508:.\IO_Control.c **** *  length: Size of int16 array
 509:.\IO_Control.c **** *  tolerance: Tolerance amount for regulation (Range: temperature +/- tolerance)
 510:.\IO_Control.c **** *
 511:.\IO_Control.c **** * Return:
 512:.\IO_Control.c **** *  EXCEEDED_UPPER_BOUND, EXCEEDED_LOWER_BOUND, or WITHIN_TOLERANCE as valid inputs,
 513:.\IO_Control.c **** *  ERROR otherwise
 514:.\IO_Control.c **** *
 515:.\IO_Control.c **** *******************************************************************************/
 516:.\IO_Control.c **** static enum TemperatureStatus getTemperatureStatus(int16* TemperatureData,
 517:.\IO_Control.c ****     uint8 length, int16 tolerance)
 518:.\IO_Control.c **** {
 1086              		.loc 1 518 0
 1087              		.cfi_startproc
 1088 0000 80B5     		push	{r7, lr}
 1089              		.cfi_def_cfa_offset 8
 1090              		.cfi_offset 7, -8
 1091              		.cfi_offset 14, -4
 1092 0002 84B0     		sub	sp, sp, #16
 1093              		.cfi_def_cfa_offset 24
 1094 0004 00AF     		add	r7, sp, #0
 1095              		.cfi_def_cfa_register 7
 1096 0006 7860     		str	r0, [r7, #4]
 1097 0008 081C     		mov	r0, r1
 1098 000a 111C     		mov	r1, r2
 1099 000c FB1C     		add	r3, r7, #3
 1100 000e 021C     		add	r2, r0, #0
 1101 0010 1A70     		strb	r2, [r3]
 1102 0012 3B1C     		mov	r3, r7
 1103 0014 0A1C     		add	r2, r1, #0
 1104 0016 1A80     		strh	r2, [r3]
 519:.\IO_Control.c ****     enum TemperaturePoint dataIndex = LED;
 1105              		.loc 1 519 0
 1106 0018 0F23     		mov	r3, #15
 1107 001a FB18     		add	r3, r7, r3
 1108 001c 0022     		mov	r2, #0
 1109 001e 1A70     		strb	r2, [r3]
 520:.\IO_Control.c ****     
 521:.\IO_Control.c ****     if(TemperatureData == NULL)
 1110              		.loc 1 521 0
 1111 0020 7B68     		ldr	r3, [r7, #4]
 1112 0022 002B     		cmp	r3, #0
 1113 0024 01D1     		bne	.L83
 522:.\IO_Control.c ****         return ERROR;
 1114              		.loc 1 522 0
 1115 0026 0323     		mov	r3, #3
 1116 0028 74E0     		b	.L84
 1117              	.L83:
 523:.\IO_Control.c ****     
 524:.\IO_Control.c ****     if(length != ADC_SAMPLE_COUNT)
 1118              		.loc 1 524 0
 1119 002a FB1C     		add	r3, r7, #3
ARM GAS  C:\Users\faithc\AppData\Local\Temp\ccM21fnc.s 			page 30


 1120 002c 1B78     		ldrb	r3, [r3]
 1121 002e 042B     		cmp	r3, #4
 1122 0030 01D0     		beq	.L85
 525:.\IO_Control.c ****         return ERROR;
 1123              		.loc 1 525 0
 1124 0032 0323     		mov	r3, #3
 1125 0034 6EE0     		b	.L84
 1126              	.L85:
 526:.\IO_Control.c ****     
 527:.\IO_Control.c ****     for(dataIndex = LED; dataIndex <= SWITCH_NODE; dataIndex++)
 1127              		.loc 1 527 0
 1128 0036 0F23     		mov	r3, #15
 1129 0038 FB18     		add	r3, r7, r3
 1130 003a 0022     		mov	r2, #0
 1131 003c 1A70     		strb	r2, [r3]
 1132 003e 1DE0     		b	.L86
 1133              	.L88:
 528:.\IO_Control.c ****     {
 529:.\IO_Control.c ****         if(TemperatureData[dataIndex] > 
 1134              		.loc 1 529 0
 1135 0040 0F23     		mov	r3, #15
 1136 0042 FB18     		add	r3, r7, r3
 1137 0044 1B78     		ldrb	r3, [r3]
 1138 0046 5B00     		lsl	r3, r3, #1
 1139 0048 7A68     		ldr	r2, [r7, #4]
 1140 004a D318     		add	r3, r2, r3
 1141 004c 1B88     		ldrh	r3, [r3]
 1142 004e 1AB2     		sxth	r2, r3
 530:.\IO_Control.c ****             (ThermalLimitArray[dataIndex].MAX_TEMPERATURE + tolerance))
 1143              		.loc 1 530 0
 1144 0050 0F23     		mov	r3, #15
 1145 0052 FB18     		add	r3, r7, r3
 1146 0054 1978     		ldrb	r1, [r3]
 1147 0056 314B     		ldr	r3, .L94
 1148 0058 8900     		lsl	r1, r1, #2
 1149 005a CB5A     		ldrh	r3, [r1, r3]
 1150 005c 19B2     		sxth	r1, r3
 1151 005e 3B1C     		mov	r3, r7
 1152 0060 0020     		mov	r0, #0
 1153 0062 1B5E     		ldrsh	r3, [r3, r0]
 1154 0064 CB18     		add	r3, r1, r3
 529:.\IO_Control.c ****             (ThermalLimitArray[dataIndex].MAX_TEMPERATURE + tolerance))
 1155              		.loc 1 529 0
 1156 0066 9A42     		cmp	r2, r3
 1157 0068 01DD     		ble	.L87
 531:.\IO_Control.c ****             return EXCEEDED_UPPER_BOUND;
 1158              		.loc 1 531 0
 1159 006a 0123     		mov	r3, #1
 1160 006c 52E0     		b	.L84
 1161              	.L87:
 527:.\IO_Control.c ****     {
 1162              		.loc 1 527 0 discriminator 2
 1163 006e 0F23     		mov	r3, #15
 1164 0070 FB18     		add	r3, r7, r3
 1165 0072 1A78     		ldrb	r2, [r3]
 1166 0074 0F23     		mov	r3, #15
 1167 0076 FB18     		add	r3, r7, r3
ARM GAS  C:\Users\faithc\AppData\Local\Temp\ccM21fnc.s 			page 31


 1168 0078 0132     		add	r2, r2, #1
 1169 007a 1A70     		strb	r2, [r3]
 1170              	.L86:
 527:.\IO_Control.c ****     {
 1171              		.loc 1 527 0 is_stmt 0 discriminator 1
 1172 007c 0F23     		mov	r3, #15
 1173 007e FB18     		add	r3, r7, r3
 1174 0080 1B78     		ldrb	r3, [r3]
 1175 0082 012B     		cmp	r3, #1
 1176 0084 DCD9     		bls	.L88
 532:.\IO_Control.c ****     }
 533:.\IO_Control.c ****     
 534:.\IO_Control.c ****     if(TemperatureData[MICRO] > 
 1177              		.loc 1 534 0 is_stmt 1
 1178 0086 7B68     		ldr	r3, [r7, #4]
 1179 0088 0633     		add	r3, r3, #6
 1180 008a 1B88     		ldrh	r3, [r3]
 1181 008c 1AB2     		sxth	r2, r3
 535:.\IO_Control.c ****         (ThermalLimitArray[MICRO].MAX_TEMPERATURE + tolerance))
 1182              		.loc 1 535 0
 1183 008e 234B     		ldr	r3, .L94
 1184 0090 9B89     		ldrh	r3, [r3, #12]
 1185 0092 19B2     		sxth	r1, r3
 1186 0094 3B1C     		mov	r3, r7
 1187 0096 0020     		mov	r0, #0
 1188 0098 1B5E     		ldrsh	r3, [r3, r0]
 1189 009a CB18     		add	r3, r1, r3
 534:.\IO_Control.c ****         (ThermalLimitArray[MICRO].MAX_TEMPERATURE + tolerance))
 1190              		.loc 1 534 0
 1191 009c 9A42     		cmp	r2, r3
 1192 009e 01DD     		ble	.L89
 536:.\IO_Control.c ****         return EXCEEDED_UPPER_BOUND;
 1193              		.loc 1 536 0
 1194 00a0 0123     		mov	r3, #1
 1195 00a2 37E0     		b	.L84
 1196              	.L89:
 537:.\IO_Control.c ****     
 538:.\IO_Control.c ****     for(dataIndex = LED; dataIndex <= SWITCH_NODE; dataIndex++)
 1197              		.loc 1 538 0
 1198 00a4 0F23     		mov	r3, #15
 1199 00a6 FB18     		add	r3, r7, r3
 1200 00a8 0022     		mov	r2, #0
 1201 00aa 1A70     		strb	r2, [r3]
 1202 00ac 1DE0     		b	.L90
 1203              	.L92:
 539:.\IO_Control.c ****     {
 540:.\IO_Control.c ****         if(TemperatureData[dataIndex] < 
 1204              		.loc 1 540 0
 1205 00ae 0F23     		mov	r3, #15
 1206 00b0 FB18     		add	r3, r7, r3
 1207 00b2 1B78     		ldrb	r3, [r3]
 1208 00b4 5B00     		lsl	r3, r3, #1
 1209 00b6 7A68     		ldr	r2, [r7, #4]
 1210 00b8 D318     		add	r3, r2, r3
 1211 00ba 1B88     		ldrh	r3, [r3]
 1212 00bc 1AB2     		sxth	r2, r3
 541:.\IO_Control.c ****             (ThermalLimitArray[dataIndex].MAX_TEMPERATURE - tolerance))
ARM GAS  C:\Users\faithc\AppData\Local\Temp\ccM21fnc.s 			page 32


 1213              		.loc 1 541 0
 1214 00be 0F23     		mov	r3, #15
 1215 00c0 FB18     		add	r3, r7, r3
 1216 00c2 1978     		ldrb	r1, [r3]
 1217 00c4 154B     		ldr	r3, .L94
 1218 00c6 8900     		lsl	r1, r1, #2
 1219 00c8 CB5A     		ldrh	r3, [r1, r3]
 1220 00ca 19B2     		sxth	r1, r3
 1221 00cc 3B1C     		mov	r3, r7
 1222 00ce 0020     		mov	r0, #0
 1223 00d0 1B5E     		ldrsh	r3, [r3, r0]
 1224 00d2 CB1A     		sub	r3, r1, r3
 540:.\IO_Control.c ****             (ThermalLimitArray[dataIndex].MAX_TEMPERATURE - tolerance))
 1225              		.loc 1 540 0
 1226 00d4 9A42     		cmp	r2, r3
 1227 00d6 01DA     		bge	.L91
 542:.\IO_Control.c ****             return EXCEEDED_LOWER_BOUND;
 1228              		.loc 1 542 0
 1229 00d8 0223     		mov	r3, #2
 1230 00da 1BE0     		b	.L84
 1231              	.L91:
 538:.\IO_Control.c ****     {
 1232              		.loc 1 538 0 discriminator 2
 1233 00dc 0F23     		mov	r3, #15
 1234 00de FB18     		add	r3, r7, r3
 1235 00e0 1A78     		ldrb	r2, [r3]
 1236 00e2 0F23     		mov	r3, #15
 1237 00e4 FB18     		add	r3, r7, r3
 1238 00e6 0132     		add	r2, r2, #1
 1239 00e8 1A70     		strb	r2, [r3]
 1240              	.L90:
 538:.\IO_Control.c ****     {
 1241              		.loc 1 538 0 is_stmt 0 discriminator 1
 1242 00ea 0F23     		mov	r3, #15
 1243 00ec FB18     		add	r3, r7, r3
 1244 00ee 1B78     		ldrb	r3, [r3]
 1245 00f0 012B     		cmp	r3, #1
 1246 00f2 DCD9     		bls	.L92
 543:.\IO_Control.c ****     }
 544:.\IO_Control.c ****     
 545:.\IO_Control.c ****     if(TemperatureData[MICRO] < 
 1247              		.loc 1 545 0 is_stmt 1
 1248 00f4 7B68     		ldr	r3, [r7, #4]
 1249 00f6 0633     		add	r3, r3, #6
 1250 00f8 1B88     		ldrh	r3, [r3]
 1251 00fa 1AB2     		sxth	r2, r3
 546:.\IO_Control.c ****         (ThermalLimitArray[MICRO].MAX_TEMPERATURE - tolerance))
 1252              		.loc 1 546 0
 1253 00fc 074B     		ldr	r3, .L94
 1254 00fe 9B89     		ldrh	r3, [r3, #12]
 1255 0100 19B2     		sxth	r1, r3
 1256 0102 3B1C     		mov	r3, r7
 1257 0104 0020     		mov	r0, #0
 1258 0106 1B5E     		ldrsh	r3, [r3, r0]
 1259 0108 CB1A     		sub	r3, r1, r3
 545:.\IO_Control.c ****         (ThermalLimitArray[MICRO].MAX_TEMPERATURE - tolerance))
 1260              		.loc 1 545 0
ARM GAS  C:\Users\faithc\AppData\Local\Temp\ccM21fnc.s 			page 33


 1261 010a 9A42     		cmp	r2, r3
 1262 010c 01DA     		bge	.L93
 547:.\IO_Control.c ****         return EXCEEDED_LOWER_BOUND;
 1263              		.loc 1 547 0
 1264 010e 0223     		mov	r3, #2
 1265 0110 00E0     		b	.L84
 1266              	.L93:
 548:.\IO_Control.c ****     
 549:.\IO_Control.c ****     return WITHIN_TOLERANCE;
 1267              		.loc 1 549 0
 1268 0112 0023     		mov	r3, #0
 1269              	.L84:
 550:.\IO_Control.c **** }
 1270              		.loc 1 550 0
 1271 0114 181C     		mov	r0, r3
 1272 0116 BD46     		mov	sp, r7
 1273 0118 04B0     		add	sp, sp, #16
 1274              		@ sp needed
 1275 011a 80BD     		pop	{r7, pc}
 1276              	.L95:
 1277              		.align	2
 1278              	.L94:
 1279 011c 00000000 		.word	ThermalLimitArray
 1280              		.cfi_endproc
 1281              	.LFE44:
 1282              		.size	getTemperatureStatus, .-getTemperatureStatus
 1283              		.bss
 1284              	bLED_On.6197:
 1285 0000 00       		.space	1
 1286              	timerCount.6239:
 1287 0001 00       		.space	1
 1288              		.text
 1289              	.Letext0:
 1290              		.file 2 "Generated_Source\\PSoC4/cytypes.h"
 1291              		.file 3 ".\\IO_Control.h"