ARM GAS  C:\Users\kylep\AppData\Local\Temp\cc1eW9bN.s 			page 1


   1              		.cpu cortex-m0
   2              		.fpu softvfp
   3              		.eabi_attribute 20, 1
   4              		.eabi_attribute 21, 1
   5              		.eabi_attribute 23, 3
   6              		.eabi_attribute 24, 1
   7              		.eabi_attribute 25, 1
   8              		.eabi_attribute 26, 1
   9              		.eabi_attribute 30, 6
  10              		.eabi_attribute 34, 0
  11              		.eabi_attribute 18, 4
  12              		.code	16
  13              		.file	"LED_ISR.c"
  14              		.text
  15              	.Ltext0:
  16              		.cfi_sections	.debug_frame
  17              		.section	.text.LED_ISR_Start,"ax",%progbits
  18              		.align	2
  19              		.global	LED_ISR_Start
  20              		.code	16
  21              		.thumb_func
  22              		.type	LED_ISR_Start, %function
  23              	LED_ISR_Start:
  24              	.LFB34:
  25              		.file 1 ".\\Generated_Source\\PSoC4\\LED_ISR.c"
   1:.\Generated_Source\PSoC4/LED_ISR.c **** /*******************************************************************************
   2:.\Generated_Source\PSoC4/LED_ISR.c **** * File Name: LED_ISR.c  
   3:.\Generated_Source\PSoC4/LED_ISR.c **** * Version 1.70
   4:.\Generated_Source\PSoC4/LED_ISR.c **** *
   5:.\Generated_Source\PSoC4/LED_ISR.c **** *  Description:
   6:.\Generated_Source\PSoC4/LED_ISR.c **** *   API for controlling the state of an interrupt.
   7:.\Generated_Source\PSoC4/LED_ISR.c **** *
   8:.\Generated_Source\PSoC4/LED_ISR.c **** *
   9:.\Generated_Source\PSoC4/LED_ISR.c **** *  Note:
  10:.\Generated_Source\PSoC4/LED_ISR.c **** *
  11:.\Generated_Source\PSoC4/LED_ISR.c **** ********************************************************************************
  12:.\Generated_Source\PSoC4/LED_ISR.c **** * Copyright 2008-2015, Cypress Semiconductor Corporation.  All rights reserved.
  13:.\Generated_Source\PSoC4/LED_ISR.c **** * You may use this file only in accordance with the license, terms, conditions, 
  14:.\Generated_Source\PSoC4/LED_ISR.c **** * disclaimers, and limitations in the end user license agreement accompanying 
  15:.\Generated_Source\PSoC4/LED_ISR.c **** * the software package with which this file was provided.
  16:.\Generated_Source\PSoC4/LED_ISR.c **** *******************************************************************************/
  17:.\Generated_Source\PSoC4/LED_ISR.c **** 
  18:.\Generated_Source\PSoC4/LED_ISR.c **** 
  19:.\Generated_Source\PSoC4/LED_ISR.c **** #include <cydevice_trm.h>
  20:.\Generated_Source\PSoC4/LED_ISR.c **** #include <CyLib.h>
  21:.\Generated_Source\PSoC4/LED_ISR.c **** #include <LED_ISR.h>
  22:.\Generated_Source\PSoC4/LED_ISR.c **** 
  23:.\Generated_Source\PSoC4/LED_ISR.c **** 
  24:.\Generated_Source\PSoC4/LED_ISR.c **** #if !defined(LED_ISR__REMOVED) /* Check for removal by optimization */
  25:.\Generated_Source\PSoC4/LED_ISR.c **** 
  26:.\Generated_Source\PSoC4/LED_ISR.c **** /*******************************************************************************
  27:.\Generated_Source\PSoC4/LED_ISR.c **** *  Place your includes, defines and code here 
  28:.\Generated_Source\PSoC4/LED_ISR.c **** ********************************************************************************/
  29:.\Generated_Source\PSoC4/LED_ISR.c **** /* `#START LED_ISR_intc` */
  30:.\Generated_Source\PSoC4/LED_ISR.c **** 
  31:.\Generated_Source\PSoC4/LED_ISR.c **** #include "DriverControl.h"    
  32:.\Generated_Source\PSoC4/LED_ISR.c ****     
ARM GAS  C:\Users\kylep\AppData\Local\Temp\cc1eW9bN.s 			page 2


  33:.\Generated_Source\PSoC4/LED_ISR.c **** /* `#END` */
  34:.\Generated_Source\PSoC4/LED_ISR.c **** 
  35:.\Generated_Source\PSoC4/LED_ISR.c **** extern cyisraddress CyRamVectors[CYINT_IRQ_BASE + CY_NUM_INTERRUPTS];
  36:.\Generated_Source\PSoC4/LED_ISR.c **** 
  37:.\Generated_Source\PSoC4/LED_ISR.c **** /* Declared in startup, used to set unused interrupts to. */
  38:.\Generated_Source\PSoC4/LED_ISR.c **** CY_ISR_PROTO(IntDefaultHandler);
  39:.\Generated_Source\PSoC4/LED_ISR.c **** 
  40:.\Generated_Source\PSoC4/LED_ISR.c **** 
  41:.\Generated_Source\PSoC4/LED_ISR.c **** /*******************************************************************************
  42:.\Generated_Source\PSoC4/LED_ISR.c **** * Function Name: LED_ISR_Start
  43:.\Generated_Source\PSoC4/LED_ISR.c **** ********************************************************************************
  44:.\Generated_Source\PSoC4/LED_ISR.c **** *
  45:.\Generated_Source\PSoC4/LED_ISR.c **** * Summary:
  46:.\Generated_Source\PSoC4/LED_ISR.c **** *  Set up the interrupt and enable it. This function disables the interrupt, 
  47:.\Generated_Source\PSoC4/LED_ISR.c **** *  sets the default interrupt vector, sets the priority from the value in the
  48:.\Generated_Source\PSoC4/LED_ISR.c **** *  Design Wide Resources Interrupt Editor, then enables the interrupt to the 
  49:.\Generated_Source\PSoC4/LED_ISR.c **** *  interrupt controller.
  50:.\Generated_Source\PSoC4/LED_ISR.c **** *
  51:.\Generated_Source\PSoC4/LED_ISR.c **** * Parameters:  
  52:.\Generated_Source\PSoC4/LED_ISR.c **** *   None
  53:.\Generated_Source\PSoC4/LED_ISR.c **** *
  54:.\Generated_Source\PSoC4/LED_ISR.c **** * Return:
  55:.\Generated_Source\PSoC4/LED_ISR.c **** *   None
  56:.\Generated_Source\PSoC4/LED_ISR.c **** *
  57:.\Generated_Source\PSoC4/LED_ISR.c **** *******************************************************************************/
  58:.\Generated_Source\PSoC4/LED_ISR.c **** void LED_ISR_Start(void)
  59:.\Generated_Source\PSoC4/LED_ISR.c **** {
  26              		.loc 1 59 0
  27              		.cfi_startproc
  28 0000 80B5     		push	{r7, lr}
  29              		.cfi_def_cfa_offset 8
  30              		.cfi_offset 7, -8
  31              		.cfi_offset 14, -4
  32 0002 00AF     		add	r7, sp, #0
  33              		.cfi_def_cfa_register 7
  60:.\Generated_Source\PSoC4/LED_ISR.c ****     /* For all we know the interrupt is active. */
  61:.\Generated_Source\PSoC4/LED_ISR.c ****     LED_ISR_Disable();
  34              		.loc 1 61 0
  35 0004 FFF7FEFF 		bl	LED_ISR_Disable
  62:.\Generated_Source\PSoC4/LED_ISR.c **** 
  63:.\Generated_Source\PSoC4/LED_ISR.c ****     /* Set the ISR to point to the LED_ISR Interrupt. */
  64:.\Generated_Source\PSoC4/LED_ISR.c ****     LED_ISR_SetVector(&LED_ISR_Interrupt);
  36              		.loc 1 64 0
  37 0008 054B     		ldr	r3, .L2
  38 000a 181C     		mov	r0, r3
  39 000c FFF7FEFF 		bl	LED_ISR_SetVector
  65:.\Generated_Source\PSoC4/LED_ISR.c **** 
  66:.\Generated_Source\PSoC4/LED_ISR.c ****     /* Set the priority. */
  67:.\Generated_Source\PSoC4/LED_ISR.c ****     LED_ISR_SetPriority((uint8)LED_ISR_INTC_PRIOR_NUMBER);
  40              		.loc 1 67 0
  41 0010 0320     		mov	r0, #3
  42 0012 FFF7FEFF 		bl	LED_ISR_SetPriority
  68:.\Generated_Source\PSoC4/LED_ISR.c **** 
  69:.\Generated_Source\PSoC4/LED_ISR.c ****     /* Enable it. */
  70:.\Generated_Source\PSoC4/LED_ISR.c ****     LED_ISR_Enable();
  43              		.loc 1 70 0
  44 0016 FFF7FEFF 		bl	LED_ISR_Enable
ARM GAS  C:\Users\kylep\AppData\Local\Temp\cc1eW9bN.s 			page 3


  71:.\Generated_Source\PSoC4/LED_ISR.c **** }
  45              		.loc 1 71 0
  46 001a BD46     		mov	sp, r7
  47              		@ sp needed
  48 001c 80BD     		pop	{r7, pc}
  49              	.L3:
  50 001e C046     		.align	2
  51              	.L2:
  52 0020 00000000 		.word	LED_ISR_Interrupt
  53              		.cfi_endproc
  54              	.LFE34:
  55              		.size	LED_ISR_Start, .-LED_ISR_Start
  56              		.section	.text.LED_ISR_StartEx,"ax",%progbits
  57              		.align	2
  58              		.global	LED_ISR_StartEx
  59              		.code	16
  60              		.thumb_func
  61              		.type	LED_ISR_StartEx, %function
  62              	LED_ISR_StartEx:
  63              	.LFB35:
  72:.\Generated_Source\PSoC4/LED_ISR.c **** 
  73:.\Generated_Source\PSoC4/LED_ISR.c **** 
  74:.\Generated_Source\PSoC4/LED_ISR.c **** /*******************************************************************************
  75:.\Generated_Source\PSoC4/LED_ISR.c **** * Function Name: LED_ISR_StartEx
  76:.\Generated_Source\PSoC4/LED_ISR.c **** ********************************************************************************
  77:.\Generated_Source\PSoC4/LED_ISR.c **** *
  78:.\Generated_Source\PSoC4/LED_ISR.c **** * Summary:
  79:.\Generated_Source\PSoC4/LED_ISR.c **** *  Sets up the interrupt and enables it. This function disables the interrupt,
  80:.\Generated_Source\PSoC4/LED_ISR.c **** *  sets the interrupt vector based on the address passed in, sets the priority 
  81:.\Generated_Source\PSoC4/LED_ISR.c **** *  from the value in the Design Wide Resources Interrupt Editor, then enables 
  82:.\Generated_Source\PSoC4/LED_ISR.c **** *  the interrupt to the interrupt controller.
  83:.\Generated_Source\PSoC4/LED_ISR.c **** *  
  84:.\Generated_Source\PSoC4/LED_ISR.c **** *  When defining ISR functions, the CY_ISR and CY_ISR_PROTO macros should be 
  85:.\Generated_Source\PSoC4/LED_ISR.c **** *  used to provide consistent definition across compilers:
  86:.\Generated_Source\PSoC4/LED_ISR.c **** *  
  87:.\Generated_Source\PSoC4/LED_ISR.c **** *  Function definition example:
  88:.\Generated_Source\PSoC4/LED_ISR.c **** *   CY_ISR(MyISR)
  89:.\Generated_Source\PSoC4/LED_ISR.c **** *   {
  90:.\Generated_Source\PSoC4/LED_ISR.c **** *   }
  91:.\Generated_Source\PSoC4/LED_ISR.c **** *   Function prototype example:
  92:.\Generated_Source\PSoC4/LED_ISR.c **** *   CY_ISR_PROTO(MyISR);
  93:.\Generated_Source\PSoC4/LED_ISR.c **** *
  94:.\Generated_Source\PSoC4/LED_ISR.c **** * Parameters:  
  95:.\Generated_Source\PSoC4/LED_ISR.c **** *   address: Address of the ISR to set in the interrupt vector table.
  96:.\Generated_Source\PSoC4/LED_ISR.c **** *
  97:.\Generated_Source\PSoC4/LED_ISR.c **** * Return:
  98:.\Generated_Source\PSoC4/LED_ISR.c **** *   None
  99:.\Generated_Source\PSoC4/LED_ISR.c **** *
 100:.\Generated_Source\PSoC4/LED_ISR.c **** *******************************************************************************/
 101:.\Generated_Source\PSoC4/LED_ISR.c **** void LED_ISR_StartEx(cyisraddress address)
 102:.\Generated_Source\PSoC4/LED_ISR.c **** {
  64              		.loc 1 102 0
  65              		.cfi_startproc
  66 0000 80B5     		push	{r7, lr}
  67              		.cfi_def_cfa_offset 8
  68              		.cfi_offset 7, -8
  69              		.cfi_offset 14, -4
ARM GAS  C:\Users\kylep\AppData\Local\Temp\cc1eW9bN.s 			page 4


  70 0002 82B0     		sub	sp, sp, #8
  71              		.cfi_def_cfa_offset 16
  72 0004 00AF     		add	r7, sp, #0
  73              		.cfi_def_cfa_register 7
  74 0006 7860     		str	r0, [r7, #4]
 103:.\Generated_Source\PSoC4/LED_ISR.c ****     /* For all we know the interrupt is active. */
 104:.\Generated_Source\PSoC4/LED_ISR.c ****     LED_ISR_Disable();
  75              		.loc 1 104 0
  76 0008 FFF7FEFF 		bl	LED_ISR_Disable
 105:.\Generated_Source\PSoC4/LED_ISR.c **** 
 106:.\Generated_Source\PSoC4/LED_ISR.c ****     /* Set the ISR to point to the LED_ISR Interrupt. */
 107:.\Generated_Source\PSoC4/LED_ISR.c ****     LED_ISR_SetVector(address);
  77              		.loc 1 107 0
  78 000c 7B68     		ldr	r3, [r7, #4]
  79 000e 181C     		mov	r0, r3
  80 0010 FFF7FEFF 		bl	LED_ISR_SetVector
 108:.\Generated_Source\PSoC4/LED_ISR.c **** 
 109:.\Generated_Source\PSoC4/LED_ISR.c ****     /* Set the priority. */
 110:.\Generated_Source\PSoC4/LED_ISR.c ****     LED_ISR_SetPriority((uint8)LED_ISR_INTC_PRIOR_NUMBER);
  81              		.loc 1 110 0
  82 0014 0320     		mov	r0, #3
  83 0016 FFF7FEFF 		bl	LED_ISR_SetPriority
 111:.\Generated_Source\PSoC4/LED_ISR.c **** 
 112:.\Generated_Source\PSoC4/LED_ISR.c ****     /* Enable it. */
 113:.\Generated_Source\PSoC4/LED_ISR.c ****     LED_ISR_Enable();
  84              		.loc 1 113 0
  85 001a FFF7FEFF 		bl	LED_ISR_Enable
 114:.\Generated_Source\PSoC4/LED_ISR.c **** }
  86              		.loc 1 114 0
  87 001e BD46     		mov	sp, r7
  88 0020 02B0     		add	sp, sp, #8
  89              		@ sp needed
  90 0022 80BD     		pop	{r7, pc}
  91              		.cfi_endproc
  92              	.LFE35:
  93              		.size	LED_ISR_StartEx, .-LED_ISR_StartEx
  94              		.section	.text.LED_ISR_Stop,"ax",%progbits
  95              		.align	2
  96              		.global	LED_ISR_Stop
  97              		.code	16
  98              		.thumb_func
  99              		.type	LED_ISR_Stop, %function
 100              	LED_ISR_Stop:
 101              	.LFB36:
 115:.\Generated_Source\PSoC4/LED_ISR.c **** 
 116:.\Generated_Source\PSoC4/LED_ISR.c **** 
 117:.\Generated_Source\PSoC4/LED_ISR.c **** /*******************************************************************************
 118:.\Generated_Source\PSoC4/LED_ISR.c **** * Function Name: LED_ISR_Stop
 119:.\Generated_Source\PSoC4/LED_ISR.c **** ********************************************************************************
 120:.\Generated_Source\PSoC4/LED_ISR.c **** *
 121:.\Generated_Source\PSoC4/LED_ISR.c **** * Summary:
 122:.\Generated_Source\PSoC4/LED_ISR.c **** *   Disables and removes the interrupt.
 123:.\Generated_Source\PSoC4/LED_ISR.c **** *
 124:.\Generated_Source\PSoC4/LED_ISR.c **** * Parameters:  
 125:.\Generated_Source\PSoC4/LED_ISR.c **** *   None
 126:.\Generated_Source\PSoC4/LED_ISR.c **** *
 127:.\Generated_Source\PSoC4/LED_ISR.c **** * Return:
ARM GAS  C:\Users\kylep\AppData\Local\Temp\cc1eW9bN.s 			page 5


 128:.\Generated_Source\PSoC4/LED_ISR.c **** *   None
 129:.\Generated_Source\PSoC4/LED_ISR.c **** *
 130:.\Generated_Source\PSoC4/LED_ISR.c **** *******************************************************************************/
 131:.\Generated_Source\PSoC4/LED_ISR.c **** void LED_ISR_Stop(void)
 132:.\Generated_Source\PSoC4/LED_ISR.c **** {
 102              		.loc 1 132 0
 103              		.cfi_startproc
 104 0000 80B5     		push	{r7, lr}
 105              		.cfi_def_cfa_offset 8
 106              		.cfi_offset 7, -8
 107              		.cfi_offset 14, -4
 108 0002 00AF     		add	r7, sp, #0
 109              		.cfi_def_cfa_register 7
 133:.\Generated_Source\PSoC4/LED_ISR.c ****     /* Disable this interrupt. */
 134:.\Generated_Source\PSoC4/LED_ISR.c ****     LED_ISR_Disable();
 110              		.loc 1 134 0
 111 0004 FFF7FEFF 		bl	LED_ISR_Disable
 135:.\Generated_Source\PSoC4/LED_ISR.c **** 
 136:.\Generated_Source\PSoC4/LED_ISR.c ****     /* Set the ISR to point to the passive one. */
 137:.\Generated_Source\PSoC4/LED_ISR.c ****     LED_ISR_SetVector(&IntDefaultHandler);
 112              		.loc 1 137 0
 113 0008 024B     		ldr	r3, .L6
 114 000a 181C     		mov	r0, r3
 115 000c FFF7FEFF 		bl	LED_ISR_SetVector
 138:.\Generated_Source\PSoC4/LED_ISR.c **** }
 116              		.loc 1 138 0
 117 0010 BD46     		mov	sp, r7
 118              		@ sp needed
 119 0012 80BD     		pop	{r7, pc}
 120              	.L7:
 121              		.align	2
 122              	.L6:
 123 0014 00000000 		.word	IntDefaultHandler
 124              		.cfi_endproc
 125              	.LFE36:
 126              		.size	LED_ISR_Stop, .-LED_ISR_Stop
 127              		.section	.text.LED_ISR_Interrupt,"ax",%progbits
 128              		.align	2
 129              		.global	LED_ISR_Interrupt
 130              		.code	16
 131              		.thumb_func
 132              		.type	LED_ISR_Interrupt, %function
 133              	LED_ISR_Interrupt:
 134              	.LFB37:
 139:.\Generated_Source\PSoC4/LED_ISR.c **** 
 140:.\Generated_Source\PSoC4/LED_ISR.c **** 
 141:.\Generated_Source\PSoC4/LED_ISR.c **** /*******************************************************************************
 142:.\Generated_Source\PSoC4/LED_ISR.c **** * Function Name: LED_ISR_Interrupt
 143:.\Generated_Source\PSoC4/LED_ISR.c **** ********************************************************************************
 144:.\Generated_Source\PSoC4/LED_ISR.c **** *
 145:.\Generated_Source\PSoC4/LED_ISR.c **** * Summary:
 146:.\Generated_Source\PSoC4/LED_ISR.c **** *   The default Interrupt Service Routine for LED_ISR.
 147:.\Generated_Source\PSoC4/LED_ISR.c **** *
 148:.\Generated_Source\PSoC4/LED_ISR.c **** *   Add custom code between the START and END comments to keep the next version
 149:.\Generated_Source\PSoC4/LED_ISR.c **** *   of this file from over-writing your code.
 150:.\Generated_Source\PSoC4/LED_ISR.c **** *
 151:.\Generated_Source\PSoC4/LED_ISR.c **** *   Note You may use either the default ISR by using this API, or you may define
ARM GAS  C:\Users\kylep\AppData\Local\Temp\cc1eW9bN.s 			page 6


 152:.\Generated_Source\PSoC4/LED_ISR.c **** *   your own separate ISR through ISR_StartEx().
 153:.\Generated_Source\PSoC4/LED_ISR.c **** *
 154:.\Generated_Source\PSoC4/LED_ISR.c **** * Parameters:  
 155:.\Generated_Source\PSoC4/LED_ISR.c **** *   None
 156:.\Generated_Source\PSoC4/LED_ISR.c **** *
 157:.\Generated_Source\PSoC4/LED_ISR.c **** * Return:
 158:.\Generated_Source\PSoC4/LED_ISR.c **** *   None
 159:.\Generated_Source\PSoC4/LED_ISR.c **** *
 160:.\Generated_Source\PSoC4/LED_ISR.c **** *******************************************************************************/
 161:.\Generated_Source\PSoC4/LED_ISR.c **** CY_ISR(LED_ISR_Interrupt)
 162:.\Generated_Source\PSoC4/LED_ISR.c **** {
 135              		.loc 1 162 0
 136              		.cfi_startproc
 137 0000 80B5     		push	{r7, lr}
 138              		.cfi_def_cfa_offset 8
 139              		.cfi_offset 7, -8
 140              		.cfi_offset 14, -4
 141 0002 00AF     		add	r7, sp, #0
 142              		.cfi_def_cfa_register 7
 163:.\Generated_Source\PSoC4/LED_ISR.c ****     #ifdef LED_ISR_INTERRUPT_INTERRUPT_CALLBACK
 164:.\Generated_Source\PSoC4/LED_ISR.c ****         LED_ISR_Interrupt_InterruptCallback();
 165:.\Generated_Source\PSoC4/LED_ISR.c ****     #endif /* LED_ISR_INTERRUPT_INTERRUPT_CALLBACK */ 
 166:.\Generated_Source\PSoC4/LED_ISR.c **** 
 167:.\Generated_Source\PSoC4/LED_ISR.c ****     /*  Place your Interrupt code here. */
 168:.\Generated_Source\PSoC4/LED_ISR.c ****     /* `#START LED_ISR_Interrupt` */
 169:.\Generated_Source\PSoC4/LED_ISR.c **** 
 170:.\Generated_Source\PSoC4/LED_ISR.c ****     processSoftStart();
 143              		.loc 1 170 0
 144 0004 FFF7FEFF 		bl	processSoftStart
 171:.\Generated_Source\PSoC4/LED_ISR.c ****     
 172:.\Generated_Source\PSoC4/LED_ISR.c ****     /* `#END` */
 173:.\Generated_Source\PSoC4/LED_ISR.c **** }
 145              		.loc 1 173 0
 146 0008 BD46     		mov	sp, r7
 147              		@ sp needed
 148 000a 80BD     		pop	{r7, pc}
 149              		.cfi_endproc
 150              	.LFE37:
 151              		.size	LED_ISR_Interrupt, .-LED_ISR_Interrupt
 152              		.section	.text.LED_ISR_SetVector,"ax",%progbits
 153              		.align	2
 154              		.global	LED_ISR_SetVector
 155              		.code	16
 156              		.thumb_func
 157              		.type	LED_ISR_SetVector, %function
 158              	LED_ISR_SetVector:
 159              	.LFB38:
 174:.\Generated_Source\PSoC4/LED_ISR.c **** 
 175:.\Generated_Source\PSoC4/LED_ISR.c **** 
 176:.\Generated_Source\PSoC4/LED_ISR.c **** /*******************************************************************************
 177:.\Generated_Source\PSoC4/LED_ISR.c **** * Function Name: LED_ISR_SetVector
 178:.\Generated_Source\PSoC4/LED_ISR.c **** ********************************************************************************
 179:.\Generated_Source\PSoC4/LED_ISR.c **** *
 180:.\Generated_Source\PSoC4/LED_ISR.c **** * Summary:
 181:.\Generated_Source\PSoC4/LED_ISR.c **** *   Change the ISR vector for the Interrupt. Note calling LED_ISR_Start
 182:.\Generated_Source\PSoC4/LED_ISR.c **** *   will override any effect this method would have had. To set the vector 
 183:.\Generated_Source\PSoC4/LED_ISR.c **** *   before the component has been started use LED_ISR_StartEx instead.
ARM GAS  C:\Users\kylep\AppData\Local\Temp\cc1eW9bN.s 			page 7


 184:.\Generated_Source\PSoC4/LED_ISR.c **** * 
 185:.\Generated_Source\PSoC4/LED_ISR.c **** *   When defining ISR functions, the CY_ISR and CY_ISR_PROTO macros should be 
 186:.\Generated_Source\PSoC4/LED_ISR.c **** *   used to provide consistent definition across compilers:
 187:.\Generated_Source\PSoC4/LED_ISR.c **** *
 188:.\Generated_Source\PSoC4/LED_ISR.c **** *   Function definition example:
 189:.\Generated_Source\PSoC4/LED_ISR.c **** *   CY_ISR(MyISR)
 190:.\Generated_Source\PSoC4/LED_ISR.c **** *   {
 191:.\Generated_Source\PSoC4/LED_ISR.c **** *   }
 192:.\Generated_Source\PSoC4/LED_ISR.c **** *
 193:.\Generated_Source\PSoC4/LED_ISR.c **** *   Function prototype example:
 194:.\Generated_Source\PSoC4/LED_ISR.c **** *     CY_ISR_PROTO(MyISR);
 195:.\Generated_Source\PSoC4/LED_ISR.c **** *
 196:.\Generated_Source\PSoC4/LED_ISR.c **** * Parameters:
 197:.\Generated_Source\PSoC4/LED_ISR.c **** *   address: Address of the ISR to set in the interrupt vector table.
 198:.\Generated_Source\PSoC4/LED_ISR.c **** *
 199:.\Generated_Source\PSoC4/LED_ISR.c **** * Return:
 200:.\Generated_Source\PSoC4/LED_ISR.c **** *   None
 201:.\Generated_Source\PSoC4/LED_ISR.c **** *
 202:.\Generated_Source\PSoC4/LED_ISR.c **** *******************************************************************************/
 203:.\Generated_Source\PSoC4/LED_ISR.c **** void LED_ISR_SetVector(cyisraddress address)
 204:.\Generated_Source\PSoC4/LED_ISR.c **** {
 160              		.loc 1 204 0
 161              		.cfi_startproc
 162 0000 80B5     		push	{r7, lr}
 163              		.cfi_def_cfa_offset 8
 164              		.cfi_offset 7, -8
 165              		.cfi_offset 14, -4
 166 0002 82B0     		sub	sp, sp, #8
 167              		.cfi_def_cfa_offset 16
 168 0004 00AF     		add	r7, sp, #0
 169              		.cfi_def_cfa_register 7
 170 0006 7860     		str	r0, [r7, #4]
 205:.\Generated_Source\PSoC4/LED_ISR.c ****     CyRamVectors[CYINT_IRQ_BASE + LED_ISR__INTC_NUMBER] = address;
 171              		.loc 1 205 0
 172 0008 024B     		ldr	r3, .L10
 173 000a 7A68     		ldr	r2, [r7, #4]
 174 000c DA64     		str	r2, [r3, #76]
 206:.\Generated_Source\PSoC4/LED_ISR.c **** }
 175              		.loc 1 206 0
 176 000e BD46     		mov	sp, r7
 177 0010 02B0     		add	sp, sp, #8
 178              		@ sp needed
 179 0012 80BD     		pop	{r7, pc}
 180              	.L11:
 181              		.align	2
 182              	.L10:
 183 0014 00000000 		.word	CyRamVectors
 184              		.cfi_endproc
 185              	.LFE38:
 186              		.size	LED_ISR_SetVector, .-LED_ISR_SetVector
 187              		.section	.text.LED_ISR_GetVector,"ax",%progbits
 188              		.align	2
 189              		.global	LED_ISR_GetVector
 190              		.code	16
 191              		.thumb_func
 192              		.type	LED_ISR_GetVector, %function
 193              	LED_ISR_GetVector:
ARM GAS  C:\Users\kylep\AppData\Local\Temp\cc1eW9bN.s 			page 8


 194              	.LFB39:
 207:.\Generated_Source\PSoC4/LED_ISR.c **** 
 208:.\Generated_Source\PSoC4/LED_ISR.c **** 
 209:.\Generated_Source\PSoC4/LED_ISR.c **** /*******************************************************************************
 210:.\Generated_Source\PSoC4/LED_ISR.c **** * Function Name: LED_ISR_GetVector
 211:.\Generated_Source\PSoC4/LED_ISR.c **** ********************************************************************************
 212:.\Generated_Source\PSoC4/LED_ISR.c **** *
 213:.\Generated_Source\PSoC4/LED_ISR.c **** * Summary:
 214:.\Generated_Source\PSoC4/LED_ISR.c **** *   Gets the "address" of the current ISR vector for the Interrupt.
 215:.\Generated_Source\PSoC4/LED_ISR.c **** *
 216:.\Generated_Source\PSoC4/LED_ISR.c **** * Parameters:
 217:.\Generated_Source\PSoC4/LED_ISR.c **** *   None
 218:.\Generated_Source\PSoC4/LED_ISR.c **** *
 219:.\Generated_Source\PSoC4/LED_ISR.c **** * Return:
 220:.\Generated_Source\PSoC4/LED_ISR.c **** *   Address of the ISR in the interrupt vector table.
 221:.\Generated_Source\PSoC4/LED_ISR.c **** *
 222:.\Generated_Source\PSoC4/LED_ISR.c **** *******************************************************************************/
 223:.\Generated_Source\PSoC4/LED_ISR.c **** cyisraddress LED_ISR_GetVector(void)
 224:.\Generated_Source\PSoC4/LED_ISR.c **** {
 195              		.loc 1 224 0
 196              		.cfi_startproc
 197 0000 80B5     		push	{r7, lr}
 198              		.cfi_def_cfa_offset 8
 199              		.cfi_offset 7, -8
 200              		.cfi_offset 14, -4
 201 0002 00AF     		add	r7, sp, #0
 202              		.cfi_def_cfa_register 7
 225:.\Generated_Source\PSoC4/LED_ISR.c ****     return CyRamVectors[CYINT_IRQ_BASE + LED_ISR__INTC_NUMBER];
 203              		.loc 1 225 0
 204 0004 024B     		ldr	r3, .L14
 205 0006 DB6C     		ldr	r3, [r3, #76]
 226:.\Generated_Source\PSoC4/LED_ISR.c **** }
 206              		.loc 1 226 0
 207 0008 181C     		mov	r0, r3
 208 000a BD46     		mov	sp, r7
 209              		@ sp needed
 210 000c 80BD     		pop	{r7, pc}
 211              	.L15:
 212 000e C046     		.align	2
 213              	.L14:
 214 0010 00000000 		.word	CyRamVectors
 215              		.cfi_endproc
 216              	.LFE39:
 217              		.size	LED_ISR_GetVector, .-LED_ISR_GetVector
 218              		.section	.text.LED_ISR_SetPriority,"ax",%progbits
 219              		.align	2
 220              		.global	LED_ISR_SetPriority
 221              		.code	16
 222              		.thumb_func
 223              		.type	LED_ISR_SetPriority, %function
 224              	LED_ISR_SetPriority:
 225              	.LFB40:
 227:.\Generated_Source\PSoC4/LED_ISR.c **** 
 228:.\Generated_Source\PSoC4/LED_ISR.c **** 
 229:.\Generated_Source\PSoC4/LED_ISR.c **** /*******************************************************************************
 230:.\Generated_Source\PSoC4/LED_ISR.c **** * Function Name: LED_ISR_SetPriority
 231:.\Generated_Source\PSoC4/LED_ISR.c **** ********************************************************************************
ARM GAS  C:\Users\kylep\AppData\Local\Temp\cc1eW9bN.s 			page 9


 232:.\Generated_Source\PSoC4/LED_ISR.c **** *
 233:.\Generated_Source\PSoC4/LED_ISR.c **** * Summary:
 234:.\Generated_Source\PSoC4/LED_ISR.c **** *   Sets the Priority of the Interrupt. 
 235:.\Generated_Source\PSoC4/LED_ISR.c **** *
 236:.\Generated_Source\PSoC4/LED_ISR.c **** *   Note calling LED_ISR_Start or LED_ISR_StartEx will 
 237:.\Generated_Source\PSoC4/LED_ISR.c **** *   override any effect this API would have had. This API should only be called
 238:.\Generated_Source\PSoC4/LED_ISR.c **** *   after LED_ISR_Start or LED_ISR_StartEx has been called. 
 239:.\Generated_Source\PSoC4/LED_ISR.c **** *   To set the initial priority for the component, use the Design-Wide Resources
 240:.\Generated_Source\PSoC4/LED_ISR.c **** *   Interrupt Editor.
 241:.\Generated_Source\PSoC4/LED_ISR.c **** *
 242:.\Generated_Source\PSoC4/LED_ISR.c **** *   Note This API has no effect on Non-maskable interrupt NMI).
 243:.\Generated_Source\PSoC4/LED_ISR.c **** *
 244:.\Generated_Source\PSoC4/LED_ISR.c **** * Parameters:
 245:.\Generated_Source\PSoC4/LED_ISR.c **** *   priority: Priority of the interrupt, 0 being the highest priority
 246:.\Generated_Source\PSoC4/LED_ISR.c **** *             PSoC 3 and PSoC 5LP: Priority is from 0 to 7.
 247:.\Generated_Source\PSoC4/LED_ISR.c **** *             PSoC 4: Priority is from 0 to 3.
 248:.\Generated_Source\PSoC4/LED_ISR.c **** *
 249:.\Generated_Source\PSoC4/LED_ISR.c **** * Return:
 250:.\Generated_Source\PSoC4/LED_ISR.c **** *   None
 251:.\Generated_Source\PSoC4/LED_ISR.c **** *
 252:.\Generated_Source\PSoC4/LED_ISR.c **** *******************************************************************************/
 253:.\Generated_Source\PSoC4/LED_ISR.c **** void LED_ISR_SetPriority(uint8 priority)
 254:.\Generated_Source\PSoC4/LED_ISR.c **** {
 226              		.loc 1 254 0
 227              		.cfi_startproc
 228 0000 90B5     		push	{r4, r7, lr}
 229              		.cfi_def_cfa_offset 12
 230              		.cfi_offset 4, -12
 231              		.cfi_offset 7, -8
 232              		.cfi_offset 14, -4
 233 0002 85B0     		sub	sp, sp, #20
 234              		.cfi_def_cfa_offset 32
 235 0004 00AF     		add	r7, sp, #0
 236              		.cfi_def_cfa_register 7
 237 0006 021C     		mov	r2, r0
 238 0008 FB1D     		add	r3, r7, #7
 239 000a 1A70     		strb	r2, [r3]
 255:.\Generated_Source\PSoC4/LED_ISR.c **** 	uint8 interruptState;
 256:.\Generated_Source\PSoC4/LED_ISR.c ****     uint32 priorityOffset = ((LED_ISR__INTC_NUMBER % 4u) * 8u) + 6u;
 240              		.loc 1 256 0
 241 000c 1E23     		mov	r3, #30
 242 000e FB60     		str	r3, [r7, #12]
 257:.\Generated_Source\PSoC4/LED_ISR.c ****     
 258:.\Generated_Source\PSoC4/LED_ISR.c **** 	interruptState = CyEnterCriticalSection();
 243              		.loc 1 258 0
 244 0010 0B23     		mov	r3, #11
 245 0012 FC18     		add	r4, r7, r3
 246 0014 FFF7FEFF 		bl	CyEnterCriticalSection
 247 0018 031C     		mov	r3, r0
 248 001a 2370     		strb	r3, [r4]
 259:.\Generated_Source\PSoC4/LED_ISR.c ****     *LED_ISR_INTC_PRIOR = (*LED_ISR_INTC_PRIOR & (uint32)(~LED_ISR__INTC_PRIOR_MASK)) |
 249              		.loc 1 259 0
 250 001c 0A4B     		ldr	r3, .L17
 251 001e 0A4A     		ldr	r2, .L17
 252 0020 1268     		ldr	r2, [r2]
 253 0022 9200     		lsl	r2, r2, #2
 254 0024 9108     		lsr	r1, r2, #2
ARM GAS  C:\Users\kylep\AppData\Local\Temp\cc1eW9bN.s 			page 10


 260:.\Generated_Source\PSoC4/LED_ISR.c ****                                     ((uint32)priority << priorityOffset);
 255              		.loc 1 260 0
 256 0026 FA1D     		add	r2, r7, #7
 257 0028 1078     		ldrb	r0, [r2]
 258 002a FA68     		ldr	r2, [r7, #12]
 259 002c 9040     		lsl	r0, r0, r2
 260 002e 021C     		mov	r2, r0
 259:.\Generated_Source\PSoC4/LED_ISR.c ****     *LED_ISR_INTC_PRIOR = (*LED_ISR_INTC_PRIOR & (uint32)(~LED_ISR__INTC_PRIOR_MASK)) |
 261              		.loc 1 259 0
 262 0030 0A43     		orr	r2, r1
 263 0032 1A60     		str	r2, [r3]
 261:.\Generated_Source\PSoC4/LED_ISR.c **** 	CyExitCriticalSection(interruptState);
 264              		.loc 1 261 0
 265 0034 0B23     		mov	r3, #11
 266 0036 FB18     		add	r3, r7, r3
 267 0038 1B78     		ldrb	r3, [r3]
 268 003a 181C     		mov	r0, r3
 269 003c FFF7FEFF 		bl	CyExitCriticalSection
 262:.\Generated_Source\PSoC4/LED_ISR.c **** }
 270              		.loc 1 262 0
 271 0040 BD46     		mov	sp, r7
 272 0042 05B0     		add	sp, sp, #20
 273              		@ sp needed
 274 0044 90BD     		pop	{r4, r7, pc}
 275              	.L18:
 276 0046 C046     		.align	2
 277              	.L17:
 278 0048 00E400E0 		.word	-536812544
 279              		.cfi_endproc
 280              	.LFE40:
 281              		.size	LED_ISR_SetPriority, .-LED_ISR_SetPriority
 282              		.section	.text.LED_ISR_GetPriority,"ax",%progbits
 283              		.align	2
 284              		.global	LED_ISR_GetPriority
 285              		.code	16
 286              		.thumb_func
 287              		.type	LED_ISR_GetPriority, %function
 288              	LED_ISR_GetPriority:
 289              	.LFB41:
 263:.\Generated_Source\PSoC4/LED_ISR.c **** 
 264:.\Generated_Source\PSoC4/LED_ISR.c **** 
 265:.\Generated_Source\PSoC4/LED_ISR.c **** /*******************************************************************************
 266:.\Generated_Source\PSoC4/LED_ISR.c **** * Function Name: LED_ISR_GetPriority
 267:.\Generated_Source\PSoC4/LED_ISR.c **** ********************************************************************************
 268:.\Generated_Source\PSoC4/LED_ISR.c **** *
 269:.\Generated_Source\PSoC4/LED_ISR.c **** * Summary:
 270:.\Generated_Source\PSoC4/LED_ISR.c **** *   Gets the Priority of the Interrupt.
 271:.\Generated_Source\PSoC4/LED_ISR.c **** *
 272:.\Generated_Source\PSoC4/LED_ISR.c **** * Parameters:
 273:.\Generated_Source\PSoC4/LED_ISR.c **** *   None
 274:.\Generated_Source\PSoC4/LED_ISR.c **** *
 275:.\Generated_Source\PSoC4/LED_ISR.c **** * Return:
 276:.\Generated_Source\PSoC4/LED_ISR.c **** *   Priority of the interrupt, 0 being the highest priority
 277:.\Generated_Source\PSoC4/LED_ISR.c **** *    PSoC 3 and PSoC 5LP: Priority is from 0 to 7.
 278:.\Generated_Source\PSoC4/LED_ISR.c **** *    PSoC 4: Priority is from 0 to 3.
 279:.\Generated_Source\PSoC4/LED_ISR.c **** *
 280:.\Generated_Source\PSoC4/LED_ISR.c **** *******************************************************************************/
ARM GAS  C:\Users\kylep\AppData\Local\Temp\cc1eW9bN.s 			page 11


 281:.\Generated_Source\PSoC4/LED_ISR.c **** uint8 LED_ISR_GetPriority(void)
 282:.\Generated_Source\PSoC4/LED_ISR.c **** {
 290              		.loc 1 282 0
 291              		.cfi_startproc
 292 0000 80B5     		push	{r7, lr}
 293              		.cfi_def_cfa_offset 8
 294              		.cfi_offset 7, -8
 295              		.cfi_offset 14, -4
 296 0002 82B0     		sub	sp, sp, #8
 297              		.cfi_def_cfa_offset 16
 298 0004 00AF     		add	r7, sp, #0
 299              		.cfi_def_cfa_register 7
 283:.\Generated_Source\PSoC4/LED_ISR.c ****     uint32 priority;
 284:.\Generated_Source\PSoC4/LED_ISR.c **** 	uint32 priorityOffset = ((LED_ISR__INTC_NUMBER % 4u) * 8u) + 6u;
 300              		.loc 1 284 0
 301 0006 1E23     		mov	r3, #30
 302 0008 7B60     		str	r3, [r7, #4]
 285:.\Generated_Source\PSoC4/LED_ISR.c **** 
 286:.\Generated_Source\PSoC4/LED_ISR.c ****     priority = (*LED_ISR_INTC_PRIOR & LED_ISR__INTC_PRIOR_MASK) >> priorityOffset;
 303              		.loc 1 286 0
 304 000a 074B     		ldr	r3, .L21
 305 000c 1B68     		ldr	r3, [r3]
 306 000e 9B0F     		lsr	r3, r3, #30
 307 0010 9A07     		lsl	r2, r3, #30
 308 0012 7B68     		ldr	r3, [r7, #4]
 309 0014 DA40     		lsr	r2, r2, r3
 310 0016 131C     		mov	r3, r2
 311 0018 3B60     		str	r3, [r7]
 287:.\Generated_Source\PSoC4/LED_ISR.c **** 
 288:.\Generated_Source\PSoC4/LED_ISR.c ****     return (uint8)priority;
 312              		.loc 1 288 0
 313 001a 3B68     		ldr	r3, [r7]
 314 001c DBB2     		uxtb	r3, r3
 289:.\Generated_Source\PSoC4/LED_ISR.c **** }
 315              		.loc 1 289 0
 316 001e 181C     		mov	r0, r3
 317 0020 BD46     		mov	sp, r7
 318 0022 02B0     		add	sp, sp, #8
 319              		@ sp needed
 320 0024 80BD     		pop	{r7, pc}
 321              	.L22:
 322 0026 C046     		.align	2
 323              	.L21:
 324 0028 00E400E0 		.word	-536812544
 325              		.cfi_endproc
 326              	.LFE41:
 327              		.size	LED_ISR_GetPriority, .-LED_ISR_GetPriority
 328              		.section	.text.LED_ISR_Enable,"ax",%progbits
 329              		.align	2
 330              		.global	LED_ISR_Enable
 331              		.code	16
 332              		.thumb_func
 333              		.type	LED_ISR_Enable, %function
 334              	LED_ISR_Enable:
 335              	.LFB42:
 290:.\Generated_Source\PSoC4/LED_ISR.c **** 
 291:.\Generated_Source\PSoC4/LED_ISR.c **** 
ARM GAS  C:\Users\kylep\AppData\Local\Temp\cc1eW9bN.s 			page 12


 292:.\Generated_Source\PSoC4/LED_ISR.c **** /*******************************************************************************
 293:.\Generated_Source\PSoC4/LED_ISR.c **** * Function Name: LED_ISR_Enable
 294:.\Generated_Source\PSoC4/LED_ISR.c **** ********************************************************************************
 295:.\Generated_Source\PSoC4/LED_ISR.c **** *
 296:.\Generated_Source\PSoC4/LED_ISR.c **** * Summary:
 297:.\Generated_Source\PSoC4/LED_ISR.c **** *   Enables the interrupt to the interrupt controller. Do not call this function
 298:.\Generated_Source\PSoC4/LED_ISR.c **** *   unless ISR_Start() has been called or the functionality of the ISR_Start() 
 299:.\Generated_Source\PSoC4/LED_ISR.c **** *   function, which sets the vector and the priority, has been called.
 300:.\Generated_Source\PSoC4/LED_ISR.c **** *
 301:.\Generated_Source\PSoC4/LED_ISR.c **** * Parameters:
 302:.\Generated_Source\PSoC4/LED_ISR.c **** *   None
 303:.\Generated_Source\PSoC4/LED_ISR.c **** *
 304:.\Generated_Source\PSoC4/LED_ISR.c **** * Return:
 305:.\Generated_Source\PSoC4/LED_ISR.c **** *   None
 306:.\Generated_Source\PSoC4/LED_ISR.c **** *
 307:.\Generated_Source\PSoC4/LED_ISR.c **** *******************************************************************************/
 308:.\Generated_Source\PSoC4/LED_ISR.c **** void LED_ISR_Enable(void)
 309:.\Generated_Source\PSoC4/LED_ISR.c **** {
 336              		.loc 1 309 0
 337              		.cfi_startproc
 338 0000 80B5     		push	{r7, lr}
 339              		.cfi_def_cfa_offset 8
 340              		.cfi_offset 7, -8
 341              		.cfi_offset 14, -4
 342 0002 00AF     		add	r7, sp, #0
 343              		.cfi_def_cfa_register 7
 310:.\Generated_Source\PSoC4/LED_ISR.c ****     /* Enable the general interrupt. */
 311:.\Generated_Source\PSoC4/LED_ISR.c ****     *LED_ISR_INTC_SET_EN = LED_ISR__INTC_MASK;
 344              		.loc 1 311 0
 345 0004 024B     		ldr	r3, .L24
 346 0006 0822     		mov	r2, #8
 347 0008 1A60     		str	r2, [r3]
 312:.\Generated_Source\PSoC4/LED_ISR.c **** }
 348              		.loc 1 312 0
 349 000a BD46     		mov	sp, r7
 350              		@ sp needed
 351 000c 80BD     		pop	{r7, pc}
 352              	.L25:
 353 000e C046     		.align	2
 354              	.L24:
 355 0010 00E100E0 		.word	-536813312
 356              		.cfi_endproc
 357              	.LFE42:
 358              		.size	LED_ISR_Enable, .-LED_ISR_Enable
 359              		.section	.text.LED_ISR_GetState,"ax",%progbits
 360              		.align	2
 361              		.global	LED_ISR_GetState
 362              		.code	16
 363              		.thumb_func
 364              		.type	LED_ISR_GetState, %function
 365              	LED_ISR_GetState:
 366              	.LFB43:
 313:.\Generated_Source\PSoC4/LED_ISR.c **** 
 314:.\Generated_Source\PSoC4/LED_ISR.c **** 
 315:.\Generated_Source\PSoC4/LED_ISR.c **** /*******************************************************************************
 316:.\Generated_Source\PSoC4/LED_ISR.c **** * Function Name: LED_ISR_GetState
 317:.\Generated_Source\PSoC4/LED_ISR.c **** ********************************************************************************
ARM GAS  C:\Users\kylep\AppData\Local\Temp\cc1eW9bN.s 			page 13


 318:.\Generated_Source\PSoC4/LED_ISR.c **** *
 319:.\Generated_Source\PSoC4/LED_ISR.c **** * Summary:
 320:.\Generated_Source\PSoC4/LED_ISR.c **** *   Gets the state (enabled, disabled) of the Interrupt.
 321:.\Generated_Source\PSoC4/LED_ISR.c **** *
 322:.\Generated_Source\PSoC4/LED_ISR.c **** * Parameters:
 323:.\Generated_Source\PSoC4/LED_ISR.c **** *   None
 324:.\Generated_Source\PSoC4/LED_ISR.c **** *
 325:.\Generated_Source\PSoC4/LED_ISR.c **** * Return:
 326:.\Generated_Source\PSoC4/LED_ISR.c **** *   1 if enabled, 0 if disabled.
 327:.\Generated_Source\PSoC4/LED_ISR.c **** *
 328:.\Generated_Source\PSoC4/LED_ISR.c **** *******************************************************************************/
 329:.\Generated_Source\PSoC4/LED_ISR.c **** uint8 LED_ISR_GetState(void)
 330:.\Generated_Source\PSoC4/LED_ISR.c **** {
 367              		.loc 1 330 0
 368              		.cfi_startproc
 369 0000 80B5     		push	{r7, lr}
 370              		.cfi_def_cfa_offset 8
 371              		.cfi_offset 7, -8
 372              		.cfi_offset 14, -4
 373 0002 00AF     		add	r7, sp, #0
 374              		.cfi_def_cfa_register 7
 331:.\Generated_Source\PSoC4/LED_ISR.c ****     /* Get the state of the general interrupt. */
 332:.\Generated_Source\PSoC4/LED_ISR.c ****     return ((*LED_ISR_INTC_SET_EN & (uint32)LED_ISR__INTC_MASK) != 0u) ? 1u:0u;
 375              		.loc 1 332 0
 376 0004 054B     		ldr	r3, .L30
 377 0006 1B68     		ldr	r3, [r3]
 378 0008 0822     		mov	r2, #8
 379 000a 1340     		and	r3, r2
 380 000c 01D0     		beq	.L27
 381              		.loc 1 332 0 is_stmt 0 discriminator 1
 382 000e 0123     		mov	r3, #1
 383 0010 00E0     		b	.L28
 384              	.L27:
 385              		.loc 1 332 0 discriminator 2
 386 0012 0023     		mov	r3, #0
 387              	.L28:
 333:.\Generated_Source\PSoC4/LED_ISR.c **** }
 388              		.loc 1 333 0 is_stmt 1 discriminator 4
 389 0014 181C     		mov	r0, r3
 390 0016 BD46     		mov	sp, r7
 391              		@ sp needed
 392 0018 80BD     		pop	{r7, pc}
 393              	.L31:
 394 001a C046     		.align	2
 395              	.L30:
 396 001c 00E100E0 		.word	-536813312
 397              		.cfi_endproc
 398              	.LFE43:
 399              		.size	LED_ISR_GetState, .-LED_ISR_GetState
 400              		.section	.text.LED_ISR_Disable,"ax",%progbits
 401              		.align	2
 402              		.global	LED_ISR_Disable
 403              		.code	16
 404              		.thumb_func
 405              		.type	LED_ISR_Disable, %function
 406              	LED_ISR_Disable:
 407              	.LFB44:
ARM GAS  C:\Users\kylep\AppData\Local\Temp\cc1eW9bN.s 			page 14


 334:.\Generated_Source\PSoC4/LED_ISR.c **** 
 335:.\Generated_Source\PSoC4/LED_ISR.c **** 
 336:.\Generated_Source\PSoC4/LED_ISR.c **** /*******************************************************************************
 337:.\Generated_Source\PSoC4/LED_ISR.c **** * Function Name: LED_ISR_Disable
 338:.\Generated_Source\PSoC4/LED_ISR.c **** ********************************************************************************
 339:.\Generated_Source\PSoC4/LED_ISR.c **** *
 340:.\Generated_Source\PSoC4/LED_ISR.c **** * Summary:
 341:.\Generated_Source\PSoC4/LED_ISR.c **** *   Disables the Interrupt in the interrupt controller.
 342:.\Generated_Source\PSoC4/LED_ISR.c **** *
 343:.\Generated_Source\PSoC4/LED_ISR.c **** * Parameters:
 344:.\Generated_Source\PSoC4/LED_ISR.c **** *   None
 345:.\Generated_Source\PSoC4/LED_ISR.c **** *
 346:.\Generated_Source\PSoC4/LED_ISR.c **** * Return:
 347:.\Generated_Source\PSoC4/LED_ISR.c **** *   None
 348:.\Generated_Source\PSoC4/LED_ISR.c **** *
 349:.\Generated_Source\PSoC4/LED_ISR.c **** *******************************************************************************/
 350:.\Generated_Source\PSoC4/LED_ISR.c **** void LED_ISR_Disable(void)
 351:.\Generated_Source\PSoC4/LED_ISR.c **** {
 408              		.loc 1 351 0
 409              		.cfi_startproc
 410 0000 80B5     		push	{r7, lr}
 411              		.cfi_def_cfa_offset 8
 412              		.cfi_offset 7, -8
 413              		.cfi_offset 14, -4
 414 0002 00AF     		add	r7, sp, #0
 415              		.cfi_def_cfa_register 7
 352:.\Generated_Source\PSoC4/LED_ISR.c ****     /* Disable the general interrupt. */
 353:.\Generated_Source\PSoC4/LED_ISR.c ****     *LED_ISR_INTC_CLR_EN = LED_ISR__INTC_MASK;
 416              		.loc 1 353 0
 417 0004 024B     		ldr	r3, .L33
 418 0006 0822     		mov	r2, #8
 419 0008 1A60     		str	r2, [r3]
 354:.\Generated_Source\PSoC4/LED_ISR.c **** }
 420              		.loc 1 354 0
 421 000a BD46     		mov	sp, r7
 422              		@ sp needed
 423 000c 80BD     		pop	{r7, pc}
 424              	.L34:
 425 000e C046     		.align	2
 426              	.L33:
 427 0010 80E100E0 		.word	-536813184
 428              		.cfi_endproc
 429              	.LFE44:
 430              		.size	LED_ISR_Disable, .-LED_ISR_Disable
 431              		.section	.text.LED_ISR_SetPending,"ax",%progbits
 432              		.align	2
 433              		.global	LED_ISR_SetPending
 434              		.code	16
 435              		.thumb_func
 436              		.type	LED_ISR_SetPending, %function
 437              	LED_ISR_SetPending:
 438              	.LFB45:
 355:.\Generated_Source\PSoC4/LED_ISR.c **** 
 356:.\Generated_Source\PSoC4/LED_ISR.c **** 
 357:.\Generated_Source\PSoC4/LED_ISR.c **** /*******************************************************************************
 358:.\Generated_Source\PSoC4/LED_ISR.c **** * Function Name: LED_ISR_SetPending
 359:.\Generated_Source\PSoC4/LED_ISR.c **** ********************************************************************************
ARM GAS  C:\Users\kylep\AppData\Local\Temp\cc1eW9bN.s 			page 15


 360:.\Generated_Source\PSoC4/LED_ISR.c **** *
 361:.\Generated_Source\PSoC4/LED_ISR.c **** * Summary:
 362:.\Generated_Source\PSoC4/LED_ISR.c **** *   Causes the Interrupt to enter the pending state, a software method of
 363:.\Generated_Source\PSoC4/LED_ISR.c **** *   generating the interrupt.
 364:.\Generated_Source\PSoC4/LED_ISR.c **** *
 365:.\Generated_Source\PSoC4/LED_ISR.c **** * Parameters:
 366:.\Generated_Source\PSoC4/LED_ISR.c **** *   None
 367:.\Generated_Source\PSoC4/LED_ISR.c **** *
 368:.\Generated_Source\PSoC4/LED_ISR.c **** * Return:
 369:.\Generated_Source\PSoC4/LED_ISR.c **** *   None
 370:.\Generated_Source\PSoC4/LED_ISR.c **** *
 371:.\Generated_Source\PSoC4/LED_ISR.c **** * Side Effects:
 372:.\Generated_Source\PSoC4/LED_ISR.c **** *   If interrupts are enabled and the interrupt is set up properly, the ISR is
 373:.\Generated_Source\PSoC4/LED_ISR.c **** *   entered (depending on the priority of this interrupt and other pending 
 374:.\Generated_Source\PSoC4/LED_ISR.c **** *   interrupts).
 375:.\Generated_Source\PSoC4/LED_ISR.c **** *
 376:.\Generated_Source\PSoC4/LED_ISR.c **** *******************************************************************************/
 377:.\Generated_Source\PSoC4/LED_ISR.c **** void LED_ISR_SetPending(void)
 378:.\Generated_Source\PSoC4/LED_ISR.c **** {
 439              		.loc 1 378 0
 440              		.cfi_startproc
 441 0000 80B5     		push	{r7, lr}
 442              		.cfi_def_cfa_offset 8
 443              		.cfi_offset 7, -8
 444              		.cfi_offset 14, -4
 445 0002 00AF     		add	r7, sp, #0
 446              		.cfi_def_cfa_register 7
 379:.\Generated_Source\PSoC4/LED_ISR.c ****     *LED_ISR_INTC_SET_PD = LED_ISR__INTC_MASK;
 447              		.loc 1 379 0
 448 0004 024B     		ldr	r3, .L36
 449 0006 0822     		mov	r2, #8
 450 0008 1A60     		str	r2, [r3]
 380:.\Generated_Source\PSoC4/LED_ISR.c **** }
 451              		.loc 1 380 0
 452 000a BD46     		mov	sp, r7
 453              		@ sp needed
 454 000c 80BD     		pop	{r7, pc}
 455              	.L37:
 456 000e C046     		.align	2
 457              	.L36:
 458 0010 00E200E0 		.word	-536813056
 459              		.cfi_endproc
 460              	.LFE45:
 461              		.size	LED_ISR_SetPending, .-LED_ISR_SetPending
 462              		.section	.text.LED_ISR_ClearPending,"ax",%progbits
 463              		.align	2
 464              		.global	LED_ISR_ClearPending
 465              		.code	16
 466              		.thumb_func
 467              		.type	LED_ISR_ClearPending, %function
 468              	LED_ISR_ClearPending:
 469              	.LFB46:
 381:.\Generated_Source\PSoC4/LED_ISR.c **** 
 382:.\Generated_Source\PSoC4/LED_ISR.c **** 
 383:.\Generated_Source\PSoC4/LED_ISR.c **** /*******************************************************************************
 384:.\Generated_Source\PSoC4/LED_ISR.c **** * Function Name: LED_ISR_ClearPending
 385:.\Generated_Source\PSoC4/LED_ISR.c **** ********************************************************************************
ARM GAS  C:\Users\kylep\AppData\Local\Temp\cc1eW9bN.s 			page 16


 386:.\Generated_Source\PSoC4/LED_ISR.c **** *
 387:.\Generated_Source\PSoC4/LED_ISR.c **** * Summary:
 388:.\Generated_Source\PSoC4/LED_ISR.c **** *   Clears a pending interrupt in the interrupt controller.
 389:.\Generated_Source\PSoC4/LED_ISR.c **** *
 390:.\Generated_Source\PSoC4/LED_ISR.c **** *   Note Some interrupt sources are clear-on-read and require the block 
 391:.\Generated_Source\PSoC4/LED_ISR.c **** *   interrupt/status register to be read/cleared with the appropriate block API 
 392:.\Generated_Source\PSoC4/LED_ISR.c **** *   (GPIO, UART, and so on). Otherwise the ISR will continue to remain in 
 393:.\Generated_Source\PSoC4/LED_ISR.c **** *   pending state even though the interrupt itself is cleared using this API.
 394:.\Generated_Source\PSoC4/LED_ISR.c **** *
 395:.\Generated_Source\PSoC4/LED_ISR.c **** * Parameters:
 396:.\Generated_Source\PSoC4/LED_ISR.c **** *   None
 397:.\Generated_Source\PSoC4/LED_ISR.c **** *
 398:.\Generated_Source\PSoC4/LED_ISR.c **** * Return:
 399:.\Generated_Source\PSoC4/LED_ISR.c **** *   None
 400:.\Generated_Source\PSoC4/LED_ISR.c **** *
 401:.\Generated_Source\PSoC4/LED_ISR.c **** *******************************************************************************/
 402:.\Generated_Source\PSoC4/LED_ISR.c **** void LED_ISR_ClearPending(void)
 403:.\Generated_Source\PSoC4/LED_ISR.c **** {
 470              		.loc 1 403 0
 471              		.cfi_startproc
 472 0000 80B5     		push	{r7, lr}
 473              		.cfi_def_cfa_offset 8
 474              		.cfi_offset 7, -8
 475              		.cfi_offset 14, -4
 476 0002 00AF     		add	r7, sp, #0
 477              		.cfi_def_cfa_register 7
 404:.\Generated_Source\PSoC4/LED_ISR.c ****     *LED_ISR_INTC_CLR_PD = LED_ISR__INTC_MASK;
 478              		.loc 1 404 0
 479 0004 024B     		ldr	r3, .L39
 480 0006 0822     		mov	r2, #8
 481 0008 1A60     		str	r2, [r3]
 405:.\Generated_Source\PSoC4/LED_ISR.c **** }
 482              		.loc 1 405 0
 483 000a BD46     		mov	sp, r7
 484              		@ sp needed
 485 000c 80BD     		pop	{r7, pc}
 486              	.L40:
 487 000e C046     		.align	2
 488              	.L39:
 489 0010 80E200E0 		.word	-536812928
 490              		.cfi_endproc
 491              	.LFE46:
 492              		.size	LED_ISR_ClearPending, .-LED_ISR_ClearPending
 493              		.text
 494              	.Letext0:
 495              		.file 2 "Generated_Source\\PSoC4/cytypes.h"