ARM GAS  C:\Users\kylep\AppData\Local\Temp\cc5rN3fG.s 			page 1


   1              		.cpu cortex-m0
   2              		.fpu softvfp
   3              		.eabi_attribute 20, 1
   4              		.eabi_attribute 21, 1
   5              		.eabi_attribute 23, 3
   6              		.eabi_attribute 24, 1
   7              		.eabi_attribute 25, 1
   8              		.eabi_attribute 26, 1
   9              		.eabi_attribute 30, 6
  10              		.eabi_attribute 34, 0
  11              		.eabi_attribute 18, 4
  12              		.code	16
  13              		.file	"motorControl.c"
  14              		.text
  15              	.Ltext0:
  16              		.cfi_sections	.debug_frame
  17              		.section	.text.initializeMotor,"ax",%progbits
  18              		.align	2
  19              		.global	initializeMotor
  20              		.code	16
  21              		.thumb_func
  22              		.type	initializeMotor, %function
  23              	initializeMotor:
  24              	.LFB34:
  25              		.file 1 ".\\motorControl.c"
   1:.\motorControl.c **** /* ========================================
   2:.\motorControl.c ****  *
   3:.\motorControl.c ****  * Copyright YOUR COMPANY, THE YEAR
   4:.\motorControl.c ****  * All Rights Reserved
   5:.\motorControl.c ****  * UNPUBLISHED, LICENSED SOFTWARE.
   6:.\motorControl.c ****  *
   7:.\motorControl.c ****  * CONFIDENTIAL AND PROPRIETARY INFORMATION
   8:.\motorControl.c ****  * WHICH IS THE PROPERTY OF your company.
   9:.\motorControl.c ****  *
  10:.\motorControl.c ****  * ========================================
  11:.\motorControl.c **** */
  12:.\motorControl.c **** 
  13:.\motorControl.c **** #include "motorControl.h"
  14:.\motorControl.c **** 
  15:.\motorControl.c **** /*******************************************************************************
  16:.\motorControl.c **** * Function Name: initializeMotor
  17:.\motorControl.c **** ********************************************************************************
  18:.\motorControl.c **** *
  19:.\motorControl.c **** * Summary:
  20:.\motorControl.c **** *  Inititates the motor PWM module
  21:.\motorControl.c **** *
  22:.\motorControl.c **** * Parameters:  
  23:.\motorControl.c **** *   None
  24:.\motorControl.c **** *
  25:.\motorControl.c **** * Return:
  26:.\motorControl.c **** *   None
  27:.\motorControl.c **** *
  28:.\motorControl.c **** *******************************************************************************/
  29:.\motorControl.c **** void initializeMotor(void)
  30:.\motorControl.c **** {  
  26              		.loc 1 30 0
  27              		.cfi_startproc
ARM GAS  C:\Users\kylep\AppData\Local\Temp\cc5rN3fG.s 			page 2


  28 0000 80B5     		push	{r7, lr}
  29              		.cfi_def_cfa_offset 8
  30              		.cfi_offset 7, -8
  31              		.cfi_offset 14, -4
  32 0002 00AF     		add	r7, sp, #0
  33              		.cfi_def_cfa_register 7
  31:.\motorControl.c ****     pwmClock_Enable();
  34              		.loc 1 31 0
  35 0004 FFF7FEFF 		bl	pwmClock_Start
  32:.\motorControl.c ****     motorControlPWM_Start();
  36              		.loc 1 32 0
  37 0008 FFF7FEFF 		bl	motorControlPWM_Start
  33:.\motorControl.c ****     motorControlPWM_SetCompareMode(motorControlPWM__B_PWM__LESS_THAN);
  38              		.loc 1 33 0
  39 000c 0120     		mov	r0, #1
  40 000e FFF7FEFF 		bl	motorControlPWM_SetCompareMode
  34:.\motorControl.c ****     motorControlPWM_WriteCompare(0x00);
  41              		.loc 1 34 0
  42 0012 0020     		mov	r0, #0
  43 0014 FFF7FEFF 		bl	motorControlPWM_WriteCompare
  35:.\motorControl.c ****     //aMux_Start();
  36:.\motorControl.c **** }
  44              		.loc 1 36 0
  45 0018 BD46     		mov	sp, r7
  46              		@ sp needed
  47 001a 80BD     		pop	{r7, pc}
  48              		.cfi_endproc
  49              	.LFE34:
  50              		.size	initializeMotor, .-initializeMotor
  51              		.section	.text.setMotorOutputs,"ax",%progbits
  52              		.align	2
  53              		.global	setMotorOutputs
  54              		.code	16
  55              		.thumb_func
  56              		.type	setMotorOutputs, %function
  57              	setMotorOutputs:
  58              	.LFB35:
  37:.\motorControl.c **** 
  38:.\motorControl.c **** /*******************************************************************************
  39:.\motorControl.c **** * Function Name: setMotorOutputs
  40:.\motorControl.c **** ********************************************************************************
  41:.\motorControl.c **** *
  42:.\motorControl.c **** * Summary:
  43:.\motorControl.c **** *  Inititates the calibration sequence for the motor
  44:.\motorControl.c **** *
  45:.\motorControl.c **** * Parameters:  
  46:.\motorControl.c **** *   Direction: 00 BRAKE
  47:.\motorControl.c **** *              01 Forward
  48:.\motorControl.c **** *              10 Reverse
  49:.\motorControl.c **** *   Speed:     0-255 Steps of control
  50:.\motorControl.c **** *
  51:.\motorControl.c **** * Return:
  52:.\motorControl.c **** *   None
  53:.\motorControl.c **** *
  54:.\motorControl.c **** *******************************************************************************/
  55:.\motorControl.c **** 
  56:.\motorControl.c **** 
ARM GAS  C:\Users\kylep\AppData\Local\Temp\cc5rN3fG.s 			page 3


  57:.\motorControl.c **** void setMotorOutputs(Direction direction, Speed speed)
  58:.\motorControl.c **** {
  59              		.loc 1 58 0
  60              		.cfi_startproc
  61 0000 80B5     		push	{r7, lr}
  62              		.cfi_def_cfa_offset 8
  63              		.cfi_offset 7, -8
  64              		.cfi_offset 14, -4
  65 0002 82B0     		sub	sp, sp, #8
  66              		.cfi_def_cfa_offset 16
  67 0004 00AF     		add	r7, sp, #0
  68              		.cfi_def_cfa_register 7
  69 0006 021C     		mov	r2, r0
  70 0008 FB1D     		add	r3, r7, #7
  71 000a 1A70     		strb	r2, [r3]
  72 000c BB1D     		add	r3, r7, #6
  73 000e 0A1C     		add	r2, r1, #0
  74 0010 1A70     		strb	r2, [r3]
  59:.\motorControl.c ****     if(direction == FORWARD)
  75              		.loc 1 59 0
  76 0012 FB1D     		add	r3, r7, #7
  77 0014 1B78     		ldrb	r3, [r3]
  78 0016 012B     		cmp	r3, #1
  79 0018 0CD1     		bne	.L3
  60:.\motorControl.c ****     {
  61:.\motorControl.c ****         MOTOR_OUTB_LOW;
  80              		.loc 1 61 0
  81 001a 234B     		ldr	r3, .L7
  82 001c 224A     		ldr	r2, .L7
  83 001e 1268     		ldr	r2, [r2]
  84 0020 4021     		mov	r1, #64
  85 0022 8A43     		bic	r2, r1
  86 0024 1A60     		str	r2, [r3]
  62:.\motorControl.c ****         MOTOR_OUTA_HIGH;
  87              		.loc 1 62 0
  88 0026 204B     		ldr	r3, .L7
  89 0028 1F4A     		ldr	r2, .L7
  90 002a 1268     		ldr	r2, [r2]
  91 002c 0421     		mov	r1, #4
  92 002e 0A43     		orr	r2, r1
  93 0030 1A60     		str	r2, [r3]
  94 0032 31E0     		b	.L4
  95              	.L3:
  63:.\motorControl.c ****     }
  64:.\motorControl.c ****     else if(direction == BACKWARDS)
  96              		.loc 1 64 0
  97 0034 FB1D     		add	r3, r7, #7
  98 0036 1B78     		ldrb	r3, [r3]
  99 0038 0A2B     		cmp	r3, #10
 100 003a 0CD1     		bne	.L5
  65:.\motorControl.c ****     {
  66:.\motorControl.c ****         MOTOR_OUTB_HIGH;
 101              		.loc 1 66 0
 102 003c 1A4B     		ldr	r3, .L7
 103 003e 1A4A     		ldr	r2, .L7
 104 0040 1268     		ldr	r2, [r2]
 105 0042 4021     		mov	r1, #64
ARM GAS  C:\Users\kylep\AppData\Local\Temp\cc5rN3fG.s 			page 4


 106 0044 0A43     		orr	r2, r1
 107 0046 1A60     		str	r2, [r3]
  67:.\motorControl.c ****         MOTOR_OUTA_LOW;
 108              		.loc 1 67 0
 109 0048 174B     		ldr	r3, .L7
 110 004a 174A     		ldr	r2, .L7
 111 004c 1268     		ldr	r2, [r2]
 112 004e 0421     		mov	r1, #4
 113 0050 8A43     		bic	r2, r1
 114 0052 1A60     		str	r2, [r3]
 115 0054 20E0     		b	.L4
 116              	.L5:
  68:.\motorControl.c ****     }
  69:.\motorControl.c ****     else if(direction == BRAKE)
 117              		.loc 1 69 0
 118 0056 FB1D     		add	r3, r7, #7
 119 0058 1B78     		ldrb	r3, [r3]
 120 005a 002B     		cmp	r3, #0
 121 005c 0CD1     		bne	.L6
  70:.\motorControl.c ****     {
  71:.\motorControl.c ****         MOTOR_OUTB_LOW;
 122              		.loc 1 71 0
 123 005e 124B     		ldr	r3, .L7
 124 0060 114A     		ldr	r2, .L7
 125 0062 1268     		ldr	r2, [r2]
 126 0064 4021     		mov	r1, #64
 127 0066 8A43     		bic	r2, r1
 128 0068 1A60     		str	r2, [r3]
  72:.\motorControl.c ****         MOTOR_OUTA_LOW;
 129              		.loc 1 72 0
 130 006a 0F4B     		ldr	r3, .L7
 131 006c 0E4A     		ldr	r2, .L7
 132 006e 1268     		ldr	r2, [r2]
 133 0070 0421     		mov	r1, #4
 134 0072 8A43     		bic	r2, r1
 135 0074 1A60     		str	r2, [r3]
 136 0076 0FE0     		b	.L4
 137              	.L6:
  73:.\motorControl.c ****     }
  74:.\motorControl.c ****     else if(direction == OFF_NOTHING)
 138              		.loc 1 74 0
 139 0078 FB1D     		add	r3, r7, #7
 140 007a 1B78     		ldrb	r3, [r3]
 141 007c 032B     		cmp	r3, #3
 142 007e 0BD1     		bne	.L4
  75:.\motorControl.c ****     {
  76:.\motorControl.c ****         MOTOR_OUTB_HIGH;
 143              		.loc 1 76 0
 144 0080 094B     		ldr	r3, .L7
 145 0082 094A     		ldr	r2, .L7
 146 0084 1268     		ldr	r2, [r2]
 147 0086 4021     		mov	r1, #64
 148 0088 0A43     		orr	r2, r1
 149 008a 1A60     		str	r2, [r3]
  77:.\motorControl.c ****         MOTOR_OUTA_HIGH;
 150              		.loc 1 77 0
 151 008c 064B     		ldr	r3, .L7
ARM GAS  C:\Users\kylep\AppData\Local\Temp\cc5rN3fG.s 			page 5


 152 008e 064A     		ldr	r2, .L7
 153 0090 1268     		ldr	r2, [r2]
 154 0092 0421     		mov	r1, #4
 155 0094 0A43     		orr	r2, r1
 156 0096 1A60     		str	r2, [r3]
 157              	.L4:
  78:.\motorControl.c ****     }
  79:.\motorControl.c ****     
  80:.\motorControl.c ****     motorControlPWM_WriteCompare(speed);
 158              		.loc 1 80 0
 159 0098 BB1D     		add	r3, r7, #6
 160 009a 1B78     		ldrb	r3, [r3]
 161 009c 181C     		mov	r0, r3
 162 009e FFF7FEFF 		bl	motorControlPWM_WriteCompare
  81:.\motorControl.c **** }...
 163              		.loc 1 81 0
 164 00a2 BD46     		mov	sp, r7
 165 00a4 02B0     		add	sp, sp, #8
 166              		@ sp needed
 167 00a6 80BD     		pop	{r7, pc}
 168              	.L8:
 169              		.align	2
 170              	.L7:
 171 00a8 00000440 		.word	1074003968
 172              		.cfi_endproc
 173              	.LFE35:
 174              		.size	setMotorOutputs, .-setMotorOutputs
 175              		.text
 176              	.Letext0:
 177              		.file 2 "Generated_Source\\PSoC4/cytypes.h"
 178              		.file 3 ".\\motorControl.h"