ARM GAS  C:\Users\kylep\AppData\Local\Temp\ccAfBM1T.s 			page 1


   1              		.cpu cortex-m0
   2              		.fpu softvfp
   3              		.eabi_attribute 20, 1
   4              		.eabi_attribute 21, 1
   5              		.eabi_attribute 23, 3
   6              		.eabi_attribute 24, 1
   7              		.eabi_attribute 25, 1
   8              		.eabi_attribute 26, 1
   9              		.eabi_attribute 30, 6
  10              		.eabi_attribute 34, 0
  11              		.eabi_attribute 18, 4
  12              		.code	16
  13              		.file	"SamplingTimerISR.c"
  14              		.text
  15              	.Ltext0:
  16              		.cfi_sections	.debug_frame
  17              		.section	.text.SamplingTimerISR_Start,"ax",%progbits
  18              		.align	2
  19              		.global	SamplingTimerISR_Start
  20              		.code	16
  21              		.thumb_func
  22              		.type	SamplingTimerISR_Start, %function
  23              	SamplingTimerISR_Start:
  24              	.LFB34:
  25              		.file 1 ".\\Generated_Source\\PSoC4\\SamplingTimerISR.c"
   1:.\Generated_Source\PSoC4/SamplingTimerISR.c **** /*******************************************************************************
   2:.\Generated_Source\PSoC4/SamplingTimerISR.c **** * File Name: SamplingTimerISR.c  
   3:.\Generated_Source\PSoC4/SamplingTimerISR.c **** * Version 1.70
   4:.\Generated_Source\PSoC4/SamplingTimerISR.c **** *
   5:.\Generated_Source\PSoC4/SamplingTimerISR.c **** *  Description:
   6:.\Generated_Source\PSoC4/SamplingTimerISR.c **** *   API for controlling the state of an interrupt.
   7:.\Generated_Source\PSoC4/SamplingTimerISR.c **** *
   8:.\Generated_Source\PSoC4/SamplingTimerISR.c **** *
   9:.\Generated_Source\PSoC4/SamplingTimerISR.c **** *  Note:
  10:.\Generated_Source\PSoC4/SamplingTimerISR.c **** *
  11:.\Generated_Source\PSoC4/SamplingTimerISR.c **** ********************************************************************************
  12:.\Generated_Source\PSoC4/SamplingTimerISR.c **** * Copyright 2008-2015, Cypress Semiconductor Corporation.  All rights reserved.
  13:.\Generated_Source\PSoC4/SamplingTimerISR.c **** * You may use this file only in accordance with the license, terms, conditions, 
  14:.\Generated_Source\PSoC4/SamplingTimerISR.c **** * disclaimers, and limitations in the end user license agreement accompanying 
  15:.\Generated_Source\PSoC4/SamplingTimerISR.c **** * the software package with which this file was provided.
  16:.\Generated_Source\PSoC4/SamplingTimerISR.c **** *******************************************************************************/
  17:.\Generated_Source\PSoC4/SamplingTimerISR.c **** 
  18:.\Generated_Source\PSoC4/SamplingTimerISR.c **** 
  19:.\Generated_Source\PSoC4/SamplingTimerISR.c **** #include <cydevice_trm.h>
  20:.\Generated_Source\PSoC4/SamplingTimerISR.c **** #include <CyLib.h>
  21:.\Generated_Source\PSoC4/SamplingTimerISR.c **** #include <SamplingTimerISR.h>
  22:.\Generated_Source\PSoC4/SamplingTimerISR.c **** 
  23:.\Generated_Source\PSoC4/SamplingTimerISR.c **** 
  24:.\Generated_Source\PSoC4/SamplingTimerISR.c **** #if !defined(SamplingTimerISR__REMOVED) /* Check for removal by optimization */
  25:.\Generated_Source\PSoC4/SamplingTimerISR.c **** 
  26:.\Generated_Source\PSoC4/SamplingTimerISR.c **** /*******************************************************************************
  27:.\Generated_Source\PSoC4/SamplingTimerISR.c **** *  Place your includes, defines and code here 
  28:.\Generated_Source\PSoC4/SamplingTimerISR.c **** ********************************************************************************/
  29:.\Generated_Source\PSoC4/SamplingTimerISR.c **** /* `#START SamplingTimerISR_intc` */
  30:.\Generated_Source\PSoC4/SamplingTimerISR.c **** 
  31:.\Generated_Source\PSoC4/SamplingTimerISR.c **** #include "TemperatureCommManager.h"
  32:.\Generated_Source\PSoC4/SamplingTimerISR.c **** 
ARM GAS  C:\Users\kylep\AppData\Local\Temp\ccAfBM1T.s 			page 2


  33:.\Generated_Source\PSoC4/SamplingTimerISR.c **** /* `#END` */
  34:.\Generated_Source\PSoC4/SamplingTimerISR.c **** 
  35:.\Generated_Source\PSoC4/SamplingTimerISR.c **** extern cyisraddress CyRamVectors[CYINT_IRQ_BASE + CY_NUM_INTERRUPTS];
  36:.\Generated_Source\PSoC4/SamplingTimerISR.c **** 
  37:.\Generated_Source\PSoC4/SamplingTimerISR.c **** /* Declared in startup, used to set unused interrupts to. */
  38:.\Generated_Source\PSoC4/SamplingTimerISR.c **** CY_ISR_PROTO(IntDefaultHandler);
  39:.\Generated_Source\PSoC4/SamplingTimerISR.c **** 
  40:.\Generated_Source\PSoC4/SamplingTimerISR.c **** 
  41:.\Generated_Source\PSoC4/SamplingTimerISR.c **** /*******************************************************************************
  42:.\Generated_Source\PSoC4/SamplingTimerISR.c **** * Function Name: SamplingTimerISR_Start
  43:.\Generated_Source\PSoC4/SamplingTimerISR.c **** ********************************************************************************
  44:.\Generated_Source\PSoC4/SamplingTimerISR.c **** *
  45:.\Generated_Source\PSoC4/SamplingTimerISR.c **** * Summary:
  46:.\Generated_Source\PSoC4/SamplingTimerISR.c **** *  Set up the interrupt and enable it. This function disables the interrupt, 
  47:.\Generated_Source\PSoC4/SamplingTimerISR.c **** *  sets the default interrupt vector, sets the priority from the value in the
  48:.\Generated_Source\PSoC4/SamplingTimerISR.c **** *  Design Wide Resources Interrupt Editor, then enables the interrupt to the 
  49:.\Generated_Source\PSoC4/SamplingTimerISR.c **** *  interrupt controller.
  50:.\Generated_Source\PSoC4/SamplingTimerISR.c **** *
  51:.\Generated_Source\PSoC4/SamplingTimerISR.c **** * Parameters:  
  52:.\Generated_Source\PSoC4/SamplingTimerISR.c **** *   None
  53:.\Generated_Source\PSoC4/SamplingTimerISR.c **** *
  54:.\Generated_Source\PSoC4/SamplingTimerISR.c **** * Return:
  55:.\Generated_Source\PSoC4/SamplingTimerISR.c **** *   None
  56:.\Generated_Source\PSoC4/SamplingTimerISR.c **** *
  57:.\Generated_Source\PSoC4/SamplingTimerISR.c **** *******************************************************************************/
  58:.\Generated_Source\PSoC4/SamplingTimerISR.c **** void SamplingTimerISR_Start(void)
  59:.\Generated_Source\PSoC4/SamplingTimerISR.c **** {
  26              		.loc 1 59 0
  27              		.cfi_startproc
  28 0000 80B5     		push	{r7, lr}
  29              		.cfi_def_cfa_offset 8
  30              		.cfi_offset 7, -8
  31              		.cfi_offset 14, -4
  32 0002 00AF     		add	r7, sp, #0
  33              		.cfi_def_cfa_register 7
  60:.\Generated_Source\PSoC4/SamplingTimerISR.c ****     /* For all we know the interrupt is active. */
  61:.\Generated_Source\PSoC4/SamplingTimerISR.c ****     SamplingTimerISR_Disable();
  34              		.loc 1 61 0
  35 0004 FFF7FEFF 		bl	SamplingTimerISR_Disable
  62:.\Generated_Source\PSoC4/SamplingTimerISR.c **** 
  63:.\Generated_Source\PSoC4/SamplingTimerISR.c ****     /* Set the ISR to point to the SamplingTimerISR Interrupt. */
  64:.\Generated_Source\PSoC4/SamplingTimerISR.c ****     SamplingTimerISR_SetVector(&SamplingTimerISR_Interrupt);
  36              		.loc 1 64 0
  37 0008 054B     		ldr	r3, .L2
  38 000a 181C     		mov	r0, r3
  39 000c FFF7FEFF 		bl	SamplingTimerISR_SetVector
  65:.\Generated_Source\PSoC4/SamplingTimerISR.c **** 
  66:.\Generated_Source\PSoC4/SamplingTimerISR.c ****     /* Set the priority. */
  67:.\Generated_Source\PSoC4/SamplingTimerISR.c ****     SamplingTimerISR_SetPriority((uint8)SamplingTimerISR_INTC_PRIOR_NUMBER);
  40              		.loc 1 67 0
  41 0010 0320     		mov	r0, #3
  42 0012 FFF7FEFF 		bl	SamplingTimerISR_SetPriority
  68:.\Generated_Source\PSoC4/SamplingTimerISR.c **** 
  69:.\Generated_Source\PSoC4/SamplingTimerISR.c ****     /* Enable it. */
  70:.\Generated_Source\PSoC4/SamplingTimerISR.c ****     SamplingTimerISR_Enable();
  43              		.loc 1 70 0
  44 0016 FFF7FEFF 		bl	SamplingTimerISR_Enable
ARM GAS  C:\Users\kylep\AppData\Local\Temp\ccAfBM1T.s 			page 3


  71:.\Generated_Source\PSoC4/SamplingTimerISR.c **** }
  45              		.loc 1 71 0
  46 001a BD46     		mov	sp, r7
  47              		@ sp needed
  48 001c 80BD     		pop	{r7, pc}
  49              	.L3:
  50 001e C046     		.align	2
  51              	.L2:
  52 0020 00000000 		.word	SamplingTimerISR_Interrupt
  53              		.cfi_endproc
  54              	.LFE34:
  55              		.size	SamplingTimerISR_Start, .-SamplingTimerISR_Start
  56              		.section	.text.SamplingTimerISR_StartEx,"ax",%progbits
  57              		.align	2
  58              		.global	SamplingTimerISR_StartEx
  59              		.code	16
  60              		.thumb_func
  61              		.type	SamplingTimerISR_StartEx, %function
  62              	SamplingTimerISR_StartEx:
  63              	.LFB35:
  72:.\Generated_Source\PSoC4/SamplingTimerISR.c **** 
  73:.\Generated_Source\PSoC4/SamplingTimerISR.c **** 
  74:.\Generated_Source\PSoC4/SamplingTimerISR.c **** /*******************************************************************************
  75:.\Generated_Source\PSoC4/SamplingTimerISR.c **** * Function Name: SamplingTimerISR_StartEx
  76:.\Generated_Source\PSoC4/SamplingTimerISR.c **** ********************************************************************************
  77:.\Generated_Source\PSoC4/SamplingTimerISR.c **** *
  78:.\Generated_Source\PSoC4/SamplingTimerISR.c **** * Summary:
  79:.\Generated_Source\PSoC4/SamplingTimerISR.c **** *  Sets up the interrupt and enables it. This function disables the interrupt,
  80:.\Generated_Source\PSoC4/SamplingTimerISR.c **** *  sets the interrupt vector based on the address passed in, sets the priority 
  81:.\Generated_Source\PSoC4/SamplingTimerISR.c **** *  from the value in the Design Wide Resources Interrupt Editor, then enables 
  82:.\Generated_Source\PSoC4/SamplingTimerISR.c **** *  the interrupt to the interrupt controller.
  83:.\Generated_Source\PSoC4/SamplingTimerISR.c **** *  
  84:.\Generated_Source\PSoC4/SamplingTimerISR.c **** *  When defining ISR functions, the CY_ISR and CY_ISR_PROTO macros should be 
  85:.\Generated_Source\PSoC4/SamplingTimerISR.c **** *  used to provide consistent definition across compilers:
  86:.\Generated_Source\PSoC4/SamplingTimerISR.c **** *  
  87:.\Generated_Source\PSoC4/SamplingTimerISR.c **** *  Function definition example:
  88:.\Generated_Source\PSoC4/SamplingTimerISR.c **** *   CY_ISR(MyISR)
  89:.\Generated_Source\PSoC4/SamplingTimerISR.c **** *   {
  90:.\Generated_Source\PSoC4/SamplingTimerISR.c **** *   }
  91:.\Generated_Source\PSoC4/SamplingTimerISR.c **** *   Function prototype example:
  92:.\Generated_Source\PSoC4/SamplingTimerISR.c **** *   CY_ISR_PROTO(MyISR);
  93:.\Generated_Source\PSoC4/SamplingTimerISR.c **** *
  94:.\Generated_Source\PSoC4/SamplingTimerISR.c **** * Parameters:  
  95:.\Generated_Source\PSoC4/SamplingTimerISR.c **** *   address: Address of the ISR to set in the interrupt vector table.
  96:.\Generated_Source\PSoC4/SamplingTimerISR.c **** *
  97:.\Generated_Source\PSoC4/SamplingTimerISR.c **** * Return:
  98:.\Generated_Source\PSoC4/SamplingTimerISR.c **** *   None
  99:.\Generated_Source\PSoC4/SamplingTimerISR.c **** *
 100:.\Generated_Source\PSoC4/SamplingTimerISR.c **** *******************************************************************************/
 101:.\Generated_Source\PSoC4/SamplingTimerISR.c **** void SamplingTimerISR_StartEx(cyisraddress address)
 102:.\Generated_Source\PSoC4/SamplingTimerISR.c **** {
  64              		.loc 1 102 0
  65              		.cfi_startproc
  66 0000 80B5     		push	{r7, lr}
  67              		.cfi_def_cfa_offset 8
  68              		.cfi_offset 7, -8
  69              		.cfi_offset 14, -4
ARM GAS  C:\Users\kylep\AppData\Local\Temp\ccAfBM1T.s 			page 4


  70 0002 82B0     		sub	sp, sp, #8
  71              		.cfi_def_cfa_offset 16
  72 0004 00AF     		add	r7, sp, #0
  73              		.cfi_def_cfa_register 7
  74 0006 7860     		str	r0, [r7, #4]
 103:.\Generated_Source\PSoC4/SamplingTimerISR.c ****     /* For all we know the interrupt is active. */
 104:.\Generated_Source\PSoC4/SamplingTimerISR.c ****     SamplingTimerISR_Disable();
  75              		.loc 1 104 0
  76 0008 FFF7FEFF 		bl	SamplingTimerISR_Disable
 105:.\Generated_Source\PSoC4/SamplingTimerISR.c **** 
 106:.\Generated_Source\PSoC4/SamplingTimerISR.c ****     /* Set the ISR to point to the SamplingTimerISR Interrupt. */
 107:.\Generated_Source\PSoC4/SamplingTimerISR.c ****     SamplingTimerISR_SetVector(address);
  77              		.loc 1 107 0
  78 000c 7B68     		ldr	r3, [r7, #4]
  79 000e 181C     		mov	r0, r3
  80 0010 FFF7FEFF 		bl	SamplingTimerISR_SetVector
 108:.\Generated_Source\PSoC4/SamplingTimerISR.c **** 
 109:.\Generated_Source\PSoC4/SamplingTimerISR.c ****     /* Set the priority. */
 110:.\Generated_Source\PSoC4/SamplingTimerISR.c ****     SamplingTimerISR_SetPriority((uint8)SamplingTimerISR_INTC_PRIOR_NUMBER);
  81              		.loc 1 110 0
  82 0014 0320     		mov	r0, #3
  83 0016 FFF7FEFF 		bl	SamplingTimerISR_SetPriority
 111:.\Generated_Source\PSoC4/SamplingTimerISR.c **** 
 112:.\Generated_Source\PSoC4/SamplingTimerISR.c ****     /* Enable it. */
 113:.\Generated_Source\PSoC4/SamplingTimerISR.c ****     SamplingTimerISR_Enable();
  84              		.loc 1 113 0
  85 001a FFF7FEFF 		bl	SamplingTimerISR_Enable
 114:.\Generated_Source\PSoC4/SamplingTimerISR.c **** }
  86              		.loc 1 114 0
  87 001e BD46     		mov	sp, r7
  88 0020 02B0     		add	sp, sp, #8
  89              		@ sp needed
  90 0022 80BD     		pop	{r7, pc}
  91              		.cfi_endproc
  92              	.LFE35:
  93              		.size	SamplingTimerISR_StartEx, .-SamplingTimerISR_StartEx
  94              		.section	.text.SamplingTimerISR_Stop,"ax",%progbits
  95              		.align	2
  96              		.global	SamplingTimerISR_Stop
  97              		.code	16
  98              		.thumb_func
  99              		.type	SamplingTimerISR_Stop, %function
 100              	SamplingTimerISR_Stop:
 101              	.LFB36:
 115:.\Generated_Source\PSoC4/SamplingTimerISR.c **** 
 116:.\Generated_Source\PSoC4/SamplingTimerISR.c **** 
 117:.\Generated_Source\PSoC4/SamplingTimerISR.c **** /*******************************************************************************
 118:.\Generated_Source\PSoC4/SamplingTimerISR.c **** * Function Name: SamplingTimerISR_Stop
 119:.\Generated_Source\PSoC4/SamplingTimerISR.c **** ********************************************************************************
 120:.\Generated_Source\PSoC4/SamplingTimerISR.c **** *
 121:.\Generated_Source\PSoC4/SamplingTimerISR.c **** * Summary:
 122:.\Generated_Source\PSoC4/SamplingTimerISR.c **** *   Disables and removes the interrupt.
 123:.\Generated_Source\PSoC4/SamplingTimerISR.c **** *
 124:.\Generated_Source\PSoC4/SamplingTimerISR.c **** * Parameters:  
 125:.\Generated_Source\PSoC4/SamplingTimerISR.c **** *   None
 126:.\Generated_Source\PSoC4/SamplingTimerISR.c **** *
 127:.\Generated_Source\PSoC4/SamplingTimerISR.c **** * Return:
ARM GAS  C:\Users\kylep\AppData\Local\Temp\ccAfBM1T.s 			page 5


 128:.\Generated_Source\PSoC4/SamplingTimerISR.c **** *   None
 129:.\Generated_Source\PSoC4/SamplingTimerISR.c **** *
 130:.\Generated_Source\PSoC4/SamplingTimerISR.c **** *******************************************************************************/
 131:.\Generated_Source\PSoC4/SamplingTimerISR.c **** void SamplingTimerISR_Stop(void)
 132:.\Generated_Source\PSoC4/SamplingTimerISR.c **** {
 102              		.loc 1 132 0
 103              		.cfi_startproc
 104 0000 80B5     		push	{r7, lr}
 105              		.cfi_def_cfa_offset 8
 106              		.cfi_offset 7, -8
 107              		.cfi_offset 14, -4
 108 0002 00AF     		add	r7, sp, #0
 109              		.cfi_def_cfa_register 7
 133:.\Generated_Source\PSoC4/SamplingTimerISR.c ****     /* Disable this interrupt. */
 134:.\Generated_Source\PSoC4/SamplingTimerISR.c ****     SamplingTimerISR_Disable();
 110              		.loc 1 134 0
 111 0004 FFF7FEFF 		bl	SamplingTimerISR_Disable
 135:.\Generated_Source\PSoC4/SamplingTimerISR.c **** 
 136:.\Generated_Source\PSoC4/SamplingTimerISR.c ****     /* Set the ISR to point to the passive one. */
 137:.\Generated_Source\PSoC4/SamplingTimerISR.c ****     SamplingTimerISR_SetVector(&IntDefaultHandler);
 112              		.loc 1 137 0
 113 0008 024B     		ldr	r3, .L6
 114 000a 181C     		mov	r0, r3
 115 000c FFF7FEFF 		bl	SamplingTimerISR_SetVector
 138:.\Generated_Source\PSoC4/SamplingTimerISR.c **** }
 116              		.loc 1 138 0
 117 0010 BD46     		mov	sp, r7
 118              		@ sp needed
 119 0012 80BD     		pop	{r7, pc}
 120              	.L7:
 121              		.align	2
 122              	.L6:
 123 0014 00000000 		.word	IntDefaultHandler
 124              		.cfi_endproc
 125              	.LFE36:
 126              		.size	SamplingTimerISR_Stop, .-SamplingTimerISR_Stop
 127              		.section	.text.SamplingTimerISR_Interrupt,"ax",%progbits
 128              		.align	2
 129              		.global	SamplingTimerISR_Interrupt
 130              		.code	16
 131              		.thumb_func
 132              		.type	SamplingTimerISR_Interrupt, %function
 133              	SamplingTimerISR_Interrupt:
 134              	.LFB37:
 139:.\Generated_Source\PSoC4/SamplingTimerISR.c **** 
 140:.\Generated_Source\PSoC4/SamplingTimerISR.c **** 
 141:.\Generated_Source\PSoC4/SamplingTimerISR.c **** /*******************************************************************************
 142:.\Generated_Source\PSoC4/SamplingTimerISR.c **** * Function Name: SamplingTimerISR_Interrupt
 143:.\Generated_Source\PSoC4/SamplingTimerISR.c **** ********************************************************************************
 144:.\Generated_Source\PSoC4/SamplingTimerISR.c **** *
 145:.\Generated_Source\PSoC4/SamplingTimerISR.c **** * Summary:
 146:.\Generated_Source\PSoC4/SamplingTimerISR.c **** *   The default Interrupt Service Routine for SamplingTimerISR.
 147:.\Generated_Source\PSoC4/SamplingTimerISR.c **** *
 148:.\Generated_Source\PSoC4/SamplingTimerISR.c **** *   Add custom code between the START and END comments to keep the next version
 149:.\Generated_Source\PSoC4/SamplingTimerISR.c **** *   of this file from over-writing your code.
 150:.\Generated_Source\PSoC4/SamplingTimerISR.c **** *
 151:.\Generated_Source\PSoC4/SamplingTimerISR.c **** *   Note You may use either the default ISR by using this API, or you may define
ARM GAS  C:\Users\kylep\AppData\Local\Temp\ccAfBM1T.s 			page 6


 152:.\Generated_Source\PSoC4/SamplingTimerISR.c **** *   your own separate ISR through ISR_StartEx().
 153:.\Generated_Source\PSoC4/SamplingTimerISR.c **** *
 154:.\Generated_Source\PSoC4/SamplingTimerISR.c **** * Parameters:  
 155:.\Generated_Source\PSoC4/SamplingTimerISR.c **** *   None
 156:.\Generated_Source\PSoC4/SamplingTimerISR.c **** *
 157:.\Generated_Source\PSoC4/SamplingTimerISR.c **** * Return:
 158:.\Generated_Source\PSoC4/SamplingTimerISR.c **** *   None
 159:.\Generated_Source\PSoC4/SamplingTimerISR.c **** *
 160:.\Generated_Source\PSoC4/SamplingTimerISR.c **** *******************************************************************************/
 161:.\Generated_Source\PSoC4/SamplingTimerISR.c **** CY_ISR(SamplingTimerISR_Interrupt)
 162:.\Generated_Source\PSoC4/SamplingTimerISR.c **** {
 135              		.loc 1 162 0
 136              		.cfi_startproc
 137 0000 80B5     		push	{r7, lr}
 138              		.cfi_def_cfa_offset 8
 139              		.cfi_offset 7, -8
 140              		.cfi_offset 14, -4
 141 0002 00AF     		add	r7, sp, #0
 142              		.cfi_def_cfa_register 7
 163:.\Generated_Source\PSoC4/SamplingTimerISR.c ****     #ifdef SamplingTimerISR_INTERRUPT_INTERRUPT_CALLBACK
 164:.\Generated_Source\PSoC4/SamplingTimerISR.c ****         SamplingTimerISR_Interrupt_InterruptCallback();
 165:.\Generated_Source\PSoC4/SamplingTimerISR.c ****     #endif /* SamplingTimerISR_INTERRUPT_INTERRUPT_CALLBACK */ 
 166:.\Generated_Source\PSoC4/SamplingTimerISR.c **** 
 167:.\Generated_Source\PSoC4/SamplingTimerISR.c ****     /*  Place your Interrupt code here. */
 168:.\Generated_Source\PSoC4/SamplingTimerISR.c ****     /* `#START SamplingTimerISR_Interrupt` */
 169:.\Generated_Source\PSoC4/SamplingTimerISR.c **** 
 170:.\Generated_Source\PSoC4/SamplingTimerISR.c ****     
 171:.\Generated_Source\PSoC4/SamplingTimerISR.c ****     
 172:.\Generated_Source\PSoC4/SamplingTimerISR.c ****     processSamplingTimerRoutine();
 143              		.loc 1 172 0
 144 0004 FFF7FEFF 		bl	processSamplingTimerRoutine
 173:.\Generated_Source\PSoC4/SamplingTimerISR.c ****     
 174:.\Generated_Source\PSoC4/SamplingTimerISR.c ****     /* `#END` */
 175:.\Generated_Source\PSoC4/SamplingTimerISR.c **** }
 145              		.loc 1 175 0
 146 0008 BD46     		mov	sp, r7
 147              		@ sp needed
 148 000a 80BD     		pop	{r7, pc}
 149              		.cfi_endproc
 150              	.LFE37:
 151              		.size	SamplingTimerISR_Interrupt, .-SamplingTimerISR_Interrupt
 152              		.section	.text.SamplingTimerISR_SetVector,"ax",%progbits
 153              		.align	2
 154              		.global	SamplingTimerISR_SetVector
 155              		.code	16
 156              		.thumb_func
 157              		.type	SamplingTimerISR_SetVector, %function
 158              	SamplingTimerISR_SetVector:
 159              	.LFB38:
 176:.\Generated_Source\PSoC4/SamplingTimerISR.c **** 
 177:.\Generated_Source\PSoC4/SamplingTimerISR.c **** 
 178:.\Generated_Source\PSoC4/SamplingTimerISR.c **** /*******************************************************************************
 179:.\Generated_Source\PSoC4/SamplingTimerISR.c **** * Function Name: SamplingTimerISR_SetVector
 180:.\Generated_Source\PSoC4/SamplingTimerISR.c **** ********************************************************************************
 181:.\Generated_Source\PSoC4/SamplingTimerISR.c **** *
 182:.\Generated_Source\PSoC4/SamplingTimerISR.c **** * Summary:
 183:.\Generated_Source\PSoC4/SamplingTimerISR.c **** *   Change the ISR vector for the Interrupt. Note calling SamplingTimerISR_Start
ARM GAS  C:\Users\kylep\AppData\Local\Temp\ccAfBM1T.s 			page 7


 184:.\Generated_Source\PSoC4/SamplingTimerISR.c **** *   will override any effect this method would have had. To set the vector 
 185:.\Generated_Source\PSoC4/SamplingTimerISR.c **** *   before the component has been started use SamplingTimerISR_StartEx instead.
 186:.\Generated_Source\PSoC4/SamplingTimerISR.c **** * 
 187:.\Generated_Source\PSoC4/SamplingTimerISR.c **** *   When defining ISR functions, the CY_ISR and CY_ISR_PROTO macros should be 
 188:.\Generated_Source\PSoC4/SamplingTimerISR.c **** *   used to provide consistent definition across compilers:
 189:.\Generated_Source\PSoC4/SamplingTimerISR.c **** *
 190:.\Generated_Source\PSoC4/SamplingTimerISR.c **** *   Function definition example:
 191:.\Generated_Source\PSoC4/SamplingTimerISR.c **** *   CY_ISR(MyISR)
 192:.\Generated_Source\PSoC4/SamplingTimerISR.c **** *   {
 193:.\Generated_Source\PSoC4/SamplingTimerISR.c **** *   }
 194:.\Generated_Source\PSoC4/SamplingTimerISR.c **** *
 195:.\Generated_Source\PSoC4/SamplingTimerISR.c **** *   Function prototype example:
 196:.\Generated_Source\PSoC4/SamplingTimerISR.c **** *     CY_ISR_PROTO(MyISR);
 197:.\Generated_Source\PSoC4/SamplingTimerISR.c **** *
 198:.\Generated_Source\PSoC4/SamplingTimerISR.c **** * Parameters:
 199:.\Generated_Source\PSoC4/SamplingTimerISR.c **** *   address: Address of the ISR to set in the interrupt vector table.
 200:.\Generated_Source\PSoC4/SamplingTimerISR.c **** *
 201:.\Generated_Source\PSoC4/SamplingTimerISR.c **** * Return:
 202:.\Generated_Source\PSoC4/SamplingTimerISR.c **** *   None
 203:.\Generated_Source\PSoC4/SamplingTimerISR.c **** *
 204:.\Generated_Source\PSoC4/SamplingTimerISR.c **** *******************************************************************************/
 205:.\Generated_Source\PSoC4/SamplingTimerISR.c **** void SamplingTimerISR_SetVector(cyisraddress address)
 206:.\Generated_Source\PSoC4/SamplingTimerISR.c **** {
 160              		.loc 1 206 0
 161              		.cfi_startproc
 162 0000 80B5     		push	{r7, lr}
 163              		.cfi_def_cfa_offset 8
 164              		.cfi_offset 7, -8
 165              		.cfi_offset 14, -4
 166 0002 82B0     		sub	sp, sp, #8
 167              		.cfi_def_cfa_offset 16
 168 0004 00AF     		add	r7, sp, #0
 169              		.cfi_def_cfa_register 7
 170 0006 7860     		str	r0, [r7, #4]
 207:.\Generated_Source\PSoC4/SamplingTimerISR.c ****     CyRamVectors[CYINT_IRQ_BASE + SamplingTimerISR__INTC_NUMBER] = address;
 171              		.loc 1 207 0
 172 0008 024B     		ldr	r3, .L10
 173 000a 7A68     		ldr	r2, [r7, #4]
 174 000c 1A65     		str	r2, [r3, #80]
 208:.\Generated_Source\PSoC4/SamplingTimerISR.c **** }
 175              		.loc 1 208 0
 176 000e BD46     		mov	sp, r7
 177 0010 02B0     		add	sp, sp, #8
 178              		@ sp needed
 179 0012 80BD     		pop	{r7, pc}
 180              	.L11:
 181              		.align	2
 182              	.L10:
 183 0014 00000000 		.word	CyRamVectors
 184              		.cfi_endproc
 185              	.LFE38:
 186              		.size	SamplingTimerISR_SetVector, .-SamplingTimerISR_SetVector
 187              		.section	.text.SamplingTimerISR_GetVector,"ax",%progbits
 188              		.align	2
 189              		.global	SamplingTimerISR_GetVector
 190              		.code	16
 191              		.thumb_func
ARM GAS  C:\Users\kylep\AppData\Local\Temp\ccAfBM1T.s 			page 8


 192              		.type	SamplingTimerISR_GetVector, %function
 193              	SamplingTimerISR_GetVector:
 194              	.LFB39:
 209:.\Generated_Source\PSoC4/SamplingTimerISR.c **** 
 210:.\Generated_Source\PSoC4/SamplingTimerISR.c **** 
 211:.\Generated_Source\PSoC4/SamplingTimerISR.c **** /*******************************************************************************
 212:.\Generated_Source\PSoC4/SamplingTimerISR.c **** * Function Name: SamplingTimerISR_GetVector
 213:.\Generated_Source\PSoC4/SamplingTimerISR.c **** ********************************************************************************
 214:.\Generated_Source\PSoC4/SamplingTimerISR.c **** *
 215:.\Generated_Source\PSoC4/SamplingTimerISR.c **** * Summary:
 216:.\Generated_Source\PSoC4/SamplingTimerISR.c **** *   Gets the "address" of the current ISR vector for the Interrupt.
 217:.\Generated_Source\PSoC4/SamplingTimerISR.c **** *
 218:.\Generated_Source\PSoC4/SamplingTimerISR.c **** * Parameters:
 219:.\Generated_Source\PSoC4/SamplingTimerISR.c **** *   None
 220:.\Generated_Source\PSoC4/SamplingTimerISR.c **** *
 221:.\Generated_Source\PSoC4/SamplingTimerISR.c **** * Return:
 222:.\Generated_Source\PSoC4/SamplingTimerISR.c **** *   Address of the ISR in the interrupt vector table.
 223:.\Generated_Source\PSoC4/SamplingTimerISR.c **** *
 224:.\Generated_Source\PSoC4/SamplingTimerISR.c **** *******************************************************************************/
 225:.\Generated_Source\PSoC4/SamplingTimerISR.c **** cyisraddress SamplingTimerISR_GetVector(void)
 226:.\Generated_Source\PSoC4/SamplingTimerISR.c **** {
 195              		.loc 1 226 0
 196              		.cfi_startproc
 197 0000 80B5     		push	{r7, lr}
 198              		.cfi_def_cfa_offset 8
 199              		.cfi_offset 7, -8
 200              		.cfi_offset 14, -4
 201 0002 00AF     		add	r7, sp, #0
 202              		.cfi_def_cfa_register 7
 227:.\Generated_Source\PSoC4/SamplingTimerISR.c ****     return CyRamVectors[CYINT_IRQ_BASE + SamplingTimerISR__INTC_NUMBER];
 203              		.loc 1 227 0
 204 0004 024B     		ldr	r3, .L14
 205 0006 1B6D     		ldr	r3, [r3, #80]
 228:.\Generated_Source\PSoC4/SamplingTimerISR.c **** }
 206              		.loc 1 228 0
 207 0008 181C     		mov	r0, r3
 208 000a BD46     		mov	sp, r7
 209              		@ sp needed
 210 000c 80BD     		pop	{r7, pc}
 211              	.L15:
 212 000e C046     		.align	2
 213              	.L14:
 214 0010 00000000 		.word	CyRamVectors
 215              		.cfi_endproc
 216              	.LFE39:
 217              		.size	SamplingTimerISR_GetVector, .-SamplingTimerISR_GetVector
 218              		.section	.text.SamplingTimerISR_SetPriority,"ax",%progbits
 219              		.align	2
 220              		.global	SamplingTimerISR_SetPriority
 221              		.code	16
 222              		.thumb_func
 223              		.type	SamplingTimerISR_SetPriority, %function
 224              	SamplingTimerISR_SetPriority:
 225              	.LFB40:
 229:.\Generated_Source\PSoC4/SamplingTimerISR.c **** 
 230:.\Generated_Source\PSoC4/SamplingTimerISR.c **** 
 231:.\Generated_Source\PSoC4/SamplingTimerISR.c **** /*******************************************************************************
ARM GAS  C:\Users\kylep\AppData\Local\Temp\ccAfBM1T.s 			page 9


 232:.\Generated_Source\PSoC4/SamplingTimerISR.c **** * Function Name: SamplingTimerISR_SetPriority
 233:.\Generated_Source\PSoC4/SamplingTimerISR.c **** ********************************************************************************
 234:.\Generated_Source\PSoC4/SamplingTimerISR.c **** *
 235:.\Generated_Source\PSoC4/SamplingTimerISR.c **** * Summary:
 236:.\Generated_Source\PSoC4/SamplingTimerISR.c **** *   Sets the Priority of the Interrupt. 
 237:.\Generated_Source\PSoC4/SamplingTimerISR.c **** *
 238:.\Generated_Source\PSoC4/SamplingTimerISR.c **** *   Note calling SamplingTimerISR_Start or SamplingTimerISR_StartEx will 
 239:.\Generated_Source\PSoC4/SamplingTimerISR.c **** *   override any effect this API would have had. This API should only be called
 240:.\Generated_Source\PSoC4/SamplingTimerISR.c **** *   after SamplingTimerISR_Start or SamplingTimerISR_StartEx has been called. 
 241:.\Generated_Source\PSoC4/SamplingTimerISR.c **** *   To set the initial priority for the component, use the Design-Wide Resources
 242:.\Generated_Source\PSoC4/SamplingTimerISR.c **** *   Interrupt Editor.
 243:.\Generated_Source\PSoC4/SamplingTimerISR.c **** *
 244:.\Generated_Source\PSoC4/SamplingTimerISR.c **** *   Note This API has no effect on Non-maskable interrupt NMI).
 245:.\Generated_Source\PSoC4/SamplingTimerISR.c **** *
 246:.\Generated_Source\PSoC4/SamplingTimerISR.c **** * Parameters:
 247:.\Generated_Source\PSoC4/SamplingTimerISR.c **** *   priority: Priority of the interrupt, 0 being the highest priority
 248:.\Generated_Source\PSoC4/SamplingTimerISR.c **** *             PSoC 3 and PSoC 5LP: Priority is from 0 to 7.
 249:.\Generated_Source\PSoC4/SamplingTimerISR.c **** *             PSoC 4: Priority is from 0 to 3.
 250:.\Generated_Source\PSoC4/SamplingTimerISR.c **** *
 251:.\Generated_Source\PSoC4/SamplingTimerISR.c **** * Return:
 252:.\Generated_Source\PSoC4/SamplingTimerISR.c **** *   None
 253:.\Generated_Source\PSoC4/SamplingTimerISR.c **** *
 254:.\Generated_Source\PSoC4/SamplingTimerISR.c **** *******************************************************************************/
 255:.\Generated_Source\PSoC4/SamplingTimerISR.c **** void SamplingTimerISR_SetPriority(uint8 priority)
 256:.\Generated_Source\PSoC4/SamplingTimerISR.c **** {
 226              		.loc 1 256 0
 227              		.cfi_startproc
 228 0000 90B5     		push	{r4, r7, lr}
 229              		.cfi_def_cfa_offset 12
 230              		.cfi_offset 4, -12
 231              		.cfi_offset 7, -8
 232              		.cfi_offset 14, -4
 233 0002 85B0     		sub	sp, sp, #20
 234              		.cfi_def_cfa_offset 32
 235 0004 00AF     		add	r7, sp, #0
 236              		.cfi_def_cfa_register 7
 237 0006 021C     		mov	r2, r0
 238 0008 FB1D     		add	r3, r7, #7
 239 000a 1A70     		strb	r2, [r3]
 257:.\Generated_Source\PSoC4/SamplingTimerISR.c **** 	uint8 interruptState;
 258:.\Generated_Source\PSoC4/SamplingTimerISR.c ****     uint32 priorityOffset = ((SamplingTimerISR__INTC_NUMBER % 4u) * 8u) + 6u;
 240              		.loc 1 258 0
 241 000c 0623     		mov	r3, #6
 242 000e FB60     		str	r3, [r7, #12]
 259:.\Generated_Source\PSoC4/SamplingTimerISR.c ****     
 260:.\Generated_Source\PSoC4/SamplingTimerISR.c **** 	interruptState = CyEnterCriticalSection();
 243              		.loc 1 260 0
 244 0010 0B23     		mov	r3, #11
 245 0012 FC18     		add	r4, r7, r3
 246 0014 FFF7FEFF 		bl	CyEnterCriticalSection
 247 0018 031C     		mov	r3, r0
 248 001a 2370     		strb	r3, [r4]
 261:.\Generated_Source\PSoC4/SamplingTimerISR.c ****     *SamplingTimerISR_INTC_PRIOR = (*SamplingTimerISR_INTC_PRIOR & (uint32)(~SamplingTimerISR__INTC
 249              		.loc 1 261 0
 250 001c 0A4B     		ldr	r3, .L17
 251 001e 0A4A     		ldr	r2, .L17
 252 0020 1268     		ldr	r2, [r2]
ARM GAS  C:\Users\kylep\AppData\Local\Temp\ccAfBM1T.s 			page 10


 253 0022 C021     		mov	r1, #192
 254 0024 8A43     		bic	r2, r1
 255 0026 111C     		mov	r1, r2
 262:.\Generated_Source\PSoC4/SamplingTimerISR.c ****                                     ((uint32)priority << priorityOffset);
 256              		.loc 1 262 0
 257 0028 FA1D     		add	r2, r7, #7
 258 002a 1078     		ldrb	r0, [r2]
 259 002c FA68     		ldr	r2, [r7, #12]
 260 002e 9040     		lsl	r0, r0, r2
 261 0030 021C     		mov	r2, r0
 261:.\Generated_Source\PSoC4/SamplingTimerISR.c ****     *SamplingTimerISR_INTC_PRIOR = (*SamplingTimerISR_INTC_PRIOR & (uint32)(~SamplingTimerISR__INTC
 262              		.loc 1 261 0
 263 0032 0A43     		orr	r2, r1
 264 0034 1A60     		str	r2, [r3]
 263:.\Generated_Source\PSoC4/SamplingTimerISR.c **** 	CyExitCriticalSection(interruptState);
 265              		.loc 1 263 0
 266 0036 0B23     		mov	r3, #11
 267 0038 FB18     		add	r3, r7, r3
 268 003a 1B78     		ldrb	r3, [r3]
 269 003c 181C     		mov	r0, r3
 270 003e FFF7FEFF 		bl	CyExitCriticalSection
 264:.\Generated_Source\PSoC4/SamplingTimerISR.c **** }
 271              		.loc 1 264 0
 272 0042 BD46     		mov	sp, r7
 273 0044 05B0     		add	sp, sp, #20
 274              		@ sp needed
 275 0046 90BD     		pop	{r4, r7, pc}
 276              	.L18:
 277              		.align	2
 278              	.L17:
 279 0048 04E400E0 		.word	-536812540
 280              		.cfi_endproc
 281              	.LFE40:
 282              		.size	SamplingTimerISR_SetPriority, .-SamplingTimerISR_SetPriority
 283              		.section	.text.SamplingTimerISR_GetPriority,"ax",%progbits
 284              		.align	2
 285              		.global	SamplingTimerISR_GetPriority
 286              		.code	16
 287              		.thumb_func
 288              		.type	SamplingTimerISR_GetPriority, %function
 289              	SamplingTimerISR_GetPriority:
 290              	.LFB41:
 265:.\Generated_Source\PSoC4/SamplingTimerISR.c **** 
 266:.\Generated_Source\PSoC4/SamplingTimerISR.c **** 
 267:.\Generated_Source\PSoC4/SamplingTimerISR.c **** /*******************************************************************************
 268:.\Generated_Source\PSoC4/SamplingTimerISR.c **** * Function Name: SamplingTimerISR_GetPriority
 269:.\Generated_Source\PSoC4/SamplingTimerISR.c **** ********************************************************************************
 270:.\Generated_Source\PSoC4/SamplingTimerISR.c **** *
 271:.\Generated_Source\PSoC4/SamplingTimerISR.c **** * Summary:
 272:.\Generated_Source\PSoC4/SamplingTimerISR.c **** *   Gets the Priority of the Interrupt.
 273:.\Generated_Source\PSoC4/SamplingTimerISR.c **** *
 274:.\Generated_Source\PSoC4/SamplingTimerISR.c **** * Parameters:
 275:.\Generated_Source\PSoC4/SamplingTimerISR.c **** *   None
 276:.\Generated_Source\PSoC4/SamplingTimerISR.c **** *
 277:.\Generated_Source\PSoC4/SamplingTimerISR.c **** * Return:
 278:.\Generated_Source\PSoC4/SamplingTimerISR.c **** *   Priority of the interrupt, 0 being the highest priority
 279:.\Generated_Source\PSoC4/SamplingTimerISR.c **** *    PSoC 3 and PSoC 5LP: Priority is from 0 to 7.
ARM GAS  C:\Users\kylep\AppData\Local\Temp\ccAfBM1T.s 			page 11


 280:.\Generated_Source\PSoC4/SamplingTimerISR.c **** *    PSoC 4: Priority is from 0 to 3.
 281:.\Generated_Source\PSoC4/SamplingTimerISR.c **** *
 282:.\Generated_Source\PSoC4/SamplingTimerISR.c **** *******************************************************************************/
 283:.\Generated_Source\PSoC4/SamplingTimerISR.c **** uint8 SamplingTimerISR_GetPriority(void)
 284:.\Generated_Source\PSoC4/SamplingTimerISR.c **** {
 291              		.loc 1 284 0
 292              		.cfi_startproc
 293 0000 80B5     		push	{r7, lr}
 294              		.cfi_def_cfa_offset 8
 295              		.cfi_offset 7, -8
 296              		.cfi_offset 14, -4
 297 0002 82B0     		sub	sp, sp, #8
 298              		.cfi_def_cfa_offset 16
 299 0004 00AF     		add	r7, sp, #0
 300              		.cfi_def_cfa_register 7
 285:.\Generated_Source\PSoC4/SamplingTimerISR.c ****     uint32 priority;
 286:.\Generated_Source\PSoC4/SamplingTimerISR.c **** 	uint32 priorityOffset = ((SamplingTimerISR__INTC_NUMBER % 4u) * 8u) + 6u;
 301              		.loc 1 286 0
 302 0006 0623     		mov	r3, #6
 303 0008 7B60     		str	r3, [r7, #4]
 287:.\Generated_Source\PSoC4/SamplingTimerISR.c **** 
 288:.\Generated_Source\PSoC4/SamplingTimerISR.c ****     priority = (*SamplingTimerISR_INTC_PRIOR & SamplingTimerISR__INTC_PRIOR_MASK) >> priorityOffset
 304              		.loc 1 288 0
 305 000a 074B     		ldr	r3, .L21
 306 000c 1B68     		ldr	r3, [r3]
 307 000e C022     		mov	r2, #192
 308 0010 1A40     		and	r2, r3
 309 0012 7B68     		ldr	r3, [r7, #4]
 310 0014 DA40     		lsr	r2, r2, r3
 311 0016 131C     		mov	r3, r2
 312 0018 3B60     		str	r3, [r7]
 289:.\Generated_Source\PSoC4/SamplingTimerISR.c **** 
 290:.\Generated_Source\PSoC4/SamplingTimerISR.c ****     return (uint8)priority;
 313              		.loc 1 290 0
 314 001a 3B68     		ldr	r3, [r7]
 315 001c DBB2     		uxtb	r3, r3
 291:.\Generated_Source\PSoC4/SamplingTimerISR.c **** }
 316              		.loc 1 291 0
 317 001e 181C     		mov	r0, r3
 318 0020 BD46     		mov	sp, r7
 319 0022 02B0     		add	sp, sp, #8
 320              		@ sp needed
 321 0024 80BD     		pop	{r7, pc}
 322              	.L22:
 323 0026 C046     		.align	2
 324              	.L21:
 325 0028 04E400E0 		.word	-536812540
 326              		.cfi_endproc
 327              	.LFE41:
 328              		.size	SamplingTimerISR_GetPriority, .-SamplingTimerISR_GetPriority
 329              		.section	.text.SamplingTimerISR_Enable,"ax",%progbits
 330              		.align	2
 331              		.global	SamplingTimerISR_Enable
 332              		.code	16
 333              		.thumb_func
 334              		.type	SamplingTimerISR_Enable, %function
 335              	SamplingTimerISR_Enable:
ARM GAS  C:\Users\kylep\AppData\Local\Temp\ccAfBM1T.s 			page 12


 336              	.LFB42:
 292:.\Generated_Source\PSoC4/SamplingTimerISR.c **** 
 293:.\Generated_Source\PSoC4/SamplingTimerISR.c **** 
 294:.\Generated_Source\PSoC4/SamplingTimerISR.c **** /*******************************************************************************
 295:.\Generated_Source\PSoC4/SamplingTimerISR.c **** * Function Name: SamplingTimerISR_Enable
 296:.\Generated_Source\PSoC4/SamplingTimerISR.c **** ********************************************************************************
 297:.\Generated_Source\PSoC4/SamplingTimerISR.c **** *
 298:.\Generated_Source\PSoC4/SamplingTimerISR.c **** * Summary:
 299:.\Generated_Source\PSoC4/SamplingTimerISR.c **** *   Enables the interrupt to the interrupt controller. Do not call this function
 300:.\Generated_Source\PSoC4/SamplingTimerISR.c **** *   unless ISR_Start() has been called or the functionality of the ISR_Start() 
 301:.\Generated_Source\PSoC4/SamplingTimerISR.c **** *   function, which sets the vector and the priority, has been called.
 302:.\Generated_Source\PSoC4/SamplingTimerISR.c **** *
 303:.\Generated_Source\PSoC4/SamplingTimerISR.c **** * Parameters:
 304:.\Generated_Source\PSoC4/SamplingTimerISR.c **** *   None
 305:.\Generated_Source\PSoC4/SamplingTimerISR.c **** *
 306:.\Generated_Source\PSoC4/SamplingTimerISR.c **** * Return:
 307:.\Generated_Source\PSoC4/SamplingTimerISR.c **** *   None
 308:.\Generated_Source\PSoC4/SamplingTimerISR.c **** *
 309:.\Generated_Source\PSoC4/SamplingTimerISR.c **** *******************************************************************************/
 310:.\Generated_Source\PSoC4/SamplingTimerISR.c **** void SamplingTimerISR_Enable(void)
 311:.\Generated_Source\PSoC4/SamplingTimerISR.c **** {
 337              		.loc 1 311 0
 338              		.cfi_startproc
 339 0000 80B5     		push	{r7, lr}
 340              		.cfi_def_cfa_offset 8
 341              		.cfi_offset 7, -8
 342              		.cfi_offset 14, -4
 343 0002 00AF     		add	r7, sp, #0
 344              		.cfi_def_cfa_register 7
 312:.\Generated_Source\PSoC4/SamplingTimerISR.c ****     /* Enable the general interrupt. */
 313:.\Generated_Source\PSoC4/SamplingTimerISR.c ****     *SamplingTimerISR_INTC_SET_EN = SamplingTimerISR__INTC_MASK;
 345              		.loc 1 313 0
 346 0004 024B     		ldr	r3, .L24
 347 0006 1022     		mov	r2, #16
 348 0008 1A60     		str	r2, [r3]
 314:.\Generated_Source\PSoC4/SamplingTimerISR.c **** }
 349              		.loc 1 314 0
 350 000a BD46     		mov	sp, r7
 351              		@ sp needed
 352 000c 80BD     		pop	{r7, pc}
 353              	.L25:
 354 000e C046     		.align	2
 355              	.L24:
 356 0010 00E100E0 		.word	-536813312
 357              		.cfi_endproc
 358              	.LFE42:
 359              		.size	SamplingTimerISR_Enable, .-SamplingTimerISR_Enable
 360              		.section	.text.SamplingTimerISR_GetState,"ax",%progbits
 361              		.align	2
 362              		.global	SamplingTimerISR_GetState
 363              		.code	16
 364              		.thumb_func
 365              		.type	SamplingTimerISR_GetState, %function
 366              	SamplingTimerISR_GetState:
 367              	.LFB43:
 315:.\Generated_Source\PSoC4/SamplingTimerISR.c **** 
 316:.\Generated_Source\PSoC4/SamplingTimerISR.c **** 
ARM GAS  C:\Users\kylep\AppData\Local\Temp\ccAfBM1T.s 			page 13


 317:.\Generated_Source\PSoC4/SamplingTimerISR.c **** /*******************************************************************************
 318:.\Generated_Source\PSoC4/SamplingTimerISR.c **** * Function Name: SamplingTimerISR_GetState
 319:.\Generated_Source\PSoC4/SamplingTimerISR.c **** ********************************************************************************
 320:.\Generated_Source\PSoC4/SamplingTimerISR.c **** *
 321:.\Generated_Source\PSoC4/SamplingTimerISR.c **** * Summary:
 322:.\Generated_Source\PSoC4/SamplingTimerISR.c **** *   Gets the state (enabled, disabled) of the Interrupt.
 323:.\Generated_Source\PSoC4/SamplingTimerISR.c **** *
 324:.\Generated_Source\PSoC4/SamplingTimerISR.c **** * Parameters:
 325:.\Generated_Source\PSoC4/SamplingTimerISR.c **** *   None
 326:.\Generated_Source\PSoC4/SamplingTimerISR.c **** *
 327:.\Generated_Source\PSoC4/SamplingTimerISR.c **** * Return:
 328:.\Generated_Source\PSoC4/SamplingTimerISR.c **** *   1 if enabled, 0 if disabled.
 329:.\Generated_Source\PSoC4/SamplingTimerISR.c **** *
 330:.\Generated_Source\PSoC4/SamplingTimerISR.c **** *******************************************************************************/
 331:.\Generated_Source\PSoC4/SamplingTimerISR.c **** uint8 SamplingTimerISR_GetState(void)
 332:.\Generated_Source\PSoC4/SamplingTimerISR.c **** {
 368              		.loc 1 332 0
 369              		.cfi_startproc
 370 0000 80B5     		push	{r7, lr}
 371              		.cfi_def_cfa_offset 8
 372              		.cfi_offset 7, -8
 373              		.cfi_offset 14, -4
 374 0002 00AF     		add	r7, sp, #0
 375              		.cfi_def_cfa_register 7
 333:.\Generated_Source\PSoC4/SamplingTimerISR.c ****     /* Get the state of the general interrupt. */
 334:.\Generated_Source\PSoC4/SamplingTimerISR.c ****     return ((*SamplingTimerISR_INTC_SET_EN & (uint32)SamplingTimerISR__INTC_MASK) != 0u) ? 1u:0u;
 376              		.loc 1 334 0
 377 0004 054B     		ldr	r3, .L30
 378 0006 1B68     		ldr	r3, [r3]
 379 0008 1022     		mov	r2, #16
 380 000a 1340     		and	r3, r2
 381 000c 01D0     		beq	.L27
 382              		.loc 1 334 0 is_stmt 0 discriminator 1
 383 000e 0123     		mov	r3, #1
 384 0010 00E0     		b	.L28
 385              	.L27:
 386              		.loc 1 334 0 discriminator 2
 387 0012 0023     		mov	r3, #0
 388              	.L28:
 335:.\Generated_Source\PSoC4/SamplingTimerISR.c **** }
 389              		.loc 1 335 0 is_stmt 1 discriminator 4
 390 0014 181C     		mov	r0, r3
 391 0016 BD46     		mov	sp, r7
 392              		@ sp needed
 393 0018 80BD     		pop	{r7, pc}
 394              	.L31:
 395 001a C046     		.align	2
 396              	.L30:
 397 001c 00E100E0 		.word	-536813312
 398              		.cfi_endproc
 399              	.LFE43:
 400              		.size	SamplingTimerISR_GetState, .-SamplingTimerISR_GetState
 401              		.section	.text.SamplingTimerISR_Disable,"ax",%progbits
 402              		.align	2
 403              		.global	SamplingTimerISR_Disable
 404              		.code	16
 405              		.thumb_func
ARM GAS  C:\Users\kylep\AppData\Local\Temp\ccAfBM1T.s 			page 14


 406              		.type	SamplingTimerISR_Disable, %function
 407              	SamplingTimerISR_Disable:
 408              	.LFB44:
 336:.\Generated_Source\PSoC4/SamplingTimerISR.c **** 
 337:.\Generated_Source\PSoC4/SamplingTimerISR.c **** 
 338:.\Generated_Source\PSoC4/SamplingTimerISR.c **** /*******************************************************************************
 339:.\Generated_Source\PSoC4/SamplingTimerISR.c **** * Function Name: SamplingTimerISR_Disable
 340:.\Generated_Source\PSoC4/SamplingTimerISR.c **** ********************************************************************************
 341:.\Generated_Source\PSoC4/SamplingTimerISR.c **** *
 342:.\Generated_Source\PSoC4/SamplingTimerISR.c **** * Summary:
 343:.\Generated_Source\PSoC4/SamplingTimerISR.c **** *   Disables the Interrupt in the interrupt controller.
 344:.\Generated_Source\PSoC4/SamplingTimerISR.c **** *
 345:.\Generated_Source\PSoC4/SamplingTimerISR.c **** * Parameters:
 346:.\Generated_Source\PSoC4/SamplingTimerISR.c **** *   None
 347:.\Generated_Source\PSoC4/SamplingTimerISR.c **** *
 348:.\Generated_Source\PSoC4/SamplingTimerISR.c **** * Return:
 349:.\Generated_Source\PSoC4/SamplingTimerISR.c **** *   None
 350:.\Generated_Source\PSoC4/SamplingTimerISR.c **** *
 351:.\Generated_Source\PSoC4/SamplingTimerISR.c **** *******************************************************************************/
 352:.\Generated_Source\PSoC4/SamplingTimerISR.c **** void SamplingTimerISR_Disable(void)
 353:.\Generated_Source\PSoC4/SamplingTimerISR.c **** {
 409              		.loc 1 353 0
 410              		.cfi_startproc
 411 0000 80B5     		push	{r7, lr}
 412              		.cfi_def_cfa_offset 8
 413              		.cfi_offset 7, -8
 414              		.cfi_offset 14, -4
 415 0002 00AF     		add	r7, sp, #0
 416              		.cfi_def_cfa_register 7
 354:.\Generated_Source\PSoC4/SamplingTimerISR.c ****     /* Disable the general interrupt. */
 355:.\Generated_Source\PSoC4/SamplingTimerISR.c ****     *SamplingTimerISR_INTC_CLR_EN = SamplingTimerISR__INTC_MASK;
 417              		.loc 1 355 0
 418 0004 024B     		ldr	r3, .L33
 419 0006 1022     		mov	r2, #16
 420 0008 1A60     		str	r2, [r3]
 356:.\Generated_Source\PSoC4/SamplingTimerISR.c **** }
 421              		.loc 1 356 0
 422 000a BD46     		mov	sp, r7
 423              		@ sp needed
 424 000c 80BD     		pop	{r7, pc}
 425              	.L34:
 426 000e C046     		.align	2
 427              	.L33:
 428 0010 80E100E0 		.word	-536813184
 429              		.cfi_endproc
 430              	.LFE44:
 431              		.size	SamplingTimerISR_Disable, .-SamplingTimerISR_Disable
 432              		.section	.text.SamplingTimerISR_SetPending,"ax",%progbits
 433              		.align	2
 434              		.global	SamplingTimerISR_SetPending
 435              		.code	16
 436              		.thumb_func
 437              		.type	SamplingTimerISR_SetPending, %function
 438              	SamplingTimerISR_SetPending:
 439              	.LFB45:
 357:.\Generated_Source\PSoC4/SamplingTimerISR.c **** 
 358:.\Generated_Source\PSoC4/SamplingTimerISR.c **** 
ARM GAS  C:\Users\kylep\AppData\Local\Temp\ccAfBM1T.s 			page 15


 359:.\Generated_Source\PSoC4/SamplingTimerISR.c **** /*******************************************************************************
 360:.\Generated_Source\PSoC4/SamplingTimerISR.c **** * Function Name: SamplingTimerISR_SetPending
 361:.\Generated_Source\PSoC4/SamplingTimerISR.c **** ********************************************************************************
 362:.\Generated_Source\PSoC4/SamplingTimerISR.c **** *
 363:.\Generated_Source\PSoC4/SamplingTimerISR.c **** * Summary:
 364:.\Generated_Source\PSoC4/SamplingTimerISR.c **** *   Causes the Interrupt to enter the pending state, a software method of
 365:.\Generated_Source\PSoC4/SamplingTimerISR.c **** *   generating the interrupt.
 366:.\Generated_Source\PSoC4/SamplingTimerISR.c **** *
 367:.\Generated_Source\PSoC4/SamplingTimerISR.c **** * Parameters:
 368:.\Generated_Source\PSoC4/SamplingTimerISR.c **** *   None
 369:.\Generated_Source\PSoC4/SamplingTimerISR.c **** *
 370:.\Generated_Source\PSoC4/SamplingTimerISR.c **** * Return:
 371:.\Generated_Source\PSoC4/SamplingTimerISR.c **** *   None
 372:.\Generated_Source\PSoC4/SamplingTimerISR.c **** *
 373:.\Generated_Source\PSoC4/SamplingTimerISR.c **** * Side Effects:
 374:.\Generated_Source\PSoC4/SamplingTimerISR.c **** *   If interrupts are enabled and the interrupt is set up properly, the ISR is
 375:.\Generated_Source\PSoC4/SamplingTimerISR.c **** *   entered (depending on the priority of this interrupt and other pending 
 376:.\Generated_Source\PSoC4/SamplingTimerISR.c **** *   interrupts).
 377:.\Generated_Source\PSoC4/SamplingTimerISR.c **** *
 378:.\Generated_Source\PSoC4/SamplingTimerISR.c **** *******************************************************************************/
 379:.\Generated_Source\PSoC4/SamplingTimerISR.c **** void SamplingTimerISR_SetPending(void)
 380:.\Generated_Source\PSoC4/SamplingTimerISR.c **** {
 440              		.loc 1 380 0
 441              		.cfi_startproc
 442 0000 80B5     		push	{r7, lr}
 443              		.cfi_def_cfa_offset 8
 444              		.cfi_offset 7, -8
 445              		.cfi_offset 14, -4
 446 0002 00AF     		add	r7, sp, #0
 447              		.cfi_def_cfa_register 7
 381:.\Generated_Source\PSoC4/SamplingTimerISR.c ****     *SamplingTimerISR_INTC_SET_PD = SamplingTimerISR__INTC_MASK;
 448              		.loc 1 381 0
 449 0004 024B     		ldr	r3, .L36
 450 0006 1022     		mov	r2, #16
 451 0008 1A60     		str	r2, [r3]
 382:.\Generated_Source\PSoC4/SamplingTimerISR.c **** }
 452              		.loc 1 382 0
 453 000a BD46     		mov	sp, r7
 454              		@ sp needed
 455 000c 80BD     		pop	{r7, pc}
 456              	.L37:
 457 000e C046     		.align	2
 458              	.L36:
 459 0010 00E200E0 		.word	-536813056
 460              		.cfi_endproc
 461              	.LFE45:
 462              		.size	SamplingTimerISR_SetPending, .-SamplingTimerISR_SetPending
 463              		.section	.text.SamplingTimerISR_ClearPending,"ax",%progbits
 464              		.align	2
 465              		.global	SamplingTimerISR_ClearPending
 466              		.code	16
 467              		.thumb_func
 468              		.type	SamplingTimerISR_ClearPending, %function
 469              	SamplingTimerISR_ClearPending:
 470              	.LFB46:
 383:.\Generated_Source\PSoC4/SamplingTimerISR.c **** 
 384:.\Generated_Source\PSoC4/SamplingTimerISR.c **** 
ARM GAS  C:\Users\kylep\AppData\Local\Temp\ccAfBM1T.s 			page 16


 385:.\Generated_Source\PSoC4/SamplingTimerISR.c **** /*******************************************************************************
 386:.\Generated_Source\PSoC4/SamplingTimerISR.c **** * Function Name: SamplingTimerISR_ClearPending
 387:.\Generated_Source\PSoC4/SamplingTimerISR.c **** ********************************************************************************
 388:.\Generated_Source\PSoC4/SamplingTimerISR.c **** *
 389:.\Generated_Source\PSoC4/SamplingTimerISR.c **** * Summary:
 390:.\Generated_Source\PSoC4/SamplingTimerISR.c **** *   Clears a pending interrupt in the interrupt controller.
 391:.\Generated_Source\PSoC4/SamplingTimerISR.c **** *
 392:.\Generated_Source\PSoC4/SamplingTimerISR.c **** *   Note Some interrupt sources are clear-on-read and require the block 
 393:.\Generated_Source\PSoC4/SamplingTimerISR.c **** *   interrupt/status register to be read/cleared with the appropriate block API 
 394:.\Generated_Source\PSoC4/SamplingTimerISR.c **** *   (GPIO, UART, and so on). Otherwise the ISR will continue to remain in 
 395:.\Generated_Source\PSoC4/SamplingTimerISR.c **** *   pending state even though the interrupt itself is cleared using this API.
 396:.\Generated_Source\PSoC4/SamplingTimerISR.c **** *
 397:.\Generated_Source\PSoC4/SamplingTimerISR.c **** * Parameters:
 398:.\Generated_Source\PSoC4/SamplingTimerISR.c **** *   None
 399:.\Generated_Source\PSoC4/SamplingTimerISR.c **** *
 400:.\Generated_Source\PSoC4/SamplingTimerISR.c **** * Return:
 401:.\Generated_Source\PSoC4/SamplingTimerISR.c **** *   None
 402:.\Generated_Source\PSoC4/SamplingTimerISR.c **** *
 403:.\Generated_Source\PSoC4/SamplingTimerISR.c **** *******************************************************************************/
 404:.\Generated_Source\PSoC4/SamplingTimerISR.c **** void SamplingTimerISR_ClearPending(void)
 405:.\Generated_Source\PSoC4/SamplingTimerISR.c **** {
 471              		.loc 1 405 0
 472              		.cfi_startproc
 473 0000 80B5     		push	{r7, lr}
 474              		.cfi_def_cfa_offset 8
 475              		.cfi_offset 7, -8
 476              		.cfi_offset 14, -4
 477 0002 00AF     		add	r7, sp, #0
 478              		.cfi_def_cfa_register 7
 406:.\Generated_Source\PSoC4/SamplingTimerISR.c ****     *SamplingTimerISR_INTC_CLR_PD = SamplingTimerISR__INTC_MASK;
 479              		.loc 1 406 0
 480 0004 024B     		ldr	r3, .L39
 481 0006 1022     		mov	r2, #16
 482 0008 1A60     		str	r2, [r3]
 407:.\Generated_Source\PSoC4/SamplingTimerISR.c **** }
 483              		.loc 1 407 0
 484 000a BD46     		mov	sp, r7
 485              		@ sp needed
 486 000c 80BD     		pop	{r7, pc}
 487              	.L40:
 488 000e C046     		.align	2
 489              	.L39:
 490 0010 80E200E0 		.word	-536812928
 491              		.cfi_endproc
 492              	.LFE46:
 493              		.size	SamplingTimerISR_ClearPending, .-SamplingTimerISR_ClearPending
 494              		.text
 495              	.Letext0:
 496              		.file 2 "Generated_Source\\PSoC4/cytypes.h"