ARM GAS  C:\Users\faithc\AppData\Local\Temp\cchhuTE1.s 			page 1


   1              		.cpu cortex-m0
   2              		.fpu softvfp
   3              		.eabi_attribute 20, 1
   4              		.eabi_attribute 21, 1
   5              		.eabi_attribute 23, 3
   6              		.eabi_attribute 24, 1
   7              		.eabi_attribute 25, 1
   8              		.eabi_attribute 26, 1
   9              		.eabi_attribute 30, 2
  10              		.eabi_attribute 34, 0
  11              		.eabi_attribute 18, 4
  12              		.code	16
  13              		.file	"Thermocouple.c"
  14              		.text
  15              	.Ltext0:
  16              		.cfi_sections	.debug_frame
  17              		.global	__aeabi_lmul
  18              		.section	.text.Thermocouple_MultShift24,"ax",%progbits
  19              		.align	2
  20              		.global	Thermocouple_MultShift24
  21              		.code	16
  22              		.thumb_func
  23              		.type	Thermocouple_MultShift24, %function
  24              	Thermocouple_MultShift24:
  25              	.LFB0:
  26              		.file 1 ".\\Generated_Source\\PSoC4\\Thermocouple.c"
   1:.\Generated_Source\PSoC4/Thermocouple.c **** /*******************************************************************************
   2:.\Generated_Source\PSoC4/Thermocouple.c **** * File Name: Thermocouple.c
   3:.\Generated_Source\PSoC4/Thermocouple.c **** * Version 1.20
   4:.\Generated_Source\PSoC4/Thermocouple.c **** *
   5:.\Generated_Source\PSoC4/Thermocouple.c **** * Description:
   6:.\Generated_Source\PSoC4/Thermocouple.c **** *  This file provides the source code to the API for the Thermocouple
   7:.\Generated_Source\PSoC4/Thermocouple.c **** *  component
   8:.\Generated_Source\PSoC4/Thermocouple.c **** *
   9:.\Generated_Source\PSoC4/Thermocouple.c **** * Note:
  10:.\Generated_Source\PSoC4/Thermocouple.c **** *  None
  11:.\Generated_Source\PSoC4/Thermocouple.c **** *
  12:.\Generated_Source\PSoC4/Thermocouple.c **** ********************************************************************************
  13:.\Generated_Source\PSoC4/Thermocouple.c **** * Copyright 2012-2013, Cypress Semiconductor Corporation.  All rights reserved.
  14:.\Generated_Source\PSoC4/Thermocouple.c **** * You may use this file only in accordance with the license, terms, conditions,
  15:.\Generated_Source\PSoC4/Thermocouple.c **** * disclaimers, and limitations in the end user license agreement accompanying
  16:.\Generated_Source\PSoC4/Thermocouple.c **** * the software package with which this file was provided.
  17:.\Generated_Source\PSoC4/Thermocouple.c **** *******************************************************************************/
  18:.\Generated_Source\PSoC4/Thermocouple.c **** 
  19:.\Generated_Source\PSoC4/Thermocouple.c **** #include "Thermocouple.h"
  20:.\Generated_Source\PSoC4/Thermocouple.c **** 
  21:.\Generated_Source\PSoC4/Thermocouple.c **** #if(!CY_PSOC3)
  22:.\Generated_Source\PSoC4/Thermocouple.c **** 
  23:.\Generated_Source\PSoC4/Thermocouple.c ****     /*******************************************************************************
  24:.\Generated_Source\PSoC4/Thermocouple.c ****     * Function Name: Thermocouple_MultShift24
  25:.\Generated_Source\PSoC4/Thermocouple.c ****     ********************************************************************************
  26:.\Generated_Source\PSoC4/Thermocouple.c ****     *
  27:.\Generated_Source\PSoC4/Thermocouple.c ****     * Summary:
  28:.\Generated_Source\PSoC4/Thermocouple.c ****     *  Performs the math function (op1 * op2) >> 24 using 64 bit arithmetic without
  29:.\Generated_Source\PSoC4/Thermocouple.c ****     *  any loss of precision and without overflow.
  30:.\Generated_Source\PSoC4/Thermocouple.c ****     *
  31:.\Generated_Source\PSoC4/Thermocouple.c ****     * Parameters:
ARM GAS  C:\Users\faithc\AppData\Local\Temp\cchhuTE1.s 			page 2


  32:.\Generated_Source\PSoC4/Thermocouple.c ****     *  op1: Signed 32-bit operand
  33:.\Generated_Source\PSoC4/Thermocouple.c ****     *  op2: Signed 24-bit operand
  34:.\Generated_Source\PSoC4/Thermocouple.c ****     *
  35:.\Generated_Source\PSoC4/Thermocouple.c ****     * Return:
  36:.\Generated_Source\PSoC4/Thermocouple.c ****     *  Signed 32-bit result of the math calculation
  37:.\Generated_Source\PSoC4/Thermocouple.c ****     *
  38:.\Generated_Source\PSoC4/Thermocouple.c ****     *******************************************************************************/
  39:.\Generated_Source\PSoC4/Thermocouple.c ****     int32 Thermocouple_MultShift24(int32 op1, int32 op2) 
  40:.\Generated_Source\PSoC4/Thermocouple.c ****     {
  27              		.loc 1 40 0
  28              		.cfi_startproc
  29              	.LVL0:
  30 0000 0A1C     		mov	r2, r1
  31 0002 08B5     		push	{r3, lr}
  32              		.cfi_def_cfa_offset 8
  33              		.cfi_offset 3, -8
  34              		.cfi_offset 14, -4
  41:.\Generated_Source\PSoC4/Thermocouple.c ****         int64 result=0;
  42:.\Generated_Source\PSoC4/Thermocouple.c **** 
  43:.\Generated_Source\PSoC4/Thermocouple.c ****         result = (int64)op1 * (int64)op2;
  35              		.loc 1 43 0
  36 0004 C117     		asr	r1, r0, #31
  37              	.LVL1:
  38 0006 D317     		asr	r3, r2, #31
  39 0008 FFF7FEFF 		bl	__aeabi_lmul
  40              	.LVL2:
  44:.\Generated_Source\PSoC4/Thermocouple.c ****         if (result < 0)
  41              		.loc 1 44 0
  42 000c 0029     		cmp	r1, #0
  43 000e 0CDA     		bge	.L2
  44              	.LVL3:
  45:.\Generated_Source\PSoC4/Thermocouple.c ****         {
  46:.\Generated_Source\PSoC4/Thermocouple.c ****             result = -result;
  45              		.loc 1 46 0
  46 0010 0023     		mov	r3, #0
  47 0012 4242     		neg	r2, r0
  48 0014 8B41     		sbc	r3, r1
  49              	.LVL4:
  47:.\Generated_Source\PSoC4/Thermocouple.c ****             result = (int32)((uint64)((uint64)result >> Thermocouple_24BIT_SHIFTING));
  50              		.loc 1 47 0
  51 0016 1B02     		lsl	r3, r3, #8
  52 0018 120E     		lsr	r2, r2, #24
  53              	.LVL5:
  54 001a 1A43     		orr	r2, r3
  55 001c 101C     		mov	r0, r2
  56              	.LVL6:
  57 001e D117     		asr	r1, r2, #31
  58              	.LVL7:
  48:.\Generated_Source\PSoC4/Thermocouple.c ****             result = -result;
  59              		.loc 1 48 0
  60 0020 0023     		mov	r3, #0
  61 0022 4242     		neg	r2, r0
  62 0024 8B41     		sbc	r3, r1
  63              	.LVL8:
  64              	.L4:
  49:.\Generated_Source\PSoC4/Thermocouple.c ****         }
  50:.\Generated_Source\PSoC4/Thermocouple.c ****         else
ARM GAS  C:\Users\faithc\AppData\Local\Temp\cchhuTE1.s 			page 3


  51:.\Generated_Source\PSoC4/Thermocouple.c ****         {
  52:.\Generated_Source\PSoC4/Thermocouple.c ****             result = (int32)((uint64)((uint64)result >> Thermocouple_24BIT_SHIFTING));
  53:.\Generated_Source\PSoC4/Thermocouple.c ****         }
  54:.\Generated_Source\PSoC4/Thermocouple.c ****         return (result);
  55:.\Generated_Source\PSoC4/Thermocouple.c ****     }        
  65              		.loc 1 55 0
  66 0026 101C     		mov	r0, r2
  67              		@ sp needed
  68 0028 08BD     		pop	{r3, pc}
  69              	.LVL9:
  70              	.L2:
  52:.\Generated_Source\PSoC4/Thermocouple.c ****         }
  71              		.loc 1 52 0
  72 002a 0B02     		lsl	r3, r1, #8
  73 002c 000E     		lsr	r0, r0, #24
  74 002e 1843     		orr	r0, r3
  75 0030 021C     		mov	r2, r0
  76 0032 F8E7     		b	.L4
  77              		.cfi_endproc
  78              	.LFE0:
  79              		.size	Thermocouple_MultShift24, .-Thermocouple_MultShift24
  80              		.section	.text.Thermocouple_GetTemperature,"ax",%progbits
  81              		.align	2
  82              		.global	Thermocouple_GetTemperature
  83              		.code	16
  84              		.thumb_func
  85              		.type	Thermocouple_GetTemperature, %function
  86              	Thermocouple_GetTemperature:
  87              	.LFB1:
  56:.\Generated_Source\PSoC4/Thermocouple.c **** #endif /* End (!CY_PSOC3) */
  57:.\Generated_Source\PSoC4/Thermocouple.c **** 
  58:.\Generated_Source\PSoC4/Thermocouple.c **** 
  59:.\Generated_Source\PSoC4/Thermocouple.c **** /*******************************************************************************
  60:.\Generated_Source\PSoC4/Thermocouple.c **** * Function Name: Thermocouple_GetTemperature
  61:.\Generated_Source\PSoC4/Thermocouple.c **** ********************************************************************************
  62:.\Generated_Source\PSoC4/Thermocouple.c **** *
  63:.\Generated_Source\PSoC4/Thermocouple.c **** * Summary:
  64:.\Generated_Source\PSoC4/Thermocouple.c **** *  This function takes thermocouple voltage in microvolt as i/p and calculates
  65:.\Generated_Source\PSoC4/Thermocouple.c **** *  temperature corresponding to the thermocouple voltage. The order of the
  66:.\Generated_Source\PSoC4/Thermocouple.c **** *  polynomial and the polynomial coefficients used to convert voltage to
  67:.\Generated_Source\PSoC4/Thermocouple.c **** *  temperature are dependent on the type of thermocouple selected.
  68:.\Generated_Source\PSoC4/Thermocouple.c **** *
  69:.\Generated_Source\PSoC4/Thermocouple.c **** * Parameters:
  70:.\Generated_Source\PSoC4/Thermocouple.c **** *  int32 voltage : Thermocouple voltage measured in microvolts.
  71:.\Generated_Source\PSoC4/Thermocouple.c **** *
  72:.\Generated_Source\PSoC4/Thermocouple.c **** * Return:
  73:.\Generated_Source\PSoC4/Thermocouple.c **** *  int32 : Temperature in 1/100 degree C
  74:.\Generated_Source\PSoC4/Thermocouple.c **** *
  75:.\Generated_Source\PSoC4/Thermocouple.c **** *******************************************************************************/
  76:.\Generated_Source\PSoC4/Thermocouple.c **** int32 Thermocouple_GetTemperature(int32 voltage) 
  77:.\Generated_Source\PSoC4/Thermocouple.c **** 
  78:.\Generated_Source\PSoC4/Thermocouple.c **** #if(CY_PSOC3)
  79:.\Generated_Source\PSoC4/Thermocouple.c **** {
  80:.\Generated_Source\PSoC4/Thermocouple.c **** 
  81:.\Generated_Source\PSoC4/Thermocouple.c ****     /***************************************
  82:.\Generated_Source\PSoC4/Thermocouple.c ****     *  Customizer Generated Coefficients
  83:.\Generated_Source\PSoC4/Thermocouple.c ****     ***************************************/
ARM GAS  C:\Users\faithc\AppData\Local\Temp\cchhuTE1.s 			page 4


  84:.\Generated_Source\PSoC4/Thermocouple.c ****     const int32 CYCODE Thermocouple_coeffVT[][3] = {{0, 0, -1687114},
  85:.\Generated_Source\PSoC4/Thermocouple.c ****                                                 {2639629, 164388, 40518839},
  86:.\Generated_Source\PSoC4/Thermocouple.c ****                                                 {-1001834, 16879, -90491511},
  87:.\Generated_Source\PSoC4/Thermocouple.c ****                                                 {-7623495, -1761422, 196887684},
  88:.\Generated_Source\PSoC4/Thermocouple.c ****                                                 {-51750922, 19173707, -227871065},
  89:.\Generated_Source\PSoC4/Thermocouple.c ****                                                 {-176344390, -92787626, 136207339},
  90:.\Generated_Source\PSoC4/Thermocouple.c ****                                                 {-335143805, 242736174, -31547361},
  91:.\Generated_Source\PSoC4/Thermocouple.c ****                                                 {-331192671, -358027528, 0},
  92:.\Generated_Source\PSoC4/Thermocouple.c ****                                                 {-134793524, 281193929, 0},
  93:.\Generated_Source\PSoC4/Thermocouple.c ****                                                 {0, -91707895, 0}};
  94:.\Generated_Source\PSoC4/Thermocouple.c **** 
  95:.\Generated_Source\PSoC4/Thermocouple.c **** const int32 CYCODE Thermocouple_voltRange[2] = {0, 20644};
  96:.\Generated_Source\PSoC4/Thermocouple.c **** 
  97:.\Generated_Source\PSoC4/Thermocouple.c **** const int8 CYCODE Thermocouple_xScaleVT[3] = {13, 15, 16};
  98:.\Generated_Source\PSoC4/Thermocouple.c **** const int8 CYCODE Thermocouple_coefScaleVT[3] = {7, 1, 7};
  99:.\Generated_Source\PSoC4/Thermocouple.c **** 
 100:.\Generated_Source\PSoC4/Thermocouple.c ****     /* Variable to store temperature */
 101:.\Generated_Source\PSoC4/Thermocouple.c ****     float32 temp=0.0f;
 102:.\Generated_Source\PSoC4/Thermocouple.c ****     float32 voltageNorm=0.0f;
 103:.\Generated_Source\PSoC4/Thermocouple.c ****     uint8 i=0u;
 104:.\Generated_Source\PSoC4/Thermocouple.c **** 
 105:.\Generated_Source\PSoC4/Thermocouple.c ****     #if (Thermocouple_VT_RANGE_LEN == Thermocouple_THREE)
 106:.\Generated_Source\PSoC4/Thermocouple.c ****     {
 107:.\Generated_Source\PSoC4/Thermocouple.c ****         voltageNorm = (float32)voltage;
 108:.\Generated_Source\PSoC4/Thermocouple.c **** 
 109:.\Generated_Source\PSoC4/Thermocouple.c ****         if(voltage < Thermocouple_voltRange[Thermocouple_RANGE_MAS_0] )
 110:.\Generated_Source\PSoC4/Thermocouple.c ****         {
 111:.\Generated_Source\PSoC4/Thermocouple.c ****             for (i=Thermocouple_ORDER_VT - 1u; i > 0u; i--)
 112:.\Generated_Source\PSoC4/Thermocouple.c ****             {
 113:.\Generated_Source\PSoC4/Thermocouple.c ****                 temp = (temp + Thermocouple_coeffVT[i][Thermocouple_RANGE_MAS_0]) * voltageNorm;
 114:.\Generated_Source\PSoC4/Thermocouple.c ****             }
 115:.\Generated_Source\PSoC4/Thermocouple.c ****             temp = (temp + Thermocouple_coeffVT[Thermocouple_FIRST_EL_MAS][Thermocouple_RANGE_MAS_0
 116:.\Generated_Source\PSoC4/Thermocouple.c ****         }
 117:.\Generated_Source\PSoC4/Thermocouple.c **** 
 118:.\Generated_Source\PSoC4/Thermocouple.c ****         else if(voltage <= Thermocouple_voltRange[Thermocouple_RANGE_MAS_1] )
 119:.\Generated_Source\PSoC4/Thermocouple.c ****         {
 120:.\Generated_Source\PSoC4/Thermocouple.c ****             for (i=Thermocouple_ORDER_VT - 1u; i > 0u; i--)
 121:.\Generated_Source\PSoC4/Thermocouple.c ****             {
 122:.\Generated_Source\PSoC4/Thermocouple.c ****                 temp = (temp + Thermocouple_coeffVT[i][Thermocouple_RANGE_MAS_1]) * voltageNorm;
 123:.\Generated_Source\PSoC4/Thermocouple.c ****             }
 124:.\Generated_Source\PSoC4/Thermocouple.c ****             temp = (temp + Thermocouple_coeffVT[Thermocouple_FIRST_EL_MAS][Thermocouple_RANGE_MAS_1
 125:.\Generated_Source\PSoC4/Thermocouple.c ****         }
 126:.\Generated_Source\PSoC4/Thermocouple.c **** 
 127:.\Generated_Source\PSoC4/Thermocouple.c ****         else if(voltage <= Thermocouple_voltRange[Thermocouple_RANGE_MAS_2] )
 128:.\Generated_Source\PSoC4/Thermocouple.c ****         {
 129:.\Generated_Source\PSoC4/Thermocouple.c ****             for (i=Thermocouple_ORDER_VT - 1u; i > 0u; i--)
 130:.\Generated_Source\PSoC4/Thermocouple.c ****             {
 131:.\Generated_Source\PSoC4/Thermocouple.c ****                 temp = (temp + Thermocouple_coeffVT[i][Thermocouple_RANGE_MAS_2]) * voltageNorm;
 132:.\Generated_Source\PSoC4/Thermocouple.c ****             }
 133:.\Generated_Source\PSoC4/Thermocouple.c ****             temp = (temp + Thermocouple_coeffVT[Thermocouple_FIRST_EL_MAS][Thermocouple_RANGE_MAS_2
 134:.\Generated_Source\PSoC4/Thermocouple.c ****         }
 135:.\Generated_Source\PSoC4/Thermocouple.c **** 
 136:.\Generated_Source\PSoC4/Thermocouple.c ****         else
 137:.\Generated_Source\PSoC4/Thermocouple.c ****         {
 138:.\Generated_Source\PSoC4/Thermocouple.c ****             for (i=Thermocouple_ORDER_VT - 1u; i > 0u; i--)
 139:.\Generated_Source\PSoC4/Thermocouple.c ****             {
 140:.\Generated_Source\PSoC4/Thermocouple.c ****                 temp = (temp + Thermocouple_coeffVT[i][Thermocouple_RANGE_MAS_3]) * voltageNorm;
ARM GAS  C:\Users\faithc\AppData\Local\Temp\cchhuTE1.s 			page 5


 141:.\Generated_Source\PSoC4/Thermocouple.c ****             }
 142:.\Generated_Source\PSoC4/Thermocouple.c ****             temp = (temp + Thermocouple_coeffVT[Thermocouple_FIRST_EL_MAS][Thermocouple_RANGE_MAS_3
 143:.\Generated_Source\PSoC4/Thermocouple.c ****         }
 144:.\Generated_Source\PSoC4/Thermocouple.c ****     }
 145:.\Generated_Source\PSoC4/Thermocouple.c **** 
 146:.\Generated_Source\PSoC4/Thermocouple.c ****     #else
 147:.\Generated_Source\PSoC4/Thermocouple.c ****     {
 148:.\Generated_Source\PSoC4/Thermocouple.c ****         voltageNorm = (float32)voltage;
 149:.\Generated_Source\PSoC4/Thermocouple.c **** 
 150:.\Generated_Source\PSoC4/Thermocouple.c ****         if(voltage < Thermocouple_voltRange[Thermocouple_RANGE_MAS_0] )
 151:.\Generated_Source\PSoC4/Thermocouple.c ****         {
 152:.\Generated_Source\PSoC4/Thermocouple.c ****             for (i=Thermocouple_ORDER_VT - 1u; i > 0u; i--)
 153:.\Generated_Source\PSoC4/Thermocouple.c ****             {
 154:.\Generated_Source\PSoC4/Thermocouple.c ****                 temp = (temp + Thermocouple_coeffVT[i][Thermocouple_RANGE_MAS_0]) * voltageNorm;
 155:.\Generated_Source\PSoC4/Thermocouple.c ****             }
 156:.\Generated_Source\PSoC4/Thermocouple.c ****             temp = (temp + Thermocouple_coeffVT[Thermocouple_FIRST_EL_MAS][Thermocouple_RANGE_MAS_0
 157:.\Generated_Source\PSoC4/Thermocouple.c ****         }
 158:.\Generated_Source\PSoC4/Thermocouple.c **** 
 159:.\Generated_Source\PSoC4/Thermocouple.c ****         else if(voltage <= Thermocouple_voltRange[Thermocouple_RANGE_MAS_1] )
 160:.\Generated_Source\PSoC4/Thermocouple.c ****         {
 161:.\Generated_Source\PSoC4/Thermocouple.c ****             for (i=Thermocouple_ORDER_VT - 1u; i > 0u; i--)
 162:.\Generated_Source\PSoC4/Thermocouple.c ****             {
 163:.\Generated_Source\PSoC4/Thermocouple.c ****                 temp = (temp + Thermocouple_coeffVT[i][Thermocouple_RANGE_MAS_1]) * voltageNorm;
 164:.\Generated_Source\PSoC4/Thermocouple.c ****             }
 165:.\Generated_Source\PSoC4/Thermocouple.c ****             temp = (temp + Thermocouple_coeffVT[Thermocouple_FIRST_EL_MAS][Thermocouple_RANGE_MAS_1
 166:.\Generated_Source\PSoC4/Thermocouple.c ****         }
 167:.\Generated_Source\PSoC4/Thermocouple.c **** 
 168:.\Generated_Source\PSoC4/Thermocouple.c ****         else
 169:.\Generated_Source\PSoC4/Thermocouple.c ****         {
 170:.\Generated_Source\PSoC4/Thermocouple.c ****             for (i=Thermocouple_ORDER_VT - 1u; i > 0u; i--)
 171:.\Generated_Source\PSoC4/Thermocouple.c ****             {
 172:.\Generated_Source\PSoC4/Thermocouple.c ****                 temp = (temp + Thermocouple_coeffVT[i][Thermocouple_RANGE_MAS_2]) * voltageNorm;
 173:.\Generated_Source\PSoC4/Thermocouple.c ****             }
 174:.\Generated_Source\PSoC4/Thermocouple.c ****             temp = (temp + Thermocouple_coeffVT[Thermocouple_FIRST_EL_MAS][Thermocouple_RANGE_MAS_2
 175:.\Generated_Source\PSoC4/Thermocouple.c ****         }
 176:.\Generated_Source\PSoC4/Thermocouple.c ****     }
 177:.\Generated_Source\PSoC4/Thermocouple.c **** 
 178:.\Generated_Source\PSoC4/Thermocouple.c ****     #endif /* End  Thermocouple_VT_RANGE_LEN == Thermocouple_THREE */
 179:.\Generated_Source\PSoC4/Thermocouple.c **** 
 180:.\Generated_Source\PSoC4/Thermocouple.c ****     return ((int32)(temp));
 181:.\Generated_Source\PSoC4/Thermocouple.c **** }
 182:.\Generated_Source\PSoC4/Thermocouple.c **** #else
 183:.\Generated_Source\PSoC4/Thermocouple.c **** {
  88              		.loc 1 183 0
  89              		.cfi_startproc
  90              	.LVL10:
  91 0000 F0B5     		push	{r4, r5, r6, r7, lr}
  92              		.cfi_def_cfa_offset 20
  93              		.cfi_offset 4, -20
  94              		.cfi_offset 5, -16
  95              		.cfi_offset 6, -12
  96              		.cfi_offset 7, -8
  97              		.cfi_offset 14, -4
  98 0002 4746     		mov	r7, r8
  99 0004 80B4     		push	{r7}
 100              		.cfi_def_cfa_offset 24
 101              		.cfi_offset 8, -24
ARM GAS  C:\Users\faithc\AppData\Local\Temp\cchhuTE1.s 			page 6


 102 0006 A0B0     		sub	sp, sp, #128
 103              		.cfi_def_cfa_offset 152
 104              		.loc 1 183 0
 105 0008 041C     		mov	r4, r0
 184:.\Generated_Source\PSoC4/Thermocouple.c **** 
 185:.\Generated_Source\PSoC4/Thermocouple.c ****     /***************************************
 186:.\Generated_Source\PSoC4/Thermocouple.c ****     *  Customizer Generated Coefficients
 187:.\Generated_Source\PSoC4/Thermocouple.c ****     ***************************************/
 188:.\Generated_Source\PSoC4/Thermocouple.c ****     const int32 CYCODE Thermocouple_coeffVT[][3] = {{0, 0, -1687114},
 106              		.loc 1 188 0
 107 000a 8A49     		ldr	r1, .L120
 108 000c 02A8     		add	r0, sp, #8
 109              	.LVL11:
 110 000e 7822     		mov	r2, #120
 111 0010 FFF7FEFF 		bl	memcpy
 112              	.LVL12:
 189:.\Generated_Source\PSoC4/Thermocouple.c ****                                                 {2639629, 164388, 40518839},
 190:.\Generated_Source\PSoC4/Thermocouple.c ****                                                 {-1001834, 16879, -90491511},
 191:.\Generated_Source\PSoC4/Thermocouple.c ****                                                 {-7623495, -1761422, 196887684},
 192:.\Generated_Source\PSoC4/Thermocouple.c ****                                                 {-51750922, 19173707, -227871065},
 193:.\Generated_Source\PSoC4/Thermocouple.c ****                                                 {-176344390, -92787626, 136207339},
 194:.\Generated_Source\PSoC4/Thermocouple.c ****                                                 {-335143805, 242736174, -31547361},
 195:.\Generated_Source\PSoC4/Thermocouple.c ****                                                 {-331192671, -358027528, 0},
 196:.\Generated_Source\PSoC4/Thermocouple.c ****                                                 {-134793524, 281193929, 0},
 197:.\Generated_Source\PSoC4/Thermocouple.c ****                                                 {0, -91707895, 0}};
 198:.\Generated_Source\PSoC4/Thermocouple.c **** 
 199:.\Generated_Source\PSoC4/Thermocouple.c **** const int32 CYCODE Thermocouple_voltRange[2] = {0, 20644};
 200:.\Generated_Source\PSoC4/Thermocouple.c **** 
 201:.\Generated_Source\PSoC4/Thermocouple.c **** const int8 CYCODE Thermocouple_xScaleVT[3] = {13, 15, 16};
 202:.\Generated_Source\PSoC4/Thermocouple.c **** const int8 CYCODE Thermocouple_coefScaleVT[3] = {7, 1, 7};
 203:.\Generated_Source\PSoC4/Thermocouple.c **** 
 204:.\Generated_Source\PSoC4/Thermocouple.c ****     /* Variable to store temperature */
 205:.\Generated_Source\PSoC4/Thermocouple.c ****     int32 temp=0;
 206:.\Generated_Source\PSoC4/Thermocouple.c ****     uint8 i=0u;
 207:.\Generated_Source\PSoC4/Thermocouple.c **** 
 208:.\Generated_Source\PSoC4/Thermocouple.c ****     #if (Thermocouple_VT_RANGE_LEN == Thermocouple_THREE)
 209:.\Generated_Source\PSoC4/Thermocouple.c ****     {
 210:.\Generated_Source\PSoC4/Thermocouple.c ****         if(voltage < Thermocouple_voltRange[Thermocouple_RANGE_MAS_0] )
 211:.\Generated_Source\PSoC4/Thermocouple.c ****         {
 212:.\Generated_Source\PSoC4/Thermocouple.c ****             if (voltage < 0)
 213:.\Generated_Source\PSoC4/Thermocouple.c ****             {
 214:.\Generated_Source\PSoC4/Thermocouple.c ****                 voltage = -voltage;
 215:.\Generated_Source\PSoC4/Thermocouple.c ****                 voltage = (int32)((uint64)((uint64)voltage << 
 216:.\Generated_Source\PSoC4/Thermocouple.c ****                                                (Thermocouple_IN_NORMALIZATION_VT - 
 217:.\Generated_Source\PSoC4/Thermocouple.c ****                                                 Thermocouple_xScaleVT[Thermocouple_RANGE_MAS_0])));
 218:.\Generated_Source\PSoC4/Thermocouple.c ****                 voltage = -voltage;
 219:.\Generated_Source\PSoC4/Thermocouple.c ****             }
 220:.\Generated_Source\PSoC4/Thermocouple.c ****             else
 221:.\Generated_Source\PSoC4/Thermocouple.c ****             {
 222:.\Generated_Source\PSoC4/Thermocouple.c ****                 voltage = (int32)((uint64)((uint64)voltage << 
 223:.\Generated_Source\PSoC4/Thermocouple.c ****                                                (Thermocouple_IN_NORMALIZATION_VT - 
 224:.\Generated_Source\PSoC4/Thermocouple.c ****                                                 Thermocouple_xScaleVT[Thermocouple_RANGE_MAS_0])));
 225:.\Generated_Source\PSoC4/Thermocouple.c ****             }            
 226:.\Generated_Source\PSoC4/Thermocouple.c **** 
 227:.\Generated_Source\PSoC4/Thermocouple.c ****             for (i=Thermocouple_ORDER_VT - 1u; i > 0u; i--)
 228:.\Generated_Source\PSoC4/Thermocouple.c ****             {
 229:.\Generated_Source\PSoC4/Thermocouple.c ****                 temp = Thermocouple_MultShift24((Thermocouple_coeffVT[i][Thermocouple_RANGE_MAS_0] 
ARM GAS  C:\Users\faithc\AppData\Local\Temp\cchhuTE1.s 			page 7


 230:.\Generated_Source\PSoC4/Thermocouple.c ****                        temp), voltage);
 231:.\Generated_Source\PSoC4/Thermocouple.c ****             }
 232:.\Generated_Source\PSoC4/Thermocouple.c **** 
 233:.\Generated_Source\PSoC4/Thermocouple.c ****             if(Thermocouple_coefScaleVT[Thermocouple_RANGE_MAS_0] < 0)
 234:.\Generated_Source\PSoC4/Thermocouple.c ****             {
 235:.\Generated_Source\PSoC4/Thermocouple.c ****                 temp = (int32)((uint64)((uint64)(int32)(temp + 
 236:.\Generated_Source\PSoC4/Thermocouple.c ****                         Thermocouple_coeffVT[Thermocouple_FIRST_EL_MAS][Thermocouple_RANGE_MAS_0]) 
 237:.\Generated_Source\PSoC4/Thermocouple.c ****                         Thermocouple_coefScaleVT[Thermocouple_RANGE_MAS_0]));
 238:.\Generated_Source\PSoC4/Thermocouple.c ****             }
 239:.\Generated_Source\PSoC4/Thermocouple.c **** 
 240:.\Generated_Source\PSoC4/Thermocouple.c ****             else
 241:.\Generated_Source\PSoC4/Thermocouple.c ****             {
 242:.\Generated_Source\PSoC4/Thermocouple.c ****                 temp = (int32)((uint32)((uint64)(int32)(temp + 
 243:.\Generated_Source\PSoC4/Thermocouple.c ****                         Thermocouple_coeffVT[Thermocouple_FIRST_EL_MAS][Thermocouple_RANGE_MAS_0]) 
 244:.\Generated_Source\PSoC4/Thermocouple.c ****                         Thermocouple_coefScaleVT[Thermocouple_RANGE_MAS_0]));
 245:.\Generated_Source\PSoC4/Thermocouple.c ****             }
 246:.\Generated_Source\PSoC4/Thermocouple.c ****         }
 247:.\Generated_Source\PSoC4/Thermocouple.c **** 
 248:.\Generated_Source\PSoC4/Thermocouple.c ****         else if(voltage <= Thermocouple_voltRange[Thermocouple_RANGE_MAS_1] )
 249:.\Generated_Source\PSoC4/Thermocouple.c ****         {
 250:.\Generated_Source\PSoC4/Thermocouple.c ****             if (voltage < 0)
 251:.\Generated_Source\PSoC4/Thermocouple.c ****             {
 252:.\Generated_Source\PSoC4/Thermocouple.c ****                 voltage = -voltage;
 253:.\Generated_Source\PSoC4/Thermocouple.c ****                 voltage = (int32)((uint64)((uint64)voltage << 
 254:.\Generated_Source\PSoC4/Thermocouple.c ****                                                (Thermocouple_IN_NORMALIZATION_VT - 
 255:.\Generated_Source\PSoC4/Thermocouple.c ****                                                 Thermocouple_xScaleVT[Thermocouple_RANGE_MAS_1])));
 256:.\Generated_Source\PSoC4/Thermocouple.c ****                 voltage = -voltage;
 257:.\Generated_Source\PSoC4/Thermocouple.c ****             }
 258:.\Generated_Source\PSoC4/Thermocouple.c ****             else
 259:.\Generated_Source\PSoC4/Thermocouple.c ****             {
 260:.\Generated_Source\PSoC4/Thermocouple.c ****                 voltage = (int32)((uint64)((uint64)voltage << 
 261:.\Generated_Source\PSoC4/Thermocouple.c ****                                                (Thermocouple_IN_NORMALIZATION_VT - 
 262:.\Generated_Source\PSoC4/Thermocouple.c ****                                                 Thermocouple_xScaleVT[Thermocouple_RANGE_MAS_1])));
 263:.\Generated_Source\PSoC4/Thermocouple.c ****             }              
 264:.\Generated_Source\PSoC4/Thermocouple.c ****             
 265:.\Generated_Source\PSoC4/Thermocouple.c ****             for (i=Thermocouple_ORDER_VT - 1u; i > 0u; i--)
 266:.\Generated_Source\PSoC4/Thermocouple.c ****             {
 267:.\Generated_Source\PSoC4/Thermocouple.c ****                 temp = Thermocouple_MultShift24((Thermocouple_coeffVT[i][Thermocouple_RANGE_MAS_1] 
 268:.\Generated_Source\PSoC4/Thermocouple.c ****                        temp), voltage);
 269:.\Generated_Source\PSoC4/Thermocouple.c ****             }
 270:.\Generated_Source\PSoC4/Thermocouple.c **** 
 271:.\Generated_Source\PSoC4/Thermocouple.c ****             if(Thermocouple_coefScaleVT[Thermocouple_RANGE_MAS_1] < 0)
 272:.\Generated_Source\PSoC4/Thermocouple.c ****             {
 273:.\Generated_Source\PSoC4/Thermocouple.c ****                 temp = (int32)((uint64)((uint64)(int32)(temp + 
 274:.\Generated_Source\PSoC4/Thermocouple.c ****                         Thermocouple_coeffVT[Thermocouple_FIRST_EL_MAS][Thermocouple_RANGE_MAS_1]) 
 275:.\Generated_Source\PSoC4/Thermocouple.c ****                         Thermocouple_coefScaleVT[Thermocouple_RANGE_MAS_1]));
 276:.\Generated_Source\PSoC4/Thermocouple.c ****             }
 277:.\Generated_Source\PSoC4/Thermocouple.c **** 
 278:.\Generated_Source\PSoC4/Thermocouple.c ****             else
 279:.\Generated_Source\PSoC4/Thermocouple.c ****             {
 280:.\Generated_Source\PSoC4/Thermocouple.c ****                 temp = (int32)((uint32)((uint64)(int32)(temp + 
 281:.\Generated_Source\PSoC4/Thermocouple.c ****                         Thermocouple_coeffVT[Thermocouple_FIRST_EL_MAS][Thermocouple_RANGE_MAS_1]) 
 282:.\Generated_Source\PSoC4/Thermocouple.c ****                         Thermocouple_coefScaleVT[Thermocouple_RANGE_MAS_1]));
 283:.\Generated_Source\PSoC4/Thermocouple.c ****             }
 284:.\Generated_Source\PSoC4/Thermocouple.c **** 
 285:.\Generated_Source\PSoC4/Thermocouple.c ****         }
 286:.\Generated_Source\PSoC4/Thermocouple.c **** 
ARM GAS  C:\Users\faithc\AppData\Local\Temp\cchhuTE1.s 			page 8


 287:.\Generated_Source\PSoC4/Thermocouple.c ****         else if(voltage <= Thermocouple_voltRange[Thermocouple_RANGE_MAS_2] )
 288:.\Generated_Source\PSoC4/Thermocouple.c ****         {
 289:.\Generated_Source\PSoC4/Thermocouple.c ****             if (voltage < 0)
 290:.\Generated_Source\PSoC4/Thermocouple.c ****             {
 291:.\Generated_Source\PSoC4/Thermocouple.c ****                 voltage = -voltage;
 292:.\Generated_Source\PSoC4/Thermocouple.c ****                 voltage = (int32)((uint64)((uint64)voltage << 
 293:.\Generated_Source\PSoC4/Thermocouple.c ****                                                (Thermocouple_IN_NORMALIZATION_VT - 
 294:.\Generated_Source\PSoC4/Thermocouple.c ****                                                 Thermocouple_xScaleVT[Thermocouple_RANGE_MAS_2])));
 295:.\Generated_Source\PSoC4/Thermocouple.c ****                 voltage = -voltage;
 296:.\Generated_Source\PSoC4/Thermocouple.c ****             }
 297:.\Generated_Source\PSoC4/Thermocouple.c ****             else
 298:.\Generated_Source\PSoC4/Thermocouple.c ****             {
 299:.\Generated_Source\PSoC4/Thermocouple.c ****                 voltage = (int32)((uint64)((uint64)voltage << 
 300:.\Generated_Source\PSoC4/Thermocouple.c ****                                                (Thermocouple_IN_NORMALIZATION_VT - 
 301:.\Generated_Source\PSoC4/Thermocouple.c ****                                                 Thermocouple_xScaleVT[Thermocouple_RANGE_MAS_2])));
 302:.\Generated_Source\PSoC4/Thermocouple.c ****             }              
 303:.\Generated_Source\PSoC4/Thermocouple.c **** 
 304:.\Generated_Source\PSoC4/Thermocouple.c ****             for (i=Thermocouple_ORDER_VT - 1u; i > 0u; i--)
 305:.\Generated_Source\PSoC4/Thermocouple.c ****             {
 306:.\Generated_Source\PSoC4/Thermocouple.c ****                 temp = Thermocouple_MultShift24((Thermocouple_coeffVT[i][Thermocouple_RANGE_MAS_2] 
 307:.\Generated_Source\PSoC4/Thermocouple.c ****                        temp), voltage);
 308:.\Generated_Source\PSoC4/Thermocouple.c ****             }
 309:.\Generated_Source\PSoC4/Thermocouple.c **** 
 310:.\Generated_Source\PSoC4/Thermocouple.c ****             if(Thermocouple_coefScaleVT[Thermocouple_RANGE_MAS_2] < 0)
 311:.\Generated_Source\PSoC4/Thermocouple.c ****             {
 312:.\Generated_Source\PSoC4/Thermocouple.c ****                 temp = (int32)((uint64)((uint64)(int32)(temp + 
 313:.\Generated_Source\PSoC4/Thermocouple.c ****                         Thermocouple_coeffVT[Thermocouple_FIRST_EL_MAS][Thermocouple_RANGE_MAS_2]) 
 314:.\Generated_Source\PSoC4/Thermocouple.c ****                         Thermocouple_coefScaleVT[Thermocouple_RANGE_MAS_2]));
 315:.\Generated_Source\PSoC4/Thermocouple.c ****             }
 316:.\Generated_Source\PSoC4/Thermocouple.c **** 
 317:.\Generated_Source\PSoC4/Thermocouple.c ****             else
 318:.\Generated_Source\PSoC4/Thermocouple.c ****             {
 319:.\Generated_Source\PSoC4/Thermocouple.c ****                 temp = (int32)((uint32)((uint64)(int32)(temp + 
 320:.\Generated_Source\PSoC4/Thermocouple.c ****                         Thermocouple_coeffVT[Thermocouple_FIRST_EL_MAS][Thermocouple_RANGE_MAS_2]) 
 321:.\Generated_Source\PSoC4/Thermocouple.c ****                         Thermocouple_coefScaleVT[Thermocouple_RANGE_MAS_2]));
 322:.\Generated_Source\PSoC4/Thermocouple.c ****             }
 323:.\Generated_Source\PSoC4/Thermocouple.c ****         }
 324:.\Generated_Source\PSoC4/Thermocouple.c **** 
 325:.\Generated_Source\PSoC4/Thermocouple.c ****         else
 326:.\Generated_Source\PSoC4/Thermocouple.c ****         {
 327:.\Generated_Source\PSoC4/Thermocouple.c ****             if (voltage < 0)
 328:.\Generated_Source\PSoC4/Thermocouple.c ****             {
 329:.\Generated_Source\PSoC4/Thermocouple.c ****                 voltage = -voltage;
 330:.\Generated_Source\PSoC4/Thermocouple.c ****                 voltage = (int32)((uint64)((uint64)voltage << 
 331:.\Generated_Source\PSoC4/Thermocouple.c ****                                                (Thermocouple_IN_NORMALIZATION_VT - 
 332:.\Generated_Source\PSoC4/Thermocouple.c ****                                                 Thermocouple_xScaleVT[Thermocouple_RANGE_MAS_3])));
 333:.\Generated_Source\PSoC4/Thermocouple.c ****                 voltage = -voltage;
 334:.\Generated_Source\PSoC4/Thermocouple.c ****             }
 335:.\Generated_Source\PSoC4/Thermocouple.c ****             else
 336:.\Generated_Source\PSoC4/Thermocouple.c ****             {
 337:.\Generated_Source\PSoC4/Thermocouple.c ****                 voltage = (int32)((uint64)((uint64)voltage << 
 338:.\Generated_Source\PSoC4/Thermocouple.c ****                                                (Thermocouple_IN_NORMALIZATION_VT - 
 339:.\Generated_Source\PSoC4/Thermocouple.c ****                                                 Thermocouple_xScaleVT[Thermocouple_RANGE_MAS_3])));
 340:.\Generated_Source\PSoC4/Thermocouple.c ****             }              
 341:.\Generated_Source\PSoC4/Thermocouple.c **** 
 342:.\Generated_Source\PSoC4/Thermocouple.c ****             for (i=Thermocouple_ORDER_VT - 1u; i > 0u; i--)
 343:.\Generated_Source\PSoC4/Thermocouple.c ****             {
ARM GAS  C:\Users\faithc\AppData\Local\Temp\cchhuTE1.s 			page 9


 344:.\Generated_Source\PSoC4/Thermocouple.c ****                 temp = Thermocouple_MultShift24((Thermocouple_coeffVT[i][Thermocouple_RANGE_MAS_3] 
 345:.\Generated_Source\PSoC4/Thermocouple.c ****                        temp), voltage);
 346:.\Generated_Source\PSoC4/Thermocouple.c ****             }
 347:.\Generated_Source\PSoC4/Thermocouple.c **** 
 348:.\Generated_Source\PSoC4/Thermocouple.c ****             if(Thermocouple_coefScaleVT[Thermocouple_RANGE_MAS_3] < 0)
 349:.\Generated_Source\PSoC4/Thermocouple.c ****             {
 350:.\Generated_Source\PSoC4/Thermocouple.c ****                 temp = (int32)((uint64)((uint64)(int32)(temp + 
 351:.\Generated_Source\PSoC4/Thermocouple.c ****                         Thermocouple_coeffVT[Thermocouple_FIRST_EL_MAS][Thermocouple_RANGE_MAS_3]) 
 352:.\Generated_Source\PSoC4/Thermocouple.c ****                         Thermocouple_coefScaleVT[Thermocouple_RANGE_MAS_3]));
 353:.\Generated_Source\PSoC4/Thermocouple.c ****             }
 354:.\Generated_Source\PSoC4/Thermocouple.c **** 
 355:.\Generated_Source\PSoC4/Thermocouple.c ****             else
 356:.\Generated_Source\PSoC4/Thermocouple.c ****             {
 357:.\Generated_Source\PSoC4/Thermocouple.c ****                 temp = (int32)((uint32)((uint64)(int32)(temp + 
 358:.\Generated_Source\PSoC4/Thermocouple.c ****                         Thermocouple_coeffVT[Thermocouple_FIRST_EL_MAS][Thermocouple_RANGE_MAS_3]) 
 359:.\Generated_Source\PSoC4/Thermocouple.c ****                         Thermocouple_coefScaleVT[Thermocouple_RANGE_MAS_3]));
 360:.\Generated_Source\PSoC4/Thermocouple.c ****             }
 361:.\Generated_Source\PSoC4/Thermocouple.c ****         }
 362:.\Generated_Source\PSoC4/Thermocouple.c ****     }
 363:.\Generated_Source\PSoC4/Thermocouple.c **** 
 364:.\Generated_Source\PSoC4/Thermocouple.c ****     #else
 365:.\Generated_Source\PSoC4/Thermocouple.c ****     {
 366:.\Generated_Source\PSoC4/Thermocouple.c ****         if(voltage < Thermocouple_voltRange[Thermocouple_RANGE_MAS_0] )
 113              		.loc 1 366 0
 114 0014 002C     		cmp	r4, #0
 115 0016 00DA     		bge	.LCB87
 116 0018 0BE2     		b	.L92	@long jump
 117              	.LCB87:
 367:.\Generated_Source\PSoC4/Thermocouple.c ****         {
 368:.\Generated_Source\PSoC4/Thermocouple.c ****             if (voltage < 0)
 369:.\Generated_Source\PSoC4/Thermocouple.c ****             {
 370:.\Generated_Source\PSoC4/Thermocouple.c ****                 voltage = -voltage;
 371:.\Generated_Source\PSoC4/Thermocouple.c ****                 voltage = (int32)((uint64)((uint64)voltage << 
 372:.\Generated_Source\PSoC4/Thermocouple.c ****                                                (Thermocouple_IN_NORMALIZATION_VT - 
 373:.\Generated_Source\PSoC4/Thermocouple.c ****                                                 Thermocouple_xScaleVT[Thermocouple_RANGE_MAS_0])));
 374:.\Generated_Source\PSoC4/Thermocouple.c ****                 voltage = -voltage;
 375:.\Generated_Source\PSoC4/Thermocouple.c ****             }
 376:.\Generated_Source\PSoC4/Thermocouple.c ****             else
 377:.\Generated_Source\PSoC4/Thermocouple.c ****             {
 378:.\Generated_Source\PSoC4/Thermocouple.c ****                 voltage = (int32)((uint64)((uint64)voltage << 
 379:.\Generated_Source\PSoC4/Thermocouple.c ****                                                (Thermocouple_IN_NORMALIZATION_VT - 
 380:.\Generated_Source\PSoC4/Thermocouple.c ****                                                 Thermocouple_xScaleVT[Thermocouple_RANGE_MAS_0])));
 381:.\Generated_Source\PSoC4/Thermocouple.c ****             }            
 382:.\Generated_Source\PSoC4/Thermocouple.c **** 
 383:.\Generated_Source\PSoC4/Thermocouple.c ****             for (i=Thermocouple_ORDER_VT - 1u; i > 0u; i--)
 384:.\Generated_Source\PSoC4/Thermocouple.c ****             {
 385:.\Generated_Source\PSoC4/Thermocouple.c ****                 temp = Thermocouple_MultShift24((Thermocouple_coeffVT[i][Thermocouple_RANGE_MAS_0] 
 386:.\Generated_Source\PSoC4/Thermocouple.c ****                        temp), voltage);
 387:.\Generated_Source\PSoC4/Thermocouple.c ****             }
 388:.\Generated_Source\PSoC4/Thermocouple.c **** 
 389:.\Generated_Source\PSoC4/Thermocouple.c ****             if(Thermocouple_coefScaleVT[Thermocouple_RANGE_MAS_0] < 0)
 390:.\Generated_Source\PSoC4/Thermocouple.c ****             {
 391:.\Generated_Source\PSoC4/Thermocouple.c ****                 temp = (int32)((uint64)((uint64)(int32)(temp + 
 392:.\Generated_Source\PSoC4/Thermocouple.c ****                         Thermocouple_coeffVT[Thermocouple_FIRST_EL_MAS][Thermocouple_RANGE_MAS_0]) 
 393:.\Generated_Source\PSoC4/Thermocouple.c ****                         Thermocouple_coefScaleVT[Thermocouple_RANGE_MAS_0]));
 394:.\Generated_Source\PSoC4/Thermocouple.c ****             }
 395:.\Generated_Source\PSoC4/Thermocouple.c **** 
ARM GAS  C:\Users\faithc\AppData\Local\Temp\cchhuTE1.s 			page 10


 396:.\Generated_Source\PSoC4/Thermocouple.c ****             else
 397:.\Generated_Source\PSoC4/Thermocouple.c ****             {
 398:.\Generated_Source\PSoC4/Thermocouple.c ****                 temp = (int32)((uint32)((uint64)(int32)(temp + 
 399:.\Generated_Source\PSoC4/Thermocouple.c ****                         Thermocouple_coeffVT[Thermocouple_FIRST_EL_MAS][Thermocouple_RANGE_MAS_0]) 
 400:.\Generated_Source\PSoC4/Thermocouple.c ****                         Thermocouple_coefScaleVT[Thermocouple_RANGE_MAS_0]));
 401:.\Generated_Source\PSoC4/Thermocouple.c ****             }
 402:.\Generated_Source\PSoC4/Thermocouple.c ****         }
 403:.\Generated_Source\PSoC4/Thermocouple.c **** 
 404:.\Generated_Source\PSoC4/Thermocouple.c ****         else if(voltage <= Thermocouple_voltRange[Thermocouple_RANGE_MAS_1] )
 118              		.loc 1 404 0
 119 001a 874B     		ldr	r3, .L120+4
 120 001c 9C42     		cmp	r4, r3
 121 001e 00DD     		ble	.LCB90
 122 0020 0CE1     		b	.L36	@long jump
 123              	.LCB90:
 124              	.LVL13:
 405:.\Generated_Source\PSoC4/Thermocouple.c ****         {
 406:.\Generated_Source\PSoC4/Thermocouple.c ****             if (voltage < 0)
 407:.\Generated_Source\PSoC4/Thermocouple.c ****             {
 408:.\Generated_Source\PSoC4/Thermocouple.c ****                 voltage = -voltage;
 409:.\Generated_Source\PSoC4/Thermocouple.c ****                 voltage = (int32)((uint64)((uint64)voltage << 
 410:.\Generated_Source\PSoC4/Thermocouple.c ****                                                (Thermocouple_IN_NORMALIZATION_VT - 
 411:.\Generated_Source\PSoC4/Thermocouple.c ****                                                 Thermocouple_xScaleVT[Thermocouple_RANGE_MAS_1])));
 412:.\Generated_Source\PSoC4/Thermocouple.c ****                 voltage = -voltage;
 413:.\Generated_Source\PSoC4/Thermocouple.c ****             }
 414:.\Generated_Source\PSoC4/Thermocouple.c ****             else
 415:.\Generated_Source\PSoC4/Thermocouple.c ****             {
 416:.\Generated_Source\PSoC4/Thermocouple.c ****                 voltage = (int32)((uint64)((uint64)voltage << 
 125              		.loc 1 416 0
 126 0022 E517     		asr	r5, r4, #31
 127 0024 E30D     		lsr	r3, r4, #23
 128 0026 6D02     		lsl	r5, r5, #9
 129 0028 1D43     		orr	r5, r3
 130 002a 6302     		lsl	r3, r4, #9
 131              	.LVL14:
 132 002c 9846     		mov	r8, r3
 133              	.LVL15:
 134              	.LBB10:
 135              	.LBB11:
  43:.\Generated_Source\PSoC4/Thermocouple.c ****         if (result < 0)
 136              		.loc 1 43 0
 137 002e 1E9B     		ldr	r3, [sp, #120]
 138              	.LVL16:
 139 0030 4246     		mov	r2, r8
 140 0032 0193     		str	r3, [sp, #4]
 141 0034 D917     		asr	r1, r3, #31
 142 0036 181C     		mov	r0, r3
 143 0038 2B1C     		mov	r3, r5
 144 003a FFF7FEFF 		bl	__aeabi_lmul
 145              	.LVL17:
  46:.\Generated_Source\PSoC4/Thermocouple.c ****             result = (int32)((uint64)((uint64)result >> Thermocouple_24BIT_SHIFTING));
 146              		.loc 1 46 0
 147 003e 0027     		mov	r7, #0
 148 0040 4642     		neg	r6, r0
 149 0042 8F41     		sbc	r7, r1
  47:.\Generated_Source\PSoC4/Thermocouple.c ****             result = -result;
 150              		.loc 1 47 0
ARM GAS  C:\Users\faithc\AppData\Local\Temp\cchhuTE1.s 			page 11


 151 0044 3B02     		lsl	r3, r7, #8
 152 0046 1C1C     		mov	r4, r3
 153 0048 360E     		lsr	r6, r6, #24
 154 004a 3443     		orr	r4, r6
 155 004c 221C     		mov	r2, r4
 156 004e 3B0E     		lsr	r3, r7, #24
  48:.\Generated_Source\PSoC4/Thermocouple.c ****         }
 157              		.loc 1 48 0
 158 0050 0027     		mov	r7, #0
 159 0052 5642     		neg	r6, r2
 160 0054 9F41     		sbc	r7, r3
  52:.\Generated_Source\PSoC4/Thermocouple.c ****         }
 161              		.loc 1 52 0
 162 0056 030E     		lsr	r3, r0, #24
 163 0058 0A02     		lsl	r2, r1, #8
 164 005a 1A43     		orr	r2, r3
 165 005c 101C     		mov	r0, r2
 166 005e 0029     		cmp	r1, #0
 167 0060 00DA     		bge	.LCB129
 168 0062 F7E2     		b	.L93	@long jump
 169              	.LCB129:
 170              	.L38:
 171              	.LBE11:
 172              	.LBE10:
 417:.\Generated_Source\PSoC4/Thermocouple.c ****                                                (Thermocouple_IN_NORMALIZATION_VT - 
 418:.\Generated_Source\PSoC4/Thermocouple.c ****                                                 Thermocouple_xScaleVT[Thermocouple_RANGE_MAS_1])));
 419:.\Generated_Source\PSoC4/Thermocouple.c ****             }              
 420:.\Generated_Source\PSoC4/Thermocouple.c ****             
 421:.\Generated_Source\PSoC4/Thermocouple.c ****             for (i=Thermocouple_ORDER_VT - 1u; i > 0u; i--)
 422:.\Generated_Source\PSoC4/Thermocouple.c ****             {
 423:.\Generated_Source\PSoC4/Thermocouple.c ****                 temp = Thermocouple_MultShift24((Thermocouple_coeffVT[i][Thermocouple_RANGE_MAS_1] 
 173              		.loc 1 423 0
 174 0064 1B9B     		ldr	r3, [sp, #108]
 175              	.LBB28:
 176              	.LBB12:
  43:.\Generated_Source\PSoC4/Thermocouple.c ****         if (result < 0)
 177              		.loc 1 43 0
 178 0066 4246     		mov	r2, r8
 179              	.LBE12:
 180              	.LBE28:
 181              		.loc 1 423 0
 182 0068 9C46     		mov	ip, r3
 183 006a 6044     		add	r0, r0, ip
 184 006c 0193     		str	r3, [sp, #4]
 185              	.LBB29:
 186              	.LBB13:
  43:.\Generated_Source\PSoC4/Thermocouple.c ****         if (result < 0)
 187              		.loc 1 43 0
 188 006e C117     		asr	r1, r0, #31
 189 0070 2B1C     		mov	r3, r5
 190 0072 FFF7FEFF 		bl	__aeabi_lmul
 191              	.LVL18:
  46:.\Generated_Source\PSoC4/Thermocouple.c ****             result = (int32)((uint64)((uint64)result >> Thermocouple_24BIT_SHIFTING));
 192              		.loc 1 46 0
 193 0076 0027     		mov	r7, #0
 194 0078 4642     		neg	r6, r0
 195 007a 8F41     		sbc	r7, r1
ARM GAS  C:\Users\faithc\AppData\Local\Temp\cchhuTE1.s 			page 12


  47:.\Generated_Source\PSoC4/Thermocouple.c ****             result = -result;
 196              		.loc 1 47 0
 197 007c 3B02     		lsl	r3, r7, #8
 198 007e 1C1C     		mov	r4, r3
 199 0080 360E     		lsr	r6, r6, #24
 200 0082 3443     		orr	r4, r6
 201 0084 221C     		mov	r2, r4
 202 0086 3B0E     		lsr	r3, r7, #24
  48:.\Generated_Source\PSoC4/Thermocouple.c ****         }
 203              		.loc 1 48 0
 204 0088 0027     		mov	r7, #0
 205 008a 5642     		neg	r6, r2
 206 008c 9F41     		sbc	r7, r3
  52:.\Generated_Source\PSoC4/Thermocouple.c ****         }
 207              		.loc 1 52 0
 208 008e 030E     		lsr	r3, r0, #24
 209 0090 0A02     		lsl	r2, r1, #8
 210 0092 1A43     		orr	r2, r3
 211 0094 101C     		mov	r0, r2
 212 0096 0029     		cmp	r1, #0
 213 0098 00DA     		bge	.LCB163
 214 009a D9E2     		b	.L94	@long jump
 215              	.LCB163:
 216              	.L41:
 217              	.LBE13:
 218              	.LBE29:
 219              		.loc 1 423 0
 220 009c 189B     		ldr	r3, [sp, #96]
 221              	.LBB30:
 222              	.LBB14:
  43:.\Generated_Source\PSoC4/Thermocouple.c ****         if (result < 0)
 223              		.loc 1 43 0
 224 009e 4246     		mov	r2, r8
 225              	.LBE14:
 226              	.LBE30:
 227              		.loc 1 423 0
 228 00a0 9C46     		mov	ip, r3
 229 00a2 6044     		add	r0, r0, ip
 230 00a4 0193     		str	r3, [sp, #4]
 231              	.LBB31:
 232              	.LBB15:
  43:.\Generated_Source\PSoC4/Thermocouple.c ****         if (result < 0)
 233              		.loc 1 43 0
 234 00a6 C117     		asr	r1, r0, #31
 235 00a8 2B1C     		mov	r3, r5
 236 00aa FFF7FEFF 		bl	__aeabi_lmul
 237              	.LVL19:
  46:.\Generated_Source\PSoC4/Thermocouple.c ****             result = (int32)((uint64)((uint64)result >> Thermocouple_24BIT_SHIFTING));
 238              		.loc 1 46 0
 239 00ae 0027     		mov	r7, #0
 240 00b0 4642     		neg	r6, r0
 241 00b2 8F41     		sbc	r7, r1
  47:.\Generated_Source\PSoC4/Thermocouple.c ****             result = -result;
 242              		.loc 1 47 0
 243 00b4 3B02     		lsl	r3, r7, #8
 244 00b6 1C1C     		mov	r4, r3
 245 00b8 360E     		lsr	r6, r6, #24
ARM GAS  C:\Users\faithc\AppData\Local\Temp\cchhuTE1.s 			page 13


 246 00ba 3443     		orr	r4, r6
 247 00bc 221C     		mov	r2, r4
 248 00be 3B0E     		lsr	r3, r7, #24
  48:.\Generated_Source\PSoC4/Thermocouple.c ****         }
 249              		.loc 1 48 0
 250 00c0 0027     		mov	r7, #0
 251 00c2 5642     		neg	r6, r2
 252 00c4 9F41     		sbc	r7, r3
  52:.\Generated_Source\PSoC4/Thermocouple.c ****         }
 253              		.loc 1 52 0
 254 00c6 030E     		lsr	r3, r0, #24
 255 00c8 0A02     		lsl	r2, r1, #8
 256 00ca 1A43     		orr	r2, r3
 257 00cc 101C     		mov	r0, r2
 258 00ce 0029     		cmp	r1, #0
 259 00d0 00DA     		bge	.LCB197
 260 00d2 BBE2     		b	.L95	@long jump
 261              	.LCB197:
 262              	.L44:
 263              	.LBE15:
 264              	.LBE31:
 265              		.loc 1 423 0
 266 00d4 159B     		ldr	r3, [sp, #84]
 267              	.LBB32:
 268              	.LBB16:
  43:.\Generated_Source\PSoC4/Thermocouple.c ****         if (result < 0)
 269              		.loc 1 43 0
 270 00d6 4246     		mov	r2, r8
 271              	.LBE16:
 272              	.LBE32:
 273              		.loc 1 423 0
 274 00d8 9C46     		mov	ip, r3
 275 00da 6044     		add	r0, r0, ip
 276 00dc 0193     		str	r3, [sp, #4]
 277              	.LBB33:
 278              	.LBB17:
  43:.\Generated_Source\PSoC4/Thermocouple.c ****         if (result < 0)
 279              		.loc 1 43 0
 280 00de C117     		asr	r1, r0, #31
 281 00e0 2B1C     		mov	r3, r5
 282 00e2 FFF7FEFF 		bl	__aeabi_lmul
 283              	.LVL20:
  46:.\Generated_Source\PSoC4/Thermocouple.c ****             result = (int32)((uint64)((uint64)result >> Thermocouple_24BIT_SHIFTING));
 284              		.loc 1 46 0
 285 00e6 0027     		mov	r7, #0
 286 00e8 4642     		neg	r6, r0
 287 00ea 8F41     		sbc	r7, r1
  47:.\Generated_Source\PSoC4/Thermocouple.c ****             result = -result;
 288              		.loc 1 47 0
 289 00ec 3B02     		lsl	r3, r7, #8
 290 00ee 1C1C     		mov	r4, r3
 291 00f0 360E     		lsr	r6, r6, #24
 292 00f2 3443     		orr	r4, r6
 293 00f4 221C     		mov	r2, r4
 294 00f6 3B0E     		lsr	r3, r7, #24
  48:.\Generated_Source\PSoC4/Thermocouple.c ****         }
 295              		.loc 1 48 0
ARM GAS  C:\Users\faithc\AppData\Local\Temp\cchhuTE1.s 			page 14


 296 00f8 0027     		mov	r7, #0
 297 00fa 5642     		neg	r6, r2
 298 00fc 9F41     		sbc	r7, r3
  52:.\Generated_Source\PSoC4/Thermocouple.c ****         }
 299              		.loc 1 52 0
 300 00fe 030E     		lsr	r3, r0, #24
 301 0100 0A02     		lsl	r2, r1, #8
 302 0102 1A43     		orr	r2, r3
 303 0104 101C     		mov	r0, r2
 304 0106 0029     		cmp	r1, #0
 305 0108 00DA     		bge	.LCB231
 306 010a 9DE2     		b	.L96	@long jump
 307              	.LCB231:
 308              	.L47:
 309              	.LBE17:
 310              	.LBE33:
 311              		.loc 1 423 0
 312 010c 129B     		ldr	r3, [sp, #72]
 313              	.LBB34:
 314              	.LBB18:
  43:.\Generated_Source\PSoC4/Thermocouple.c ****         if (result < 0)
 315              		.loc 1 43 0
 316 010e 4246     		mov	r2, r8
 317              	.LBE18:
 318              	.LBE34:
 319              		.loc 1 423 0
 320 0110 9C46     		mov	ip, r3
 321 0112 6044     		add	r0, r0, ip
 322 0114 0193     		str	r3, [sp, #4]
 323              	.LBB35:
 324              	.LBB19:
  43:.\Generated_Source\PSoC4/Thermocouple.c ****         if (result < 0)
 325              		.loc 1 43 0
 326 0116 C117     		asr	r1, r0, #31
 327 0118 2B1C     		mov	r3, r5
 328 011a FFF7FEFF 		bl	__aeabi_lmul
 329              	.LVL21:
  46:.\Generated_Source\PSoC4/Thermocouple.c ****             result = (int32)((uint64)((uint64)result >> Thermocouple_24BIT_SHIFTING));
 330              		.loc 1 46 0
 331 011e 0027     		mov	r7, #0
 332 0120 4642     		neg	r6, r0
 333 0122 8F41     		sbc	r7, r1
  47:.\Generated_Source\PSoC4/Thermocouple.c ****             result = -result;
 334              		.loc 1 47 0
 335 0124 3B02     		lsl	r3, r7, #8
 336 0126 1C1C     		mov	r4, r3
 337 0128 360E     		lsr	r6, r6, #24
 338 012a 3443     		orr	r4, r6
 339 012c 221C     		mov	r2, r4
 340 012e 3B0E     		lsr	r3, r7, #24
  48:.\Generated_Source\PSoC4/Thermocouple.c ****         }
 341              		.loc 1 48 0
 342 0130 0027     		mov	r7, #0
 343 0132 5642     		neg	r6, r2
 344 0134 9F41     		sbc	r7, r3
  52:.\Generated_Source\PSoC4/Thermocouple.c ****         }
 345              		.loc 1 52 0
ARM GAS  C:\Users\faithc\AppData\Local\Temp\cchhuTE1.s 			page 15


 346 0136 030E     		lsr	r3, r0, #24
 347 0138 0A02     		lsl	r2, r1, #8
 348 013a 1A43     		orr	r2, r3
 349 013c 101C     		mov	r0, r2
 350 013e 0029     		cmp	r1, #0
 351 0140 00DA     		bge	.LCB265
 352 0142 7FE2     		b	.L97	@long jump
 353              	.LCB265:
 354              	.L50:
 355              	.LBE19:
 356              	.LBE35:
 357              		.loc 1 423 0
 358 0144 0F9B     		ldr	r3, [sp, #60]
 359              	.LBB36:
 360              	.LBB20:
  43:.\Generated_Source\PSoC4/Thermocouple.c ****         if (result < 0)
 361              		.loc 1 43 0
 362 0146 4246     		mov	r2, r8
 363              	.LBE20:
 364              	.LBE36:
 365              		.loc 1 423 0
 366 0148 9C46     		mov	ip, r3
 367 014a 6044     		add	r0, r0, ip
 368 014c 0193     		str	r3, [sp, #4]
 369              	.LBB37:
 370              	.LBB21:
  43:.\Generated_Source\PSoC4/Thermocouple.c ****         if (result < 0)
 371              		.loc 1 43 0
 372 014e C117     		asr	r1, r0, #31
 373 0150 2B1C     		mov	r3, r5
 374 0152 FFF7FEFF 		bl	__aeabi_lmul
 375              	.LVL22:
  46:.\Generated_Source\PSoC4/Thermocouple.c ****             result = (int32)((uint64)((uint64)result >> Thermocouple_24BIT_SHIFTING));
 376              		.loc 1 46 0
 377 0156 0027     		mov	r7, #0
 378 0158 4642     		neg	r6, r0
 379 015a 8F41     		sbc	r7, r1
  47:.\Generated_Source\PSoC4/Thermocouple.c ****             result = -result;
 380              		.loc 1 47 0
 381 015c 3B02     		lsl	r3, r7, #8
 382 015e 1C1C     		mov	r4, r3
 383 0160 360E     		lsr	r6, r6, #24
 384 0162 3443     		orr	r4, r6
 385 0164 221C     		mov	r2, r4
 386 0166 3B0E     		lsr	r3, r7, #24
  48:.\Generated_Source\PSoC4/Thermocouple.c ****         }
 387              		.loc 1 48 0
 388 0168 0027     		mov	r7, #0
 389 016a 5642     		neg	r6, r2
 390 016c 9F41     		sbc	r7, r3
  52:.\Generated_Source\PSoC4/Thermocouple.c ****         }
 391              		.loc 1 52 0
 392 016e 030E     		lsr	r3, r0, #24
 393 0170 0A02     		lsl	r2, r1, #8
 394 0172 1A43     		orr	r2, r3
 395 0174 101C     		mov	r0, r2
 396 0176 0029     		cmp	r1, #0
ARM GAS  C:\Users\faithc\AppData\Local\Temp\cchhuTE1.s 			page 16


 397 0178 00DA     		bge	.LCB299
 398 017a 61E2     		b	.L98	@long jump
 399              	.LCB299:
 400              	.L53:
 401              	.LBE21:
 402              	.LBE37:
 403              		.loc 1 423 0
 404 017c 0C9B     		ldr	r3, [sp, #48]
 405              	.LBB38:
 406              	.LBB22:
  43:.\Generated_Source\PSoC4/Thermocouple.c ****         if (result < 0)
 407              		.loc 1 43 0
 408 017e 4246     		mov	r2, r8
 409              	.LBE22:
 410              	.LBE38:
 411              		.loc 1 423 0
 412 0180 9C46     		mov	ip, r3
 413 0182 6044     		add	r0, r0, ip
 414 0184 0193     		str	r3, [sp, #4]
 415              	.LBB39:
 416              	.LBB23:
  43:.\Generated_Source\PSoC4/Thermocouple.c ****         if (result < 0)
 417              		.loc 1 43 0
 418 0186 C117     		asr	r1, r0, #31
 419 0188 2B1C     		mov	r3, r5
 420 018a FFF7FEFF 		bl	__aeabi_lmul
 421              	.LVL23:
  46:.\Generated_Source\PSoC4/Thermocouple.c ****             result = (int32)((uint64)((uint64)result >> Thermocouple_24BIT_SHIFTING));
 422              		.loc 1 46 0
 423 018e 0027     		mov	r7, #0
 424 0190 4642     		neg	r6, r0
 425 0192 8F41     		sbc	r7, r1
  47:.\Generated_Source\PSoC4/Thermocouple.c ****             result = -result;
 426              		.loc 1 47 0
 427 0194 3B02     		lsl	r3, r7, #8
 428 0196 1C1C     		mov	r4, r3
 429 0198 360E     		lsr	r6, r6, #24
 430 019a 3443     		orr	r4, r6
 431 019c 221C     		mov	r2, r4
 432 019e 3B0E     		lsr	r3, r7, #24
  48:.\Generated_Source\PSoC4/Thermocouple.c ****         }
 433              		.loc 1 48 0
 434 01a0 0027     		mov	r7, #0
 435 01a2 5642     		neg	r6, r2
 436 01a4 9F41     		sbc	r7, r3
  52:.\Generated_Source\PSoC4/Thermocouple.c ****         }
 437              		.loc 1 52 0
 438 01a6 030E     		lsr	r3, r0, #24
 439 01a8 0A02     		lsl	r2, r1, #8
 440 01aa 1A43     		orr	r2, r3
 441 01ac 101C     		mov	r0, r2
 442 01ae 0029     		cmp	r1, #0
 443 01b0 00DA     		bge	.LCB333
 444 01b2 43E2     		b	.L99	@long jump
 445              	.LCB333:
 446              	.L56:
 447              	.LBE23:
ARM GAS  C:\Users\faithc\AppData\Local\Temp\cchhuTE1.s 			page 17


 448              	.LBE39:
 449              		.loc 1 423 0
 450 01b4 099B     		ldr	r3, [sp, #36]
 451              	.LBB40:
 452              	.LBB24:
  43:.\Generated_Source\PSoC4/Thermocouple.c ****         if (result < 0)
 453              		.loc 1 43 0
 454 01b6 4246     		mov	r2, r8
 455              	.LBE24:
 456              	.LBE40:
 457              		.loc 1 423 0
 458 01b8 9C46     		mov	ip, r3
 459 01ba 6044     		add	r0, r0, ip
 460 01bc 0193     		str	r3, [sp, #4]
 461              	.LBB41:
 462              	.LBB25:
  43:.\Generated_Source\PSoC4/Thermocouple.c ****         if (result < 0)
 463              		.loc 1 43 0
 464 01be C117     		asr	r1, r0, #31
 465 01c0 2B1C     		mov	r3, r5
 466 01c2 FFF7FEFF 		bl	__aeabi_lmul
 467              	.LVL24:
  46:.\Generated_Source\PSoC4/Thermocouple.c ****             result = (int32)((uint64)((uint64)result >> Thermocouple_24BIT_SHIFTING));
 468              		.loc 1 46 0
 469 01c6 0027     		mov	r7, #0
 470 01c8 4642     		neg	r6, r0
 471 01ca 8F41     		sbc	r7, r1
  47:.\Generated_Source\PSoC4/Thermocouple.c ****             result = -result;
 472              		.loc 1 47 0
 473 01cc 3B02     		lsl	r3, r7, #8
 474 01ce 1C1C     		mov	r4, r3
 475 01d0 360E     		lsr	r6, r6, #24
 476 01d2 3443     		orr	r4, r6
 477 01d4 221C     		mov	r2, r4
 478 01d6 3B0E     		lsr	r3, r7, #24
  48:.\Generated_Source\PSoC4/Thermocouple.c ****         }
 479              		.loc 1 48 0
 480 01d8 0027     		mov	r7, #0
 481 01da 5642     		neg	r6, r2
 482 01dc 9F41     		sbc	r7, r3
  52:.\Generated_Source\PSoC4/Thermocouple.c ****         }
 483              		.loc 1 52 0
 484 01de 030E     		lsr	r3, r0, #24
 485 01e0 0A02     		lsl	r2, r1, #8
 486 01e2 1A43     		orr	r2, r3
 487 01e4 101C     		mov	r0, r2
 488 01e6 0029     		cmp	r1, #0
 489 01e8 00DA     		bge	.LCB367
 490 01ea 25E2     		b	.L100	@long jump
 491              	.LCB367:
 492              	.L59:
 493              	.LBE25:
 494              	.LBE41:
 495              		.loc 1 423 0
 496 01ec 069B     		ldr	r3, [sp, #24]
 497              	.LBB42:
 498              	.LBB26:
ARM GAS  C:\Users\faithc\AppData\Local\Temp\cchhuTE1.s 			page 18


  43:.\Generated_Source\PSoC4/Thermocouple.c ****         if (result < 0)
 499              		.loc 1 43 0
 500 01ee 4246     		mov	r2, r8
 501              	.LBE26:
 502              	.LBE42:
 503              		.loc 1 423 0
 504 01f0 9C46     		mov	ip, r3
 505 01f2 6044     		add	r0, r0, ip
 506 01f4 0193     		str	r3, [sp, #4]
 507              	.LBB43:
 508              	.LBB27:
  43:.\Generated_Source\PSoC4/Thermocouple.c ****         if (result < 0)
 509              		.loc 1 43 0
 510 01f6 C117     		asr	r1, r0, #31
 511 01f8 2B1C     		mov	r3, r5
 512 01fa FFF7FEFF 		bl	__aeabi_lmul
 513              	.LVL25:
  46:.\Generated_Source\PSoC4/Thermocouple.c ****             result = (int32)((uint64)((uint64)result >> Thermocouple_24BIT_SHIFTING));
 514              		.loc 1 46 0
 515 01fe 0025     		mov	r5, #0
 516 0200 4442     		neg	r4, r0
 517 0202 8D41     		sbc	r5, r1
  47:.\Generated_Source\PSoC4/Thermocouple.c ****             result = -result;
 518              		.loc 1 47 0
 519 0204 2E02     		lsl	r6, r5, #8
 520 0206 240E     		lsr	r4, r4, #24
 521 0208 2643     		orr	r6, r4
 522 020a 321C     		mov	r2, r6
 523 020c 2B0E     		lsr	r3, r5, #24
  48:.\Generated_Source\PSoC4/Thermocouple.c ****         }
 524              		.loc 1 48 0
 525 020e 0025     		mov	r5, #0
 526 0210 5442     		neg	r4, r2
 527 0212 9D41     		sbc	r5, r3
  52:.\Generated_Source\PSoC4/Thermocouple.c ****         }
 528              		.loc 1 52 0
 529 0214 0A02     		lsl	r2, r1, #8
 530 0216 030E     		lsr	r3, r0, #24
 531 0218 1343     		orr	r3, r2
 532              	.LVL26:
 533 021a 0029     		cmp	r1, #0
 534 021c 00DA     		bge	.LCB400
 535 021e F9E1     		b	.L101	@long jump
 536              	.LCB400:
 537              	.L62:
 538              	.LBE27:
 539              	.LBE43:
 424:.\Generated_Source\PSoC4/Thermocouple.c ****                        temp), voltage);
 425:.\Generated_Source\PSoC4/Thermocouple.c ****             }
 426:.\Generated_Source\PSoC4/Thermocouple.c **** 
 427:.\Generated_Source\PSoC4/Thermocouple.c ****             if(Thermocouple_coefScaleVT[Thermocouple_RANGE_MAS_1] < 0)
 428:.\Generated_Source\PSoC4/Thermocouple.c ****             {
 429:.\Generated_Source\PSoC4/Thermocouple.c ****                 temp = (int32)((uint64)((uint64)(int32)(temp + 
 430:.\Generated_Source\PSoC4/Thermocouple.c ****                         Thermocouple_coeffVT[Thermocouple_FIRST_EL_MAS][Thermocouple_RANGE_MAS_1]) 
 431:.\Generated_Source\PSoC4/Thermocouple.c ****                         Thermocouple_coefScaleVT[Thermocouple_RANGE_MAS_1]));
 432:.\Generated_Source\PSoC4/Thermocouple.c ****             }
 433:.\Generated_Source\PSoC4/Thermocouple.c **** 
ARM GAS  C:\Users\faithc\AppData\Local\Temp\cchhuTE1.s 			page 19


 434:.\Generated_Source\PSoC4/Thermocouple.c ****             else
 435:.\Generated_Source\PSoC4/Thermocouple.c ****             {
 436:.\Generated_Source\PSoC4/Thermocouple.c ****                 temp = (int32)((uint32)((uint64)(int32)(temp + 
 540              		.loc 1 436 0
 541 0220 0398     		ldr	r0, [sp, #12]
 542 0222 C318     		add	r3, r0, r3
 543 0224 D817     		asr	r0, r3, #31
 437:.\Generated_Source\PSoC4/Thermocouple.c ****                         Thermocouple_coeffVT[Thermocouple_FIRST_EL_MAS][Thermocouple_RANGE_MAS_1]) 
 544              		.loc 1 437 0
 545 0226 C007     		lsl	r0, r0, #31
 546 0228 5B08     		lsr	r3, r3, #1
 547 022a 1843     		orr	r0, r3
 548              	.LVL27:
 549              	.L35:
 438:.\Generated_Source\PSoC4/Thermocouple.c ****                         Thermocouple_coefScaleVT[Thermocouple_RANGE_MAS_1]));
 439:.\Generated_Source\PSoC4/Thermocouple.c ****             }
 440:.\Generated_Source\PSoC4/Thermocouple.c ****         }
 441:.\Generated_Source\PSoC4/Thermocouple.c **** 
 442:.\Generated_Source\PSoC4/Thermocouple.c ****         else
 443:.\Generated_Source\PSoC4/Thermocouple.c ****         {
 444:.\Generated_Source\PSoC4/Thermocouple.c ****             if (voltage < 0)
 445:.\Generated_Source\PSoC4/Thermocouple.c ****             {
 446:.\Generated_Source\PSoC4/Thermocouple.c ****                 voltage = -voltage;
 447:.\Generated_Source\PSoC4/Thermocouple.c ****                 voltage = (int32)((uint64)((uint64)voltage << 
 448:.\Generated_Source\PSoC4/Thermocouple.c ****                                                (Thermocouple_IN_NORMALIZATION_VT - 
 449:.\Generated_Source\PSoC4/Thermocouple.c ****                                                 Thermocouple_xScaleVT[Thermocouple_RANGE_MAS_2])));
 450:.\Generated_Source\PSoC4/Thermocouple.c ****                 voltage = -voltage;
 451:.\Generated_Source\PSoC4/Thermocouple.c ****             }
 452:.\Generated_Source\PSoC4/Thermocouple.c ****             else
 453:.\Generated_Source\PSoC4/Thermocouple.c ****             {
 454:.\Generated_Source\PSoC4/Thermocouple.c ****                 voltage = (int32)((uint64)((uint64)voltage << 
 455:.\Generated_Source\PSoC4/Thermocouple.c ****                                                (Thermocouple_IN_NORMALIZATION_VT - 
 456:.\Generated_Source\PSoC4/Thermocouple.c ****                                                 Thermocouple_xScaleVT[Thermocouple_RANGE_MAS_2])));
 457:.\Generated_Source\PSoC4/Thermocouple.c ****             }              
 458:.\Generated_Source\PSoC4/Thermocouple.c **** 
 459:.\Generated_Source\PSoC4/Thermocouple.c ****             for (i=Thermocouple_ORDER_VT - 1u; i > 0u; i--)
 460:.\Generated_Source\PSoC4/Thermocouple.c ****             {
 461:.\Generated_Source\PSoC4/Thermocouple.c ****                 temp = Thermocouple_MultShift24((Thermocouple_coeffVT[i][Thermocouple_RANGE_MAS_2] 
 462:.\Generated_Source\PSoC4/Thermocouple.c ****                        temp), voltage);
 463:.\Generated_Source\PSoC4/Thermocouple.c ****             }
 464:.\Generated_Source\PSoC4/Thermocouple.c **** 
 465:.\Generated_Source\PSoC4/Thermocouple.c ****             if(Thermocouple_coefScaleVT[Thermocouple_RANGE_MAS_2] < 0)
 466:.\Generated_Source\PSoC4/Thermocouple.c ****             {
 467:.\Generated_Source\PSoC4/Thermocouple.c ****                 temp = (int32)((uint64)((uint64)(int32)(temp + 
 468:.\Generated_Source\PSoC4/Thermocouple.c ****                         Thermocouple_coeffVT[Thermocouple_FIRST_EL_MAS][Thermocouple_RANGE_MAS_2]) 
 469:.\Generated_Source\PSoC4/Thermocouple.c ****                         Thermocouple_coefScaleVT[Thermocouple_RANGE_MAS_2]));
 470:.\Generated_Source\PSoC4/Thermocouple.c ****             }
 471:.\Generated_Source\PSoC4/Thermocouple.c **** 
 472:.\Generated_Source\PSoC4/Thermocouple.c ****             else
 473:.\Generated_Source\PSoC4/Thermocouple.c ****             {
 474:.\Generated_Source\PSoC4/Thermocouple.c ****                 temp = (int32)((uint32)((uint64)(int32)(temp + 
 475:.\Generated_Source\PSoC4/Thermocouple.c ****                         Thermocouple_coeffVT[Thermocouple_FIRST_EL_MAS][Thermocouple_RANGE_MAS_2]) 
 476:.\Generated_Source\PSoC4/Thermocouple.c ****                         Thermocouple_coefScaleVT[Thermocouple_RANGE_MAS_2]));
 477:.\Generated_Source\PSoC4/Thermocouple.c ****             }
 478:.\Generated_Source\PSoC4/Thermocouple.c ****         }
 479:.\Generated_Source\PSoC4/Thermocouple.c ****     }
 480:.\Generated_Source\PSoC4/Thermocouple.c **** 
ARM GAS  C:\Users\faithc\AppData\Local\Temp\cchhuTE1.s 			page 20


 481:.\Generated_Source\PSoC4/Thermocouple.c ****     #endif /* End Thermocouple_VT_RANGE_LEN == Thermocouple_THREE */
 482:.\Generated_Source\PSoC4/Thermocouple.c **** 
 483:.\Generated_Source\PSoC4/Thermocouple.c ****     return (temp);
 484:.\Generated_Source\PSoC4/Thermocouple.c **** }
 550              		.loc 1 484 0
 551 022c 20B0     		add	sp, sp, #128
 552              		@ sp needed
 553 022e 04BC     		pop	{r2}
 554 0230 9046     		mov	r8, r2
 555 0232 F0BD     		pop	{r4, r5, r6, r7, pc}
 556              	.L121:
 557              		.align	2
 558              	.L120:
 559 0234 00000000 		.word	.LANCHOR0
 560 0238 A4500000 		.word	20644
 561              	.LVL28:
 562              	.L36:
 563              	.LBB44:
 564              	.LBB45:
  43:.\Generated_Source\PSoC4/Thermocouple.c ****         if (result < 0)
 565              		.loc 1 43 0
 566 023c 1F9B     		ldr	r3, [sp, #124]
 567              	.LBE45:
 568              	.LBE44:
 454:.\Generated_Source\PSoC4/Thermocouple.c ****                                                (Thermocouple_IN_NORMALIZATION_VT - 
 569              		.loc 1 454 0
 570 023e 2402     		lsl	r4, r4, #8
 571              	.LVL29:
 572 0240 E517     		asr	r5, r4, #31
 573              	.LVL30:
 574              	.LBB63:
 575              	.LBB46:
  43:.\Generated_Source\PSoC4/Thermocouple.c ****         if (result < 0)
 576              		.loc 1 43 0
 577 0242 0193     		str	r3, [sp, #4]
 578 0244 D917     		asr	r1, r3, #31
 579 0246 181C     		mov	r0, r3
 580 0248 221C     		mov	r2, r4
 581 024a 2B1C     		mov	r3, r5
 582 024c FFF7FEFF 		bl	__aeabi_lmul
 583              	.LVL31:
  46:.\Generated_Source\PSoC4/Thermocouple.c ****             result = (int32)((uint64)((uint64)result >> Thermocouple_24BIT_SHIFTING));
 584              		.loc 1 46 0
 585 0250 0023     		mov	r3, #0
 586 0252 4242     		neg	r2, r0
 587 0254 8B41     		sbc	r3, r1
  47:.\Generated_Source\PSoC4/Thermocouple.c ****             result = -result;
 588              		.loc 1 47 0
 589 0256 1B02     		lsl	r3, r3, #8
 590 0258 160E     		lsr	r6, r2, #24
 591 025a 1E43     		orr	r6, r3
 592 025c 321C     		mov	r2, r6
 593 025e F317     		asr	r3, r6, #31
  48:.\Generated_Source\PSoC4/Thermocouple.c ****         }
 594              		.loc 1 48 0
 595 0260 0027     		mov	r7, #0
 596 0262 5642     		neg	r6, r2
ARM GAS  C:\Users\faithc\AppData\Local\Temp\cchhuTE1.s 			page 21


 597 0264 9F41     		sbc	r7, r3
  52:.\Generated_Source\PSoC4/Thermocouple.c ****         }
 598              		.loc 1 52 0
 599 0266 030E     		lsr	r3, r0, #24
 600 0268 0A02     		lsl	r2, r1, #8
 601 026a 1A43     		orr	r2, r3
 602 026c 101C     		mov	r0, r2
 603 026e 0029     		cmp	r1, #0
 604 0270 00DA     		bge	.LCB474
 605 0272 D7E1     		b	.L102	@long jump
 606              	.LCB474:
 607              	.L65:
 608              	.LBE46:
 609              	.LBE63:
 461:.\Generated_Source\PSoC4/Thermocouple.c ****                        temp), voltage);
 610              		.loc 1 461 0
 611 0274 1C9B     		ldr	r3, [sp, #112]
 612              	.LBB64:
 613              	.LBB47:
  43:.\Generated_Source\PSoC4/Thermocouple.c ****         if (result < 0)
 614              		.loc 1 43 0
 615 0276 221C     		mov	r2, r4
 616              	.LBE47:
 617              	.LBE64:
 461:.\Generated_Source\PSoC4/Thermocouple.c ****                        temp), voltage);
 618              		.loc 1 461 0
 619 0278 9C46     		mov	ip, r3
 620 027a 6044     		add	r0, r0, ip
 621 027c 0193     		str	r3, [sp, #4]
 622              	.LBB65:
 623              	.LBB48:
  43:.\Generated_Source\PSoC4/Thermocouple.c ****         if (result < 0)
 624              		.loc 1 43 0
 625 027e C117     		asr	r1, r0, #31
 626 0280 2B1C     		mov	r3, r5
 627 0282 FFF7FEFF 		bl	__aeabi_lmul
 628              	.LVL32:
  46:.\Generated_Source\PSoC4/Thermocouple.c ****             result = (int32)((uint64)((uint64)result >> Thermocouple_24BIT_SHIFTING));
 629              		.loc 1 46 0
 630 0286 0023     		mov	r3, #0
 631 0288 4242     		neg	r2, r0
 632 028a 8B41     		sbc	r3, r1
  47:.\Generated_Source\PSoC4/Thermocouple.c ****             result = -result;
 633              		.loc 1 47 0
 634 028c 1B02     		lsl	r3, r3, #8
 635 028e 160E     		lsr	r6, r2, #24
 636 0290 1E43     		orr	r6, r3
 637 0292 321C     		mov	r2, r6
 638 0294 F317     		asr	r3, r6, #31
  48:.\Generated_Source\PSoC4/Thermocouple.c ****         }
 639              		.loc 1 48 0
 640 0296 0027     		mov	r7, #0
 641 0298 5642     		neg	r6, r2
 642 029a 9F41     		sbc	r7, r3
  52:.\Generated_Source\PSoC4/Thermocouple.c ****         }
 643              		.loc 1 52 0
 644 029c 030E     		lsr	r3, r0, #24
ARM GAS  C:\Users\faithc\AppData\Local\Temp\cchhuTE1.s 			page 22


 645 029e 0A02     		lsl	r2, r1, #8
 646 02a0 1A43     		orr	r2, r3
 647 02a2 101C     		mov	r0, r2
 648 02a4 0029     		cmp	r1, #0
 649 02a6 00DA     		bge	.LCB506
 650 02a8 BAE1     		b	.L103	@long jump
 651              	.LCB506:
 652              	.L68:
 653              	.LBE48:
 654              	.LBE65:
 461:.\Generated_Source\PSoC4/Thermocouple.c ****                        temp), voltage);
 655              		.loc 1 461 0
 656 02aa 199B     		ldr	r3, [sp, #100]
 657              	.LBB66:
 658              	.LBB49:
  43:.\Generated_Source\PSoC4/Thermocouple.c ****         if (result < 0)
 659              		.loc 1 43 0
 660 02ac 221C     		mov	r2, r4
 661              	.LBE49:
 662              	.LBE66:
 461:.\Generated_Source\PSoC4/Thermocouple.c ****                        temp), voltage);
 663              		.loc 1 461 0
 664 02ae 9C46     		mov	ip, r3
 665 02b0 6044     		add	r0, r0, ip
 666 02b2 0193     		str	r3, [sp, #4]
 667              	.LBB67:
 668              	.LBB50:
  43:.\Generated_Source\PSoC4/Thermocouple.c ****         if (result < 0)
 669              		.loc 1 43 0
 670 02b4 C117     		asr	r1, r0, #31
 671 02b6 2B1C     		mov	r3, r5
 672 02b8 FFF7FEFF 		bl	__aeabi_lmul
 673              	.LVL33:
  46:.\Generated_Source\PSoC4/Thermocouple.c ****             result = (int32)((uint64)((uint64)result >> Thermocouple_24BIT_SHIFTING));
 674              		.loc 1 46 0
 675 02bc 0023     		mov	r3, #0
 676 02be 4242     		neg	r2, r0
 677 02c0 8B41     		sbc	r3, r1
  47:.\Generated_Source\PSoC4/Thermocouple.c ****             result = -result;
 678              		.loc 1 47 0
 679 02c2 1B02     		lsl	r3, r3, #8
 680 02c4 160E     		lsr	r6, r2, #24
 681 02c6 1E43     		orr	r6, r3
 682 02c8 321C     		mov	r2, r6
 683 02ca F317     		asr	r3, r6, #31
  48:.\Generated_Source\PSoC4/Thermocouple.c ****         }
 684              		.loc 1 48 0
 685 02cc 0027     		mov	r7, #0
 686 02ce 5642     		neg	r6, r2
 687 02d0 9F41     		sbc	r7, r3
  52:.\Generated_Source\PSoC4/Thermocouple.c ****         }
 688              		.loc 1 52 0
 689 02d2 030E     		lsr	r3, r0, #24
 690 02d4 0A02     		lsl	r2, r1, #8
 691 02d6 1A43     		orr	r2, r3
 692 02d8 101C     		mov	r0, r2
 693 02da 0029     		cmp	r1, #0
ARM GAS  C:\Users\faithc\AppData\Local\Temp\cchhuTE1.s 			page 23


 694 02dc 00DA     		bge	.LCB538
 695 02de A9E1     		b	.L104	@long jump
 696              	.LCB538:
 697              	.L71:
 698              	.LBE50:
 699              	.LBE67:
 461:.\Generated_Source\PSoC4/Thermocouple.c ****                        temp), voltage);
 700              		.loc 1 461 0
 701 02e0 169B     		ldr	r3, [sp, #88]
 702              	.LBB68:
 703              	.LBB51:
  43:.\Generated_Source\PSoC4/Thermocouple.c ****         if (result < 0)
 704              		.loc 1 43 0
 705 02e2 221C     		mov	r2, r4
 706              	.LBE51:
 707              	.LBE68:
 461:.\Generated_Source\PSoC4/Thermocouple.c ****                        temp), voltage);
 708              		.loc 1 461 0
 709 02e4 9C46     		mov	ip, r3
 710 02e6 6044     		add	r0, r0, ip
 711 02e8 0193     		str	r3, [sp, #4]
 712              	.LBB69:
 713              	.LBB52:
  43:.\Generated_Source\PSoC4/Thermocouple.c ****         if (result < 0)
 714              		.loc 1 43 0
 715 02ea C117     		asr	r1, r0, #31
 716 02ec 2B1C     		mov	r3, r5
 717 02ee FFF7FEFF 		bl	__aeabi_lmul
 718              	.LVL34:
  46:.\Generated_Source\PSoC4/Thermocouple.c ****             result = (int32)((uint64)((uint64)result >> Thermocouple_24BIT_SHIFTING));
 719              		.loc 1 46 0
 720 02f2 0023     		mov	r3, #0
 721 02f4 4242     		neg	r2, r0
 722 02f6 8B41     		sbc	r3, r1
  47:.\Generated_Source\PSoC4/Thermocouple.c ****             result = -result;
 723              		.loc 1 47 0
 724 02f8 1B02     		lsl	r3, r3, #8
 725 02fa 160E     		lsr	r6, r2, #24
 726 02fc 1E43     		orr	r6, r3
 727 02fe 321C     		mov	r2, r6
 728 0300 F317     		asr	r3, r6, #31
  48:.\Generated_Source\PSoC4/Thermocouple.c ****         }
 729              		.loc 1 48 0
 730 0302 0027     		mov	r7, #0
 731 0304 5642     		neg	r6, r2
 732 0306 9F41     		sbc	r7, r3
  52:.\Generated_Source\PSoC4/Thermocouple.c ****         }
 733              		.loc 1 52 0
 734 0308 030E     		lsr	r3, r0, #24
 735 030a 0A02     		lsl	r2, r1, #8
 736 030c 1A43     		orr	r2, r3
 737 030e 101C     		mov	r0, r2
 738 0310 0029     		cmp	r1, #0
 739 0312 00DA     		bge	.LCB570
 740 0314 8CE1     		b	.L105	@long jump
 741              	.LCB570:
 742              	.L74:
ARM GAS  C:\Users\faithc\AppData\Local\Temp\cchhuTE1.s 			page 24


 743              	.LBE52:
 744              	.LBE69:
 461:.\Generated_Source\PSoC4/Thermocouple.c ****                        temp), voltage);
 745              		.loc 1 461 0
 746 0316 139B     		ldr	r3, [sp, #76]
 747              	.LBB70:
 748              	.LBB53:
  43:.\Generated_Source\PSoC4/Thermocouple.c ****         if (result < 0)
 749              		.loc 1 43 0
 750 0318 221C     		mov	r2, r4
 751              	.LBE53:
 752              	.LBE70:
 461:.\Generated_Source\PSoC4/Thermocouple.c ****                        temp), voltage);
 753              		.loc 1 461 0
 754 031a 9C46     		mov	ip, r3
 755 031c 6044     		add	r0, r0, ip
 756 031e 0193     		str	r3, [sp, #4]
 757              	.LBB71:
 758              	.LBB54:
  43:.\Generated_Source\PSoC4/Thermocouple.c ****         if (result < 0)
 759              		.loc 1 43 0
 760 0320 C117     		asr	r1, r0, #31
 761 0322 2B1C     		mov	r3, r5
 762 0324 FFF7FEFF 		bl	__aeabi_lmul
 763              	.LVL35:
  46:.\Generated_Source\PSoC4/Thermocouple.c ****             result = (int32)((uint64)((uint64)result >> Thermocouple_24BIT_SHIFTING));
 764              		.loc 1 46 0
 765 0328 0023     		mov	r3, #0
 766 032a 4242     		neg	r2, r0
 767 032c 8B41     		sbc	r3, r1
  47:.\Generated_Source\PSoC4/Thermocouple.c ****             result = -result;
 768              		.loc 1 47 0
 769 032e 1B02     		lsl	r3, r3, #8
 770 0330 160E     		lsr	r6, r2, #24
 771 0332 1E43     		orr	r6, r3
 772 0334 321C     		mov	r2, r6
 773 0336 F317     		asr	r3, r6, #31
  48:.\Generated_Source\PSoC4/Thermocouple.c ****         }
 774              		.loc 1 48 0
 775 0338 0027     		mov	r7, #0
 776 033a 5642     		neg	r6, r2
 777 033c 9F41     		sbc	r7, r3
  52:.\Generated_Source\PSoC4/Thermocouple.c ****         }
 778              		.loc 1 52 0
 779 033e 030E     		lsr	r3, r0, #24
 780 0340 0A02     		lsl	r2, r1, #8
 781 0342 1A43     		orr	r2, r3
 782 0344 101C     		mov	r0, r2
 783 0346 0029     		cmp	r1, #0
 784 0348 00DA     		bge	.LCB602
 785 034a 6FE1     		b	.L106	@long jump
 786              	.LCB602:
 787              	.L77:
 788              	.LBE54:
 789              	.LBE71:
 461:.\Generated_Source\PSoC4/Thermocouple.c ****                        temp), voltage);
 790              		.loc 1 461 0
ARM GAS  C:\Users\faithc\AppData\Local\Temp\cchhuTE1.s 			page 25


 791 034c 109B     		ldr	r3, [sp, #64]
 792              	.LBB72:
 793              	.LBB55:
  43:.\Generated_Source\PSoC4/Thermocouple.c ****         if (result < 0)
 794              		.loc 1 43 0
 795 034e 221C     		mov	r2, r4
 796              	.LBE55:
 797              	.LBE72:
 461:.\Generated_Source\PSoC4/Thermocouple.c ****                        temp), voltage);
 798              		.loc 1 461 0
 799 0350 9C46     		mov	ip, r3
 800 0352 6044     		add	r0, r0, ip
 801 0354 0193     		str	r3, [sp, #4]
 802              	.LBB73:
 803              	.LBB56:
  43:.\Generated_Source\PSoC4/Thermocouple.c ****         if (result < 0)
 804              		.loc 1 43 0
 805 0356 C117     		asr	r1, r0, #31
 806 0358 2B1C     		mov	r3, r5
 807 035a FFF7FEFF 		bl	__aeabi_lmul
 808              	.LVL36:
  46:.\Generated_Source\PSoC4/Thermocouple.c ****             result = (int32)((uint64)((uint64)result >> Thermocouple_24BIT_SHIFTING));
 809              		.loc 1 46 0
 810 035e 0023     		mov	r3, #0
 811 0360 4242     		neg	r2, r0
 812 0362 8B41     		sbc	r3, r1
  47:.\Generated_Source\PSoC4/Thermocouple.c ****             result = -result;
 813              		.loc 1 47 0
 814 0364 1B02     		lsl	r3, r3, #8
 815 0366 160E     		lsr	r6, r2, #24
 816 0368 1E43     		orr	r6, r3
 817 036a 321C     		mov	r2, r6
 818 036c F317     		asr	r3, r6, #31
  48:.\Generated_Source\PSoC4/Thermocouple.c ****         }
 819              		.loc 1 48 0
 820 036e 0027     		mov	r7, #0
 821 0370 5642     		neg	r6, r2
 822 0372 9F41     		sbc	r7, r3
  52:.\Generated_Source\PSoC4/Thermocouple.c ****         }
 823              		.loc 1 52 0
 824 0374 030E     		lsr	r3, r0, #24
 825 0376 0A02     		lsl	r2, r1, #8
 826 0378 1A43     		orr	r2, r3
 827 037a 101C     		mov	r0, r2
 828 037c 0029     		cmp	r1, #0
 829 037e 00DA     		bge	.LCB634
 830 0380 52E1     		b	.L107	@long jump
 831              	.LCB634:
 832              	.L80:
 833              	.LBE56:
 834              	.LBE73:
 461:.\Generated_Source\PSoC4/Thermocouple.c ****                        temp), voltage);
 835              		.loc 1 461 0
 836 0382 0D9B     		ldr	r3, [sp, #52]
 837              	.LBB74:
 838              	.LBB57:
  43:.\Generated_Source\PSoC4/Thermocouple.c ****         if (result < 0)
ARM GAS  C:\Users\faithc\AppData\Local\Temp\cchhuTE1.s 			page 26


 839              		.loc 1 43 0
 840 0384 221C     		mov	r2, r4
 841              	.LBE57:
 842              	.LBE74:
 461:.\Generated_Source\PSoC4/Thermocouple.c ****                        temp), voltage);
 843              		.loc 1 461 0
 844 0386 9C46     		mov	ip, r3
 845 0388 6044     		add	r0, r0, ip
 846 038a 0193     		str	r3, [sp, #4]
 847              	.LBB75:
 848              	.LBB58:
  43:.\Generated_Source\PSoC4/Thermocouple.c ****         if (result < 0)
 849              		.loc 1 43 0
 850 038c C117     		asr	r1, r0, #31
 851 038e 2B1C     		mov	r3, r5
 852 0390 FFF7FEFF 		bl	__aeabi_lmul
 853              	.LVL37:
  46:.\Generated_Source\PSoC4/Thermocouple.c ****             result = (int32)((uint64)((uint64)result >> Thermocouple_24BIT_SHIFTING));
 854              		.loc 1 46 0
 855 0394 0023     		mov	r3, #0
 856 0396 4242     		neg	r2, r0
 857 0398 8B41     		sbc	r3, r1
  47:.\Generated_Source\PSoC4/Thermocouple.c ****             result = -result;
 858              		.loc 1 47 0
 859 039a 1B02     		lsl	r3, r3, #8
 860 039c 160E     		lsr	r6, r2, #24
 861 039e 1E43     		orr	r6, r3
 862 03a0 321C     		mov	r2, r6
 863 03a2 F317     		asr	r3, r6, #31
  48:.\Generated_Source\PSoC4/Thermocouple.c ****         }
 864              		.loc 1 48 0
 865 03a4 0027     		mov	r7, #0
 866 03a6 5642     		neg	r6, r2
 867 03a8 9F41     		sbc	r7, r3
  52:.\Generated_Source\PSoC4/Thermocouple.c ****         }
 868              		.loc 1 52 0
 869 03aa 030E     		lsr	r3, r0, #24
 870 03ac 0A02     		lsl	r2, r1, #8
 871 03ae 1A43     		orr	r2, r3
 872 03b0 101C     		mov	r0, r2
 873 03b2 0029     		cmp	r1, #0
 874 03b4 00DA     		bge	.LCB666
 875 03b6 31E1     		b	.L108	@long jump
 876              	.LCB666:
 877              	.L83:
 878              	.LBE58:
 879              	.LBE75:
 461:.\Generated_Source\PSoC4/Thermocouple.c ****                        temp), voltage);
 880              		.loc 1 461 0
 881 03b8 0A9B     		ldr	r3, [sp, #40]
 882              	.LBB76:
 883              	.LBB59:
  43:.\Generated_Source\PSoC4/Thermocouple.c ****         if (result < 0)
 884              		.loc 1 43 0
 885 03ba 221C     		mov	r2, r4
 886              	.LBE59:
 887              	.LBE76:
ARM GAS  C:\Users\faithc\AppData\Local\Temp\cchhuTE1.s 			page 27


 461:.\Generated_Source\PSoC4/Thermocouple.c ****                        temp), voltage);
 888              		.loc 1 461 0
 889 03bc 9C46     		mov	ip, r3
 890 03be 6044     		add	r0, r0, ip
 891 03c0 0193     		str	r3, [sp, #4]
 892              	.LBB77:
 893              	.LBB60:
  43:.\Generated_Source\PSoC4/Thermocouple.c ****         if (result < 0)
 894              		.loc 1 43 0
 895 03c2 C117     		asr	r1, r0, #31
 896 03c4 2B1C     		mov	r3, r5
 897 03c6 FFF7FEFF 		bl	__aeabi_lmul
 898              	.LVL38:
  46:.\Generated_Source\PSoC4/Thermocouple.c ****             result = (int32)((uint64)((uint64)result >> Thermocouple_24BIT_SHIFTING));
 899              		.loc 1 46 0
 900 03ca 0023     		mov	r3, #0
 901 03cc 4242     		neg	r2, r0
 902 03ce 8B41     		sbc	r3, r1
  47:.\Generated_Source\PSoC4/Thermocouple.c ****             result = -result;
 903              		.loc 1 47 0
 904 03d0 1B02     		lsl	r3, r3, #8
 905 03d2 160E     		lsr	r6, r2, #24
 906 03d4 1E43     		orr	r6, r3
 907 03d6 321C     		mov	r2, r6
 908 03d8 F317     		asr	r3, r6, #31
  48:.\Generated_Source\PSoC4/Thermocouple.c ****         }
 909              		.loc 1 48 0
 910 03da 0027     		mov	r7, #0
 911 03dc 5642     		neg	r6, r2
 912 03de 9F41     		sbc	r7, r3
  52:.\Generated_Source\PSoC4/Thermocouple.c ****         }
 913              		.loc 1 52 0
 914 03e0 030E     		lsr	r3, r0, #24
 915 03e2 0A02     		lsl	r2, r1, #8
 916 03e4 1A43     		orr	r2, r3
 917 03e6 101C     		mov	r0, r2
 918 03e8 0029     		cmp	r1, #0
 919 03ea 00DA     		bge	.LCB698
 920 03ec 14E1     		b	.L109	@long jump
 921              	.LCB698:
 922              	.L86:
 923              	.LBE60:
 924              	.LBE77:
 461:.\Generated_Source\PSoC4/Thermocouple.c ****                        temp), voltage);
 925              		.loc 1 461 0
 926 03ee 079B     		ldr	r3, [sp, #28]
 927              	.LBB78:
 928              	.LBB61:
  43:.\Generated_Source\PSoC4/Thermocouple.c ****         if (result < 0)
 929              		.loc 1 43 0
 930 03f0 221C     		mov	r2, r4
 931              	.LBE61:
 932              	.LBE78:
 461:.\Generated_Source\PSoC4/Thermocouple.c ****                        temp), voltage);
 933              		.loc 1 461 0
 934 03f2 9C46     		mov	ip, r3
 935 03f4 6044     		add	r0, r0, ip
ARM GAS  C:\Users\faithc\AppData\Local\Temp\cchhuTE1.s 			page 28


 936 03f6 0193     		str	r3, [sp, #4]
 937              	.LBB79:
 938              	.LBB62:
  43:.\Generated_Source\PSoC4/Thermocouple.c ****         if (result < 0)
 939              		.loc 1 43 0
 940 03f8 C117     		asr	r1, r0, #31
 941 03fa 2B1C     		mov	r3, r5
 942 03fc FFF7FEFF 		bl	__aeabi_lmul
 943              	.LVL39:
  46:.\Generated_Source\PSoC4/Thermocouple.c ****             result = (int32)((uint64)((uint64)result >> Thermocouple_24BIT_SHIFTING));
 944              		.loc 1 46 0
 945 0400 0023     		mov	r3, #0
 946 0402 4242     		neg	r2, r0
 947 0404 8B41     		sbc	r3, r1
  47:.\Generated_Source\PSoC4/Thermocouple.c ****             result = -result;
 948              		.loc 1 47 0
 949 0406 1B02     		lsl	r3, r3, #8
 950 0408 120E     		lsr	r2, r2, #24
 951 040a 1A43     		orr	r2, r3
 952 040c 161C     		mov	r6, r2
 953 040e D717     		asr	r7, r2, #31
  52:.\Generated_Source\PSoC4/Thermocouple.c ****         }
 954              		.loc 1 52 0
 955 0410 030E     		lsr	r3, r0, #24
 956 0412 0A02     		lsl	r2, r1, #8
  48:.\Generated_Source\PSoC4/Thermocouple.c ****         }
 957              		.loc 1 48 0
 958 0414 0025     		mov	r5, #0
 959 0416 7442     		neg	r4, r6
 960 0418 BD41     		sbc	r5, r7
 961              	.LVL40:
  52:.\Generated_Source\PSoC4/Thermocouple.c ****         }
 962              		.loc 1 52 0
 963 041a 1343     		orr	r3, r2
 964              	.LVL41:
 965 041c 0029     		cmp	r1, #0
 966 041e 06DB     		blt	.L110
 967              	.L89:
 968              	.LBE62:
 969              	.LBE79:
 474:.\Generated_Source\PSoC4/Thermocouple.c ****                         Thermocouple_coeffVT[Thermocouple_FIRST_EL_MAS][Thermocouple_RANGE_MAS_2]) 
 970              		.loc 1 474 0
 971 0420 0498     		ldr	r0, [sp, #16]
 972              	.LVL42:
 973              	.L91:
 974 0422 C318     		add	r3, r0, r3
 975 0424 D817     		asr	r0, r3, #31
 475:.\Generated_Source\PSoC4/Thermocouple.c ****                         Thermocouple_coefScaleVT[Thermocouple_RANGE_MAS_2]));
 976              		.loc 1 475 0
 977 0426 4006     		lsl	r0, r0, #25
 978 0428 DB09     		lsr	r3, r3, #7
 979 042a 1843     		orr	r0, r3
 980              	.LVL43:
 981 042c FEE6     		b	.L35
 982              	.LVL44:
 983              	.L110:
 984 042e 231C     		mov	r3, r4
ARM GAS  C:\Users\faithc\AppData\Local\Temp\cchhuTE1.s 			page 29


 985 0430 F6E7     		b	.L89
 986              	.LVL45:
 987              	.L92:
 988              	.LBB80:
 989              	.LBB81:
  43:.\Generated_Source\PSoC4/Thermocouple.c ****         if (result < 0)
 990              		.loc 1 43 0
 991 0432 1D9B     		ldr	r3, [sp, #116]
 992              	.LBE81:
 993              	.LBE80:
 374:.\Generated_Source\PSoC4/Thermocouple.c ****             }
 994              		.loc 1 374 0
 995 0434 E402     		lsl	r4, r4, #11
 996              	.LVL46:
 997 0436 E517     		asr	r5, r4, #31
 998              	.LVL47:
 999              	.LBB99:
 1000              	.LBB82:
  43:.\Generated_Source\PSoC4/Thermocouple.c ****         if (result < 0)
 1001              		.loc 1 43 0
 1002 0438 0193     		str	r3, [sp, #4]
 1003 043a D917     		asr	r1, r3, #31
 1004 043c 181C     		mov	r0, r3
 1005 043e 221C     		mov	r2, r4
 1006 0440 2B1C     		mov	r3, r5
 1007 0442 FFF7FEFF 		bl	__aeabi_lmul
 1008              	.LVL48:
  46:.\Generated_Source\PSoC4/Thermocouple.c ****             result = (int32)((uint64)((uint64)result >> Thermocouple_24BIT_SHIFTING));
 1009              		.loc 1 46 0
 1010 0446 0023     		mov	r3, #0
 1011 0448 4242     		neg	r2, r0
 1012 044a 8B41     		sbc	r3, r1
  47:.\Generated_Source\PSoC4/Thermocouple.c ****             result = -result;
 1013              		.loc 1 47 0
 1014 044c 1B02     		lsl	r3, r3, #8
 1015 044e 160E     		lsr	r6, r2, #24
 1016 0450 1E43     		orr	r6, r3
 1017 0452 321C     		mov	r2, r6
 1018 0454 F317     		asr	r3, r6, #31
  48:.\Generated_Source\PSoC4/Thermocouple.c ****         }
 1019              		.loc 1 48 0
 1020 0456 0027     		mov	r7, #0
 1021 0458 5642     		neg	r6, r2
 1022 045a 9F41     		sbc	r7, r3
  52:.\Generated_Source\PSoC4/Thermocouple.c ****         }
 1023              		.loc 1 52 0
 1024 045c 030E     		lsr	r3, r0, #24
 1025 045e 0A02     		lsl	r2, r1, #8
 1026 0460 1A43     		orr	r2, r3
 1027 0462 101C     		mov	r0, r2
 1028 0464 0029     		cmp	r1, #0
 1029 0466 00DA     		bge	.LCB795
 1030 0468 07E1     		b	.L111	@long jump
 1031              	.LCB795:
 1032              	.L9:
 1033              	.LBE82:
 1034              	.LBE99:
ARM GAS  C:\Users\faithc\AppData\Local\Temp\cchhuTE1.s 			page 30


 385:.\Generated_Source\PSoC4/Thermocouple.c ****                        temp), voltage);
 1035              		.loc 1 385 0
 1036 046a 1A9B     		ldr	r3, [sp, #104]
 1037              	.LBB100:
 1038              	.LBB83:
  43:.\Generated_Source\PSoC4/Thermocouple.c ****         if (result < 0)
 1039              		.loc 1 43 0
 1040 046c 221C     		mov	r2, r4
 1041              	.LBE83:
 1042              	.LBE100:
 385:.\Generated_Source\PSoC4/Thermocouple.c ****                        temp), voltage);
 1043              		.loc 1 385 0
 1044 046e 9C46     		mov	ip, r3
 1045 0470 6044     		add	r0, r0, ip
 1046 0472 0193     		str	r3, [sp, #4]
 1047              	.LBB101:
 1048              	.LBB84:
  43:.\Generated_Source\PSoC4/Thermocouple.c ****         if (result < 0)
 1049              		.loc 1 43 0
 1050 0474 C117     		asr	r1, r0, #31
 1051 0476 2B1C     		mov	r3, r5
 1052 0478 FFF7FEFF 		bl	__aeabi_lmul
 1053              	.LVL49:
  46:.\Generated_Source\PSoC4/Thermocouple.c ****             result = (int32)((uint64)((uint64)result >> Thermocouple_24BIT_SHIFTING));
 1054              		.loc 1 46 0
 1055 047c 0023     		mov	r3, #0
 1056 047e 4242     		neg	r2, r0
 1057 0480 8B41     		sbc	r3, r1
  47:.\Generated_Source\PSoC4/Thermocouple.c ****             result = -result;
 1058              		.loc 1 47 0
 1059 0482 1B02     		lsl	r3, r3, #8
 1060 0484 160E     		lsr	r6, r2, #24
 1061 0486 1E43     		orr	r6, r3
 1062 0488 321C     		mov	r2, r6
 1063 048a F317     		asr	r3, r6, #31
  48:.\Generated_Source\PSoC4/Thermocouple.c ****         }
 1064              		.loc 1 48 0
 1065 048c 0027     		mov	r7, #0
 1066 048e 5642     		neg	r6, r2
 1067 0490 9F41     		sbc	r7, r3
  52:.\Generated_Source\PSoC4/Thermocouple.c ****         }
 1068              		.loc 1 52 0
 1069 0492 030E     		lsr	r3, r0, #24
 1070 0494 0A02     		lsl	r2, r1, #8
 1071 0496 1A43     		orr	r2, r3
 1072 0498 101C     		mov	r0, r2
 1073 049a 0029     		cmp	r1, #0
 1074 049c 00DA     		bge	.LCB827
 1075 049e EAE0     		b	.L112	@long jump
 1076              	.LCB827:
 1077              	.L12:
 1078              	.LBE84:
 1079              	.LBE101:
 385:.\Generated_Source\PSoC4/Thermocouple.c ****                        temp), voltage);
 1080              		.loc 1 385 0
 1081 04a0 179B     		ldr	r3, [sp, #92]
 1082              	.LBB102:
ARM GAS  C:\Users\faithc\AppData\Local\Temp\cchhuTE1.s 			page 31


 1083              	.LBB85:
  43:.\Generated_Source\PSoC4/Thermocouple.c ****         if (result < 0)
 1084              		.loc 1 43 0
 1085 04a2 221C     		mov	r2, r4
 1086              	.LBE85:
 1087              	.LBE102:
 385:.\Generated_Source\PSoC4/Thermocouple.c ****                        temp), voltage);
 1088              		.loc 1 385 0
 1089 04a4 9C46     		mov	ip, r3
 1090 04a6 6044     		add	r0, r0, ip
 1091 04a8 0193     		str	r3, [sp, #4]
 1092              	.LBB103:
 1093              	.LBB86:
  43:.\Generated_Source\PSoC4/Thermocouple.c ****         if (result < 0)
 1094              		.loc 1 43 0
 1095 04aa C117     		asr	r1, r0, #31
 1096 04ac 2B1C     		mov	r3, r5
 1097 04ae FFF7FEFF 		bl	__aeabi_lmul
 1098              	.LVL50:
  46:.\Generated_Source\PSoC4/Thermocouple.c ****             result = (int32)((uint64)((uint64)result >> Thermocouple_24BIT_SHIFTING));
 1099              		.loc 1 46 0
 1100 04b2 0023     		mov	r3, #0
 1101 04b4 4242     		neg	r2, r0
 1102 04b6 8B41     		sbc	r3, r1
  47:.\Generated_Source\PSoC4/Thermocouple.c ****             result = -result;
 1103              		.loc 1 47 0
 1104 04b8 1B02     		lsl	r3, r3, #8
 1105 04ba 160E     		lsr	r6, r2, #24
 1106 04bc 1E43     		orr	r6, r3
 1107 04be 321C     		mov	r2, r6
 1108 04c0 F317     		asr	r3, r6, #31
  48:.\Generated_Source\PSoC4/Thermocouple.c ****         }
 1109              		.loc 1 48 0
 1110 04c2 0027     		mov	r7, #0
 1111 04c4 5642     		neg	r6, r2
 1112 04c6 9F41     		sbc	r7, r3
  52:.\Generated_Source\PSoC4/Thermocouple.c ****         }
 1113              		.loc 1 52 0
 1114 04c8 030E     		lsr	r3, r0, #24
 1115 04ca 0A02     		lsl	r2, r1, #8
 1116 04cc 1A43     		orr	r2, r3
 1117 04ce 101C     		mov	r0, r2
 1118 04d0 0029     		cmp	r1, #0
 1119 04d2 00DA     		bge	.LCB859
 1120 04d4 CDE0     		b	.L113	@long jump
 1121              	.LCB859:
 1122              	.L15:
 1123              	.LBE86:
 1124              	.LBE103:
 385:.\Generated_Source\PSoC4/Thermocouple.c ****                        temp), voltage);
 1125              		.loc 1 385 0
 1126 04d6 149B     		ldr	r3, [sp, #80]
 1127              	.LBB104:
 1128              	.LBB87:
  43:.\Generated_Source\PSoC4/Thermocouple.c ****         if (result < 0)
 1129              		.loc 1 43 0
 1130 04d8 221C     		mov	r2, r4
ARM GAS  C:\Users\faithc\AppData\Local\Temp\cchhuTE1.s 			page 32


 1131              	.LBE87:
 1132              	.LBE104:
 385:.\Generated_Source\PSoC4/Thermocouple.c ****                        temp), voltage);
 1133              		.loc 1 385 0
 1134 04da 9C46     		mov	ip, r3
 1135 04dc 6044     		add	r0, r0, ip
 1136 04de 0193     		str	r3, [sp, #4]
 1137              	.LBB105:
 1138              	.LBB88:
  43:.\Generated_Source\PSoC4/Thermocouple.c ****         if (result < 0)
 1139              		.loc 1 43 0
 1140 04e0 C117     		asr	r1, r0, #31
 1141 04e2 2B1C     		mov	r3, r5
 1142 04e4 FFF7FEFF 		bl	__aeabi_lmul
 1143              	.LVL51:
  46:.\Generated_Source\PSoC4/Thermocouple.c ****             result = (int32)((uint64)((uint64)result >> Thermocouple_24BIT_SHIFTING));
 1144              		.loc 1 46 0
 1145 04e8 0023     		mov	r3, #0
 1146 04ea 4242     		neg	r2, r0
 1147 04ec 8B41     		sbc	r3, r1
  47:.\Generated_Source\PSoC4/Thermocouple.c ****             result = -result;
 1148              		.loc 1 47 0
 1149 04ee 1B02     		lsl	r3, r3, #8
 1150 04f0 160E     		lsr	r6, r2, #24
 1151 04f2 1E43     		orr	r6, r3
 1152 04f4 321C     		mov	r2, r6
 1153 04f6 F317     		asr	r3, r6, #31
  48:.\Generated_Source\PSoC4/Thermocouple.c ****         }
 1154              		.loc 1 48 0
 1155 04f8 0027     		mov	r7, #0
 1156 04fa 5642     		neg	r6, r2
 1157 04fc 9F41     		sbc	r7, r3
  52:.\Generated_Source\PSoC4/Thermocouple.c ****         }
 1158              		.loc 1 52 0
 1159 04fe 030E     		lsr	r3, r0, #24
 1160 0500 0A02     		lsl	r2, r1, #8
 1161 0502 1A43     		orr	r2, r3
 1162 0504 101C     		mov	r0, r2
 1163 0506 0029     		cmp	r1, #0
 1164 0508 00DA     		bge	.LCB891
 1165 050a B0E0     		b	.L114	@long jump
 1166              	.LCB891:
 1167              	.L18:
 1168              	.LBE88:
 1169              	.LBE105:
 385:.\Generated_Source\PSoC4/Thermocouple.c ****                        temp), voltage);
 1170              		.loc 1 385 0
 1171 050c 119B     		ldr	r3, [sp, #68]
 1172              	.LBB106:
 1173              	.LBB89:
  43:.\Generated_Source\PSoC4/Thermocouple.c ****         if (result < 0)
 1174              		.loc 1 43 0
 1175 050e 221C     		mov	r2, r4
 1176              	.LBE89:
 1177              	.LBE106:
 385:.\Generated_Source\PSoC4/Thermocouple.c ****                        temp), voltage);
 1178              		.loc 1 385 0
ARM GAS  C:\Users\faithc\AppData\Local\Temp\cchhuTE1.s 			page 33


 1179 0510 9C46     		mov	ip, r3
 1180 0512 6044     		add	r0, r0, ip
 1181 0514 0193     		str	r3, [sp, #4]
 1182              	.LBB107:
 1183              	.LBB90:
  43:.\Generated_Source\PSoC4/Thermocouple.c ****         if (result < 0)
 1184              		.loc 1 43 0
 1185 0516 C117     		asr	r1, r0, #31
 1186 0518 2B1C     		mov	r3, r5
 1187 051a FFF7FEFF 		bl	__aeabi_lmul
 1188              	.LVL52:
  46:.\Generated_Source\PSoC4/Thermocouple.c ****             result = (int32)((uint64)((uint64)result >> Thermocouple_24BIT_SHIFTING));
 1189              		.loc 1 46 0
 1190 051e 0023     		mov	r3, #0
 1191 0520 4242     		neg	r2, r0
 1192 0522 8B41     		sbc	r3, r1
  47:.\Generated_Source\PSoC4/Thermocouple.c ****             result = -result;
 1193              		.loc 1 47 0
 1194 0524 1B02     		lsl	r3, r3, #8
 1195 0526 160E     		lsr	r6, r2, #24
 1196 0528 1E43     		orr	r6, r3
 1197 052a 321C     		mov	r2, r6
 1198 052c F317     		asr	r3, r6, #31
  48:.\Generated_Source\PSoC4/Thermocouple.c ****         }
 1199              		.loc 1 48 0
 1200 052e 0027     		mov	r7, #0
 1201 0530 5642     		neg	r6, r2
 1202 0532 9F41     		sbc	r7, r3
  52:.\Generated_Source\PSoC4/Thermocouple.c ****         }
 1203              		.loc 1 52 0
 1204 0534 030E     		lsr	r3, r0, #24
 1205 0536 0A02     		lsl	r2, r1, #8
 1206 0538 1A43     		orr	r2, r3
 1207 053a 101C     		mov	r0, r2
 1208 053c 0029     		cmp	r1, #0
 1209 053e 00DA     		bge	.LCB923
 1210 0540 93E0     		b	.L115	@long jump
 1211              	.LCB923:
 1212              	.L21:
 1213              	.LBE90:
 1214              	.LBE107:
 385:.\Generated_Source\PSoC4/Thermocouple.c ****                        temp), voltage);
 1215              		.loc 1 385 0
 1216 0542 0E9B     		ldr	r3, [sp, #56]
 1217              	.LBB108:
 1218              	.LBB91:
  43:.\Generated_Source\PSoC4/Thermocouple.c ****         if (result < 0)
 1219              		.loc 1 43 0
 1220 0544 221C     		mov	r2, r4
 1221              	.LBE91:
 1222              	.LBE108:
 385:.\Generated_Source\PSoC4/Thermocouple.c ****                        temp), voltage);
 1223              		.loc 1 385 0
 1224 0546 9C46     		mov	ip, r3
 1225 0548 6044     		add	r0, r0, ip
 1226 054a 0193     		str	r3, [sp, #4]
 1227              	.LBB109:
ARM GAS  C:\Users\faithc\AppData\Local\Temp\cchhuTE1.s 			page 34


 1228              	.LBB92:
  43:.\Generated_Source\PSoC4/Thermocouple.c ****         if (result < 0)
 1229              		.loc 1 43 0
 1230 054c C117     		asr	r1, r0, #31
 1231 054e 2B1C     		mov	r3, r5
 1232 0550 FFF7FEFF 		bl	__aeabi_lmul
 1233              	.LVL53:
  46:.\Generated_Source\PSoC4/Thermocouple.c ****             result = (int32)((uint64)((uint64)result >> Thermocouple_24BIT_SHIFTING));
 1234              		.loc 1 46 0
 1235 0554 0023     		mov	r3, #0
 1236 0556 4242     		neg	r2, r0
 1237 0558 8B41     		sbc	r3, r1
  47:.\Generated_Source\PSoC4/Thermocouple.c ****             result = -result;
 1238              		.loc 1 47 0
 1239 055a 1B02     		lsl	r3, r3, #8
 1240 055c 160E     		lsr	r6, r2, #24
 1241 055e 1E43     		orr	r6, r3
 1242 0560 321C     		mov	r2, r6
 1243 0562 F317     		asr	r3, r6, #31
  48:.\Generated_Source\PSoC4/Thermocouple.c ****         }
 1244              		.loc 1 48 0
 1245 0564 0027     		mov	r7, #0
 1246 0566 5642     		neg	r6, r2
 1247 0568 9F41     		sbc	r7, r3
  52:.\Generated_Source\PSoC4/Thermocouple.c ****         }
 1248              		.loc 1 52 0
 1249 056a 030E     		lsr	r3, r0, #24
 1250 056c 0A02     		lsl	r2, r1, #8
 1251 056e 1A43     		orr	r2, r3
 1252 0570 101C     		mov	r0, r2
 1253 0572 0029     		cmp	r1, #0
 1254 0574 77DB     		blt	.L116
 1255              	.L24:
 1256              	.LBE92:
 1257              	.LBE109:
 385:.\Generated_Source\PSoC4/Thermocouple.c ****                        temp), voltage);
 1258              		.loc 1 385 0
 1259 0576 0B9B     		ldr	r3, [sp, #44]
 1260              	.LBB110:
 1261              	.LBB93:
  43:.\Generated_Source\PSoC4/Thermocouple.c ****         if (result < 0)
 1262              		.loc 1 43 0
 1263 0578 221C     		mov	r2, r4
 1264              	.LBE93:
 1265              	.LBE110:
 385:.\Generated_Source\PSoC4/Thermocouple.c ****                        temp), voltage);
 1266              		.loc 1 385 0
 1267 057a 9C46     		mov	ip, r3
 1268 057c 6044     		add	r0, r0, ip
 1269 057e 0193     		str	r3, [sp, #4]
 1270              	.LBB111:
 1271              	.LBB94:
  43:.\Generated_Source\PSoC4/Thermocouple.c ****         if (result < 0)
 1272              		.loc 1 43 0
 1273 0580 C117     		asr	r1, r0, #31
 1274 0582 2B1C     		mov	r3, r5
 1275 0584 FFF7FEFF 		bl	__aeabi_lmul
ARM GAS  C:\Users\faithc\AppData\Local\Temp\cchhuTE1.s 			page 35


 1276              	.LVL54:
  46:.\Generated_Source\PSoC4/Thermocouple.c ****             result = (int32)((uint64)((uint64)result >> Thermocouple_24BIT_SHIFTING));
 1277              		.loc 1 46 0
 1278 0588 0023     		mov	r3, #0
 1279 058a 4242     		neg	r2, r0
 1280 058c 8B41     		sbc	r3, r1
  47:.\Generated_Source\PSoC4/Thermocouple.c ****             result = -result;
 1281              		.loc 1 47 0
 1282 058e 1B02     		lsl	r3, r3, #8
 1283 0590 160E     		lsr	r6, r2, #24
 1284 0592 1E43     		orr	r6, r3
 1285 0594 321C     		mov	r2, r6
 1286 0596 F317     		asr	r3, r6, #31
  48:.\Generated_Source\PSoC4/Thermocouple.c ****         }
 1287              		.loc 1 48 0
 1288 0598 0027     		mov	r7, #0
 1289 059a 5642     		neg	r6, r2
 1290 059c 9F41     		sbc	r7, r3
  52:.\Generated_Source\PSoC4/Thermocouple.c ****         }
 1291              		.loc 1 52 0
 1292 059e 030E     		lsr	r3, r0, #24
 1293 05a0 0A02     		lsl	r2, r1, #8
 1294 05a2 1A43     		orr	r2, r3
 1295 05a4 101C     		mov	r0, r2
 1296 05a6 0029     		cmp	r1, #0
 1297 05a8 5BDB     		blt	.L117
 1298              	.L27:
 1299              	.LBE94:
 1300              	.LBE111:
 385:.\Generated_Source\PSoC4/Thermocouple.c ****                        temp), voltage);
 1301              		.loc 1 385 0
 1302 05aa 089B     		ldr	r3, [sp, #32]
 1303              	.LBB112:
 1304              	.LBB95:
  43:.\Generated_Source\PSoC4/Thermocouple.c ****         if (result < 0)
 1305              		.loc 1 43 0
 1306 05ac 221C     		mov	r2, r4
 1307              	.LBE95:
 1308              	.LBE112:
 385:.\Generated_Source\PSoC4/Thermocouple.c ****                        temp), voltage);
 1309              		.loc 1 385 0
 1310 05ae 9C46     		mov	ip, r3
 1311 05b0 6044     		add	r0, r0, ip
 1312 05b2 0193     		str	r3, [sp, #4]
 1313              	.LBB113:
 1314              	.LBB96:
  43:.\Generated_Source\PSoC4/Thermocouple.c ****         if (result < 0)
 1315              		.loc 1 43 0
 1316 05b4 C117     		asr	r1, r0, #31
 1317 05b6 2B1C     		mov	r3, r5
 1318 05b8 FFF7FEFF 		bl	__aeabi_lmul
 1319              	.LVL55:
  46:.\Generated_Source\PSoC4/Thermocouple.c ****             result = (int32)((uint64)((uint64)result >> Thermocouple_24BIT_SHIFTING));
 1320              		.loc 1 46 0
 1321 05bc 0023     		mov	r3, #0
 1322 05be 4242     		neg	r2, r0
 1323 05c0 8B41     		sbc	r3, r1
ARM GAS  C:\Users\faithc\AppData\Local\Temp\cchhuTE1.s 			page 36


  47:.\Generated_Source\PSoC4/Thermocouple.c ****             result = -result;
 1324              		.loc 1 47 0
 1325 05c2 1B02     		lsl	r3, r3, #8
 1326 05c4 160E     		lsr	r6, r2, #24
 1327 05c6 1E43     		orr	r6, r3
 1328 05c8 321C     		mov	r2, r6
 1329 05ca F317     		asr	r3, r6, #31
  48:.\Generated_Source\PSoC4/Thermocouple.c ****         }
 1330              		.loc 1 48 0
 1331 05cc 0027     		mov	r7, #0
 1332 05ce 5642     		neg	r6, r2
 1333 05d0 9F41     		sbc	r7, r3
  52:.\Generated_Source\PSoC4/Thermocouple.c ****         }
 1334              		.loc 1 52 0
 1335 05d2 030E     		lsr	r3, r0, #24
 1336 05d4 0A02     		lsl	r2, r1, #8
 1337 05d6 1A43     		orr	r2, r3
 1338 05d8 101C     		mov	r0, r2
 1339 05da 0029     		cmp	r1, #0
 1340 05dc 3FDB     		blt	.L118
 1341              	.L30:
 1342              	.LBE96:
 1343              	.LBE113:
 385:.\Generated_Source\PSoC4/Thermocouple.c ****                        temp), voltage);
 1344              		.loc 1 385 0
 1345 05de 059B     		ldr	r3, [sp, #20]
 1346              	.LBB114:
 1347              	.LBB97:
  43:.\Generated_Source\PSoC4/Thermocouple.c ****         if (result < 0)
 1348              		.loc 1 43 0
 1349 05e0 221C     		mov	r2, r4
 1350              	.LBE97:
 1351              	.LBE114:
 385:.\Generated_Source\PSoC4/Thermocouple.c ****                        temp), voltage);
 1352              		.loc 1 385 0
 1353 05e2 9C46     		mov	ip, r3
 1354 05e4 6044     		add	r0, r0, ip
 1355 05e6 0193     		str	r3, [sp, #4]
 1356              	.LBB115:
 1357              	.LBB98:
  43:.\Generated_Source\PSoC4/Thermocouple.c ****         if (result < 0)
 1358              		.loc 1 43 0
 1359 05e8 C117     		asr	r1, r0, #31
 1360 05ea 2B1C     		mov	r3, r5
 1361 05ec FFF7FEFF 		bl	__aeabi_lmul
 1362              	.LVL56:
  46:.\Generated_Source\PSoC4/Thermocouple.c ****             result = (int32)((uint64)((uint64)result >> Thermocouple_24BIT_SHIFTING));
 1363              		.loc 1 46 0
 1364 05f0 0023     		mov	r3, #0
 1365 05f2 4242     		neg	r2, r0
 1366 05f4 8B41     		sbc	r3, r1
  47:.\Generated_Source\PSoC4/Thermocouple.c ****             result = -result;
 1367              		.loc 1 47 0
 1368 05f6 1B02     		lsl	r3, r3, #8
 1369 05f8 120E     		lsr	r2, r2, #24
 1370 05fa 1A43     		orr	r2, r3
 1371 05fc 161C     		mov	r6, r2
ARM GAS  C:\Users\faithc\AppData\Local\Temp\cchhuTE1.s 			page 37


 1372 05fe D717     		asr	r7, r2, #31
  52:.\Generated_Source\PSoC4/Thermocouple.c ****         }
 1373              		.loc 1 52 0
 1374 0600 030E     		lsr	r3, r0, #24
 1375 0602 0A02     		lsl	r2, r1, #8
  48:.\Generated_Source\PSoC4/Thermocouple.c ****         }
 1376              		.loc 1 48 0
 1377 0604 0025     		mov	r5, #0
 1378 0606 7442     		neg	r4, r6
 1379 0608 BD41     		sbc	r5, r7
 1380              	.LVL57:
  52:.\Generated_Source\PSoC4/Thermocouple.c ****         }
 1381              		.loc 1 52 0
 1382 060a 1343     		orr	r3, r2
 1383              	.LVL58:
 1384 060c 0029     		cmp	r1, #0
 1385 060e 23DB     		blt	.L119
 1386              	.LBE98:
 1387              	.LBE115:
 398:.\Generated_Source\PSoC4/Thermocouple.c ****                         Thermocouple_coeffVT[Thermocouple_FIRST_EL_MAS][Thermocouple_RANGE_MAS_0]) 
 1388              		.loc 1 398 0
 1389 0610 0298     		ldr	r0, [sp, #8]
 1390 0612 06E7     		b	.L91
 1391              	.LVL59:
 1392              	.L101:
 1393 0614 231C     		mov	r3, r4
 1394 0616 03E6     		b	.L62
 1395              	.LVL60:
 1396              	.L109:
 1397 0618 301C     		mov	r0, r6
 1398 061a E8E6     		b	.L86
 1399              	.L108:
 1400 061c 301C     		mov	r0, r6
 1401 061e CBE6     		b	.L83
 1402              	.L103:
 1403 0620 301C     		mov	r0, r6
 1404 0622 42E6     		b	.L68
 1405              	.L102:
 1406 0624 301C     		mov	r0, r6
 1407 0626 25E6     		b	.L65
 1408              	.L107:
 1409 0628 301C     		mov	r0, r6
 1410 062a AAE6     		b	.L80
 1411              	.L106:
 1412 062c 301C     		mov	r0, r6
 1413 062e 8DE6     		b	.L77
 1414              	.L105:
 1415 0630 301C     		mov	r0, r6
 1416 0632 70E6     		b	.L74
 1417              	.L104:
 1418 0634 301C     		mov	r0, r6
 1419 0636 53E6     		b	.L71
 1420              	.LVL61:
 1421              	.L100:
 1422 0638 301C     		mov	r0, r6
 1423 063a D7E5     		b	.L59
 1424              	.L99:
ARM GAS  C:\Users\faithc\AppData\Local\Temp\cchhuTE1.s 			page 38


 1425 063c 301C     		mov	r0, r6
 1426 063e B9E5     		b	.L56
 1427              	.L98:
 1428 0640 301C     		mov	r0, r6
 1429 0642 9BE5     		b	.L53
 1430              	.L97:
 1431 0644 301C     		mov	r0, r6
 1432 0646 7DE5     		b	.L50
 1433              	.L96:
 1434 0648 301C     		mov	r0, r6
 1435 064a 5FE5     		b	.L47
 1436              	.L95:
 1437 064c 301C     		mov	r0, r6
 1438 064e 41E5     		b	.L44
 1439              	.L94:
 1440 0650 301C     		mov	r0, r6
 1441 0652 23E5     		b	.L41
 1442              	.L93:
 1443 0654 301C     		mov	r0, r6
 1444 0656 05E5     		b	.L38
 1445              	.LVL62:
 1446              	.L119:
 1447 0658 231C     		mov	r3, r4
 1448 065a 0298     		ldr	r0, [sp, #8]
 1449 065c E1E6     		b	.L91
 1450              	.LVL63:
 1451              	.L118:
 1452 065e 301C     		mov	r0, r6
 1453 0660 BDE7     		b	.L30
 1454              	.L117:
 1455 0662 301C     		mov	r0, r6
 1456 0664 A1E7     		b	.L27
 1457              	.L116:
 1458 0666 301C     		mov	r0, r6
 1459 0668 85E7     		b	.L24
 1460              	.L115:
 1461 066a 301C     		mov	r0, r6
 1462 066c 69E7     		b	.L21
 1463              	.L114:
 1464 066e 301C     		mov	r0, r6
 1465 0670 4CE7     		b	.L18
 1466              	.L113:
 1467 0672 301C     		mov	r0, r6
 1468 0674 2FE7     		b	.L15
 1469              	.L112:
 1470 0676 301C     		mov	r0, r6
 1471 0678 12E7     		b	.L12
 1472              	.L111:
 1473 067a 301C     		mov	r0, r6
 1474 067c F5E6     		b	.L9
 1475              		.cfi_endproc
 1476              	.LFE1:
 1477              		.size	Thermocouple_GetTemperature, .-Thermocouple_GetTemperature
 1478 067e C046     		.section	.text.Thermocouple_GetVoltage,"ax",%progbits
 1479              		.align	2
 1480              		.global	Thermocouple_GetVoltage
 1481              		.code	16
ARM GAS  C:\Users\faithc\AppData\Local\Temp\cchhuTE1.s 			page 39


 1482              		.thumb_func
 1483              		.type	Thermocouple_GetVoltage, %function
 1484              	Thermocouple_GetVoltage:
 1485              	.LFB2:
 485:.\Generated_Source\PSoC4/Thermocouple.c **** #endif /* End CY_PSOC3 */
 486:.\Generated_Source\PSoC4/Thermocouple.c **** 
 487:.\Generated_Source\PSoC4/Thermocouple.c **** 
 488:.\Generated_Source\PSoC4/Thermocouple.c **** /*******************************************************************************
 489:.\Generated_Source\PSoC4/Thermocouple.c **** * Function Name: Thermocouple_GetVoltage
 490:.\Generated_Source\PSoC4/Thermocouple.c **** ********************************************************************************
 491:.\Generated_Source\PSoC4/Thermocouple.c **** *
 492:.\Generated_Source\PSoC4/Thermocouple.c **** * Summary:
 493:.\Generated_Source\PSoC4/Thermocouple.c **** *  This function takes the temperature as input and provides the expected
 494:.\Generated_Source\PSoC4/Thermocouple.c **** *  voltage for that temperature.
 495:.\Generated_Source\PSoC4/Thermocouple.c **** *
 496:.\Generated_Source\PSoC4/Thermocouple.c **** * Parameters:
 497:.\Generated_Source\PSoC4/Thermocouple.c **** *  int32 temperature : Temperature of the cold junction in 1/100 degree C
 498:.\Generated_Source\PSoC4/Thermocouple.c **** *
 499:.\Generated_Source\PSoC4/Thermocouple.c **** * Return:
 500:.\Generated_Source\PSoC4/Thermocouple.c **** *  int32 : Expected voltage output of the thermocouple in microvolts
 501:.\Generated_Source\PSoC4/Thermocouple.c **** *
 502:.\Generated_Source\PSoC4/Thermocouple.c **** *******************************************************************************/
 503:.\Generated_Source\PSoC4/Thermocouple.c **** int32 Thermocouple_GetVoltage(int32 temperature) 
 504:.\Generated_Source\PSoC4/Thermocouple.c **** 
 505:.\Generated_Source\PSoC4/Thermocouple.c **** #if (CY_PSOC3)
 506:.\Generated_Source\PSoC4/Thermocouple.c **** {
 507:.\Generated_Source\PSoC4/Thermocouple.c **** 
 508:.\Generated_Source\PSoC4/Thermocouple.c ****     /***************************************
 509:.\Generated_Source\PSoC4/Thermocouple.c ****     *  Customizer Generated Coefficients
 510:.\Generated_Source\PSoC4/Thermocouple.c ****     ***************************************/
 511:.\Generated_Source\PSoC4/Thermocouple.c ****     const int32 CYCODE Thermocouple_coeffTV[9] = {0, 
 512:.\Generated_Source\PSoC4/Thermocouple.c ****                                               413735, 
 513:.\Generated_Source\PSoC4/Thermocouple.c ****                                               83372, 
 514:.\Generated_Source\PSoC4/Thermocouple.c ****                                               -137607, 
 515:.\Generated_Source\PSoC4/Thermocouple.c ****                                               1089544, 
 516:.\Generated_Source\PSoC4/Thermocouple.c ****                                               -9978037, 
 517:.\Generated_Source\PSoC4/Thermocouple.c ****                                               43567176, 
 518:.\Generated_Source\PSoC4/Thermocouple.c ****                                               -95708775, 
 519:.\Generated_Source\PSoC4/Thermocouple.c ****                                               84037362};
 520:.\Generated_Source\PSoC4/Thermocouple.c **** 
 521:.\Generated_Source\PSoC4/Thermocouple.c ****     /* Variable to store calculated voltage */
 522:.\Generated_Source\PSoC4/Thermocouple.c ****     uint8 i=0u;
 523:.\Generated_Source\PSoC4/Thermocouple.c ****     float32 voltage=0.0f;
 524:.\Generated_Source\PSoC4/Thermocouple.c ****     float32 temperatureNorm=0.0f;
 525:.\Generated_Source\PSoC4/Thermocouple.c **** 
 526:.\Generated_Source\PSoC4/Thermocouple.c ****     temperatureNorm  = (float32)temperature;
 527:.\Generated_Source\PSoC4/Thermocouple.c **** 
 528:.\Generated_Source\PSoC4/Thermocouple.c ****     for (i = Thermocouple_ORDER_TV - 1u; i > 0u; i--)
 529:.\Generated_Source\PSoC4/Thermocouple.c ****     {
 530:.\Generated_Source\PSoC4/Thermocouple.c ****         voltage = (Thermocouple_coeffTV[i] + voltage) * temperatureNorm;
 531:.\Generated_Source\PSoC4/Thermocouple.c ****     }
 532:.\Generated_Source\PSoC4/Thermocouple.c ****     voltage = (voltage + Thermocouple_coeffTV[Thermocouple_FIRST_EL_MAS]);
 533:.\Generated_Source\PSoC4/Thermocouple.c **** 
 534:.\Generated_Source\PSoC4/Thermocouple.c ****     return ((int32) (voltage));
 535:.\Generated_Source\PSoC4/Thermocouple.c **** }
 536:.\Generated_Source\PSoC4/Thermocouple.c **** #else
 537:.\Generated_Source\PSoC4/Thermocouple.c **** {
ARM GAS  C:\Users\faithc\AppData\Local\Temp\cchhuTE1.s 			page 40


 1486              		.loc 1 537 0
 1487              		.cfi_startproc
 1488              	.LVL64:
 1489 0000 F0B5     		push	{r4, r5, r6, r7, lr}
 1490              		.cfi_def_cfa_offset 20
 1491              		.cfi_offset 4, -20
 1492              		.cfi_offset 5, -16
 1493              		.cfi_offset 6, -12
 1494              		.cfi_offset 7, -8
 1495              		.cfi_offset 14, -4
 1496 0002 4746     		mov	r7, r8
 1497 0004 80B4     		push	{r7}
 1498              		.cfi_def_cfa_offset 24
 1499              		.cfi_offset 8, -24
 1500 0006 8CB0     		sub	sp, sp, #48
 1501              		.cfi_def_cfa_offset 72
 538:.\Generated_Source\PSoC4/Thermocouple.c **** 
 539:.\Generated_Source\PSoC4/Thermocouple.c ****     /***************************************
 540:.\Generated_Source\PSoC4/Thermocouple.c ****     *  Customizer Generated Coefficients
 541:.\Generated_Source\PSoC4/Thermocouple.c ****     ***************************************/
 542:.\Generated_Source\PSoC4/Thermocouple.c ****     const int32 CYCODE Thermocouple_coeffTV[9] = {0, 
 1502              		.loc 1 542 0
 1503 0008 03AE     		add	r6, sp, #12
 1504 000a 321C     		mov	r2, r6
 1505 000c 944B     		ldr	r3, .L157
 543:.\Generated_Source\PSoC4/Thermocouple.c ****                                               413735, 
 544:.\Generated_Source\PSoC4/Thermocouple.c ****                                               83372, 
 545:.\Generated_Source\PSoC4/Thermocouple.c ****                                               -137607, 
 546:.\Generated_Source\PSoC4/Thermocouple.c ****                                               1089544, 
 547:.\Generated_Source\PSoC4/Thermocouple.c ****                                               -9978037, 
 548:.\Generated_Source\PSoC4/Thermocouple.c ****                                               43567176, 
 549:.\Generated_Source\PSoC4/Thermocouple.c ****                                               -95708775, 
 550:.\Generated_Source\PSoC4/Thermocouple.c ****                                               84037362};
 551:.\Generated_Source\PSoC4/Thermocouple.c **** 
 552:.\Generated_Source\PSoC4/Thermocouple.c ****     /* Variable to store calculated voltage */
 553:.\Generated_Source\PSoC4/Thermocouple.c ****     uint8 i=0u;
 554:.\Generated_Source\PSoC4/Thermocouple.c ****     int32 voltage=0;
 555:.\Generated_Source\PSoC4/Thermocouple.c **** 
 556:.\Generated_Source\PSoC4/Thermocouple.c ****     if (temperature < 0)
 557:.\Generated_Source\PSoC4/Thermocouple.c ****     {
 558:.\Generated_Source\PSoC4/Thermocouple.c ****         temperature = -temperature;
 559:.\Generated_Source\PSoC4/Thermocouple.c ****         temperature = (int32)((uint64)((uint64)temperature << 
 560:.\Generated_Source\PSoC4/Thermocouple.c ****                                        (Thermocouple_IN_NORMALIZATION_TV - Thermocouple_X_SCALE_TV)
 561:.\Generated_Source\PSoC4/Thermocouple.c ****         temperature = -temperature;
 562:.\Generated_Source\PSoC4/Thermocouple.c ****     }
 563:.\Generated_Source\PSoC4/Thermocouple.c ****     else
 564:.\Generated_Source\PSoC4/Thermocouple.c ****     {
 565:.\Generated_Source\PSoC4/Thermocouple.c ****         temperature = (int32)((uint64)((uint64)temperature << 
 1506              		.loc 1 565 0
 1507 000e 4702     		lsl	r7, r0, #9
 542:.\Generated_Source\PSoC4/Thermocouple.c ****                                               413735, 
 1508              		.loc 1 542 0
 1509 0010 7833     		add	r3, r3, #120
 1510 0012 32CB     		ldmia	r3!, {r1, r4, r5}
 1511 0014 32C2     		stmia	r2!, {r1, r4, r5}
 1512 0016 32CB     		ldmia	r3!, {r1, r4, r5}
 1513 0018 32C2     		stmia	r2!, {r1, r4, r5}
ARM GAS  C:\Users\faithc\AppData\Local\Temp\cchhuTE1.s 			page 41


 1514 001a 32CB     		ldmia	r3!, {r1, r4, r5}
 1515 001c 32C2     		stmia	r2!, {r1, r4, r5}
 1516              	.LVL65:
 1517 001e FB17     		asr	r3, r7, #31
 1518 0020 9846     		mov	r8, r3
 1519              	.LVL66:
 1520              	.LBB116:
 1521              	.LBB117:
  43:.\Generated_Source\PSoC4/Thermocouple.c ****         if (result < 0)
 1522              		.loc 1 43 0
 1523 0022 336A     		ldr	r3, [r6, #32]
 1524 0024 3A1C     		mov	r2, r7
 1525 0026 D917     		asr	r1, r3, #31
 1526 0028 181C     		mov	r0, r3
 1527 002a 4346     		mov	r3, r8
 1528 002c FFF7FEFF 		bl	__aeabi_lmul
 1529              	.LVL67:
  46:.\Generated_Source\PSoC4/Thermocouple.c ****             result = (int32)((uint64)((uint64)result >> Thermocouple_24BIT_SHIFTING));
 1530              		.loc 1 46 0
 1531 0030 031C     		mov	r3, r0
 1532 0032 0C1C     		mov	r4, r1
 1533 0034 0090     		str	r0, [sp]
 1534 0036 0191     		str	r1, [sp, #4]
 1535 0038 0022     		mov	r2, #0
 1536 003a 5942     		neg	r1, r3
 1537 003c A241     		sbc	r2, r4
  47:.\Generated_Source\PSoC4/Thermocouple.c ****             result = -result;
 1538              		.loc 1 47 0
 1539 003e 1302     		lsl	r3, r2, #8
 1540 0040 0C0E     		lsr	r4, r1, #24
 1541 0042 1C43     		orr	r4, r3
 1542 0044 221C     		mov	r2, r4
  52:.\Generated_Source\PSoC4/Thermocouple.c ****         }
 1543              		.loc 1 52 0
 1544 0046 0098     		ldr	r0, [sp]
 1545 0048 0199     		ldr	r1, [sp, #4]
  47:.\Generated_Source\PSoC4/Thermocouple.c ****             result = -result;
 1546              		.loc 1 47 0
 1547 004a E317     		asr	r3, r4, #31
  48:.\Generated_Source\PSoC4/Thermocouple.c ****         }
 1548              		.loc 1 48 0
 1549 004c 0025     		mov	r5, #0
 1550 004e 5442     		neg	r4, r2
 1551 0050 9D41     		sbc	r5, r3
  52:.\Generated_Source\PSoC4/Thermocouple.c ****         }
 1552              		.loc 1 52 0
 1553 0052 030E     		lsr	r3, r0, #24
 1554 0054 0A02     		lsl	r2, r1, #8
 1555 0056 1A43     		orr	r2, r3
 1556 0058 019B     		ldr	r3, [sp, #4]
 1557 005a 101C     		mov	r0, r2
 1558 005c 002B     		cmp	r3, #0
 1559 005e 00DA     		bge	.LCB1283
 1560 0060 EDE0     		b	.L149	@long jump
 1561              	.LCB1283:
 1562              	.L126:
 1563              	.LBE117:
ARM GAS  C:\Users\faithc\AppData\Local\Temp\cchhuTE1.s 			page 42


 1564              	.LBE116:
 566:.\Generated_Source\PSoC4/Thermocouple.c ****                                        (Thermocouple_IN_NORMALIZATION_TV - Thermocouple_X_SCALE_TV)
 567:.\Generated_Source\PSoC4/Thermocouple.c ****     }
 568:.\Generated_Source\PSoC4/Thermocouple.c ****     
 569:.\Generated_Source\PSoC4/Thermocouple.c ****     for (i = Thermocouple_ORDER_TV - 1u; i > 0u; i--)
 570:.\Generated_Source\PSoC4/Thermocouple.c ****     {
 571:.\Generated_Source\PSoC4/Thermocouple.c ****         voltage = Thermocouple_MultShift24((Thermocouple_coeffTV[i] + voltage), temperature);
 1565              		.loc 1 571 0
 1566 0062 F369     		ldr	r3, [r6, #28]
 1567              	.LBB132:
 1568              	.LBB118:
  43:.\Generated_Source\PSoC4/Thermocouple.c ****         if (result < 0)
 1569              		.loc 1 43 0
 1570 0064 3A1C     		mov	r2, r7
 1571              	.LBE118:
 1572              	.LBE132:
 1573              		.loc 1 571 0
 1574 0066 9C46     		mov	ip, r3
 1575 0068 6044     		add	r0, r0, ip
 1576              	.LBB133:
 1577              	.LBB119:
  43:.\Generated_Source\PSoC4/Thermocouple.c ****         if (result < 0)
 1578              		.loc 1 43 0
 1579 006a 4346     		mov	r3, r8
 1580 006c C117     		asr	r1, r0, #31
 1581 006e FFF7FEFF 		bl	__aeabi_lmul
 1582              	.LVL68:
  46:.\Generated_Source\PSoC4/Thermocouple.c ****             result = (int32)((uint64)((uint64)result >> Thermocouple_24BIT_SHIFTING));
 1583              		.loc 1 46 0
 1584 0072 031C     		mov	r3, r0
 1585 0074 0C1C     		mov	r4, r1
 1586 0076 0090     		str	r0, [sp]
 1587 0078 0191     		str	r1, [sp, #4]
 1588 007a 0022     		mov	r2, #0
 1589 007c 5942     		neg	r1, r3
 1590 007e A241     		sbc	r2, r4
  47:.\Generated_Source\PSoC4/Thermocouple.c ****             result = -result;
 1591              		.loc 1 47 0
 1592 0080 1302     		lsl	r3, r2, #8
 1593 0082 0C0E     		lsr	r4, r1, #24
 1594 0084 1C43     		orr	r4, r3
 1595 0086 221C     		mov	r2, r4
  52:.\Generated_Source\PSoC4/Thermocouple.c ****         }
 1596              		.loc 1 52 0
 1597 0088 0098     		ldr	r0, [sp]
 1598 008a 0199     		ldr	r1, [sp, #4]
  47:.\Generated_Source\PSoC4/Thermocouple.c ****             result = -result;
 1599              		.loc 1 47 0
 1600 008c E317     		asr	r3, r4, #31
  48:.\Generated_Source\PSoC4/Thermocouple.c ****         }
 1601              		.loc 1 48 0
 1602 008e 0025     		mov	r5, #0
 1603 0090 5442     		neg	r4, r2
 1604 0092 9D41     		sbc	r5, r3
  52:.\Generated_Source\PSoC4/Thermocouple.c ****         }
 1605              		.loc 1 52 0
 1606 0094 030E     		lsr	r3, r0, #24
ARM GAS  C:\Users\faithc\AppData\Local\Temp\cchhuTE1.s 			page 43


 1607 0096 0A02     		lsl	r2, r1, #8
 1608 0098 1A43     		orr	r2, r3
 1609 009a 019B     		ldr	r3, [sp, #4]
 1610 009c 101C     		mov	r0, r2
 1611 009e 002B     		cmp	r3, #0
 1612 00a0 00DA     		bge	.LCB1321
 1613 00a2 DAE0     		b	.L150	@long jump
 1614              	.LCB1321:
 1615              	.L129:
 1616              	.LBE119:
 1617              	.LBE133:
 1618              		.loc 1 571 0
 1619 00a4 B369     		ldr	r3, [r6, #24]
 1620              	.LBB134:
 1621              	.LBB120:
  43:.\Generated_Source\PSoC4/Thermocouple.c ****         if (result < 0)
 1622              		.loc 1 43 0
 1623 00a6 3A1C     		mov	r2, r7
 1624              	.LBE120:
 1625              	.LBE134:
 1626              		.loc 1 571 0
 1627 00a8 9C46     		mov	ip, r3
 1628 00aa 6044     		add	r0, r0, ip
 1629              	.LBB135:
 1630              	.LBB121:
  43:.\Generated_Source\PSoC4/Thermocouple.c ****         if (result < 0)
 1631              		.loc 1 43 0
 1632 00ac 4346     		mov	r3, r8
 1633 00ae C117     		asr	r1, r0, #31
 1634 00b0 FFF7FEFF 		bl	__aeabi_lmul
 1635              	.LVL69:
  46:.\Generated_Source\PSoC4/Thermocouple.c ****             result = (int32)((uint64)((uint64)result >> Thermocouple_24BIT_SHIFTING));
 1636              		.loc 1 46 0
 1637 00b4 031C     		mov	r3, r0
 1638 00b6 0C1C     		mov	r4, r1
 1639 00b8 0090     		str	r0, [sp]
 1640 00ba 0191     		str	r1, [sp, #4]
 1641 00bc 0022     		mov	r2, #0
 1642 00be 5942     		neg	r1, r3
 1643 00c0 A241     		sbc	r2, r4
  47:.\Generated_Source\PSoC4/Thermocouple.c ****             result = -result;
 1644              		.loc 1 47 0
 1645 00c2 1302     		lsl	r3, r2, #8
 1646 00c4 0C0E     		lsr	r4, r1, #24
 1647 00c6 1C43     		orr	r4, r3
 1648 00c8 221C     		mov	r2, r4
  52:.\Generated_Source\PSoC4/Thermocouple.c ****         }
 1649              		.loc 1 52 0
 1650 00ca 0098     		ldr	r0, [sp]
 1651 00cc 0199     		ldr	r1, [sp, #4]
  47:.\Generated_Source\PSoC4/Thermocouple.c ****             result = -result;
 1652              		.loc 1 47 0
 1653 00ce E317     		asr	r3, r4, #31
  48:.\Generated_Source\PSoC4/Thermocouple.c ****         }
 1654              		.loc 1 48 0
 1655 00d0 0025     		mov	r5, #0
 1656 00d2 5442     		neg	r4, r2
ARM GAS  C:\Users\faithc\AppData\Local\Temp\cchhuTE1.s 			page 44


 1657 00d4 9D41     		sbc	r5, r3
  52:.\Generated_Source\PSoC4/Thermocouple.c ****         }
 1658              		.loc 1 52 0
 1659 00d6 030E     		lsr	r3, r0, #24
 1660 00d8 0A02     		lsl	r2, r1, #8
 1661 00da 1A43     		orr	r2, r3
 1662 00dc 019B     		ldr	r3, [sp, #4]
 1663 00de 101C     		mov	r0, r2
 1664 00e0 002B     		cmp	r3, #0
 1665 00e2 00DA     		bge	.LCB1359
 1666 00e4 B7E0     		b	.L151	@long jump
 1667              	.LCB1359:
 1668              	.L132:
 1669              	.LBE121:
 1670              	.LBE135:
 1671              		.loc 1 571 0
 1672 00e6 7369     		ldr	r3, [r6, #20]
 1673              	.LBB136:
 1674              	.LBB122:
  43:.\Generated_Source\PSoC4/Thermocouple.c ****         if (result < 0)
 1675              		.loc 1 43 0
 1676 00e8 3A1C     		mov	r2, r7
 1677              	.LBE122:
 1678              	.LBE136:
 1679              		.loc 1 571 0
 1680 00ea 9C46     		mov	ip, r3
 1681 00ec 6044     		add	r0, r0, ip
 1682              	.LBB137:
 1683              	.LBB123:
  43:.\Generated_Source\PSoC4/Thermocouple.c ****         if (result < 0)
 1684              		.loc 1 43 0
 1685 00ee 4346     		mov	r3, r8
 1686 00f0 C117     		asr	r1, r0, #31
 1687 00f2 FFF7FEFF 		bl	__aeabi_lmul
 1688              	.LVL70:
  46:.\Generated_Source\PSoC4/Thermocouple.c ****             result = (int32)((uint64)((uint64)result >> Thermocouple_24BIT_SHIFTING));
 1689              		.loc 1 46 0
 1690 00f6 031C     		mov	r3, r0
 1691 00f8 0C1C     		mov	r4, r1
 1692 00fa 0090     		str	r0, [sp]
 1693 00fc 0191     		str	r1, [sp, #4]
 1694 00fe 0022     		mov	r2, #0
 1695 0100 5942     		neg	r1, r3
 1696 0102 A241     		sbc	r2, r4
  47:.\Generated_Source\PSoC4/Thermocouple.c ****             result = -result;
 1697              		.loc 1 47 0
 1698 0104 1302     		lsl	r3, r2, #8
 1699 0106 0C0E     		lsr	r4, r1, #24
 1700 0108 1C43     		orr	r4, r3
 1701 010a 221C     		mov	r2, r4
  52:.\Generated_Source\PSoC4/Thermocouple.c ****         }
 1702              		.loc 1 52 0
 1703 010c 0098     		ldr	r0, [sp]
 1704 010e 0199     		ldr	r1, [sp, #4]
  47:.\Generated_Source\PSoC4/Thermocouple.c ****             result = -result;
 1705              		.loc 1 47 0
 1706 0110 E317     		asr	r3, r4, #31
ARM GAS  C:\Users\faithc\AppData\Local\Temp\cchhuTE1.s 			page 45


  48:.\Generated_Source\PSoC4/Thermocouple.c ****         }
 1707              		.loc 1 48 0
 1708 0112 0025     		mov	r5, #0
 1709 0114 5442     		neg	r4, r2
 1710 0116 9D41     		sbc	r5, r3
  52:.\Generated_Source\PSoC4/Thermocouple.c ****         }
 1711              		.loc 1 52 0
 1712 0118 030E     		lsr	r3, r0, #24
 1713 011a 0A02     		lsl	r2, r1, #8
 1714 011c 1A43     		orr	r2, r3
 1715 011e 019B     		ldr	r3, [sp, #4]
 1716 0120 101C     		mov	r0, r2
 1717 0122 002B     		cmp	r3, #0
 1718 0124 00DA     		bge	.LCB1397
 1719 0126 94E0     		b	.L152	@long jump
 1720              	.LCB1397:
 1721              	.L135:
 1722              	.LBE123:
 1723              	.LBE137:
 1724              		.loc 1 571 0
 1725 0128 3369     		ldr	r3, [r6, #16]
 1726              	.LBB138:
 1727              	.LBB124:
  43:.\Generated_Source\PSoC4/Thermocouple.c ****         if (result < 0)
 1728              		.loc 1 43 0
 1729 012a 3A1C     		mov	r2, r7
 1730              	.LBE124:
 1731              	.LBE138:
 1732              		.loc 1 571 0
 1733 012c 9C46     		mov	ip, r3
 1734 012e 6044     		add	r0, r0, ip
 1735              	.LBB139:
 1736              	.LBB125:
  43:.\Generated_Source\PSoC4/Thermocouple.c ****         if (result < 0)
 1737              		.loc 1 43 0
 1738 0130 4346     		mov	r3, r8
 1739 0132 C117     		asr	r1, r0, #31
 1740 0134 FFF7FEFF 		bl	__aeabi_lmul
 1741              	.LVL71:
  46:.\Generated_Source\PSoC4/Thermocouple.c ****             result = (int32)((uint64)((uint64)result >> Thermocouple_24BIT_SHIFTING));
 1742              		.loc 1 46 0
 1743 0138 031C     		mov	r3, r0
 1744 013a 0C1C     		mov	r4, r1
 1745 013c 0090     		str	r0, [sp]
 1746 013e 0191     		str	r1, [sp, #4]
 1747 0140 0022     		mov	r2, #0
 1748 0142 5942     		neg	r1, r3
 1749 0144 A241     		sbc	r2, r4
  47:.\Generated_Source\PSoC4/Thermocouple.c ****             result = -result;
 1750              		.loc 1 47 0
 1751 0146 1302     		lsl	r3, r2, #8
 1752 0148 0C0E     		lsr	r4, r1, #24
 1753 014a 1C43     		orr	r4, r3
 1754 014c 221C     		mov	r2, r4
  52:.\Generated_Source\PSoC4/Thermocouple.c ****         }
 1755              		.loc 1 52 0
 1756 014e 0098     		ldr	r0, [sp]
ARM GAS  C:\Users\faithc\AppData\Local\Temp\cchhuTE1.s 			page 46


 1757 0150 0199     		ldr	r1, [sp, #4]
  47:.\Generated_Source\PSoC4/Thermocouple.c ****             result = -result;
 1758              		.loc 1 47 0
 1759 0152 E317     		asr	r3, r4, #31
  48:.\Generated_Source\PSoC4/Thermocouple.c ****         }
 1760              		.loc 1 48 0
 1761 0154 0025     		mov	r5, #0
 1762 0156 5442     		neg	r4, r2
 1763 0158 9D41     		sbc	r5, r3
  52:.\Generated_Source\PSoC4/Thermocouple.c ****         }
 1764              		.loc 1 52 0
 1765 015a 030E     		lsr	r3, r0, #24
 1766 015c 0A02     		lsl	r2, r1, #8
 1767 015e 1A43     		orr	r2, r3
 1768 0160 019B     		ldr	r3, [sp, #4]
 1769 0162 101C     		mov	r0, r2
 1770 0164 002B     		cmp	r3, #0
 1771 0166 00DA     		bge	.LCB1435
 1772 0168 71E0     		b	.L153	@long jump
 1773              	.LCB1435:
 1774              	.L138:
 1775              	.LBE125:
 1776              	.LBE139:
 1777              		.loc 1 571 0
 1778 016a F368     		ldr	r3, [r6, #12]
 1779              	.LBB140:
 1780              	.LBB126:
  43:.\Generated_Source\PSoC4/Thermocouple.c ****         if (result < 0)
 1781              		.loc 1 43 0
 1782 016c 3A1C     		mov	r2, r7
 1783              	.LBE126:
 1784              	.LBE140:
 1785              		.loc 1 571 0
 1786 016e 9C46     		mov	ip, r3
 1787 0170 6044     		add	r0, r0, ip
 1788              	.LBB141:
 1789              	.LBB127:
  43:.\Generated_Source\PSoC4/Thermocouple.c ****         if (result < 0)
 1790              		.loc 1 43 0
 1791 0172 4346     		mov	r3, r8
 1792 0174 C117     		asr	r1, r0, #31
 1793 0176 FFF7FEFF 		bl	__aeabi_lmul
 1794              	.LVL72:
  46:.\Generated_Source\PSoC4/Thermocouple.c ****             result = (int32)((uint64)((uint64)result >> Thermocouple_24BIT_SHIFTING));
 1795              		.loc 1 46 0
 1796 017a 031C     		mov	r3, r0
 1797 017c 0C1C     		mov	r4, r1
 1798 017e 0090     		str	r0, [sp]
 1799 0180 0191     		str	r1, [sp, #4]
 1800 0182 0022     		mov	r2, #0
 1801 0184 5942     		neg	r1, r3
 1802 0186 A241     		sbc	r2, r4
  47:.\Generated_Source\PSoC4/Thermocouple.c ****             result = -result;
 1803              		.loc 1 47 0
 1804 0188 1302     		lsl	r3, r2, #8
 1805 018a 0C0E     		lsr	r4, r1, #24
 1806 018c 1C43     		orr	r4, r3
ARM GAS  C:\Users\faithc\AppData\Local\Temp\cchhuTE1.s 			page 47


 1807 018e 221C     		mov	r2, r4
  52:.\Generated_Source\PSoC4/Thermocouple.c ****         }
 1808              		.loc 1 52 0
 1809 0190 0098     		ldr	r0, [sp]
 1810 0192 0199     		ldr	r1, [sp, #4]
  47:.\Generated_Source\PSoC4/Thermocouple.c ****             result = -result;
 1811              		.loc 1 47 0
 1812 0194 E317     		asr	r3, r4, #31
  48:.\Generated_Source\PSoC4/Thermocouple.c ****         }
 1813              		.loc 1 48 0
 1814 0196 0025     		mov	r5, #0
 1815 0198 5442     		neg	r4, r2
 1816 019a 9D41     		sbc	r5, r3
  52:.\Generated_Source\PSoC4/Thermocouple.c ****         }
 1817              		.loc 1 52 0
 1818 019c 030E     		lsr	r3, r0, #24
 1819 019e 0A02     		lsl	r2, r1, #8
 1820 01a0 1A43     		orr	r2, r3
 1821 01a2 019B     		ldr	r3, [sp, #4]
 1822 01a4 101C     		mov	r0, r2
 1823 01a6 002B     		cmp	r3, #0
 1824 01a8 4FDB     		blt	.L154
 1825              	.L141:
 1826              	.LBE127:
 1827              	.LBE141:
 1828              		.loc 1 571 0
 1829 01aa B368     		ldr	r3, [r6, #8]
 1830              	.LBB142:
 1831              	.LBB128:
  43:.\Generated_Source\PSoC4/Thermocouple.c ****         if (result < 0)
 1832              		.loc 1 43 0
 1833 01ac 3A1C     		mov	r2, r7
 1834              	.LBE128:
 1835              	.LBE142:
 1836              		.loc 1 571 0
 1837 01ae 9C46     		mov	ip, r3
 1838 01b0 6044     		add	r0, r0, ip
 1839              	.LBB143:
 1840              	.LBB129:
  43:.\Generated_Source\PSoC4/Thermocouple.c ****         if (result < 0)
 1841              		.loc 1 43 0
 1842 01b2 4346     		mov	r3, r8
 1843 01b4 C117     		asr	r1, r0, #31
 1844 01b6 FFF7FEFF 		bl	__aeabi_lmul
 1845              	.LVL73:
  46:.\Generated_Source\PSoC4/Thermocouple.c ****             result = (int32)((uint64)((uint64)result >> Thermocouple_24BIT_SHIFTING));
 1846              		.loc 1 46 0
 1847 01ba 031C     		mov	r3, r0
 1848 01bc 0C1C     		mov	r4, r1
 1849 01be 0090     		str	r0, [sp]
 1850 01c0 0191     		str	r1, [sp, #4]
 1851 01c2 0022     		mov	r2, #0
 1852 01c4 5942     		neg	r1, r3
 1853 01c6 A241     		sbc	r2, r4
  47:.\Generated_Source\PSoC4/Thermocouple.c ****             result = -result;
 1854              		.loc 1 47 0
 1855 01c8 1302     		lsl	r3, r2, #8
ARM GAS  C:\Users\faithc\AppData\Local\Temp\cchhuTE1.s 			page 48


 1856 01ca 0C0E     		lsr	r4, r1, #24
 1857 01cc 1C43     		orr	r4, r3
 1858 01ce 221C     		mov	r2, r4
  52:.\Generated_Source\PSoC4/Thermocouple.c ****         }
 1859              		.loc 1 52 0
 1860 01d0 0098     		ldr	r0, [sp]
 1861 01d2 0199     		ldr	r1, [sp, #4]
  47:.\Generated_Source\PSoC4/Thermocouple.c ****             result = -result;
 1862              		.loc 1 47 0
 1863 01d4 E317     		asr	r3, r4, #31
  48:.\Generated_Source\PSoC4/Thermocouple.c ****         }
 1864              		.loc 1 48 0
 1865 01d6 0025     		mov	r5, #0
 1866 01d8 5442     		neg	r4, r2
 1867 01da 9D41     		sbc	r5, r3
  52:.\Generated_Source\PSoC4/Thermocouple.c ****         }
 1868              		.loc 1 52 0
 1869 01dc 030E     		lsr	r3, r0, #24
 1870 01de 0A02     		lsl	r2, r1, #8
 1871 01e0 1A43     		orr	r2, r3
 1872 01e2 019B     		ldr	r3, [sp, #4]
 1873 01e4 101C     		mov	r0, r2
 1874 01e6 002B     		cmp	r3, #0
 1875 01e8 2DDB     		blt	.L155
 1876              	.L144:
 1877              	.LBE129:
 1878              	.LBE143:
 1879              		.loc 1 571 0
 1880 01ea 7368     		ldr	r3, [r6, #4]
 1881              	.LBB144:
 1882              	.LBB130:
  43:.\Generated_Source\PSoC4/Thermocouple.c ****         if (result < 0)
 1883              		.loc 1 43 0
 1884 01ec 3A1C     		mov	r2, r7
 1885              	.LBE130:
 1886              	.LBE144:
 1887              		.loc 1 571 0
 1888 01ee 9C46     		mov	ip, r3
 1889 01f0 6044     		add	r0, r0, ip
 1890              	.LBB145:
 1891              	.LBB131:
  43:.\Generated_Source\PSoC4/Thermocouple.c ****         if (result < 0)
 1892              		.loc 1 43 0
 1893 01f2 4346     		mov	r3, r8
 1894 01f4 C117     		asr	r1, r0, #31
 1895 01f6 FFF7FEFF 		bl	__aeabi_lmul
 1896              	.LVL74:
  46:.\Generated_Source\PSoC4/Thermocouple.c ****             result = (int32)((uint64)((uint64)result >> Thermocouple_24BIT_SHIFTING));
 1897              		.loc 1 46 0
 1898 01fa 031C     		mov	r3, r0
 1899 01fc 0C1C     		mov	r4, r1
 1900 01fe 0090     		str	r0, [sp]
 1901 0200 0191     		str	r1, [sp, #4]
 1902 0202 0022     		mov	r2, #0
 1903 0204 5942     		neg	r1, r3
 1904 0206 A241     		sbc	r2, r4
  47:.\Generated_Source\PSoC4/Thermocouple.c ****             result = -result;
ARM GAS  C:\Users\faithc\AppData\Local\Temp\cchhuTE1.s 			page 49


 1905              		.loc 1 47 0
 1906 0208 1302     		lsl	r3, r2, #8
 1907 020a 0C0E     		lsr	r4, r1, #24
 1908 020c 1C43     		orr	r4, r3
 1909 020e 221C     		mov	r2, r4
  52:.\Generated_Source\PSoC4/Thermocouple.c ****         }
 1910              		.loc 1 52 0
 1911 0210 0098     		ldr	r0, [sp]
 1912 0212 0199     		ldr	r1, [sp, #4]
  47:.\Generated_Source\PSoC4/Thermocouple.c ****             result = -result;
 1913              		.loc 1 47 0
 1914 0214 E317     		asr	r3, r4, #31
  48:.\Generated_Source\PSoC4/Thermocouple.c ****         }
 1915              		.loc 1 48 0
 1916 0216 0025     		mov	r5, #0
 1917 0218 5442     		neg	r4, r2
 1918 021a 9D41     		sbc	r5, r3
  52:.\Generated_Source\PSoC4/Thermocouple.c ****         }
 1919              		.loc 1 52 0
 1920 021c 030E     		lsr	r3, r0, #24
 1921 021e 0A02     		lsl	r2, r1, #8
 1922 0220 1A43     		orr	r2, r3
 1923 0222 019B     		ldr	r3, [sp, #4]
 1924 0224 101C     		mov	r0, r2
 1925              	.LVL75:
 1926 0226 002B     		cmp	r3, #0
 1927 0228 0BDB     		blt	.L156
 1928              	.L147:
 1929              	.LBE131:
 1930              	.LBE145:
 572:.\Generated_Source\PSoC4/Thermocouple.c ****     }
 573:.\Generated_Source\PSoC4/Thermocouple.c **** 
 574:.\Generated_Source\PSoC4/Thermocouple.c ****     voltage = (int32)((uint32)((uint64)(int32)(voltage + Thermocouple_coeffTV[Thermocouple_FIRST_EL
 1931              		.loc 1 574 0
 1932 022a 3368     		ldr	r3, [r6]
 1933 022c 1818     		add	r0, r3, r0
 1934 022e C317     		asr	r3, r0, #31
 1935 0230 DB06     		lsl	r3, r3, #27
 1936 0232 4009     		lsr	r0, r0, #5
 1937 0234 1843     		orr	r0, r3
 1938              	.LVL76:
 575:.\Generated_Source\PSoC4/Thermocouple.c ****                                         Thermocouple_COEF_SCALE_TV));
 576:.\Generated_Source\PSoC4/Thermocouple.c **** 
 577:.\Generated_Source\PSoC4/Thermocouple.c ****     return (voltage);
 578:.\Generated_Source\PSoC4/Thermocouple.c **** }
 1939              		.loc 1 578 0
 1940 0236 0CB0     		add	sp, sp, #48
 1941              		@ sp needed
 1942              	.LVL77:
 1943 0238 04BC     		pop	{r2}
 1944 023a 9046     		mov	r8, r2
 1945 023c F0BD     		pop	{r4, r5, r6, r7, pc}
 1946              	.LVL78:
 1947              	.L149:
 1948 023e 201C     		mov	r0, r4
 1949 0240 0FE7     		b	.L126
 1950              	.LVL79:
ARM GAS  C:\Users\faithc\AppData\Local\Temp\cchhuTE1.s 			page 50


 1951              	.L156:
 1952 0242 201C     		mov	r0, r4
 1953 0244 F1E7     		b	.L147
 1954              	.LVL80:
 1955              	.L155:
 1956 0246 201C     		mov	r0, r4
 1957 0248 CFE7     		b	.L144
 1958              	.L154:
 1959 024a 201C     		mov	r0, r4
 1960 024c ADE7     		b	.L141
 1961              	.L153:
 1962 024e 201C     		mov	r0, r4
 1963 0250 8BE7     		b	.L138
 1964              	.L152:
 1965 0252 201C     		mov	r0, r4
 1966 0254 68E7     		b	.L135
 1967              	.L151:
 1968 0256 201C     		mov	r0, r4
 1969 0258 45E7     		b	.L132
 1970              	.L150:
 1971 025a 201C     		mov	r0, r4
 1972 025c 22E7     		b	.L129
 1973              	.L158:
 1974 025e C046     		.align	2
 1975              	.L157:
 1976 0260 00000000 		.word	.LANCHOR0
 1977              		.cfi_endproc
 1978              	.LFE2:
 1979              		.size	Thermocouple_GetVoltage, .-Thermocouple_GetVoltage
 1980              		.section	.rodata
 1981              		.align	2
 1982              		.set	.LANCHOR0,. + 0
 1983              	.LC0:
 1984 0000 00000000 		.word	0
 1985 0004 00000000 		.word	0
 1986 0008 B641E6FF 		.word	-1687114
 1987 000c 0D472800 		.word	2639629
 1988 0010 24820200 		.word	164388
 1989 0014 B7446A02 		.word	40518839
 1990 0018 96B6F0FF 		.word	-1001834
 1991 001c EF410000 		.word	16879
 1992 0020 89359BFA 		.word	-90491511
 1993 0024 B9AC8BFF 		.word	-7623495
 1994 0028 721FE5FF 		.word	-1761422
 1995 002c 8444BC0B 		.word	196887684
 1996 0030 F657EAFC 		.word	-51750922
 1997 0034 4B912401 		.word	19173707
 1998 0038 A7F66AF2 		.word	-227871065
 1999 003c BA327DF5 		.word	-176344390
 2000 0040 562C78FA 		.word	-92787626
 2001 0044 EB5B1E08 		.word	136207339
 2002 0048 831C06EC 		.word	-335143805
 2003 004c 2EDC770E 		.word	242736174
 2004 0050 1FA01EFE 		.word	-31547361
 2005 0054 A16642EC 		.word	-331192671
 2006 0058 F8EEA8EA 		.word	-358027528
 2007 005c 00000000 		.word	0
ARM GAS  C:\Users\faithc\AppData\Local\Temp\cchhuTE1.s 			page 51


 2008 0060 CC36F7F7 		.word	-134793524
 2009 0064 C9ADC210 		.word	281193929
 2010 0068 00000000 		.word	0
 2011 006c 00000000 		.word	0
 2012 0070 09A688FA 		.word	-91707895
 2013 0074 00000000 		.word	0
 2014              	.LC1:
 2015 0078 00000000 		.word	0
 2016 007c 27500600 		.word	413735
 2017 0080 AC450100 		.word	83372
 2018 0084 79E6FDFF 		.word	-137607
 2019 0088 08A01000 		.word	1089544
 2020 008c 4BBF67FF 		.word	-9978037
 2021 0090 48C89802 		.word	43567176
 2022 0094 99994BFA 		.word	-95708775
 2023 0098 F24E0205 		.word	84037362
 2024              		.text
 2025              	.Letext0:
 2026              		.file 2 ".\\Generated_Source\\PSoC4\\cytypes.h"
 2027              		.section	.debug_info,"",%progbits
 2028              	.Ldebug_info0:
 2029 0000 56030000 		.4byte	0x356
 2030 0004 0400     		.2byte	0x4
 2031 0006 00000000 		.4byte	.Ldebug_abbrev0
 2032 000a 04       		.byte	0x4
 2033 000b 01       		.uleb128 0x1
 2034 000c F3000000 		.4byte	.LASF29
 2035 0010 01       		.byte	0x1
 2036 0011 25000000 		.4byte	.LASF30
 2037 0015 5E020000 		.4byte	.LASF31
 2038 0019 40020000 		.4byte	.Ldebug_ranges0+0x240
 2039 001d 00000000 		.4byte	0
 2040 0021 00000000 		.4byte	.Ldebug_line0
 2041 0025 02       		.uleb128 0x2
 2042 0026 08       		.byte	0x8
 2043 0027 07       		.byte	0x7
 2044 0028 8E010000 		.4byte	.LASF0
 2045 002c 02       		.uleb128 0x2
 2046 002d 01       		.byte	0x1
 2047 002e 06       		.byte	0x6
 2048 002f 4C020000 		.4byte	.LASF1
 2049 0033 02       		.uleb128 0x2
 2050 0034 01       		.byte	0x1
 2051 0035 08       		.byte	0x8
 2052 0036 75000000 		.4byte	.LASF2
 2053 003a 02       		.uleb128 0x2
 2054 003b 02       		.byte	0x2
 2055 003c 05       		.byte	0x5
 2056 003d DD000000 		.4byte	.LASF3
 2057 0041 02       		.uleb128 0x2
 2058 0042 02       		.byte	0x2
 2059 0043 07       		.byte	0x7
 2060 0044 12000000 		.4byte	.LASF4
 2061 0048 02       		.uleb128 0x2
 2062 0049 04       		.byte	0x4
 2063 004a 05       		.byte	0x5
 2064 004b 17020000 		.4byte	.LASF5
ARM GAS  C:\Users\faithc\AppData\Local\Temp\cchhuTE1.s 			page 52


 2065 004f 02       		.uleb128 0x2
 2066 0050 04       		.byte	0x4
 2067 0051 07       		.byte	0x7
 2068 0052 9B000000 		.4byte	.LASF6
 2069 0056 02       		.uleb128 0x2
 2070 0057 08       		.byte	0x8
 2071 0058 05       		.byte	0x5
 2072 0059 CE010000 		.4byte	.LASF7
 2073 005d 03       		.uleb128 0x3
 2074 005e 04       		.byte	0x4
 2075 005f 05       		.byte	0x5
 2076 0060 696E7400 		.ascii	"int\000"
 2077 0064 02       		.uleb128 0x2
 2078 0065 04       		.byte	0x4
 2079 0066 07       		.byte	0x7
 2080 0067 81010000 		.4byte	.LASF8
 2081 006b 04       		.uleb128 0x4
 2082 006c FC010000 		.4byte	.LASF9
 2083 0070 02       		.byte	0x2
 2084 0071 3801     		.2byte	0x138
 2085 0073 33000000 		.4byte	0x33
 2086 0077 04       		.uleb128 0x4
 2087 0078 EC000000 		.4byte	.LASF10
 2088 007c 02       		.byte	0x2
 2089 007d 3A01     		.2byte	0x13a
 2090 007f 4F000000 		.4byte	0x4f
 2091 0083 04       		.uleb128 0x4
 2092 0084 E7000000 		.4byte	.LASF11
 2093 0088 02       		.byte	0x2
 2094 0089 3B01     		.2byte	0x13b
 2095 008b 2C000000 		.4byte	0x2c
 2096 008f 04       		.uleb128 0x4
 2097 0090 B2000000 		.4byte	.LASF12
 2098 0094 02       		.byte	0x2
 2099 0095 3D01     		.2byte	0x13d
 2100 0097 48000000 		.4byte	0x48
 2101 009b 02       		.uleb128 0x2
 2102 009c 04       		.byte	0x4
 2103 009d 04       		.byte	0x4
 2104 009e 05000000 		.4byte	.LASF13
 2105 00a2 02       		.uleb128 0x2
 2106 00a3 08       		.byte	0x8
 2107 00a4 04       		.byte	0x4
 2108 00a5 D6000000 		.4byte	.LASF14
 2109 00a9 04       		.uleb128 0x4
 2110 00aa 58020000 		.4byte	.LASF15
 2111 00ae 02       		.byte	0x2
 2112 00af 4301     		.2byte	0x143
 2113 00b1 56000000 		.4byte	0x56
 2114 00b5 04       		.uleb128 0x4
 2115 00b6 0B000000 		.4byte	.LASF16
 2116 00ba 02       		.byte	0x2
 2117 00bb 4401     		.2byte	0x144
 2118 00bd 25000000 		.4byte	0x25
 2119 00c1 02       		.uleb128 0x2
 2120 00c2 01       		.byte	0x1
 2121 00c3 08       		.byte	0x8
ARM GAS  C:\Users\faithc\AppData\Local\Temp\cchhuTE1.s 			page 53


 2122 00c4 00000000 		.4byte	.LASF17
 2123 00c8 02       		.uleb128 0x2
 2124 00c9 04       		.byte	0x4
 2125 00ca 07       		.byte	0x7
 2126 00cb C5010000 		.4byte	.LASF18
 2127 00cf 05       		.uleb128 0x5
 2128 00d0 04       		.byte	0x4
 2129 00d1 06       		.uleb128 0x6
 2130 00d2 E3010000 		.4byte	.LASF32
 2131 00d6 01       		.byte	0x1
 2132 00d7 27       		.byte	0x27
 2133 00d8 8F000000 		.4byte	0x8f
 2134 00dc 01       		.byte	0x1
 2135 00dd 03010000 		.4byte	0x103
 2136 00e1 07       		.uleb128 0x7
 2137 00e2 6F703100 		.ascii	"op1\000"
 2138 00e6 01       		.byte	0x1
 2139 00e7 27       		.byte	0x27
 2140 00e8 8F000000 		.4byte	0x8f
 2141 00ec 07       		.uleb128 0x7
 2142 00ed 6F703200 		.ascii	"op2\000"
 2143 00f1 01       		.byte	0x1
 2144 00f2 27       		.byte	0x27
 2145 00f3 8F000000 		.4byte	0x8f
 2146 00f7 08       		.uleb128 0x8
 2147 00f8 A5010000 		.4byte	.LASF33
 2148 00fc 01       		.byte	0x1
 2149 00fd 29       		.byte	0x29
 2150 00fe A9000000 		.4byte	0xa9
 2151 0102 00       		.byte	0
 2152 0103 09       		.uleb128 0x9
 2153 0104 D1000000 		.4byte	0xd1
 2154 0108 00000000 		.4byte	.LFB0
 2155 010c 34000000 		.4byte	.LFE0-.LFB0
 2156 0110 01       		.uleb128 0x1
 2157 0111 9C       		.byte	0x9c
 2158 0112 32010000 		.4byte	0x132
 2159 0116 0A       		.uleb128 0xa
 2160 0117 E1000000 		.4byte	0xe1
 2161 011b 00000000 		.4byte	.LLST0
 2162 011f 0A       		.uleb128 0xa
 2163 0120 EC000000 		.4byte	0xec
 2164 0124 21000000 		.4byte	.LLST1
 2165 0128 0B       		.uleb128 0xb
 2166 0129 F7000000 		.4byte	0xf7
 2167 012d 4D000000 		.4byte	.LLST2
 2168 0131 00       		.byte	0
 2169 0132 0C       		.uleb128 0xc
 2170 0133 4D000000 		.4byte	.LASF24
 2171 0137 01       		.byte	0x1
 2172 0138 4C       		.byte	0x4c
 2173 0139 8F000000 		.4byte	0x8f
 2174 013d 00000000 		.4byte	.LFB1
 2175 0141 7E060000 		.4byte	.LFE1-.LFB1
 2176 0145 01       		.uleb128 0x1
 2177 0146 9C       		.byte	0x9c
 2178 0147 58020000 		.4byte	0x258
ARM GAS  C:\Users\faithc\AppData\Local\Temp\cchhuTE1.s 			page 54


 2179 014b 0D       		.uleb128 0xd
 2180 014c B8000000 		.4byte	.LASF26
 2181 0150 01       		.byte	0x1
 2182 0151 4C       		.byte	0x4c
 2183 0152 8F000000 		.4byte	0x8f
 2184 0156 B7000000 		.4byte	.LLST3
 2185 015a 0E       		.uleb128 0xe
 2186 015b 20020000 		.4byte	.LASF19
 2187 015f 01       		.byte	0x1
 2188 0160 BC       		.byte	0xbc
 2189 0161 6E020000 		.4byte	0x26e
 2190 0165 03       		.uleb128 0x3
 2191 0166 91       		.byte	0x91
 2192 0167 F07E     		.sleb128 -144
 2193 0169 0E       		.uleb128 0xe
 2194 016a 35020000 		.4byte	.LASF20
 2195 016e 01       		.byte	0x1
 2196 016f C7       		.byte	0xc7
 2197 0170 83020000 		.4byte	0x283
 2198 0174 0A       		.uleb128 0xa
 2199 0175 30       		.byte	0x30
 2200 0176 9F       		.byte	0x9f
 2201 0177 93       		.byte	0x93
 2202 0178 04       		.uleb128 0x4
 2203 0179 0A       		.byte	0xa
 2204 017a A450     		.2byte	0x50a4
 2205 017c 9F       		.byte	0x9f
 2206 017d 93       		.byte	0x93
 2207 017e 04       		.uleb128 0x4
 2208 017f 0F       		.uleb128 0xf
 2209 0180 C0000000 		.4byte	.LASF21
 2210 0184 01       		.byte	0x1
 2211 0185 C9       		.byte	0xc9
 2212 0186 98020000 		.4byte	0x298
 2213 018a 03       		.byte	0x3
 2214 018b 0D       		.byte	0xd
 2215 018c 0F       		.byte	0xf
 2216 018d 10       		.byte	0x10
 2217 018e 0F       		.uleb128 0xf
 2218 018f AC010000 		.4byte	.LASF22
 2219 0193 01       		.byte	0x1
 2220 0194 CA       		.byte	0xca
 2221 0195 9D020000 		.4byte	0x29d
 2222 0199 03       		.byte	0x3
 2223 019a 07       		.byte	0x7
 2224 019b 01       		.byte	0x1
 2225 019c 07       		.byte	0x7
 2226 019d 10       		.uleb128 0x10
 2227 019e AD000000 		.4byte	.LASF23
 2228 01a2 01       		.byte	0x1
 2229 01a3 CD       		.byte	0xcd
 2230 01a4 8F000000 		.4byte	0x8f
 2231 01a8 8B010000 		.4byte	.LLST4
 2232 01ac 11       		.uleb128 0x11
 2233 01ad 6900     		.ascii	"i\000"
 2234 01af 01       		.byte	0x1
 2235 01b0 CE       		.byte	0xce
ARM GAS  C:\Users\faithc\AppData\Local\Temp\cchhuTE1.s 			page 55


 2236 01b1 6B000000 		.4byte	0x6b
 2237 01b5 CD010000 		.4byte	.LLST5
 2238 01b9 12       		.uleb128 0x12
 2239 01ba D1000000 		.4byte	0xd1
 2240 01be 2E000000 		.4byte	.LBB10
 2241 01c2 00000000 		.4byte	.Ldebug_ranges0+0
 2242 01c6 01       		.byte	0x1
 2243 01c7 A701     		.2byte	0x1a7
 2244 01c9 E3010000 		.4byte	0x1e3
 2245 01cd 13       		.uleb128 0x13
 2246 01ce EC000000 		.4byte	0xec
 2247 01d2 13       		.uleb128 0x13
 2248 01d3 E1000000 		.4byte	0xe1
 2249 01d7 14       		.uleb128 0x14
 2250 01d8 00000000 		.4byte	.Ldebug_ranges0+0
 2251 01dc 15       		.uleb128 0x15
 2252 01dd F7000000 		.4byte	0xf7
 2253 01e1 00       		.byte	0
 2254 01e2 00       		.byte	0
 2255 01e3 12       		.uleb128 0x12
 2256 01e4 D1000000 		.4byte	0xd1
 2257 01e8 3C020000 		.4byte	.LBB44
 2258 01ec 90000000 		.4byte	.Ldebug_ranges0+0x90
 2259 01f0 01       		.byte	0x1
 2260 01f1 CD01     		.2byte	0x1cd
 2261 01f3 0D020000 		.4byte	0x20d
 2262 01f7 13       		.uleb128 0x13
 2263 01f8 EC000000 		.4byte	0xec
 2264 01fc 13       		.uleb128 0x13
 2265 01fd E1000000 		.4byte	0xe1
 2266 0201 14       		.uleb128 0x14
 2267 0202 90000000 		.4byte	.Ldebug_ranges0+0x90
 2268 0206 15       		.uleb128 0x15
 2269 0207 F7000000 		.4byte	0xf7
 2270 020b 00       		.byte	0
 2271 020c 00       		.byte	0
 2272 020d 12       		.uleb128 0x12
 2273 020e D1000000 		.4byte	0xd1
 2274 0212 32040000 		.4byte	.LBB80
 2275 0216 28010000 		.4byte	.Ldebug_ranges0+0x128
 2276 021a 01       		.byte	0x1
 2277 021b 8101     		.2byte	0x181
 2278 021d 37020000 		.4byte	0x237
 2279 0221 13       		.uleb128 0x13
 2280 0222 EC000000 		.4byte	0xec
 2281 0226 13       		.uleb128 0x13
 2282 0227 E1000000 		.4byte	0xe1
 2283 022b 14       		.uleb128 0x14
 2284 022c 28010000 		.4byte	.Ldebug_ranges0+0x128
 2285 0230 15       		.uleb128 0x15
 2286 0231 F7000000 		.4byte	0xf7
 2287 0235 00       		.byte	0
 2288 0236 00       		.byte	0
 2289 0237 16       		.uleb128 0x16
 2290 0238 14000000 		.4byte	.LVL12
 2291 023c 35030000 		.4byte	0x335
 2292 0240 17       		.uleb128 0x17
ARM GAS  C:\Users\faithc\AppData\Local\Temp\cchhuTE1.s 			page 56


 2293 0241 01       		.uleb128 0x1
 2294 0242 52       		.byte	0x52
 2295 0243 02       		.uleb128 0x2
 2296 0244 08       		.byte	0x8
 2297 0245 78       		.byte	0x78
 2298 0246 17       		.uleb128 0x17
 2299 0247 01       		.uleb128 0x1
 2300 0248 51       		.byte	0x51
 2301 0249 05       		.uleb128 0x5
 2302 024a 03       		.byte	0x3
 2303 024b 00000000 		.4byte	.LANCHOR0
 2304 024f 17       		.uleb128 0x17
 2305 0250 01       		.uleb128 0x1
 2306 0251 50       		.byte	0x50
 2307 0252 03       		.uleb128 0x3
 2308 0253 91       		.byte	0x91
 2309 0254 F07E     		.sleb128 -144
 2310 0256 00       		.byte	0
 2311 0257 00       		.byte	0
 2312 0258 18       		.uleb128 0x18
 2313 0259 8F000000 		.4byte	0x8f
 2314 025d 6E020000 		.4byte	0x26e
 2315 0261 19       		.uleb128 0x19
 2316 0262 C8000000 		.4byte	0xc8
 2317 0266 09       		.byte	0x9
 2318 0267 19       		.uleb128 0x19
 2319 0268 C8000000 		.4byte	0xc8
 2320 026c 02       		.byte	0x2
 2321 026d 00       		.byte	0
 2322 026e 1A       		.uleb128 0x1a
 2323 026f 58020000 		.4byte	0x258
 2324 0273 18       		.uleb128 0x18
 2325 0274 8F000000 		.4byte	0x8f
 2326 0278 83020000 		.4byte	0x283
 2327 027c 19       		.uleb128 0x19
 2328 027d C8000000 		.4byte	0xc8
 2329 0281 01       		.byte	0x1
 2330 0282 00       		.byte	0
 2331 0283 1A       		.uleb128 0x1a
 2332 0284 73020000 		.4byte	0x273
 2333 0288 18       		.uleb128 0x18
 2334 0289 83000000 		.4byte	0x83
 2335 028d 98020000 		.4byte	0x298
 2336 0291 19       		.uleb128 0x19
 2337 0292 C8000000 		.4byte	0xc8
 2338 0296 02       		.byte	0x2
 2339 0297 00       		.byte	0
 2340 0298 1A       		.uleb128 0x1a
 2341 0299 88020000 		.4byte	0x288
 2342 029d 1A       		.uleb128 0x1a
 2343 029e 88020000 		.4byte	0x288
 2344 02a2 1B       		.uleb128 0x1b
 2345 02a3 83000000 		.4byte	.LASF25
 2346 02a7 01       		.byte	0x1
 2347 02a8 F701     		.2byte	0x1f7
 2348 02aa 8F000000 		.4byte	0x8f
 2349 02ae 00000000 		.4byte	.LFB2
ARM GAS  C:\Users\faithc\AppData\Local\Temp\cchhuTE1.s 			page 57


 2350 02b2 64020000 		.4byte	.LFE2-.LFB2
 2351 02b6 01       		.uleb128 0x1
 2352 02b7 9C       		.byte	0x9c
 2353 02b8 20030000 		.4byte	0x320
 2354 02bc 1C       		.uleb128 0x1c
 2355 02bd 69000000 		.4byte	.LASF27
 2356 02c1 01       		.byte	0x1
 2357 02c2 F701     		.2byte	0x1f7
 2358 02c4 8F000000 		.4byte	0x8f
 2359 02c8 35020000 		.4byte	.LLST6
 2360 02cc 1D       		.uleb128 0x1d
 2361 02cd 02020000 		.4byte	.LASF28
 2362 02d1 01       		.byte	0x1
 2363 02d2 1E02     		.2byte	0x21e
 2364 02d4 30030000 		.4byte	0x330
 2365 02d8 02       		.uleb128 0x2
 2366 02d9 91       		.byte	0x91
 2367 02da 44       		.sleb128 -60
 2368 02db 1E       		.uleb128 0x1e
 2369 02dc 6900     		.ascii	"i\000"
 2370 02de 01       		.byte	0x1
 2371 02df 2902     		.2byte	0x229
 2372 02e1 6B000000 		.4byte	0x6b
 2373 02e5 6E020000 		.4byte	.LLST7
 2374 02e9 1F       		.uleb128 0x1f
 2375 02ea B8000000 		.4byte	.LASF26
 2376 02ee 01       		.byte	0x1
 2377 02ef 2A02     		.2byte	0x22a
 2378 02f1 8F000000 		.4byte	0x8f
 2379 02f5 9A020000 		.4byte	.LLST8
 2380 02f9 20       		.uleb128 0x20
 2381 02fa D1000000 		.4byte	0xd1
 2382 02fe 22000000 		.4byte	.LBB116
 2383 0302 C0010000 		.4byte	.Ldebug_ranges0+0x1c0
 2384 0306 01       		.byte	0x1
 2385 0307 3B02     		.2byte	0x23b
 2386 0309 13       		.uleb128 0x13
 2387 030a EC000000 		.4byte	0xec
 2388 030e 13       		.uleb128 0x13
 2389 030f E1000000 		.4byte	0xe1
 2390 0313 14       		.uleb128 0x14
 2391 0314 C0010000 		.4byte	.Ldebug_ranges0+0x1c0
 2392 0318 15       		.uleb128 0x15
 2393 0319 F7000000 		.4byte	0xf7
 2394 031d 00       		.byte	0
 2395 031e 00       		.byte	0
 2396 031f 00       		.byte	0
 2397 0320 18       		.uleb128 0x18
 2398 0321 8F000000 		.4byte	0x8f
 2399 0325 30030000 		.4byte	0x330
 2400 0329 19       		.uleb128 0x19
 2401 032a C8000000 		.4byte	0xc8
 2402 032e 08       		.byte	0x8
 2403 032f 00       		.byte	0
 2404 0330 1A       		.uleb128 0x1a
 2405 0331 20030000 		.4byte	0x320
 2406 0335 21       		.uleb128 0x21
ARM GAS  C:\Users\faithc\AppData\Local\Temp\cchhuTE1.s 			page 58


 2407 0336 DC010000 		.4byte	.LASF34
 2408 033a CF000000 		.4byte	0xcf
 2409 033e 52030000 		.4byte	0x352
 2410 0342 22       		.uleb128 0x22
 2411 0343 CF000000 		.4byte	0xcf
 2412 0347 22       		.uleb128 0x22
 2413 0348 52030000 		.4byte	0x352
 2414 034c 22       		.uleb128 0x22
 2415 034d C8000000 		.4byte	0xc8
 2416 0351 00       		.byte	0
 2417 0352 23       		.uleb128 0x23
 2418 0353 04       		.byte	0x4
 2419 0354 58030000 		.4byte	0x358
 2420 0358 24       		.uleb128 0x24
 2421 0359 00       		.byte	0
 2422              		.section	.debug_abbrev,"",%progbits
 2423              	.Ldebug_abbrev0:
 2424 0000 01       		.uleb128 0x1
 2425 0001 11       		.uleb128 0x11
 2426 0002 01       		.byte	0x1
 2427 0003 25       		.uleb128 0x25
 2428 0004 0E       		.uleb128 0xe
 2429 0005 13       		.uleb128 0x13
 2430 0006 0B       		.uleb128 0xb
 2431 0007 03       		.uleb128 0x3
 2432 0008 0E       		.uleb128 0xe
 2433 0009 1B       		.uleb128 0x1b
 2434 000a 0E       		.uleb128 0xe
 2435 000b 55       		.uleb128 0x55
 2436 000c 17       		.uleb128 0x17
 2437 000d 11       		.uleb128 0x11
 2438 000e 01       		.uleb128 0x1
 2439 000f 10       		.uleb128 0x10
 2440 0010 17       		.uleb128 0x17
 2441 0011 00       		.byte	0
 2442 0012 00       		.byte	0
 2443 0013 02       		.uleb128 0x2
 2444 0014 24       		.uleb128 0x24
 2445 0015 00       		.byte	0
 2446 0016 0B       		.uleb128 0xb
 2447 0017 0B       		.uleb128 0xb
 2448 0018 3E       		.uleb128 0x3e
 2449 0019 0B       		.uleb128 0xb
 2450 001a 03       		.uleb128 0x3
 2451 001b 0E       		.uleb128 0xe
 2452 001c 00       		.byte	0
 2453 001d 00       		.byte	0
 2454 001e 03       		.uleb128 0x3
 2455 001f 24       		.uleb128 0x24
 2456 0020 00       		.byte	0
 2457 0021 0B       		.uleb128 0xb
 2458 0022 0B       		.uleb128 0xb
 2459 0023 3E       		.uleb128 0x3e
 2460 0024 0B       		.uleb128 0xb
 2461 0025 03       		.uleb128 0x3
 2462 0026 08       		.uleb128 0x8
 2463 0027 00       		.byte	0
ARM GAS  C:\Users\faithc\AppData\Local\Temp\cchhuTE1.s 			page 59


 2464 0028 00       		.byte	0
 2465 0029 04       		.uleb128 0x4
 2466 002a 16       		.uleb128 0x16
 2467 002b 00       		.byte	0
 2468 002c 03       		.uleb128 0x3
 2469 002d 0E       		.uleb128 0xe
 2470 002e 3A       		.uleb128 0x3a
 2471 002f 0B       		.uleb128 0xb
 2472 0030 3B       		.uleb128 0x3b
 2473 0031 05       		.uleb128 0x5
 2474 0032 49       		.uleb128 0x49
 2475 0033 13       		.uleb128 0x13
 2476 0034 00       		.byte	0
 2477 0035 00       		.byte	0
 2478 0036 05       		.uleb128 0x5
 2479 0037 0F       		.uleb128 0xf
 2480 0038 00       		.byte	0
 2481 0039 0B       		.uleb128 0xb
 2482 003a 0B       		.uleb128 0xb
 2483 003b 00       		.byte	0
 2484 003c 00       		.byte	0
 2485 003d 06       		.uleb128 0x6
 2486 003e 2E       		.uleb128 0x2e
 2487 003f 01       		.byte	0x1
 2488 0040 3F       		.uleb128 0x3f
 2489 0041 19       		.uleb128 0x19
 2490 0042 03       		.uleb128 0x3
 2491 0043 0E       		.uleb128 0xe
 2492 0044 3A       		.uleb128 0x3a
 2493 0045 0B       		.uleb128 0xb
 2494 0046 3B       		.uleb128 0x3b
 2495 0047 0B       		.uleb128 0xb
 2496 0048 27       		.uleb128 0x27
 2497 0049 19       		.uleb128 0x19
 2498 004a 49       		.uleb128 0x49
 2499 004b 13       		.uleb128 0x13
 2500 004c 20       		.uleb128 0x20
 2501 004d 0B       		.uleb128 0xb
 2502 004e 01       		.uleb128 0x1
 2503 004f 13       		.uleb128 0x13
 2504 0050 00       		.byte	0
 2505 0051 00       		.byte	0
 2506 0052 07       		.uleb128 0x7
 2507 0053 05       		.uleb128 0x5
 2508 0054 00       		.byte	0
 2509 0055 03       		.uleb128 0x3
 2510 0056 08       		.uleb128 0x8
 2511 0057 3A       		.uleb128 0x3a
 2512 0058 0B       		.uleb128 0xb
 2513 0059 3B       		.uleb128 0x3b
 2514 005a 0B       		.uleb128 0xb
 2515 005b 49       		.uleb128 0x49
 2516 005c 13       		.uleb128 0x13
 2517 005d 00       		.byte	0
 2518 005e 00       		.byte	0
 2519 005f 08       		.uleb128 0x8
 2520 0060 34       		.uleb128 0x34
ARM GAS  C:\Users\faithc\AppData\Local\Temp\cchhuTE1.s 			page 60


 2521 0061 00       		.byte	0
 2522 0062 03       		.uleb128 0x3
 2523 0063 0E       		.uleb128 0xe
 2524 0064 3A       		.uleb128 0x3a
 2525 0065 0B       		.uleb128 0xb
 2526 0066 3B       		.uleb128 0x3b
 2527 0067 0B       		.uleb128 0xb
 2528 0068 49       		.uleb128 0x49
 2529 0069 13       		.uleb128 0x13
 2530 006a 00       		.byte	0
 2531 006b 00       		.byte	0
 2532 006c 09       		.uleb128 0x9
 2533 006d 2E       		.uleb128 0x2e
 2534 006e 01       		.byte	0x1
 2535 006f 31       		.uleb128 0x31
 2536 0070 13       		.uleb128 0x13
 2537 0071 11       		.uleb128 0x11
 2538 0072 01       		.uleb128 0x1
 2539 0073 12       		.uleb128 0x12
 2540 0074 06       		.uleb128 0x6
 2541 0075 40       		.uleb128 0x40
 2542 0076 18       		.uleb128 0x18
 2543 0077 9642     		.uleb128 0x2116
 2544 0079 19       		.uleb128 0x19
 2545 007a 01       		.uleb128 0x1
 2546 007b 13       		.uleb128 0x13
 2547 007c 00       		.byte	0
 2548 007d 00       		.byte	0
 2549 007e 0A       		.uleb128 0xa
 2550 007f 05       		.uleb128 0x5
 2551 0080 00       		.byte	0
 2552 0081 31       		.uleb128 0x31
 2553 0082 13       		.uleb128 0x13
 2554 0083 02       		.uleb128 0x2
 2555 0084 17       		.uleb128 0x17
 2556 0085 00       		.byte	0
 2557 0086 00       		.byte	0
 2558 0087 0B       		.uleb128 0xb
 2559 0088 34       		.uleb128 0x34
 2560 0089 00       		.byte	0
 2561 008a 31       		.uleb128 0x31
 2562 008b 13       		.uleb128 0x13
 2563 008c 02       		.uleb128 0x2
 2564 008d 17       		.uleb128 0x17
 2565 008e 00       		.byte	0
 2566 008f 00       		.byte	0
 2567 0090 0C       		.uleb128 0xc
 2568 0091 2E       		.uleb128 0x2e
 2569 0092 01       		.byte	0x1
 2570 0093 3F       		.uleb128 0x3f
 2571 0094 19       		.uleb128 0x19
 2572 0095 03       		.uleb128 0x3
 2573 0096 0E       		.uleb128 0xe
 2574 0097 3A       		.uleb128 0x3a
 2575 0098 0B       		.uleb128 0xb
 2576 0099 3B       		.uleb128 0x3b
 2577 009a 0B       		.uleb128 0xb
ARM GAS  C:\Users\faithc\AppData\Local\Temp\cchhuTE1.s 			page 61


 2578 009b 27       		.uleb128 0x27
 2579 009c 19       		.uleb128 0x19
 2580 009d 49       		.uleb128 0x49
 2581 009e 13       		.uleb128 0x13
 2582 009f 11       		.uleb128 0x11
 2583 00a0 01       		.uleb128 0x1
 2584 00a1 12       		.uleb128 0x12
 2585 00a2 06       		.uleb128 0x6
 2586 00a3 40       		.uleb128 0x40
 2587 00a4 18       		.uleb128 0x18
 2588 00a5 9642     		.uleb128 0x2116
 2589 00a7 19       		.uleb128 0x19
 2590 00a8 01       		.uleb128 0x1
 2591 00a9 13       		.uleb128 0x13
 2592 00aa 00       		.byte	0
 2593 00ab 00       		.byte	0
 2594 00ac 0D       		.uleb128 0xd
 2595 00ad 05       		.uleb128 0x5
 2596 00ae 00       		.byte	0
 2597 00af 03       		.uleb128 0x3
 2598 00b0 0E       		.uleb128 0xe
 2599 00b1 3A       		.uleb128 0x3a
 2600 00b2 0B       		.uleb128 0xb
 2601 00b3 3B       		.uleb128 0x3b
 2602 00b4 0B       		.uleb128 0xb
 2603 00b5 49       		.uleb128 0x49
 2604 00b6 13       		.uleb128 0x13
 2605 00b7 02       		.uleb128 0x2
 2606 00b8 17       		.uleb128 0x17
 2607 00b9 00       		.byte	0
 2608 00ba 00       		.byte	0
 2609 00bb 0E       		.uleb128 0xe
 2610 00bc 34       		.uleb128 0x34
 2611 00bd 00       		.byte	0
 2612 00be 03       		.uleb128 0x3
 2613 00bf 0E       		.uleb128 0xe
 2614 00c0 3A       		.uleb128 0x3a
 2615 00c1 0B       		.uleb128 0xb
 2616 00c2 3B       		.uleb128 0x3b
 2617 00c3 0B       		.uleb128 0xb
 2618 00c4 49       		.uleb128 0x49
 2619 00c5 13       		.uleb128 0x13
 2620 00c6 02       		.uleb128 0x2
 2621 00c7 18       		.uleb128 0x18
 2622 00c8 00       		.byte	0
 2623 00c9 00       		.byte	0
 2624 00ca 0F       		.uleb128 0xf
 2625 00cb 34       		.uleb128 0x34
 2626 00cc 00       		.byte	0
 2627 00cd 03       		.uleb128 0x3
 2628 00ce 0E       		.uleb128 0xe
 2629 00cf 3A       		.uleb128 0x3a
 2630 00d0 0B       		.uleb128 0xb
 2631 00d1 3B       		.uleb128 0x3b
 2632 00d2 0B       		.uleb128 0xb
 2633 00d3 49       		.uleb128 0x49
 2634 00d4 13       		.uleb128 0x13
ARM GAS  C:\Users\faithc\AppData\Local\Temp\cchhuTE1.s 			page 62


 2635 00d5 1C       		.uleb128 0x1c
 2636 00d6 0A       		.uleb128 0xa
 2637 00d7 00       		.byte	0
 2638 00d8 00       		.byte	0
 2639 00d9 10       		.uleb128 0x10
 2640 00da 34       		.uleb128 0x34
 2641 00db 00       		.byte	0
 2642 00dc 03       		.uleb128 0x3
 2643 00dd 0E       		.uleb128 0xe
 2644 00de 3A       		.uleb128 0x3a
 2645 00df 0B       		.uleb128 0xb
 2646 00e0 3B       		.uleb128 0x3b
 2647 00e1 0B       		.uleb128 0xb
 2648 00e2 49       		.uleb128 0x49
 2649 00e3 13       		.uleb128 0x13
 2650 00e4 02       		.uleb128 0x2
 2651 00e5 17       		.uleb128 0x17
 2652 00e6 00       		.byte	0
 2653 00e7 00       		.byte	0
 2654 00e8 11       		.uleb128 0x11
 2655 00e9 34       		.uleb128 0x34
 2656 00ea 00       		.byte	0
 2657 00eb 03       		.uleb128 0x3
 2658 00ec 08       		.uleb128 0x8
 2659 00ed 3A       		.uleb128 0x3a
 2660 00ee 0B       		.uleb128 0xb
 2661 00ef 3B       		.uleb128 0x3b
 2662 00f0 0B       		.uleb128 0xb
 2663 00f1 49       		.uleb128 0x49
 2664 00f2 13       		.uleb128 0x13
 2665 00f3 02       		.uleb128 0x2
 2666 00f4 17       		.uleb128 0x17
 2667 00f5 00       		.byte	0
 2668 00f6 00       		.byte	0
 2669 00f7 12       		.uleb128 0x12
 2670 00f8 1D       		.uleb128 0x1d
 2671 00f9 01       		.byte	0x1
 2672 00fa 31       		.uleb128 0x31
 2673 00fb 13       		.uleb128 0x13
 2674 00fc 52       		.uleb128 0x52
 2675 00fd 01       		.uleb128 0x1
 2676 00fe 55       		.uleb128 0x55
 2677 00ff 17       		.uleb128 0x17
 2678 0100 58       		.uleb128 0x58
 2679 0101 0B       		.uleb128 0xb
 2680 0102 59       		.uleb128 0x59
 2681 0103 05       		.uleb128 0x5
 2682 0104 01       		.uleb128 0x1
 2683 0105 13       		.uleb128 0x13
 2684 0106 00       		.byte	0
 2685 0107 00       		.byte	0
 2686 0108 13       		.uleb128 0x13
 2687 0109 05       		.uleb128 0x5
 2688 010a 00       		.byte	0
 2689 010b 31       		.uleb128 0x31
 2690 010c 13       		.uleb128 0x13
 2691 010d 00       		.byte	0
ARM GAS  C:\Users\faithc\AppData\Local\Temp\cchhuTE1.s 			page 63


 2692 010e 00       		.byte	0
 2693 010f 14       		.uleb128 0x14
 2694 0110 0B       		.uleb128 0xb
 2695 0111 01       		.byte	0x1
 2696 0112 55       		.uleb128 0x55
 2697 0113 17       		.uleb128 0x17
 2698 0114 00       		.byte	0
 2699 0115 00       		.byte	0
 2700 0116 15       		.uleb128 0x15
 2701 0117 34       		.uleb128 0x34
 2702 0118 00       		.byte	0
 2703 0119 31       		.uleb128 0x31
 2704 011a 13       		.uleb128 0x13
 2705 011b 00       		.byte	0
 2706 011c 00       		.byte	0
 2707 011d 16       		.uleb128 0x16
 2708 011e 898201   		.uleb128 0x4109
 2709 0121 01       		.byte	0x1
 2710 0122 11       		.uleb128 0x11
 2711 0123 01       		.uleb128 0x1
 2712 0124 31       		.uleb128 0x31
 2713 0125 13       		.uleb128 0x13
 2714 0126 00       		.byte	0
 2715 0127 00       		.byte	0
 2716 0128 17       		.uleb128 0x17
 2717 0129 8A8201   		.uleb128 0x410a
 2718 012c 00       		.byte	0
 2719 012d 02       		.uleb128 0x2
 2720 012e 18       		.uleb128 0x18
 2721 012f 9142     		.uleb128 0x2111
 2722 0131 18       		.uleb128 0x18
 2723 0132 00       		.byte	0
 2724 0133 00       		.byte	0
 2725 0134 18       		.uleb128 0x18
 2726 0135 01       		.uleb128 0x1
 2727 0136 01       		.byte	0x1
 2728 0137 49       		.uleb128 0x49
 2729 0138 13       		.uleb128 0x13
 2730 0139 01       		.uleb128 0x1
 2731 013a 13       		.uleb128 0x13
 2732 013b 00       		.byte	0
 2733 013c 00       		.byte	0
 2734 013d 19       		.uleb128 0x19
 2735 013e 21       		.uleb128 0x21
 2736 013f 00       		.byte	0
 2737 0140 49       		.uleb128 0x49
 2738 0141 13       		.uleb128 0x13
 2739 0142 2F       		.uleb128 0x2f
 2740 0143 0B       		.uleb128 0xb
 2741 0144 00       		.byte	0
 2742 0145 00       		.byte	0
 2743 0146 1A       		.uleb128 0x1a
 2744 0147 26       		.uleb128 0x26
 2745 0148 00       		.byte	0
 2746 0149 49       		.uleb128 0x49
 2747 014a 13       		.uleb128 0x13
 2748 014b 00       		.byte	0
ARM GAS  C:\Users\faithc\AppData\Local\Temp\cchhuTE1.s 			page 64


 2749 014c 00       		.byte	0
 2750 014d 1B       		.uleb128 0x1b
 2751 014e 2E       		.uleb128 0x2e
 2752 014f 01       		.byte	0x1
 2753 0150 3F       		.uleb128 0x3f
 2754 0151 19       		.uleb128 0x19
 2755 0152 03       		.uleb128 0x3
 2756 0153 0E       		.uleb128 0xe
 2757 0154 3A       		.uleb128 0x3a
 2758 0155 0B       		.uleb128 0xb
 2759 0156 3B       		.uleb128 0x3b
 2760 0157 05       		.uleb128 0x5
 2761 0158 27       		.uleb128 0x27
 2762 0159 19       		.uleb128 0x19
 2763 015a 49       		.uleb128 0x49
 2764 015b 13       		.uleb128 0x13
 2765 015c 11       		.uleb128 0x11
 2766 015d 01       		.uleb128 0x1
 2767 015e 12       		.uleb128 0x12
 2768 015f 06       		.uleb128 0x6
 2769 0160 40       		.uleb128 0x40
 2770 0161 18       		.uleb128 0x18
 2771 0162 9642     		.uleb128 0x2116
 2772 0164 19       		.uleb128 0x19
 2773 0165 01       		.uleb128 0x1
 2774 0166 13       		.uleb128 0x13
 2775 0167 00       		.byte	0
 2776 0168 00       		.byte	0
 2777 0169 1C       		.uleb128 0x1c
 2778 016a 05       		.uleb128 0x5
 2779 016b 00       		.byte	0
 2780 016c 03       		.uleb128 0x3
 2781 016d 0E       		.uleb128 0xe
 2782 016e 3A       		.uleb128 0x3a
 2783 016f 0B       		.uleb128 0xb
 2784 0170 3B       		.uleb128 0x3b
 2785 0171 05       		.uleb128 0x5
 2786 0172 49       		.uleb128 0x49
 2787 0173 13       		.uleb128 0x13
 2788 0174 02       		.uleb128 0x2
 2789 0175 17       		.uleb128 0x17
 2790 0176 00       		.byte	0
 2791 0177 00       		.byte	0
 2792 0178 1D       		.uleb128 0x1d
 2793 0179 34       		.uleb128 0x34
 2794 017a 00       		.byte	0
 2795 017b 03       		.uleb128 0x3
 2796 017c 0E       		.uleb128 0xe
 2797 017d 3A       		.uleb128 0x3a
 2798 017e 0B       		.uleb128 0xb
 2799 017f 3B       		.uleb128 0x3b
 2800 0180 05       		.uleb128 0x5
 2801 0181 49       		.uleb128 0x49
 2802 0182 13       		.uleb128 0x13
 2803 0183 02       		.uleb128 0x2
 2804 0184 18       		.uleb128 0x18
 2805 0185 00       		.byte	0
ARM GAS  C:\Users\faithc\AppData\Local\Temp\cchhuTE1.s 			page 65


 2806 0186 00       		.byte	0
 2807 0187 1E       		.uleb128 0x1e
 2808 0188 34       		.uleb128 0x34
 2809 0189 00       		.byte	0
 2810 018a 03       		.uleb128 0x3
 2811 018b 08       		.uleb128 0x8
 2812 018c 3A       		.uleb128 0x3a
 2813 018d 0B       		.uleb128 0xb
 2814 018e 3B       		.uleb128 0x3b
 2815 018f 05       		.uleb128 0x5
 2816 0190 49       		.uleb128 0x49
 2817 0191 13       		.uleb128 0x13
 2818 0192 02       		.uleb128 0x2
 2819 0193 17       		.uleb128 0x17
 2820 0194 00       		.byte	0
 2821 0195 00       		.byte	0
 2822 0196 1F       		.uleb128 0x1f
 2823 0197 34       		.uleb128 0x34
 2824 0198 00       		.byte	0
 2825 0199 03       		.uleb128 0x3
 2826 019a 0E       		.uleb128 0xe
 2827 019b 3A       		.uleb128 0x3a
 2828 019c 0B       		.uleb128 0xb
 2829 019d 3B       		.uleb128 0x3b
 2830 019e 05       		.uleb128 0x5
 2831 019f 49       		.uleb128 0x49
 2832 01a0 13       		.uleb128 0x13
 2833 01a1 02       		.uleb128 0x2
 2834 01a2 17       		.uleb128 0x17
 2835 01a3 00       		.byte	0
 2836 01a4 00       		.byte	0
 2837 01a5 20       		.uleb128 0x20
 2838 01a6 1D       		.uleb128 0x1d
 2839 01a7 01       		.byte	0x1
 2840 01a8 31       		.uleb128 0x31
 2841 01a9 13       		.uleb128 0x13
 2842 01aa 52       		.uleb128 0x52
 2843 01ab 01       		.uleb128 0x1
 2844 01ac 55       		.uleb128 0x55
 2845 01ad 17       		.uleb128 0x17
 2846 01ae 58       		.uleb128 0x58
 2847 01af 0B       		.uleb128 0xb
 2848 01b0 59       		.uleb128 0x59
 2849 01b1 05       		.uleb128 0x5
 2850 01b2 00       		.byte	0
 2851 01b3 00       		.byte	0
 2852 01b4 21       		.uleb128 0x21
 2853 01b5 2E       		.uleb128 0x2e
 2854 01b6 01       		.byte	0x1
 2855 01b7 3F       		.uleb128 0x3f
 2856 01b8 19       		.uleb128 0x19
 2857 01b9 03       		.uleb128 0x3
 2858 01ba 0E       		.uleb128 0xe
 2859 01bb 27       		.uleb128 0x27
 2860 01bc 19       		.uleb128 0x19
 2861 01bd 49       		.uleb128 0x49
 2862 01be 13       		.uleb128 0x13
ARM GAS  C:\Users\faithc\AppData\Local\Temp\cchhuTE1.s 			page 66


 2863 01bf 34       		.uleb128 0x34
 2864 01c0 19       		.uleb128 0x19
 2865 01c1 3C       		.uleb128 0x3c
 2866 01c2 19       		.uleb128 0x19
 2867 01c3 01       		.uleb128 0x1
 2868 01c4 13       		.uleb128 0x13
 2869 01c5 00       		.byte	0
 2870 01c6 00       		.byte	0
 2871 01c7 22       		.uleb128 0x22
 2872 01c8 05       		.uleb128 0x5
 2873 01c9 00       		.byte	0
 2874 01ca 49       		.uleb128 0x49
 2875 01cb 13       		.uleb128 0x13
 2876 01cc 00       		.byte	0
 2877 01cd 00       		.byte	0
 2878 01ce 23       		.uleb128 0x23
 2879 01cf 0F       		.uleb128 0xf
 2880 01d0 00       		.byte	0
 2881 01d1 0B       		.uleb128 0xb
 2882 01d2 0B       		.uleb128 0xb
 2883 01d3 49       		.uleb128 0x49
 2884 01d4 13       		.uleb128 0x13
 2885 01d5 00       		.byte	0
 2886 01d6 00       		.byte	0
 2887 01d7 24       		.uleb128 0x24
 2888 01d8 26       		.uleb128 0x26
 2889 01d9 00       		.byte	0
 2890 01da 00       		.byte	0
 2891 01db 00       		.byte	0
 2892 01dc 00       		.byte	0
 2893              		.section	.debug_loc,"",%progbits
 2894              	.Ldebug_loc0:
 2895              	.LLST0:
 2896 0000 00000000 		.4byte	.LVL0
 2897 0004 0B000000 		.4byte	.LVL2-1
 2898 0008 0100     		.2byte	0x1
 2899 000a 50       		.byte	0x50
 2900 000b 0B000000 		.4byte	.LVL2-1
 2901 000f 34000000 		.4byte	.LFE0
 2902 0013 0400     		.2byte	0x4
 2903 0015 F3       		.byte	0xf3
 2904 0016 01       		.uleb128 0x1
 2905 0017 50       		.byte	0x50
 2906 0018 9F       		.byte	0x9f
 2907 0019 00000000 		.4byte	0
 2908 001d 00000000 		.4byte	0
 2909              	.LLST1:
 2910 0021 00000000 		.4byte	.LVL0
 2911 0025 06000000 		.4byte	.LVL1
 2912 0029 0100     		.2byte	0x1
 2913 002b 51       		.byte	0x51
 2914 002c 06000000 		.4byte	.LVL1
 2915 0030 0B000000 		.4byte	.LVL2-1
 2916 0034 0100     		.2byte	0x1
 2917 0036 52       		.byte	0x52
 2918 0037 0B000000 		.4byte	.LVL2-1
 2919 003b 34000000 		.4byte	.LFE0
ARM GAS  C:\Users\faithc\AppData\Local\Temp\cchhuTE1.s 			page 67


 2920 003f 0400     		.2byte	0x4
 2921 0041 F3       		.byte	0xf3
 2922 0042 01       		.uleb128 0x1
 2923 0043 51       		.byte	0x51
 2924 0044 9F       		.byte	0x9f
 2925 0045 00000000 		.4byte	0
 2926 0049 00000000 		.4byte	0
 2927              	.LLST2:
 2928 004d 00000000 		.4byte	.LVL0
 2929 0051 0C000000 		.4byte	.LVL2
 2930 0055 0A00     		.2byte	0xa
 2931 0057 9E       		.byte	0x9e
 2932 0058 08       		.uleb128 0x8
 2933 0059 00000000 		.8byte	0
 2933      00000000 
 2934 0061 0C000000 		.4byte	.LVL2
 2935 0065 10000000 		.4byte	.LVL3
 2936 0069 0600     		.2byte	0x6
 2937 006b 50       		.byte	0x50
 2938 006c 93       		.byte	0x93
 2939 006d 04       		.uleb128 0x4
 2940 006e 51       		.byte	0x51
 2941 006f 93       		.byte	0x93
 2942 0070 04       		.uleb128 0x4
 2943 0071 10000000 		.4byte	.LVL3
 2944 0075 16000000 		.4byte	.LVL4
 2945 0079 0500     		.2byte	0x5
 2946 007b F5       		.byte	0xf5
 2947 007c 00       		.uleb128 0
 2948 007d 25       		.uleb128 0x25
 2949 007e 1F       		.byte	0x1f
 2950 007f 9F       		.byte	0x9f
 2951 0080 16000000 		.4byte	.LVL4
 2952 0084 1A000000 		.4byte	.LVL5
 2953 0088 0600     		.2byte	0x6
 2954 008a 52       		.byte	0x52
 2955 008b 93       		.byte	0x93
 2956 008c 04       		.uleb128 0x4
 2957 008d 53       		.byte	0x53
 2958 008e 93       		.byte	0x93
 2959 008f 04       		.uleb128 0x4
 2960 0090 1A000000 		.4byte	.LVL5
 2961 0094 1E000000 		.4byte	.LVL6
 2962 0098 0500     		.2byte	0x5
 2963 009a F5       		.byte	0xf5
 2964 009b 00       		.uleb128 0
 2965 009c 25       		.uleb128 0x25
 2966 009d 1F       		.byte	0x1f
 2967 009e 9F       		.byte	0x9f
 2968 009f 20000000 		.4byte	.LVL7
 2969 00a3 26000000 		.4byte	.LVL8
 2970 00a7 0600     		.2byte	0x6
 2971 00a9 50       		.byte	0x50
 2972 00aa 93       		.byte	0x93
 2973 00ab 04       		.uleb128 0x4
 2974 00ac 51       		.byte	0x51
 2975 00ad 93       		.byte	0x93
ARM GAS  C:\Users\faithc\AppData\Local\Temp\cchhuTE1.s 			page 68


 2976 00ae 04       		.uleb128 0x4
 2977 00af 00000000 		.4byte	0
 2978 00b3 00000000 		.4byte	0
 2979              	.LLST3:
 2980 00b7 00000000 		.4byte	.LVL10
 2981 00bb 0E000000 		.4byte	.LVL11
 2982 00bf 0100     		.2byte	0x1
 2983 00c1 50       		.byte	0x50
 2984 00c2 0E000000 		.4byte	.LVL11
 2985 00c6 22000000 		.4byte	.LVL13
 2986 00ca 0100     		.2byte	0x1
 2987 00cc 54       		.byte	0x54
 2988 00cd 22000000 		.4byte	.LVL13
 2989 00d1 2C000000 		.4byte	.LVL14
 2990 00d5 0500     		.2byte	0x5
 2991 00d7 74       		.byte	0x74
 2992 00d8 00       		.sleb128 0
 2993 00d9 39       		.byte	0x39
 2994 00da 24       		.byte	0x24
 2995 00db 9F       		.byte	0x9f
 2996 00dc 2C000000 		.4byte	.LVL14
 2997 00e0 30000000 		.4byte	.LVL16
 2998 00e4 0100     		.2byte	0x1
 2999 00e6 53       		.byte	0x53
 3000 00e7 30000000 		.4byte	.LVL16
 3001 00eb 2C020000 		.4byte	.LVL27
 3002 00ef 0100     		.2byte	0x1
 3003 00f1 58       		.byte	0x58
 3004 00f2 3C020000 		.4byte	.LVL28
 3005 00f6 1A040000 		.4byte	.LVL40
 3006 00fa 0100     		.2byte	0x1
 3007 00fc 54       		.byte	0x54
 3008 00fd 1A040000 		.4byte	.LVL40
 3009 0101 22040000 		.4byte	.LVL42
 3010 0105 0600     		.2byte	0x6
 3011 0107 F3       		.byte	0xf3
 3012 0108 01       		.uleb128 0x1
 3013 0109 50       		.byte	0x50
 3014 010a 38       		.byte	0x38
 3015 010b 24       		.byte	0x24
 3016 010c 9F       		.byte	0x9f
 3017 010d 2E040000 		.4byte	.LVL44
 3018 0111 32040000 		.4byte	.LVL45
 3019 0115 0600     		.2byte	0x6
 3020 0117 F3       		.byte	0xf3
 3021 0118 01       		.uleb128 0x1
 3022 0119 50       		.byte	0x50
 3023 011a 38       		.byte	0x38
 3024 011b 24       		.byte	0x24
 3025 011c 9F       		.byte	0x9f
 3026 011d 32040000 		.4byte	.LVL45
 3027 0121 36040000 		.4byte	.LVL46
 3028 0125 0500     		.2byte	0x5
 3029 0127 74       		.byte	0x74
 3030 0128 00       		.sleb128 0
 3031 0129 3B       		.byte	0x3b
 3032 012a 24       		.byte	0x24
ARM GAS  C:\Users\faithc\AppData\Local\Temp\cchhuTE1.s 			page 69


 3033 012b 9F       		.byte	0x9f
 3034 012c 36040000 		.4byte	.LVL46
 3035 0130 0A060000 		.4byte	.LVL57
 3036 0134 0100     		.2byte	0x1
 3037 0136 54       		.byte	0x54
 3038 0137 0A060000 		.4byte	.LVL57
 3039 013b 14060000 		.4byte	.LVL59
 3040 013f 0600     		.2byte	0x6
 3041 0141 F3       		.byte	0xf3
 3042 0142 01       		.uleb128 0x1
 3043 0143 50       		.byte	0x50
 3044 0144 3B       		.byte	0x3b
 3045 0145 24       		.byte	0x24
 3046 0146 9F       		.byte	0x9f
 3047 0147 14060000 		.4byte	.LVL59
 3048 014b 18060000 		.4byte	.LVL60
 3049 014f 0100     		.2byte	0x1
 3050 0151 58       		.byte	0x58
 3051 0152 18060000 		.4byte	.LVL60
 3052 0156 38060000 		.4byte	.LVL61
 3053 015a 0100     		.2byte	0x1
 3054 015c 54       		.byte	0x54
 3055 015d 38060000 		.4byte	.LVL61
 3056 0161 58060000 		.4byte	.LVL62
 3057 0165 0100     		.2byte	0x1
 3058 0167 58       		.byte	0x58
 3059 0168 58060000 		.4byte	.LVL62
 3060 016c 5E060000 		.4byte	.LVL63
 3061 0170 0600     		.2byte	0x6
 3062 0172 F3       		.byte	0xf3
 3063 0173 01       		.uleb128 0x1
 3064 0174 50       		.byte	0x50
 3065 0175 3B       		.byte	0x3b
 3066 0176 24       		.byte	0x24
 3067 0177 9F       		.byte	0x9f
 3068 0178 5E060000 		.4byte	.LVL63
 3069 017c 7E060000 		.4byte	.LFE1
 3070 0180 0100     		.2byte	0x1
 3071 0182 54       		.byte	0x54
 3072 0183 00000000 		.4byte	0
 3073 0187 00000000 		.4byte	0
 3074              	.LLST4:
 3075 018b 14000000 		.4byte	.LVL12
 3076 018f 2E000000 		.4byte	.LVL15
 3077 0193 0200     		.2byte	0x2
 3078 0195 30       		.byte	0x30
 3079 0196 9F       		.byte	0x9f
 3080 0197 2C020000 		.4byte	.LVL27
 3081 019b 3C020000 		.4byte	.LVL28
 3082 019f 0100     		.2byte	0x1
 3083 01a1 50       		.byte	0x50
 3084 01a2 3C020000 		.4byte	.LVL28
 3085 01a6 42020000 		.4byte	.LVL30
 3086 01aa 0200     		.2byte	0x2
 3087 01ac 30       		.byte	0x30
 3088 01ad 9F       		.byte	0x9f
 3089 01ae 2C040000 		.4byte	.LVL43
ARM GAS  C:\Users\faithc\AppData\Local\Temp\cchhuTE1.s 			page 70


 3090 01b2 2E040000 		.4byte	.LVL44
 3091 01b6 0100     		.2byte	0x1
 3092 01b8 50       		.byte	0x50
 3093 01b9 32040000 		.4byte	.LVL45
 3094 01bd 38040000 		.4byte	.LVL47
 3095 01c1 0200     		.2byte	0x2
 3096 01c3 30       		.byte	0x30
 3097 01c4 9F       		.byte	0x9f
 3098 01c5 00000000 		.4byte	0
 3099 01c9 00000000 		.4byte	0
 3100              	.LLST5:
 3101 01cd 14000000 		.4byte	.LVL12
 3102 01d1 22000000 		.4byte	.LVL13
 3103 01d5 0200     		.2byte	0x2
 3104 01d7 30       		.byte	0x30
 3105 01d8 9F       		.byte	0x9f
 3106 01d9 22000000 		.4byte	.LVL13
 3107 01dd 2E000000 		.4byte	.LVL15
 3108 01e1 0200     		.2byte	0x2
 3109 01e3 39       		.byte	0x39
 3110 01e4 9F       		.byte	0x9f
 3111 01e5 1A020000 		.4byte	.LVL26
 3112 01e9 40020000 		.4byte	.LVL29
 3113 01ed 0200     		.2byte	0x2
 3114 01ef 30       		.byte	0x30
 3115 01f0 9F       		.byte	0x9f
 3116 01f1 40020000 		.4byte	.LVL29
 3117 01f5 42020000 		.4byte	.LVL30
 3118 01f9 0200     		.2byte	0x2
 3119 01fb 39       		.byte	0x39
 3120 01fc 9F       		.byte	0x9f
 3121 01fd 1C040000 		.4byte	.LVL41
 3122 0201 32040000 		.4byte	.LVL45
 3123 0205 0200     		.2byte	0x2
 3124 0207 30       		.byte	0x30
 3125 0208 9F       		.byte	0x9f
 3126 0209 32040000 		.4byte	.LVL45
 3127 020d 38040000 		.4byte	.LVL47
 3128 0211 0200     		.2byte	0x2
 3129 0213 39       		.byte	0x39
 3130 0214 9F       		.byte	0x9f
 3131 0215 0C060000 		.4byte	.LVL58
 3132 0219 18060000 		.4byte	.LVL60
 3133 021d 0200     		.2byte	0x2
 3134 021f 30       		.byte	0x30
 3135 0220 9F       		.byte	0x9f
 3136 0221 58060000 		.4byte	.LVL62
 3137 0225 5E060000 		.4byte	.LVL63
 3138 0229 0200     		.2byte	0x2
 3139 022b 30       		.byte	0x30
 3140 022c 9F       		.byte	0x9f
 3141 022d 00000000 		.4byte	0
 3142 0231 00000000 		.4byte	0
 3143              	.LLST6:
 3144 0235 00000000 		.4byte	.LVL64
 3145 0239 1E000000 		.4byte	.LVL65
 3146 023d 0100     		.2byte	0x1
ARM GAS  C:\Users\faithc\AppData\Local\Temp\cchhuTE1.s 			page 71


 3147 023f 50       		.byte	0x50
 3148 0240 1E000000 		.4byte	.LVL65
 3149 0244 38020000 		.4byte	.LVL77
 3150 0248 0100     		.2byte	0x1
 3151 024a 57       		.byte	0x57
 3152 024b 38020000 		.4byte	.LVL77
 3153 024f 3E020000 		.4byte	.LVL78
 3154 0253 0600     		.2byte	0x6
 3155 0255 F3       		.byte	0xf3
 3156 0256 01       		.uleb128 0x1
 3157 0257 50       		.byte	0x50
 3158 0258 39       		.byte	0x39
 3159 0259 24       		.byte	0x24
 3160 025a 9F       		.byte	0x9f
 3161 025b 3E020000 		.4byte	.LVL78
 3162 025f 64020000 		.4byte	.LFE2
 3163 0263 0100     		.2byte	0x1
 3164 0265 57       		.byte	0x57
 3165 0266 00000000 		.4byte	0
 3166 026a 00000000 		.4byte	0
 3167              	.LLST7:
 3168 026e 1E000000 		.4byte	.LVL65
 3169 0272 22000000 		.4byte	.LVL66
 3170 0276 0200     		.2byte	0x2
 3171 0278 38       		.byte	0x38
 3172 0279 9F       		.byte	0x9f
 3173 027a 26020000 		.4byte	.LVL75
 3174 027e 3E020000 		.4byte	.LVL78
 3175 0282 0200     		.2byte	0x2
 3176 0284 30       		.byte	0x30
 3177 0285 9F       		.byte	0x9f
 3178 0286 42020000 		.4byte	.LVL79
 3179 028a 46020000 		.4byte	.LVL80
 3180 028e 0200     		.2byte	0x2
 3181 0290 30       		.byte	0x30
 3182 0291 9F       		.byte	0x9f
 3183 0292 00000000 		.4byte	0
 3184 0296 00000000 		.4byte	0
 3185              	.LLST8:
 3186 029a 1E000000 		.4byte	.LVL65
 3187 029e 22000000 		.4byte	.LVL66
 3188 02a2 0200     		.2byte	0x2
 3189 02a4 30       		.byte	0x30
 3190 02a5 9F       		.byte	0x9f
 3191 02a6 36020000 		.4byte	.LVL76
 3192 02aa 3E020000 		.4byte	.LVL78
 3193 02ae 0100     		.2byte	0x1
 3194 02b0 50       		.byte	0x50
 3195 02b1 00000000 		.4byte	0
 3196 02b5 00000000 		.4byte	0
 3197              		.section	.debug_aranges,"",%progbits
 3198 0000 2C000000 		.4byte	0x2c
 3199 0004 0200     		.2byte	0x2
 3200 0006 00000000 		.4byte	.Ldebug_info0
 3201 000a 04       		.byte	0x4
 3202 000b 00       		.byte	0
 3203 000c 0000     		.2byte	0
ARM GAS  C:\Users\faithc\AppData\Local\Temp\cchhuTE1.s 			page 72


 3204 000e 0000     		.2byte	0
 3205 0010 00000000 		.4byte	.LFB0
 3206 0014 34000000 		.4byte	.LFE0-.LFB0
 3207 0018 00000000 		.4byte	.LFB1
 3208 001c 7E060000 		.4byte	.LFE1-.LFB1
 3209 0020 00000000 		.4byte	.LFB2
 3210 0024 64020000 		.4byte	.LFE2-.LFB2
 3211 0028 00000000 		.4byte	0
 3212 002c 00000000 		.4byte	0
 3213              		.section	.debug_ranges,"",%progbits
 3214              	.Ldebug_ranges0:
 3215 0000 2E000000 		.4byte	.LBB10
 3216 0004 64000000 		.4byte	.LBE10
 3217 0008 66000000 		.4byte	.LBB28
 3218 000c 68000000 		.4byte	.LBE28
 3219 0010 6E000000 		.4byte	.LBB29
 3220 0014 9C000000 		.4byte	.LBE29
 3221 0018 9E000000 		.4byte	.LBB30
 3222 001c A0000000 		.4byte	.LBE30
 3223 0020 A6000000 		.4byte	.LBB31
 3224 0024 D4000000 		.4byte	.LBE31
 3225 0028 D6000000 		.4byte	.LBB32
 3226 002c D8000000 		.4byte	.LBE32
 3227 0030 DE000000 		.4byte	.LBB33
 3228 0034 0C010000 		.4byte	.LBE33
 3229 0038 0E010000 		.4byte	.LBB34
 3230 003c 10010000 		.4byte	.LBE34
 3231 0040 16010000 		.4byte	.LBB35
 3232 0044 44010000 		.4byte	.LBE35
 3233 0048 46010000 		.4byte	.LBB36
 3234 004c 48010000 		.4byte	.LBE36
 3235 0050 4E010000 		.4byte	.LBB37
 3236 0054 7C010000 		.4byte	.LBE37
 3237 0058 7E010000 		.4byte	.LBB38
 3238 005c 80010000 		.4byte	.LBE38
 3239 0060 86010000 		.4byte	.LBB39
 3240 0064 B4010000 		.4byte	.LBE39
 3241 0068 B6010000 		.4byte	.LBB40
 3242 006c B8010000 		.4byte	.LBE40
 3243 0070 BE010000 		.4byte	.LBB41
 3244 0074 EC010000 		.4byte	.LBE41
 3245 0078 EE010000 		.4byte	.LBB42
 3246 007c F0010000 		.4byte	.LBE42
 3247 0080 F6010000 		.4byte	.LBB43
 3248 0084 20020000 		.4byte	.LBE43
 3249 0088 00000000 		.4byte	0
 3250 008c 00000000 		.4byte	0
 3251 0090 3C020000 		.4byte	.LBB44
 3252 0094 3E020000 		.4byte	.LBE44
 3253 0098 42020000 		.4byte	.LBB63
 3254 009c 74020000 		.4byte	.LBE63
 3255 00a0 76020000 		.4byte	.LBB64
 3256 00a4 78020000 		.4byte	.LBE64
 3257 00a8 7E020000 		.4byte	.LBB65
 3258 00ac AA020000 		.4byte	.LBE65
 3259 00b0 AC020000 		.4byte	.LBB66
 3260 00b4 AE020000 		.4byte	.LBE66
ARM GAS  C:\Users\faithc\AppData\Local\Temp\cchhuTE1.s 			page 73


 3261 00b8 B4020000 		.4byte	.LBB67
 3262 00bc E0020000 		.4byte	.LBE67
 3263 00c0 E2020000 		.4byte	.LBB68
 3264 00c4 E4020000 		.4byte	.LBE68
 3265 00c8 EA020000 		.4byte	.LBB69
 3266 00cc 16030000 		.4byte	.LBE69
 3267 00d0 18030000 		.4byte	.LBB70
 3268 00d4 1A030000 		.4byte	.LBE70
 3269 00d8 20030000 		.4byte	.LBB71
 3270 00dc 4C030000 		.4byte	.LBE71
 3271 00e0 4E030000 		.4byte	.LBB72
 3272 00e4 50030000 		.4byte	.LBE72
 3273 00e8 56030000 		.4byte	.LBB73
 3274 00ec 82030000 		.4byte	.LBE73
 3275 00f0 84030000 		.4byte	.LBB74
 3276 00f4 86030000 		.4byte	.LBE74
 3277 00f8 8C030000 		.4byte	.LBB75
 3278 00fc B8030000 		.4byte	.LBE75
 3279 0100 BA030000 		.4byte	.LBB76
 3280 0104 BC030000 		.4byte	.LBE76
 3281 0108 C2030000 		.4byte	.LBB77
 3282 010c EE030000 		.4byte	.LBE77
 3283 0110 F0030000 		.4byte	.LBB78
 3284 0114 F2030000 		.4byte	.LBE78
 3285 0118 F8030000 		.4byte	.LBB79
 3286 011c 20040000 		.4byte	.LBE79
 3287 0120 00000000 		.4byte	0
 3288 0124 00000000 		.4byte	0
 3289 0128 32040000 		.4byte	.LBB80
 3290 012c 34040000 		.4byte	.LBE80
 3291 0130 38040000 		.4byte	.LBB99
 3292 0134 6A040000 		.4byte	.LBE99
 3293 0138 6C040000 		.4byte	.LBB100
 3294 013c 6E040000 		.4byte	.LBE100
 3295 0140 74040000 		.4byte	.LBB101
 3296 0144 A0040000 		.4byte	.LBE101
 3297 0148 A2040000 		.4byte	.LBB102
 3298 014c A4040000 		.4byte	.LBE102
 3299 0150 AA040000 		.4byte	.LBB103
 3300 0154 D6040000 		.4byte	.LBE103
 3301 0158 D8040000 		.4byte	.LBB104
 3302 015c DA040000 		.4byte	.LBE104
 3303 0160 E0040000 		.4byte	.LBB105
 3304 0164 0C050000 		.4byte	.LBE105
 3305 0168 0E050000 		.4byte	.LBB106
 3306 016c 10050000 		.4byte	.LBE106
 3307 0170 16050000 		.4byte	.LBB107
 3308 0174 42050000 		.4byte	.LBE107
 3309 0178 44050000 		.4byte	.LBB108
 3310 017c 46050000 		.4byte	.LBE108
 3311 0180 4C050000 		.4byte	.LBB109
 3312 0184 76050000 		.4byte	.LBE109
 3313 0188 78050000 		.4byte	.LBB110
 3314 018c 7A050000 		.4byte	.LBE110
 3315 0190 80050000 		.4byte	.LBB111
 3316 0194 AA050000 		.4byte	.LBE111
 3317 0198 AC050000 		.4byte	.LBB112
ARM GAS  C:\Users\faithc\AppData\Local\Temp\cchhuTE1.s 			page 74


 3318 019c AE050000 		.4byte	.LBE112
 3319 01a0 B4050000 		.4byte	.LBB113
 3320 01a4 DE050000 		.4byte	.LBE113
 3321 01a8 E0050000 		.4byte	.LBB114
 3322 01ac E2050000 		.4byte	.LBE114
 3323 01b0 E8050000 		.4byte	.LBB115
 3324 01b4 10060000 		.4byte	.LBE115
 3325 01b8 00000000 		.4byte	0
 3326 01bc 00000000 		.4byte	0
 3327 01c0 22000000 		.4byte	.LBB116
 3328 01c4 62000000 		.4byte	.LBE116
 3329 01c8 64000000 		.4byte	.LBB132
 3330 01cc 66000000 		.4byte	.LBE132
 3331 01d0 6A000000 		.4byte	.LBB133
 3332 01d4 A4000000 		.4byte	.LBE133
 3333 01d8 A6000000 		.4byte	.LBB134
 3334 01dc A8000000 		.4byte	.LBE134
 3335 01e0 AC000000 		.4byte	.LBB135
 3336 01e4 E6000000 		.4byte	.LBE135
 3337 01e8 E8000000 		.4byte	.LBB136
 3338 01ec EA000000 		.4byte	.LBE136
 3339 01f0 EE000000 		.4byte	.LBB137
 3340 01f4 28010000 		.4byte	.LBE137
 3341 01f8 2A010000 		.4byte	.LBB138
 3342 01fc 2C010000 		.4byte	.LBE138
 3343 0200 30010000 		.4byte	.LBB139
 3344 0204 6A010000 		.4byte	.LBE139
 3345 0208 6C010000 		.4byte	.LBB140
 3346 020c 6E010000 		.4byte	.LBE140
 3347 0210 72010000 		.4byte	.LBB141
 3348 0214 AA010000 		.4byte	.LBE141
 3349 0218 AC010000 		.4byte	.LBB142
 3350 021c AE010000 		.4byte	.LBE142
 3351 0220 B2010000 		.4byte	.LBB143
 3352 0224 EA010000 		.4byte	.LBE143
 3353 0228 EC010000 		.4byte	.LBB144
 3354 022c EE010000 		.4byte	.LBE144
 3355 0230 F2010000 		.4byte	.LBB145
 3356 0234 2A020000 		.4byte	.LBE145
 3357 0238 00000000 		.4byte	0
 3358 023c 00000000 		.4byte	0
 3359 0240 00000000 		.4byte	.LFB0
 3360 0244 34000000 		.4byte	.LFE0
 3361 0248 00000000 		.4byte	.LFB1
 3362 024c 7E060000 		.4byte	.LFE1
 3363 0250 00000000 		.4byte	.LFB2
 3364 0254 64020000 		.4byte	.LFE2
 3365 0258 00000000 		.4byte	0
 3366 025c 00000000 		.4byte	0
 3367              		.section	.debug_line,"",%progbits
 3368              	.Ldebug_line0:
 3369 0000 5E030000 		.section	.debug_str,"MS",%progbits,1
 3369      02004B00 
 3369      00000201 
 3369      FB0E0D00 
 3369      01010101 
 3370              	.LASF17:
ARM GAS  C:\Users\faithc\AppData\Local\Temp\cchhuTE1.s 			page 75


 3371 0000 63686172 		.ascii	"char\000"
 3371      00
 3372              	.LASF13:
 3373 0005 666C6F61 		.ascii	"float\000"
 3373      7400
 3374              	.LASF16:
 3375 000b 75696E74 		.ascii	"uint64\000"
 3375      363400
 3376              	.LASF4:
 3377 0012 73686F72 		.ascii	"short unsigned int\000"
 3377      7420756E 
 3377      7369676E 
 3377      65642069 
 3377      6E7400
 3378              	.LASF30:
 3379 0025 2E5C4765 		.ascii	".\\Generated_Source\\PSoC4\\Thermocouple.c\000"
 3379      6E657261 
 3379      7465645F 
 3379      536F7572 
 3379      63655C50 
 3380              	.LASF24:
 3381 004d 54686572 		.ascii	"Thermocouple_GetTemperature\000"
 3381      6D6F636F 
 3381      75706C65 
 3381      5F476574 
 3381      54656D70 
 3382              	.LASF27:
 3383 0069 74656D70 		.ascii	"temperature\000"
 3383      65726174 
 3383      75726500 
 3384              	.LASF2:
 3385 0075 756E7369 		.ascii	"unsigned char\000"
 3385      676E6564 
 3385      20636861 
 3385      7200
 3386              	.LASF25:
 3387 0083 54686572 		.ascii	"Thermocouple_GetVoltage\000"
 3387      6D6F636F 
 3387      75706C65 
 3387      5F476574 
 3387      566F6C74 
 3388              	.LASF6:
 3389 009b 6C6F6E67 		.ascii	"long unsigned int\000"
 3389      20756E73 
 3389      69676E65 
 3389      6420696E 
 3389      7400
 3390              	.LASF23:
 3391 00ad 74656D70 		.ascii	"temp\000"
 3391      00
 3392              	.LASF12:
 3393 00b2 696E7433 		.ascii	"int32\000"
 3393      3200
 3394              	.LASF26:
 3395 00b8 766F6C74 		.ascii	"voltage\000"
 3395      61676500 
 3396              	.LASF21:
ARM GAS  C:\Users\faithc\AppData\Local\Temp\cchhuTE1.s 			page 76


 3397 00c0 54686572 		.ascii	"Thermocouple_xScaleVT\000"
 3397      6D6F636F 
 3397      75706C65 
 3397      5F785363 
 3397      616C6556 
 3398              	.LASF14:
 3399 00d6 646F7562 		.ascii	"double\000"
 3399      6C6500
 3400              	.LASF3:
 3401 00dd 73686F72 		.ascii	"short int\000"
 3401      7420696E 
 3401      7400
 3402              	.LASF11:
 3403 00e7 696E7438 		.ascii	"int8\000"
 3403      00
 3404              	.LASF10:
 3405 00ec 75696E74 		.ascii	"uint32\000"
 3405      333200
 3406              	.LASF29:
 3407 00f3 474E5520 		.ascii	"GNU C 4.9.3 20150303 (release) [ARM/embedded-4_9-br"
 3407      4320342E 
 3407      392E3320 
 3407      32303135 
 3407      30333033 
 3408 0126 616E6368 		.ascii	"anch revision 221220] -mcpu=cortex-m0 -mthumb -g -O"
 3408      20726576 
 3408      6973696F 
 3408      6E203232 
 3408      31323230 
 3409 0159 33202D66 		.ascii	"3 -ffunction-sections -ffat-lto-objects\000"
 3409      66756E63 
 3409      74696F6E 
 3409      2D736563 
 3409      74696F6E 
 3410              	.LASF8:
 3411 0181 756E7369 		.ascii	"unsigned int\000"
 3411      676E6564 
 3411      20696E74 
 3411      00
 3412              	.LASF0:
 3413 018e 6C6F6E67 		.ascii	"long long unsigned int\000"
 3413      206C6F6E 
 3413      6720756E 
 3413      7369676E 
 3413      65642069 
 3414              	.LASF33:
 3415 01a5 72657375 		.ascii	"result\000"
 3415      6C7400
 3416              	.LASF22:
 3417 01ac 54686572 		.ascii	"Thermocouple_coefScaleVT\000"
 3417      6D6F636F 
 3417      75706C65 
 3417      5F636F65 
 3417      66536361 
 3418              	.LASF18:
 3419 01c5 73697A65 		.ascii	"sizetype\000"
 3419      74797065 
ARM GAS  C:\Users\faithc\AppData\Local\Temp\cchhuTE1.s 			page 77


 3419      00
 3420              	.LASF7:
 3421 01ce 6C6F6E67 		.ascii	"long long int\000"
 3421      206C6F6E 
 3421      6720696E 
 3421      7400
 3422              	.LASF34:
 3423 01dc 6D656D63 		.ascii	"memcpy\000"
 3423      707900
 3424              	.LASF32:
 3425 01e3 54686572 		.ascii	"Thermocouple_MultShift24\000"
 3425      6D6F636F 
 3425      75706C65 
 3425      5F4D756C 
 3425      74536869 
 3426              	.LASF9:
 3427 01fc 75696E74 		.ascii	"uint8\000"
 3427      3800
 3428              	.LASF28:
 3429 0202 54686572 		.ascii	"Thermocouple_coeffTV\000"
 3429      6D6F636F 
 3429      75706C65 
 3429      5F636F65 
 3429      66665456 
 3430              	.LASF5:
 3431 0217 6C6F6E67 		.ascii	"long int\000"
 3431      20696E74 
 3431      00
 3432              	.LASF19:
 3433 0220 54686572 		.ascii	"Thermocouple_coeffVT\000"
 3433      6D6F636F 
 3433      75706C65 
 3433      5F636F65 
 3433      66665654 
 3434              	.LASF20:
 3435 0235 54686572 		.ascii	"Thermocouple_voltRange\000"
 3435      6D6F636F 
 3435      75706C65 
 3435      5F766F6C 
 3435      7452616E 
 3436              	.LASF1:
 3437 024c 7369676E 		.ascii	"signed char\000"
 3437      65642063 
 3437      68617200 
 3438              	.LASF15:
 3439 0258 696E7436 		.ascii	"int64\000"
 3439      3400
 3440              	.LASF31:
 3441 025e 433A5C55 		.ascii	"C:\\Users\\faithc\\Box Sync\\Feniex Firmware Files\\"
 3441      73657273 
 3441      5C666169 
 3441      7468635C 
 3441      426F7820 
 3442 028d 414C425C 		.ascii	"ALB\\81-00022-01 ALB LED Driver\\81-00022-01.cydsn\000"
 3442      38312D30 
 3442      30303232 
 3442      2D303120 
ARM GAS  C:\Users\faithc\AppData\Local\Temp\cchhuTE1.s 			page 78


 3442      414C4220 
 3443              		.ident	"GCC: (GNU Tools for ARM Embedded Processors) 4.9.3 20150303 (release) [ARM/embedded-4_9-br
