ARM GAS  C:\Users\faithc\AppData\Local\Temp\ccPEkxNg.s 			page 1


   1              		.cpu cortex-m0
   2              		.fpu softvfp
   3              		.eabi_attribute 20, 1
   4              		.eabi_attribute 21, 1
   5              		.eabi_attribute 23, 3
   6              		.eabi_attribute 24, 1
   7              		.eabi_attribute 25, 1
   8              		.eabi_attribute 26, 1
   9              		.eabi_attribute 30, 2
  10              		.eabi_attribute 34, 0
  11              		.eabi_attribute 18, 4
  12              		.code	16
  13              		.file	"Thermistor.c"
  14              		.text
  15              	.Ltext0:
  16              		.cfi_sections	.debug_frame
  17              		.global	__aeabi_idiv
  18              		.section	.text.Thermistor_GetResistance,"ax",%progbits
  19              		.align	2
  20              		.global	Thermistor_GetResistance
  21              		.code	16
  22              		.thumb_func
  23              		.type	Thermistor_GetResistance, %function
  24              	Thermistor_GetResistance:
  25              	.LFB0:
  26              		.file 1 ".\\Generated_Source\\PSoC4\\Thermistor.c"
   1:.\Generated_Source\PSoC4/Thermistor.c **** /*******************************************************************************
   2:.\Generated_Source\PSoC4/Thermistor.c **** * File Name: Thermistor.c
   3:.\Generated_Source\PSoC4/Thermistor.c **** * Version 1.20
   4:.\Generated_Source\PSoC4/Thermistor.c **** *
   5:.\Generated_Source\PSoC4/Thermistor.c **** * Description:
   6:.\Generated_Source\PSoC4/Thermistor.c **** *  This file provides the source code to the API for the ThermistorCalc
   7:.\Generated_Source\PSoC4/Thermistor.c **** *  Component.
   8:.\Generated_Source\PSoC4/Thermistor.c **** *
   9:.\Generated_Source\PSoC4/Thermistor.c **** * Note:
  10:.\Generated_Source\PSoC4/Thermistor.c **** *  None.
  11:.\Generated_Source\PSoC4/Thermistor.c **** *
  12:.\Generated_Source\PSoC4/Thermistor.c **** ********************************************************************************
  13:.\Generated_Source\PSoC4/Thermistor.c **** * Copyright 2013, Cypress Semiconductor Corporation.  All rights reserved.
  14:.\Generated_Source\PSoC4/Thermistor.c **** * You may use this file only in accordance with the license, terms, conditions,
  15:.\Generated_Source\PSoC4/Thermistor.c **** * disclaimers, and limitations in the end user license agreement accompanying
  16:.\Generated_Source\PSoC4/Thermistor.c **** * the software package with which this file was provided.
  17:.\Generated_Source\PSoC4/Thermistor.c **** *******************************************************************************/
  18:.\Generated_Source\PSoC4/Thermistor.c **** 
  19:.\Generated_Source\PSoC4/Thermistor.c **** #include "Thermistor.h"
  20:.\Generated_Source\PSoC4/Thermistor.c **** 
  21:.\Generated_Source\PSoC4/Thermistor.c **** 
  22:.\Generated_Source\PSoC4/Thermistor.c **** /*******************************************************************************
  23:.\Generated_Source\PSoC4/Thermistor.c **** * Function Name: Thermistor_GetResistance
  24:.\Generated_Source\PSoC4/Thermistor.c **** ********************************************************************************
  25:.\Generated_Source\PSoC4/Thermistor.c **** *
  26:.\Generated_Source\PSoC4/Thermistor.c **** * Summary:
  27:.\Generated_Source\PSoC4/Thermistor.c **** *  The digital values of the voltages across the reference resistor and the
  28:.\Generated_Source\PSoC4/Thermistor.c **** *  thermistor are passed to this function as parameters. The function returns
  29:.\Generated_Source\PSoC4/Thermistor.c **** *  the resistance, based on the voltage values.
  30:.\Generated_Source\PSoC4/Thermistor.c **** *
  31:.\Generated_Source\PSoC4/Thermistor.c **** * Parameters:
ARM GAS  C:\Users\faithc\AppData\Local\Temp\ccPEkxNg.s 			page 2


  32:.\Generated_Source\PSoC4/Thermistor.c **** *  vReference: the voltage across the reference resistor;
  33:.\Generated_Source\PSoC4/Thermistor.c **** *  vThermistor: the voltage across the thermistor.
  34:.\Generated_Source\PSoC4/Thermistor.c **** *  The ratio of these two voltages is used by this function. Therefore, the
  35:.\Generated_Source\PSoC4/Thermistor.c **** *  units for both parameters must be the same.
  36:.\Generated_Source\PSoC4/Thermistor.c **** *
  37:.\Generated_Source\PSoC4/Thermistor.c **** * Return:
  38:.\Generated_Source\PSoC4/Thermistor.c **** *  The return value is the resistance across the thermistor. The value returned
  39:.\Generated_Source\PSoC4/Thermistor.c **** *  is the resistance in Ohms.
  40:.\Generated_Source\PSoC4/Thermistor.c **** *
  41:.\Generated_Source\PSoC4/Thermistor.c **** *******************************************************************************/
  42:.\Generated_Source\PSoC4/Thermistor.c **** uint32 Thermistor_GetResistance(int16 vReference, int16 vThermistor)
  43:.\Generated_Source\PSoC4/Thermistor.c ****                                       
  44:.\Generated_Source\PSoC4/Thermistor.c **** {
  27              		.loc 1 44 0
  28              		.cfi_startproc
  29              	.LVL0:
  30 0000 08B5     		push	{r3, lr}
  31              		.cfi_def_cfa_offset 8
  32              		.cfi_offset 3, -8
  33              		.cfi_offset 14, -4
  45:.\Generated_Source\PSoC4/Thermistor.c ****     int32 resT;
  46:.\Generated_Source\PSoC4/Thermistor.c ****     int16 temp;
  47:.\Generated_Source\PSoC4/Thermistor.c **** 
  48:.\Generated_Source\PSoC4/Thermistor.c ****     /* Calculate thermistor resistance from the voltages */
  49:.\Generated_Source\PSoC4/Thermistor.c ****     resT = Thermistor_REF_RESISTOR * ((int32)vThermistor);
  34              		.loc 1 49 0
  35 0002 094B     		ldr	r3, .L6
  44:.\Generated_Source\PSoC4/Thermistor.c ****     int32 resT;
  36              		.loc 1 44 0
  37 0004 021C     		mov	r2, r0
  38              		.loc 1 49 0
  39 0006 5943     		mul	r1, r3
  40              	.LVL1:
  50:.\Generated_Source\PSoC4/Thermistor.c ****     if (vReference < 0)
  41              		.loc 1 50 0
  42 0008 0028     		cmp	r0, #0
  43 000a 07DB     		blt	.L5
  51:.\Generated_Source\PSoC4/Thermistor.c ****     {
  52:.\Generated_Source\PSoC4/Thermistor.c ****         temp = -vReference;
  53:.\Generated_Source\PSoC4/Thermistor.c ****         temp = (int16)((uint16)((uint16)temp >> 1u));
  54:.\Generated_Source\PSoC4/Thermistor.c ****         temp = -temp;
  55:.\Generated_Source\PSoC4/Thermistor.c ****     }
  56:.\Generated_Source\PSoC4/Thermistor.c ****     else
  57:.\Generated_Source\PSoC4/Thermistor.c ****     {
  58:.\Generated_Source\PSoC4/Thermistor.c ****         temp = (int16)((uint16)((uint16)vReference >> 1u));
  44              		.loc 1 58 0
  45 000c 83B2     		uxth	r3, r0
  46 000e 5B08     		lsr	r3, r3, #1
  47              	.LVL2:
  48              	.L3:
  59:.\Generated_Source\PSoC4/Thermistor.c ****     }
  60:.\Generated_Source\PSoC4/Thermistor.c ****     resT += temp;
  49              		.loc 1 60 0
  50 0010 1BB2     		sxth	r3, r3
  51 0012 5818     		add	r0, r3, r1
  52              	.LVL3:
  61:.\Generated_Source\PSoC4/Thermistor.c ****     resT /= vReference;
ARM GAS  C:\Users\faithc\AppData\Local\Temp\ccPEkxNg.s 			page 3


  53              		.loc 1 61 0
  54 0014 111C     		mov	r1, r2
  55 0016 FFF7FEFF 		bl	__aeabi_idiv
  56              	.LVL4:
  62:.\Generated_Source\PSoC4/Thermistor.c **** 
  63:.\Generated_Source\PSoC4/Thermistor.c ****     /* The ordering of Reference resistor value is specifically designed to keep the result from ov
  64:.\Generated_Source\PSoC4/Thermistor.c ****     return ((uint32)((uint32)resT << Thermistor_REF_RES_SHIFT));
  65:.\Generated_Source\PSoC4/Thermistor.c **** }
  57              		.loc 1 65 0
  58              		@ sp needed
  59 001a 08BD     		pop	{r3, pc}
  60              	.LVL5:
  61              	.L5:
  52:.\Generated_Source\PSoC4/Thermistor.c ****         temp = (int16)((uint16)((uint16)temp >> 1u));
  62              		.loc 1 52 0
  63 001c 4342     		neg	r3, r0
  53:.\Generated_Source\PSoC4/Thermistor.c ****         temp = -temp;
  64              		.loc 1 53 0
  65 001e 9BB2     		uxth	r3, r3
  66 0020 5B08     		lsr	r3, r3, #1
  54:.\Generated_Source\PSoC4/Thermistor.c ****     }
  67              		.loc 1 54 0
  68 0022 5B42     		neg	r3, r3
  69 0024 9BB2     		uxth	r3, r3
  70              	.LVL6:
  71 0026 F3E7     		b	.L3
  72              	.L7:
  73              		.align	2
  74              	.L6:
  75 0028 10270000 		.word	10000
  76              		.cfi_endproc
  77              	.LFE0:
  78              		.size	Thermistor_GetResistance, .-Thermistor_GetResistance
  79              		.global	__aeabi_ui2d
  80              		.global	__aeabi_d2f
  81              		.global	__aeabi_f2d
  82              		.global	__aeabi_dmul
  83              		.global	__aeabi_dadd
  84              		.global	__aeabi_ddiv
  85              		.global	__aeabi_dsub
  86              		.global	__aeabi_f2iz
  87              		.section	.text.Thermistor_GetTemperature,"ax",%progbits
  88              		.align	2
  89              		.global	Thermistor_GetTemperature
  90              		.code	16
  91              		.thumb_func
  92              		.type	Thermistor_GetTemperature, %function
  93              	Thermistor_GetTemperature:
  94              	.LFB1:
  66:.\Generated_Source\PSoC4/Thermistor.c **** 
  67:.\Generated_Source\PSoC4/Thermistor.c **** 
  68:.\Generated_Source\PSoC4/Thermistor.c **** /*******************************************************************************
  69:.\Generated_Source\PSoC4/Thermistor.c **** * Function Name: Thermistor_GetTemperature
  70:.\Generated_Source\PSoC4/Thermistor.c **** ********************************************************************************
  71:.\Generated_Source\PSoC4/Thermistor.c **** *
  72:.\Generated_Source\PSoC4/Thermistor.c **** * Summary:
  73:.\Generated_Source\PSoC4/Thermistor.c **** *  The value of the thermistor resistance is passed to this function as a
ARM GAS  C:\Users\faithc\AppData\Local\Temp\ccPEkxNg.s 			page 4


  74:.\Generated_Source\PSoC4/Thermistor.c **** *  parameter. The function returns the temperature, based on the resistance
  75:.\Generated_Source\PSoC4/Thermistor.c **** *  value. The method used to calculate the temperature is dependent on whether
  76:.\Generated_Source\PSoC4/Thermistor.c **** *  Equation or LUT was selected in the Customizer.
  77:.\Generated_Source\PSoC4/Thermistor.c **** *
  78:.\Generated_Source\PSoC4/Thermistor.c **** * Parameters:
  79:.\Generated_Source\PSoC4/Thermistor.c **** *  resT: the resistance across the thermistor in Ohms.
  80:.\Generated_Source\PSoC4/Thermistor.c **** *
  81:.\Generated_Source\PSoC4/Thermistor.c **** * Return:
  82:.\Generated_Source\PSoC4/Thermistor.c **** *  The return value is the temperature in 1/100ths of degrees C. For example,
  83:.\Generated_Source\PSoC4/Thermistor.c **** *  the return value is 2345, when the actual temperature is 23.45 degrees C.
  84:.\Generated_Source\PSoC4/Thermistor.c **** *
  85:.\Generated_Source\PSoC4/Thermistor.c **** *******************************************************************************/
  86:.\Generated_Source\PSoC4/Thermistor.c **** int16 Thermistor_GetTemperature(uint32 resT) 
  87:.\Generated_Source\PSoC4/Thermistor.c **** {
  95              		.loc 1 87 0
  96              		.cfi_startproc
  97              	.LVL7:
  98 0000 F8B5     		push	{r3, r4, r5, r6, r7, lr}
  99              		.cfi_def_cfa_offset 24
 100              		.cfi_offset 3, -24
 101              		.cfi_offset 4, -20
 102              		.cfi_offset 5, -16
 103              		.cfi_offset 6, -12
 104              		.cfi_offset 7, -8
 105              		.cfi_offset 14, -4
  88:.\Generated_Source\PSoC4/Thermistor.c ****     int16 tempTR;
  89:.\Generated_Source\PSoC4/Thermistor.c ****     
  90:.\Generated_Source\PSoC4/Thermistor.c ****     #if (Thermistor_IMPLEMENTATION == Thermistor_EQUATION_METHOD)
  91:.\Generated_Source\PSoC4/Thermistor.c **** 
  92:.\Generated_Source\PSoC4/Thermistor.c ****         float32 stEqn;
  93:.\Generated_Source\PSoC4/Thermistor.c ****         float32 logrT;
  94:.\Generated_Source\PSoC4/Thermistor.c **** 
  95:.\Generated_Source\PSoC4/Thermistor.c ****         /* Calculate thermistor resistance from the voltages */
  96:.\Generated_Source\PSoC4/Thermistor.c ****         #if(!CY_PSOC3)
  97:.\Generated_Source\PSoC4/Thermistor.c ****             logrT = (float32)log((float64)resT);
 106              		.loc 1 97 0
 107 0002 FFF7FEFF 		bl	__aeabi_ui2d
 108              	.LVL8:
 109 0006 FFF7FEFF 		bl	log
 110              	.LVL9:
 111 000a FFF7FEFF 		bl	__aeabi_d2f
 112              	.LVL10:
  98:.\Generated_Source\PSoC4/Thermistor.c ****         #else
  99:.\Generated_Source\PSoC4/Thermistor.c ****             logrT = log((float32)resT);
 100:.\Generated_Source\PSoC4/Thermistor.c ****         #endif  /* (!CY_PSOC3) */
 101:.\Generated_Source\PSoC4/Thermistor.c **** 
 102:.\Generated_Source\PSoC4/Thermistor.c ****         /* Calculate temperature from the resistance of thermistor using Steinhart-Hart Equation */
 103:.\Generated_Source\PSoC4/Thermistor.c ****         #if(!CY_PSOC3)
 104:.\Generated_Source\PSoC4/Thermistor.c ****             stEqn = (float32)(Thermistor_THA + (Thermistor_THB * logrT) + 
 113              		.loc 1 104 0
 114 000e FFF7FEFF 		bl	__aeabi_f2d
 115              	.LVL11:
 105:.\Generated_Source\PSoC4/Thermistor.c ****                              (Thermistor_THC * pow((float64)logrT, (float32)3)));
 116              		.loc 1 105 0
 117 0012 0022     		mov	r2, #0
 118 0014 1D4B     		ldr	r3, .L9
 104:.\Generated_Source\PSoC4/Thermistor.c ****                              (Thermistor_THC * pow((float64)logrT, (float32)3)));
ARM GAS  C:\Users\faithc\AppData\Local\Temp\ccPEkxNg.s 			page 5


 119              		.loc 1 104 0
 120 0016 041C     		mov	r4, r0
 121 0018 0D1C     		mov	r5, r1
 122              		.loc 1 105 0
 123 001a FFF7FEFF 		bl	pow
 124              	.LVL12:
 104:.\Generated_Source\PSoC4/Thermistor.c ****                              (Thermistor_THC * pow((float64)logrT, (float32)3)));
 125              		.loc 1 104 0
 126 001e 1C4A     		ldr	r2, .L9+4
 127              		.loc 1 105 0
 128 0020 061C     		mov	r6, r0
 129 0022 0F1C     		mov	r7, r1
 130              	.LVL13:
 104:.\Generated_Source\PSoC4/Thermistor.c ****                              (Thermistor_THC * pow((float64)logrT, (float32)3)));
 131              		.loc 1 104 0
 132 0024 201C     		mov	r0, r4
 133 0026 291C     		mov	r1, r5
 134 0028 1A4B     		ldr	r3, .L9+8
 135 002a FFF7FEFF 		bl	__aeabi_dmul
 136              	.LVL14:
 137 002e 1A4A     		ldr	r2, .L9+12
 138 0030 1A4B     		ldr	r3, .L9+16
 139 0032 FFF7FEFF 		bl	__aeabi_dadd
 140              	.LVL15:
 141              		.loc 1 105 0
 142 0036 1A4A     		ldr	r2, .L9+20
 104:.\Generated_Source\PSoC4/Thermistor.c ****                              (Thermistor_THC * pow((float64)logrT, (float32)3)));
 143              		.loc 1 104 0
 144 0038 0D1C     		mov	r5, r1
 145 003a 041C     		mov	r4, r0
 146              	.LVL16:
 147              		.loc 1 105 0
 148 003c 391C     		mov	r1, r7
 149 003e 301C     		mov	r0, r6
 150 0040 184B     		ldr	r3, .L9+24
 151 0042 FFF7FEFF 		bl	__aeabi_dmul
 152              	.LVL17:
 153 0046 021C     		mov	r2, r0
 154 0048 0B1C     		mov	r3, r1
 104:.\Generated_Source\PSoC4/Thermistor.c ****                              (Thermistor_THC * pow((float64)logrT, (float32)3)));
 155              		.loc 1 104 0
 156 004a 201C     		mov	r0, r4
 157 004c 291C     		mov	r1, r5
 158 004e FFF7FEFF 		bl	__aeabi_dadd
 159              	.LVL18:
 160 0052 FFF7FEFF 		bl	__aeabi_d2f
 161              	.LVL19:
 106:.\Generated_Source\PSoC4/Thermistor.c ****         #else
 107:.\Generated_Source\PSoC4/Thermistor.c ****             stEqn = (float32)(Thermistor_THA + (Thermistor_THB * logrT) + 
 108:.\Generated_Source\PSoC4/Thermistor.c ****                              (Thermistor_THC * pow(logrT, (float32)3)));
 109:.\Generated_Source\PSoC4/Thermistor.c ****         #endif  /* (!CY_PSOC3) */
 110:.\Generated_Source\PSoC4/Thermistor.c **** 
 111:.\Generated_Source\PSoC4/Thermistor.c ****         tempTR = (int16)((float32)((((1.0 / stEqn) - Thermistor_K2C) * (float32)Thermistor_SCALE) +
 162              		.loc 1 111 0
 163 0056 FFF7FEFF 		bl	__aeabi_f2d
 164              	.LVL20:
 165 005a 021C     		mov	r2, r0
ARM GAS  C:\Users\faithc\AppData\Local\Temp\ccPEkxNg.s 			page 6


 166 005c 0B1C     		mov	r3, r1
 167 005e 0020     		mov	r0, #0
 168 0060 1149     		ldr	r1, .L9+28
 169 0062 FFF7FEFF 		bl	__aeabi_ddiv
 170              	.LVL21:
 171 0066 114A     		ldr	r2, .L9+32
 172 0068 114B     		ldr	r3, .L9+36
 173 006a FFF7FEFF 		bl	__aeabi_dsub
 174              	.LVL22:
 175 006e 0022     		mov	r2, #0
 176 0070 104B     		ldr	r3, .L9+40
 177 0072 FFF7FEFF 		bl	__aeabi_dmul
 178              	.LVL23:
 179 0076 0022     		mov	r2, #0
 180 0078 0F4B     		ldr	r3, .L9+44
 181 007a FFF7FEFF 		bl	__aeabi_dadd
 182              	.LVL24:
 183 007e FFF7FEFF 		bl	__aeabi_d2f
 184              	.LVL25:
 185 0082 FFF7FEFF 		bl	__aeabi_f2iz
 186              	.LVL26:
 112:.\Generated_Source\PSoC4/Thermistor.c **** 
 113:.\Generated_Source\PSoC4/Thermistor.c ****     #else /* Thermistor_IMPLEMENTATION == Thermistor_LUT_METHOD */
 114:.\Generated_Source\PSoC4/Thermistor.c **** 
 115:.\Generated_Source\PSoC4/Thermistor.c ****         uint16 mid;
 116:.\Generated_Source\PSoC4/Thermistor.c ****         uint16 first = 0u;
 117:.\Generated_Source\PSoC4/Thermistor.c ****         uint16 last = Thermistor_LUT_SIZE - 1u;
 118:.\Generated_Source\PSoC4/Thermistor.c **** 
 119:.\Generated_Source\PSoC4/Thermistor.c ****         /* Calculate temperature from the resistance of thermistor by using the LUT */
 120:.\Generated_Source\PSoC4/Thermistor.c ****         while (first < last)
 121:.\Generated_Source\PSoC4/Thermistor.c ****         {
 122:.\Generated_Source\PSoC4/Thermistor.c ****             mid = (first + last) >> 1u;
 123:.\Generated_Source\PSoC4/Thermistor.c **** 
 124:.\Generated_Source\PSoC4/Thermistor.c ****             if ((0u == mid) || ((Thermistor_LUT_SIZE - 1u) == mid) || (resT == Thermistor_LUT[mid])
 125:.\Generated_Source\PSoC4/Thermistor.c ****             {
 126:.\Generated_Source\PSoC4/Thermistor.c ****                 last = mid;
 127:.\Generated_Source\PSoC4/Thermistor.c ****                 break;
 128:.\Generated_Source\PSoC4/Thermistor.c ****             }
 129:.\Generated_Source\PSoC4/Thermistor.c ****             else if (Thermistor_LUT[mid] > resT)
 130:.\Generated_Source\PSoC4/Thermistor.c ****             {
 131:.\Generated_Source\PSoC4/Thermistor.c ****                 first = mid + 1u;
 132:.\Generated_Source\PSoC4/Thermistor.c ****             }
 133:.\Generated_Source\PSoC4/Thermistor.c ****             else /* (Thermistor_LUT[mid] < resT) */
 134:.\Generated_Source\PSoC4/Thermistor.c ****             {
 135:.\Generated_Source\PSoC4/Thermistor.c ****                 last = mid - 1u;
 136:.\Generated_Source\PSoC4/Thermistor.c ****             }
 137:.\Generated_Source\PSoC4/Thermistor.c ****         }
 138:.\Generated_Source\PSoC4/Thermistor.c **** 
 139:.\Generated_Source\PSoC4/Thermistor.c ****         /* Calculation the closest entry in the LUT */
 140:.\Generated_Source\PSoC4/Thermistor.c ****         if ((Thermistor_LUT[last] > resT) && (last < (Thermistor_LUT_SIZE - 1u)) &&
 141:.\Generated_Source\PSoC4/Thermistor.c ****            ((Thermistor_LUT[last] - resT) > (resT - Thermistor_LUT[last + 1u])))
 142:.\Generated_Source\PSoC4/Thermistor.c ****         {
 143:.\Generated_Source\PSoC4/Thermistor.c ****             last++;
 144:.\Generated_Source\PSoC4/Thermistor.c ****         }
 145:.\Generated_Source\PSoC4/Thermistor.c ****         else if ((Thermistor_LUT[last] < resT) && (last > 0u) &&
 146:.\Generated_Source\PSoC4/Thermistor.c ****                 ((Thermistor_LUT[last - 1u] - resT) < (resT - Thermistor_LUT[last])))
 147:.\Generated_Source\PSoC4/Thermistor.c ****         {
ARM GAS  C:\Users\faithc\AppData\Local\Temp\ccPEkxNg.s 			page 7


 148:.\Generated_Source\PSoC4/Thermistor.c ****             last--;
 149:.\Generated_Source\PSoC4/Thermistor.c ****         }
 150:.\Generated_Source\PSoC4/Thermistor.c ****         else
 151:.\Generated_Source\PSoC4/Thermistor.c ****         {
 152:.\Generated_Source\PSoC4/Thermistor.c ****             /* Closest entry in the LUT already found */
 153:.\Generated_Source\PSoC4/Thermistor.c ****         }
 154:.\Generated_Source\PSoC4/Thermistor.c **** 
 155:.\Generated_Source\PSoC4/Thermistor.c ****         tempTR = Thermistor_MIN_TEMP + (int16)((uint16)(last * Thermistor_ACCURACY));
 156:.\Generated_Source\PSoC4/Thermistor.c **** 
 157:.\Generated_Source\PSoC4/Thermistor.c ****     #endif /* (Thermistor_IMPLEMENTATION == Thermistor_EQUATION_METHOD) */
 158:.\Generated_Source\PSoC4/Thermistor.c **** 
 159:.\Generated_Source\PSoC4/Thermistor.c ****     return (tempTR);
 160:.\Generated_Source\PSoC4/Thermistor.c **** }
 187              		.loc 1 160 0
 188              		@ sp needed
 159:.\Generated_Source\PSoC4/Thermistor.c **** }
 189              		.loc 1 159 0
 190 0086 00B2     		sxth	r0, r0
 191              		.loc 1 160 0
 192 0088 F8BD     		pop	{r3, r4, r5, r6, r7, pc}
 193              	.L10:
 194 008a C046     		.align	2
 195              	.L9:
 196 008c 00000840 		.word	1074266112
 197 0090 6943AA9A 		.word	-1700117655
 198 0094 B34D303F 		.word	1060130227
 199 0098 D8FD850B 		.word	193330648
 200 009c 29994D3F 		.word	1062050089
 201 00a0 4D33E444 		.word	1155806029
 202 00a4 25658B3E 		.word	1049322789
 203 00a8 0000F03F 		.word	1072693248
 204 00ac 66666666 		.word	1717986918
 205 00b0 66127140 		.word	1081152102
 206 00b4 00005940 		.word	1079574528
 207 00b8 0000E03F 		.word	1071644672
 208              		.cfi_endproc
 209              	.LFE1:
 210              		.size	Thermistor_GetTemperature, .-Thermistor_GetTemperature
 211              		.text
 212              	.Letext0:
 213              		.file 2 ".\\Generated_Source\\PSoC4\\cytypes.h"
 214              		.file 3 "c:\\program files (x86)\\cypress\\psoc creator\\3.3\\psoc creator\\import\\gnu\\arm\\4.9.