ARM GAS  C:\Users\faithc\AppData\Local\Temp\cchhuTE1.s 			page 1


   1              		.cpu cortex-m0
   2              		.fpu softvfp
   3              		.eabi_attribute 20, 1
   4              		.eabi_attribute 21, 1
   5              		.eabi_attribute 23, 3
   6              		.eabi_attribute 24, 1
   7              		.eabi_attribute 25, 1
   8              		.eabi_attribute 26, 1
   9              		.eabi_attribute 30, 2
  10              		.eabi_attribute 34, 0
  11              		.eabi_attribute 18, 4
  12              		.code	16
  13              		.file	"Thermocouple.c"
  14              		.text
  15              	.Ltext0:
  16              		.cfi_sections	.debug_frame
  17              		.global	__aeabi_lmul
  18              		.section	.text.Thermocouple_MultShift24,"ax",%progbits
  19              		.align	2
  20              		.global	Thermocouple_MultShift24
  21              		.code	16
  22              		.thumb_func
  23              		.type	Thermocouple_MultShift24, %function
  24              	Thermocouple_MultShift24:
  25              	.LFB0:
  26              		.file 1 ".\\Generated_Source\\PSoC4\\Thermocouple.c"
   1:.\Generated_Source\PSoC4/Thermocouple.c **** /*******************************************************************************
   2:.\Generated_Source\PSoC4/Thermocouple.c **** * File Name: Thermocouple.c
   3:.\Generated_Source\PSoC4/Thermocouple.c **** * Version 1.20
   4:.\Generated_Source\PSoC4/Thermocouple.c **** *
   5:.\Generated_Source\PSoC4/Thermocouple.c **** * Description:
   6:.\Generated_Source\PSoC4/Thermocouple.c **** *  This file provides the source code to the API for the Thermocouple
   7:.\Generated_Source\PSoC4/Thermocouple.c **** *  component
   8:.\Generated_Source\PSoC4/Thermocouple.c **** *
   9:.\Generated_Source\PSoC4/Thermocouple.c **** * Note:
  10:.\Generated_Source\PSoC4/Thermocouple.c **** *  None
  11:.\Generated_Source\PSoC4/Thermocouple.c **** *
  12:.\Generated_Source\PSoC4/Thermocouple.c **** ********************************************************************************
  13:.\Generated_Source\PSoC4/Thermocouple.c **** * Copyright 2012-2013, Cypress Semiconductor Corporation.  All rights reserved.
  14:.\Generated_Source\PSoC4/Thermocouple.c **** * You may use this file only in accordance with the license, terms, conditions,
  15:.\Generated_Source\PSoC4/Thermocouple.c **** * disclaimers, and limitations in the end user license agreement accompanying
  16:.\Generated_Source\PSoC4/Thermocouple.c **** * the software package with which this file was provided.
  17:.\Generated_Source\PSoC4/Thermocouple.c **** *******************************************************************************/
  18:.\Generated_Source\PSoC4/Thermocouple.c **** 
  19:.\Generated_Source\PSoC4/Thermocouple.c **** #include "Thermocouple.h"
  20:.\Generated_Source\PSoC4/Thermocouple.c **** 
  21:.\Generated_Source\PSoC4/Thermocouple.c **** #if(!CY_PSOC3)
  22:.\Generated_Source\PSoC4/Thermocouple.c **** 
  23:.\Generated_Source\PSoC4/Thermocouple.c ****     /*******************************************************************************
  24:.\Generated_Source\PSoC4/Thermocouple.c ****     * Function Name: Thermocouple_MultShift24
  25:.\Generated_Source\PSoC4/Thermocouple.c ****     ********************************************************************************
  26:.\Generated_Source\PSoC4/Thermocouple.c ****     *
  27:.\Generated_Source\PSoC4/Thermocouple.c ****     * Summary:
  28:.\Generated_Source\PSoC4/Thermocouple.c ****     *  Performs the math function (op1 * op2) >> 24 using 64 bit arithmetic without
  29:.\Generated_Source\PSoC4/Thermocouple.c ****     *  any loss of precision and without overflow.
  30:.\Generated_Source\PSoC4/Thermocouple.c ****     *
  31:.\Generated_Source\PSoC4/Thermocouple.c ****     * Parameters:
ARM GAS  C:\Users\faithc\AppData\Local\Temp\cchhuTE1.s 			page 2


  32:.\Generated_Source\PSoC4/Thermocouple.c ****     *  op1: Signed 32-bit operand
  33:.\Generated_Source\PSoC4/Thermocouple.c ****     *  op2: Signed 24-bit operand
  34:.\Generated_Source\PSoC4/Thermocouple.c ****     *
  35:.\Generated_Source\PSoC4/Thermocouple.c ****     * Return:
  36:.\Generated_Source\PSoC4/Thermocouple.c ****     *  Signed 32-bit result of the math calculation
  37:.\Generated_Source\PSoC4/Thermocouple.c ****     *
  38:.\Generated_Source\PSoC4/Thermocouple.c ****     *******************************************************************************/
  39:.\Generated_Source\PSoC4/Thermocouple.c ****     int32 Thermocouple_MultShift24(int32 op1, int32 op2) 
  40:.\Generated_Source\PSoC4/Thermocouple.c ****     {
  27              		.loc 1 40 0
  28              		.cfi_startproc
  29              	.LVL0:
  30 0000 0A1C     		mov	r2, r1
  31 0002 08B5     		push	{r3, lr}
  32              		.cfi_def_cfa_offset 8
  33              		.cfi_offset 3, -8
  34              		.cfi_offset 14, -4
  41:.\Generated_Source\PSoC4/Thermocouple.c ****         int64 result=0;
  42:.\Generated_Source\PSoC4/Thermocouple.c **** 
  43:.\Generated_Source\PSoC4/Thermocouple.c ****         result = (int64)op1 * (int64)op2;
  35              		.loc 1 43 0
  36 0004 C117     		asr	r1, r0, #31
  37              	.LVL1:
  38 0006 D317     		asr	r3, r2, #31
  39 0008 FFF7FEFF 		bl	__aeabi_lmul
  40              	.LVL2:
  44:.\Generated_Source\PSoC4/Thermocouple.c ****         if (result < 0)
  41              		.loc 1 44 0
  42 000c 0029     		cmp	r1, #0
  43 000e 0CDA     		bge	.L2
  44              	.LVL3:
  45:.\Generated_Source\PSoC4/Thermocouple.c ****         {
  46:.\Generated_Source\PSoC4/Thermocouple.c ****             result = -result;
  45              		.loc 1 46 0
  46 0010 0023     		mov	r3, #0
  47 0012 4242     		neg	r2, r0
  48 0014 8B41     		sbc	r3, r1
  49              	.LVL4:
  47:.\Generated_Source\PSoC4/Thermocouple.c ****             result = (int32)((uint64)((uint64)result >> Thermocouple_24BIT_SHIFTING));
  50              		.loc 1 47 0
  51 0016 1B02     		lsl	r3, r3, #8
  52 0018 120E     		lsr	r2, r2, #24
  53              	.LVL5:
  54 001a 1A43     		orr	r2, r3
  55 001c 101C     		mov	r0, r2
  56              	.LVL6:
  57 001e D117     		asr	r1, r2, #31
  58              	.LVL7:
  48:.\Generated_Source\PSoC4/Thermocouple.c ****             result = -result;
  59              		.loc 1 48 0
  60 0020 0023     		mov	r3, #0
  61 0022 4242     		neg	r2, r0
  62 0024 8B41     		sbc	r3, r1
  63              	.LVL8:
  64              	.L4:
  49:.\Generated_Source\PSoC4/Thermocouple.c ****         }
  50:.\Generated_Source\PSoC4/Thermocouple.c ****         else
ARM GAS  C:\Users\faithc\AppData\Local\Temp\cchhuTE1.s 			page 3


  51:.\Generated_Source\PSoC4/Thermocouple.c ****         {
  52:.\Generated_Source\PSoC4/Thermocouple.c ****             result = (int32)((uint64)((uint64)result >> Thermocouple_24BIT_SHIFTING));
  53:.\Generated_Source\PSoC4/Thermocouple.c ****         }
  54:.\Generated_Source\PSoC4/Thermocouple.c ****         return (result);
  55:.\Generated_Source\PSoC4/Thermocouple.c ****     }        
  65              		.loc 1 55 0
  66 0026 101C     		mov	r0, r2
  67              		@ sp needed
  68 0028 08BD     		pop	{r3, pc}
  69              	.LVL9:
  70              	.L2:
  52:.\Generated_Source\PSoC4/Thermocouple.c ****         }
  71              		.loc 1 52 0
  72 002a 0B02     		lsl	r3, r1, #8
  73 002c 000E     		lsr	r0, r0, #24
  74 002e 1843     		orr	r0, r3
  75 0030 021C     		mov	r2, r0
  76 0032 F8E7     		b	.L4
  77              		.cfi_endproc
  78              	.LFE0:
  79              		.size	Thermocouple_MultShift24, .-Thermocouple_MultShift24
  80              		.section	.text.Thermocouple_GetTemperature,"ax",%progbits
  81              		.align	2
  82              		.global	Thermocouple_GetTemperature
  83              		.code	16
  84              		.thumb_func
  85              		.type	Thermocouple_GetTemperature, %function
  86              	Thermocouple_GetTemperature:
  87              	.LFB1:
  56:.\Generated_Source\PSoC4/Thermocouple.c **** #endif /* End (!CY_PSOC3) */
  57:.\Generated_Source\PSoC4/Thermocouple.c **** 
  58:.\Generated_Source\PSoC4/Thermocouple.c **** 
  59:.\Generated_Source\PSoC4/Thermocouple.c **** /*******************************************************************************
  60:.\Generated_Source\PSoC4/Thermocouple.c **** * Function Name: Thermocouple_GetTemperature
  61:.\Generated_Source\PSoC4/Thermocouple.c **** ********************************************************************************
  62:.\Generated_Source\PSoC4/Thermocouple.c **** *
  63:.\Generated_Source\PSoC4/Thermocouple.c **** * Summary:
  64:.\Generated_Source\PSoC4/Thermocouple.c **** *  This function takes thermocouple voltage in microvolt as i/p and calculates
  65:.\Generated_Source\PSoC4/Thermocouple.c **** *  temperature corresponding to the thermocouple voltage. The order of the
  66:.\Generated_Source\PSoC4/Thermocouple.c **** *  polynomial and the polynomial coefficients used to convert voltage to
  67:.\Generated_Source\PSoC4/Thermocouple.c **** *  temperature are dependent on the type of thermocouple selected.
  68:.\Generated_Source\PSoC4/Thermocouple.c **** *
  69:.\Generated_Source\PSoC4/Thermocouple.c **** * Parameters:
  70:.\Generated_Source\PSoC4/Thermocouple.c **** *  int32 voltage : Thermocouple voltage measured in microvolts.
  71:.\Generated_Source\PSoC4/Thermocouple.c **** *
  72:.\Generated_Source\PSoC4/Thermocouple.c **** * Return:
  73:.\Generated_Source\PSoC4/Thermocouple.c **** *  int32 : Temperature in 1/100 degree C
  74:.\Generated_Source\PSoC4/Thermocouple.c **** *
  75:.\Generated_Source\PSoC4/Thermocouple.c **** *******************************************************************************/
  76:.\Generated_Source\PSoC4/Thermocouple.c **** int32 Thermocouple_GetTemperature(int32 voltage) 
  77:.\Generated_Source\PSoC4/Thermocouple.c **** 
  78:.\Generated_Source\PSoC4/Thermocouple.c **** #if(CY_PSOC3)
  79:.\Generated_Source\PSoC4/Thermocouple.c **** {
  80:.\Generated_Source\PSoC4/Thermocouple.c **** 
  81:.\Generated_Source\PSoC4/Thermocouple.c ****     /***************************************
  82:.\Generated_Source\PSoC4/Thermocouple.c ****     *  Customizer Generated Coefficients
  83:.\Generated_Source\PSoC4/Thermocouple.c ****     ***************************************/
ARM GAS  C:\Users\faithc\AppData\Local\Temp\cchhuTE1.s 			page 4


  84:.\Generated_Source\PSoC4/Thermocouple.c ****     const int32 CYCODE Thermocouple_coeffVT[][3] = {{0, 0, -1687114},
  85:.\Generated_Source\PSoC4/Thermocouple.c ****                                                 {2639629, 164388, 40518839},
  86:.\Generated_Source\PSoC4/Thermocouple.c ****                                                 {-1001834, 16879, -90491511},
  87:.\Generated_Source\PSoC4/Thermocouple.c ****                                                 {-7623495, -1761422, 196887684},
  88:.\Generated_Source\PSoC4/Thermocouple.c ****                                                 {-51750922, 19173707, -227871065},
  89:.\Generated_Source\PSoC4/Thermocouple.c ****                                                 {-176344390, -92787626, 136207339},
  90:.\Generated_Source\PSoC4/Thermocouple.c ****                                                 {-335143805, 242736174, -31547361},
  91:.\Generated_Source\PSoC4/Thermocouple.c ****                                                 {-331192671, -358027528, 0},
  92:.\Generated_Source\PSoC4/Thermocouple.c ****                                                 {-134793524, 281193929, 0},
  93:.\Generated_Source\PSoC4/Thermocouple.c ****                                                 {0, -91707895, 0}};
  94:.\Generated_Source\PSoC4/Thermocouple.c **** 
  95:.\Generated_Source\PSoC4/Thermocouple.c **** const int32 CYCODE Thermocouple_voltRange[2] = {0, 20644};
  96:.\Generated_Source\PSoC4/Thermocouple.c **** 
  97:.\Generated_Source\PSoC4/Thermocouple.c **** const int8 CYCODE Thermocouple_xScaleVT[3] = {13, 15, 16};
  98:.\Generated_Source\PSoC4/Thermocouple.c **** const int8 CYCODE Thermocouple_coefScaleVT[3] = {7, 1, 7};
  99:.\Generated_Source\PSoC4/Thermocouple.c **** 
 100:.\Generated_Source\PSoC4/Thermocouple.c ****     /* Variable to store temperature */
 101:.\Generated_Source\PSoC4/Thermocouple.c ****     float32 temp=0.0f;
 102:.\Generated_Source\PSoC4/Thermocouple.c ****     float32 voltageNorm=0.0f;
 103:.\Generated_Source\PSoC4/Thermocouple.c ****     uint8 i=0u;
 104:.\Generated_Source\PSoC4/Thermocouple.c **** 
 105:.\Generated_Source\PSoC4/Thermocouple.c ****     #if (Thermocouple_VT_RANGE_LEN == Thermocouple_THREE)
 106:.\Generated_Source\PSoC4/Thermocouple.c ****     {
 107:.\Generated_Source\PSoC4/Thermocouple.c ****         voltageNorm = (float32)voltage;
 108:.\Generated_Source\PSoC4/Thermocouple.c **** 
 109:.\Generated_Source\PSoC4/Thermocouple.c ****         if(voltage < Thermocouple_voltRange[Thermocouple_RANGE_MAS_0] )
 110:.\Generated_Source\PSoC4/Thermocouple.c ****         {
 111:.\Generated_Source\PSoC4/Thermocouple.c ****             for (i=Thermocouple_ORDER_VT - 1u; i > 0u; i--)
 112:.\Generated_Source\PSoC4/Thermocouple.c ****             {
 113:.\Generated_Source\PSoC4/Thermocouple.c ****                 temp = (temp + Thermocouple_coeffVT[i][Thermocouple_RANGE_MAS_0]) * voltageNorm;
 114:.\Generated_Source\PSoC4/Thermocouple.c ****             }
 115:.\Generated_Source\PSoC4/Thermocouple.c ****             temp = (temp + Thermocouple_coeffVT[Thermocouple_FIRST_EL_MAS][Thermocouple_RANGE_MAS_0
 116:.\Generated_Source\PSoC4/Thermocouple.c ****         }
 117:.\Generated_Source\PSoC4/Thermocouple.c **** 
 118:.\Generated_Source\PSoC4/Thermocouple.c ****         else if(voltage <= Thermocouple_voltRange[Thermocouple_RANGE_MAS_1] )
 119:.\Generated_Source\PSoC4/Thermocouple.c ****         {
 120:.\Generated_Source\PSoC4/Thermocouple.c ****             for (i=Thermocouple_ORDER_VT - 1u; i > 0u; i--)
 121:.\Generated_Source\PSoC4/Thermocouple.c ****             {
 122:.\Generated_Source\PSoC4/Thermocouple.c ****                 temp = (temp + Thermocouple_coeffVT[i][Thermocouple_RANGE_MAS_1]) * voltageNorm;
 123:.\Generated_Source\PSoC4/Thermocouple.c ****             }
 124:.\Generated_Source\PSoC4/Thermocouple.c ****             temp = (temp + Thermocouple_coeffVT[Thermocouple_FIRST_EL_MAS][Thermocouple_RANGE_MAS_1
 125:.\Generated_Source\PSoC4/Thermocouple.c ****         }
 126:.\Generated_Source\PSoC4/Thermocouple.c **** 
 127:.\Generated_Source\PSoC4/Thermocouple.c ****         else if(voltage <= Thermocouple_voltRange[Thermocouple_RANGE_MAS_2] )
 128:.\Generated_Source\PSoC4/Thermocouple.c ****         {
 129:.\Generated_Source\PSoC4/Thermocouple.c ****             for (i=Thermocouple_ORDER_VT - 1u; i > 0u; i--)
 130:.\Generated_Source\PSoC4/Thermocouple.c ****             {
 131:.\Generated_Source\PSoC4/Thermocouple.c ****                 temp = (temp + Thermocouple_coeffVT[i][Thermocouple_RANGE_MAS_2]) * voltageNorm;
 132:.\Generated_Source\PSoC4/Thermocouple.c ****             }
 133:.\Generated_Source\PSoC4/Thermocouple.c ****             temp = (temp + Thermocouple_coeffVT[Thermocouple_FIRST_EL_MAS][Thermocouple_RANGE_MAS_2
 134:.\Generated_Source\PSoC4/Thermocouple.c ****         }
 135:.\Generated_Source\PSoC4/Thermocouple.c **** 
 136:.\Generated_Source\PSoC4/Thermocouple.c ****         else
 137:.\Generated_Source\PSoC4/Thermocouple.c ****         {
 138:.\Generated_Source\PSoC4/Thermocouple.c ****             for (i=Thermocouple_ORDER_VT - 1u; i > 0u; i--)
 139:.\Generated_Source\PSoC4/Thermocouple.c ****             {
 140:.\Generated_Source\PSoC4/Thermocouple.c ****                 temp = (temp + Thermocouple_coeffVT[i][Thermocouple_RANGE_MAS_3]) * voltageNorm;
ARM GAS  C:\Users\faithc\AppData\Local\Temp\cchhuTE1.s 			page 5


 141:.\Generated_Source\PSoC4/Thermocouple.c ****             }
 142:.\Generated_Source\PSoC4/Thermocouple.c ****             temp = (temp + Thermocouple_coeffVT[Thermocouple_FIRST_EL_MAS][Thermocouple_RANGE_MAS_3
 143:.\Generated_Source\PSoC4/Thermocouple.c ****         }
 144:.\Generated_Source\PSoC4/Thermocouple.c ****     }
 145:.\Generated_Source\PSoC4/Thermocouple.c **** 
 146:.\Generated_Source\PSoC4/Thermocouple.c ****     #else
 147:.\Generated_Source\PSoC4/Thermocouple.c ****     {
 148:.\Generated_Source\PSoC4/Thermocouple.c ****         voltageNorm = (float32)voltage;
 149:.\Generated_Source\PSoC4/Thermocouple.c **** 
 150:.\Generated_Source\PSoC4/Thermocouple.c ****         if(voltage < Thermocouple_voltRange[Thermocouple_RANGE_MAS_0] )
 151:.\Generated_Source\PSoC4/Thermocouple.c ****         {
 152:.\Generated_Source\PSoC4/Thermocouple.c ****             for (i=Thermocouple_ORDER_VT - 1u; i > 0u; i--)
 153:.\Generated_Source\PSoC4/Thermocouple.c ****             {
 154:.\Generated_Source\PSoC4/Thermocouple.c ****                 temp = (temp + Thermocouple_coeffVT[i][Thermocouple_RANGE_MAS_0]) * voltageNorm;
 155:.\Generated_Source\PSoC4/Thermocouple.c ****             }
 156:.\Generated_Source\PSoC4/Thermocouple.c ****             temp = (temp + Thermocouple_coeffVT[Thermocouple_FIRST_EL_MAS][Thermocouple_RANGE_MAS_0
 157:.\Generated_Source\PSoC4/Thermocouple.c ****         }
 158:.\Generated_Source\PSoC4/Thermocouple.c **** 
 159:.\Generated_Source\PSoC4/Thermocouple.c ****         else if(voltage <= Thermocouple_voltRange[Thermocouple_RANGE_MAS_1] )
 160:.\Generated_Source\PSoC4/Thermocouple.c ****         {
 161:.\Generated_Source\PSoC4/Thermocouple.c ****             for (i=Thermocouple_ORDER_VT - 1u; i > 0u; i--)
 162:.\Generated_Source\PSoC4/Thermocouple.c ****             {
 163:.\Generated_Source\PSoC4/Thermocouple.c ****                 temp = (temp + Thermocouple_coeffVT[i][Thermocouple_RANGE_MAS_1]) * voltageNorm;
 164:.\Generated_Source\PSoC4/Thermocouple.c ****             }
 165:.\Generated_Source\PSoC4/Thermocouple.c ****             temp = (temp + Thermocouple_coeffVT[Thermocouple_FIRST_EL_MAS][Thermocouple_RANGE_MAS_1
 166:.\Generated_Source\PSoC4/Thermocouple.c ****         }
 167:.\Generated_Source\PSoC4/Thermocouple.c **** 
 168:.\Generated_Source\PSoC4/Thermocouple.c ****         else
 169:.\Generated_Source\PSoC4/Thermocouple.c ****         {
 170:.\Generated_Source\PSoC4/Thermocouple.c ****             for (i=Thermocouple_ORDER_VT - 1u; i > 0u; i--)
 171:.\Generated_Source\PSoC4/Thermocouple.c ****             {
 172:.\Generated_Source\PSoC4/Thermocouple.c ****                 temp = (temp + Thermocouple_coeffVT[i][Thermocouple_RANGE_MAS_2]) * voltageNorm;
 173:.\Generated_Source\PSoC4/Thermocouple.c ****             }
 174:.\Generated_Source\PSoC4/Thermocouple.c ****             temp = (temp + Thermocouple_coeffVT[Thermocouple_FIRST_EL_MAS][Thermocouple_RANGE_MAS_2
 175:.\Generated_Source\PSoC4/Thermocouple.c ****         }
 176:.\Generated_Source\PSoC4/Thermocouple.c ****     }
 177:.\Generated_Source\PSoC4/Thermocouple.c **** 
 178:.\Generated_Source\PSoC4/Thermocouple.c ****     #endif /* End  Thermocouple_VT_RANGE_LEN == Thermocouple_THREE */
 179:.\Generated_Source\PSoC4/Thermocouple.c **** 
 180:.\Generated_Source\PSoC4/Thermocouple.c ****     return ((int32)(temp));
 181:.\Generated_Source\PSoC4/Thermocouple.c **** }
 182:.\Generated_Source\PSoC4/Thermocouple.c **** #else
 183:.\Generated_Source\PSoC4/Thermocouple.c **** {
  88              		.loc 1 183 0
  89              		.cfi_startproc
  90              	.LVL10:
  91 0000 F0B5     		push	{r4, r5, r6, r7, lr}
  92              		.cfi_def_cfa_offset 20
  93              		.cfi_offset 4, -20
  94              		.cfi_offset 5, -16
  95              		.cfi_offset 6, -12
  96              		.cfi_offset 7, -8
  97              		.cfi_offset 14, -4
  98 0002 4746     		mov	r7, r8
  99 0004 80B4     		push	{r7}
 100              		.cfi_def_cfa_offset 24
 101              		.cfi_offset 8, -24
ARM GAS  C:\Users\faithc\AppData\Local\Temp\cchhuTE1.s 			page 6


 102 0006 A0B0     		sub	sp, sp, #128
 103              		.cfi_def_cfa_offset 152
 104              		.loc 1 183 0
 105 0008 041C     		mov	r4, r0
 184:.\Generated_Source\PSoC4/Thermocouple.c **** 
 185:.\Generated_Source\PSoC4/Thermocouple.c ****     /***************************************
 186:.\Generated_Source\PSoC4/Thermocouple.c ****     *  Customizer Generated Coefficients
 187:.\Generated_Source\PSoC4/Thermocouple.c ****     ***************************************/
 188:.\Generated_Source\PSoC4/Thermocouple.c ****     const int32 CYCODE Thermocouple_coeffVT[][3] = {{0, 0, -1687114},
 106              		.loc 1 188 0
 107 000a 8A49     		ldr	r1, .L120
 108 000c 02A8     		add	r0, sp, #8
 109              	.LVL11:
 110 000e 7822     		mov	r2, #120
 111 0010 FFF7FEFF 		bl	memcpy
 112              	.LVL12:
 189:.\Generated_Source\PSoC4/Thermocouple.c ****                                                 {2639629, 164388, 40518839},
 190:.\Generated_Source\PSoC4/Thermocouple.c ****                                                 {-1001834, 16879, -90491511},
 191:.\Generated_Source\PSoC4/Thermocouple.c ****                                                 {-7623495, -1761422, 196887684},
 192:.\Generated_Source\PSoC4/Thermocouple.c ****                                                 {-51750922, 19173707, -227871065},
 193:.\Generated_Source\PSoC4/Thermocouple.c ****                                                 {-176344390, -92787626, 136207339},
 194:.\Generated_Source\PSoC4/Thermocouple.c ****                                                 {-335143805, 242736174, -31547361},
 195:.\Generated_Source\PSoC4/Thermocouple.c ****                                                 {-331192671, -358027528, 0},
 196:.\Generated_Source\PSoC4/Thermocouple.c ****                                                 {-134793524, 281193929, 0},
 197:.\Generated_Source\PSoC4/Thermocouple.c ****                                                 {0, -91707895, 0}};
 198:.\Generated_Source\PSoC4/Thermocouple.c **** 
 199:.\Generated_Source\PSoC4/Thermocouple.c **** const int32 CYCODE Thermocouple_voltRange[2] = {0, 20644};
 200:.\Generated_Source\PSoC4/Thermocouple.c **** 
 201:.\Generated_Source\PSoC4/Thermocouple.c **** const int8 CYCODE Thermocouple_xScaleVT[3] = {13, 15, 16};
 202:.\Generated_Source\PSoC4/Thermocouple.c **** const int8 CYCODE Thermocouple_coefScaleVT[3] = {7, 1, 7};
 203:.\Generated_Source\PSoC4/Thermocouple.c **** 
 204:.\Generated_Source\PSoC4/Thermocouple.c ****     /* Variable to store temperature */
 205:.\Generated_Source\PSoC4/Thermocouple.c ****     int32 temp=0;
 206:.\Generated_Source\PSoC4/Thermocouple.c ****     uint8 i=0u;
 207:.\Generated_Source\PSoC4/Thermocouple.c **** 
 208:.\Generated_Source\PSoC4/Thermocouple.c ****     #if (Thermocouple_VT_RANGE_LEN == Thermocouple_THREE)
 209:.\Generated_Source\PSoC4/Thermocouple.c ****     {
 210:.\Generated_Source\PSoC4/Thermocouple.c ****         if(voltage < Thermocouple_voltRange[Thermocouple_RANGE_MAS_0] )
 211:.\Generated_Source\PSoC4/Thermocouple.c ****         {
 212:.\Generated_Source\PSoC4/Thermocouple.c ****             if (voltage < 0)
 213:.\Generated_Source\PSoC4/Thermocouple.c ****             {
 214:.\Generated_Source\PSoC4/Thermocouple.c ****                 voltage = -voltage;
 215:.\Generated_Source\PSoC4/Thermocouple.c ****                 voltage = (int32)((uint64)((uint64)voltage << 
 216:.\Generated_Source\PSoC4/Thermocouple.c ****                                                (Thermocouple_IN_NORMALIZATION_VT - 
 217:.\Generated_Source\PSoC4/Thermocouple.c ****                                                 Thermocouple_xScaleVT[Thermocouple_RANGE_MAS_0])));
 218:.\Generated_Source\PSoC4/Thermocouple.c ****                 voltage = -voltage;
 219:.\Generated_Source\PSoC4/Thermocouple.c ****             }
 220:.\Generated_Source\PSoC4/Thermocouple.c ****             else
 221:.\Generated_Source\PSoC4/Thermocouple.c ****             {
 222:.\Generated_Source\PSoC4/Thermocouple.c ****                 voltage = (int32)((uint64)((uint64)voltage << 
 223:.\Generated_Source\PSoC4/Thermocouple.c ****                                                (Thermocouple_IN_NORMALIZATION_VT - 
 224:.\Generated_Source\PSoC4/Thermocouple.c ****                                                 Thermocouple_xScaleVT[Thermocouple_RANGE_MAS_0])));
 225:.\Generated_Source\PSoC4/Thermocouple.c ****             }            
 226:.\Generated_Source\PSoC4/Thermocouple.c **** 
 227:.\Generated_Source\PSoC4/Thermocouple.c ****             for (i=Thermocouple_ORDER_VT - 1u; i > 0u; i--)
 228:.\Generated_Source\PSoC4/Thermocouple.c ****             {
 229:.\Generated_Source\PSoC4/Thermocouple.c ****                 temp = Thermocouple_MultShift24((Thermocouple_coeffVT[i][Thermocouple_RANGE_MAS_0] 
ARM GAS  C:\Users\faithc\AppData\Local\Temp\cchhuTE1.s 			page 7


 230:.\Generated_Source\PSoC4/Thermocouple.c ****                        temp), voltage);
 231:.\Generated_Source\PSoC4/Thermocouple.c ****             }
 232:.\Generated_Source\PSoC4/Thermocouple.c **** 
 233:.\Generated_Source\PSoC4/Thermocouple.c ****             if(Thermocouple_coefScaleVT[Thermocouple_RANGE_MAS_0] < 0)
 234:.\Generated_Source\PSoC4/Thermocouple.c ****             {
 235:.\Generated_Source\PSoC4/Thermocouple.c ****                 temp = (int32)((uint64)((uint64)(int32)(temp + 
 236:.\Generated_Source\PSoC4/Thermocouple.c ****                         Thermocouple_coeffVT[Thermocouple_FIRST_EL_MAS][Thermocouple_RANGE_MAS_0]) 
 237:.\Generated_Source\PSoC4/Thermocouple.c ****                         Thermocouple_coefScaleVT[Thermocouple_RANGE_MAS_0]));
 238:.\Generated_Source\PSoC4/Thermocouple.c ****             }
 239:.\Generated_Source\PSoC4/Thermocouple.c **** 
 240:.\Generated_Source\PSoC4/Thermocouple.c ****             else
 241:.\Generated_Source\PSoC4/Thermocouple.c ****             {
 242:.\Generated_Source\PSoC4/Thermocouple.c ****                 temp = (int32)((uint32)((uint64)(int32)(temp + 
 243:.\Generated_Source\PSoC4/Thermocouple.c ****                         Thermocouple_coeffVT[Thermocouple_FIRST_EL_MAS][Thermocouple_RANGE_MAS_0]) 
 244:.\Generated_Source\PSoC4/Thermocouple.c ****                         Thermocouple_coefScaleVT[Thermocouple_RANGE_MAS_0]));
 245:.\Generated_Source\PSoC4/Thermocouple.c ****             }
 246:.\Generated_Source\PSoC4/Thermocouple.c ****         }
 247:.\Generated_Source\PSoC4/Thermocouple.c **** 
 248:.\Generated_Source\PSoC4/Thermocouple.c ****         else if(voltage <= Thermocouple_voltRange[Thermocouple_RANGE_MAS_1] )
 249:.\Generated_Source\PSoC4/Thermocouple.c ****         {
 250:.\Generated_Source\PSoC4/Thermocouple.c ****             if (voltage < 0)
 251:.\Generated_Source\PSoC4/Thermocouple.c ****             {
 252:.\Generated_Source\PSoC4/Thermocouple.c ****                 voltage = -voltage;
 253:.\Generated_Source\PSoC4/Thermocouple.c ****                 voltage = (int32)((uint64)((uint64)voltage << 
 254:.\Generated_Source\PSoC4/Thermocouple.c ****                                                (Thermocouple_IN_NORMALIZATION_VT - 
 255:.\Generated_Source\PSoC4/Thermocouple.c ****                                                 Thermocouple_xScaleVT[Thermocouple_RANGE_MAS_1])));
 256:.\Generated_Source\PSoC4/Thermocouple.c ****                 voltage = -voltage;
 257:.\Generated_Source\PSoC4/Thermocouple.c ****             }
 258:.\Generated_Source\PSoC4/Thermocouple.c ****             else
 259:.\Generated_Source\PSoC4/Thermocouple.c ****             {
 260:.\Generated_Source\PSoC4/Thermocouple.c ****                 voltage = (int32)((uint64)((uint64)voltage << 
 261:.\Generated_Source\PSoC4/Thermocouple.c ****                                                (Thermocouple_IN_NORMALIZATION_VT - 
 262:.\Generated_Source\PSoC4/Thermocouple.c ****                                                 Thermocouple_xScaleVT[Thermocouple_RANGE_MAS_1])));
 263:.\Generated_Source\PSoC4/Thermocouple.c ****             }              
 264:.\Generated_Source\PSoC4/Thermocouple.c ****             
 265:.\Generated_Source\PSoC4/Thermocouple.c ****             for (i=Thermocouple_ORDER_VT - 1u; i > 0u; i--)
 266:.\Generated_Source\PSoC4/Thermocouple.c ****             {
 267:.\Generated_Source\PSoC4/Thermocouple.c ****                 temp = Thermocouple_MultShift24((Thermocouple_coeffVT[i][Thermocouple_RANGE_MAS_1] 
 268:.\Generated_Source\PSoC4/Thermocouple.c ****                        temp), voltage);
 269:.\Generated_Source\PSoC4/Thermocouple.c ****             }
 270:.\Generated_Source\PSoC4/Thermocouple.c **** 
 271:.\Generated_Source\PSoC4/Thermocouple.c ****             if(Thermocouple_coefScaleVT[Thermocouple_RANGE_MAS_1] < 0)
 272:.\Generated_Source\PSoC4/Thermocouple.c ****             {
 273:.\Generated_Source\PSoC4/Thermocouple.c ****                 temp = (int32)((uint64)((uint64)(int32)(temp + 
 274:.\Generated_Source\PSoC4/Thermocouple.c ****                         Thermocouple_coeffVT[Thermocouple_FIRST_EL_MAS][Thermocouple_RANGE_MAS_1]) 
 275:.\Generated_Source\PSoC4/Thermocouple.c ****                         Thermocouple_coefScaleVT[Thermocouple_RANGE_MAS_1]));
 276:.\Generated_Source\PSoC4/Thermocouple.c ****             }
 277:.\Generated_Source\PSoC4/Thermocouple.c **** 
 278:.\Generated_Source\PSoC4/Thermocouple.c ****             else
 279:.\Generated_Source\PSoC4/Thermocouple.c ****             {
 280:.\Generated_Source\PSoC4/Thermocouple.c ****                 temp = (int32)((uint32)((uint64)(int32)(temp + 
 281:.\Generated_Source\PSoC4/Thermocouple.c ****                         Thermocouple_coeffVT[Thermocouple_FIRST_EL_MAS][Thermocouple_RANGE_MAS_1]) 
 282:.\Generated_Source\PSoC4/Thermocouple.c ****                         Thermocouple_coefScaleVT[Thermocouple_RANGE_MAS_1]));
 283:.\Generated_Source\PSoC4/Thermocouple.c ****             }
 284:.\Generated_Source\PSoC4/Thermocouple.c **** 
 285:.\Generated_Source\PSoC4/Thermocouple.c ****         }
 286:.\Generated_Source\PSoC4/Thermocouple.c **** 
ARM GAS  C:\Users\faithc\AppData\Local\Temp\cchhuTE1.s 			page 8


 287:.\Generated_Source\PSoC4/Thermocouple.c ****         else if(voltage <= Thermocouple_voltRange[Thermocouple_RANGE_MAS_2] )
 288:.\Generated_Source\PSoC4/Thermocouple.c ****         {
 289:.\Generated_Source\PSoC4/Thermocouple.c ****             if (voltage < 0)
 290:.\Generated_Source\PSoC4/Thermocouple.c ****             {
 291:.\Generated_Source\PSoC4/Thermocouple.c ****                 voltage = -voltage;
 292:.\Generated_Source\PSoC4/Thermocouple.c ****                 voltage = (int32)((uint64)((uint64)voltage << 
 293:.\Generated_Source\PSoC4/Thermocouple.c ****                                                (Thermocouple_IN_NORMALIZATION_VT - 
 294:.\Generated_Source\PSoC4/Thermocouple.c ****                                                 Thermocouple_xScaleVT[Thermocouple_RANGE_MAS_2])));
 295:.\Generated_Source\PSoC4/Thermocouple.c ****                 voltage = -voltage;
 296:.\Generated_Source\PSoC4/Thermocouple.c ****             }
 297:.\Generated_Source\PSoC4/Thermocouple.c ****             else
 298:.\Generated_Source\PSoC4/Thermocouple.c ****             {
 299:.\Generated_Source\PSoC4/Thermocouple.c ****                 voltage = (int32)((uint64)((uint64)voltage << 
 300:.\Generated_Source\PSoC4/Thermocouple.c ****                                                (Thermocouple_IN_NORMALIZATION_VT - 
 301:.\Generated_Source\PSoC4/Thermocouple.c ****                                                 Thermocouple_xScaleVT[Thermocouple_RANGE_MAS_2])));
 302:.\Generated_Source\PSoC4/Thermocouple.c ****             }              
 303:.\Generated_Source\PSoC4/Thermocouple.c **** 
 304:.\Generated_Source\PSoC4/Thermocouple.c ****             for (i=Thermocouple_ORDER_VT - 1u; i > 0u; i--)
 305:.\Generated_Source\PSoC4/Thermocouple.c ****             {
 306:.\Generated_Source\PSoC4/Thermocouple.c ****                 temp = Thermocouple_MultShift24((Thermocouple_coeffVT[i][Thermocouple_RANGE_MAS_2] 
 307:.\Generated_Source\PSoC4/Thermocouple.c ****                        temp), voltage);
 308:.\Generated_Source\PSoC4/Thermocouple.c ****             }
 309:.\Generated_Source\PSoC4/Thermocouple.c **** 
 310:.\Generated_Source\PSoC4/Thermocouple.c ****             if(Thermocouple_coefScaleVT[Thermocouple_RANGE_MAS_2] < 0)
 311:.\Generated_Source\PSoC4/Thermocouple.c ****             {
 312:.\Generated_Source\PSoC4/Thermocouple.c ****                 temp = (int32)((uint64)((uint64)(int32)(temp + 
 313:.\Generated_Source\PSoC4/Thermocouple.c ****                         Thermocouple_coeffVT[Thermocouple_FIRST_EL_MAS][Thermocouple_RANGE_MAS_2]) 
 314:.\Generated_Source\PSoC4/Thermocouple.c ****                         Thermocouple_coefScaleVT[Thermocouple_RANGE_MAS_2]));
 315:.\Generated_Source\PSoC4/Thermocouple.c ****             }
 316:.\Generated_Source\PSoC4/Thermocouple.c **** 
 317:.\Generated_Source\PSoC4/Thermocouple.c ****             else
 318:.\Generated_Source\PSoC4/Thermocouple.c ****             {
 319:.\Generated_Source\PSoC4/Thermocouple.c ****                 temp = (int32)((uint32)((uint64)(int32)(temp + 
 320:.\Generated_Source\PSoC4/Thermocouple.c ****                         Thermocouple_coeffVT[Thermocouple_FIRST_EL_MAS][Thermocouple_RANGE_MAS_2]) 
 321:.\Generated_Source\PSoC4/Thermocouple.c ****                         Thermocouple_coefScaleVT[Thermocouple_RANGE_MAS_2]));
 322:.\Generated_Source\PSoC4/Thermocouple.c ****             }
 323:.\Generated_Source\PSoC4/Thermocouple.c ****         }
 324:.\Generated_Source\PSoC4/Thermocouple.c **** 
 325:.\Generated_Source\PSoC4/Thermocouple.c ****         else
 326:.\Generated_Source\PSoC4/Thermocouple.c ****         {
 327:.\Generated_Source\PSoC4/Thermocouple.c ****             if (voltage < 0)
 328:.\Generated_Source\PSoC4/Thermocouple.c ****             {
 329:.\Generated_Source\PSoC4/Thermocouple.c ****                 voltage = -voltage;
 330:.\Generated_Source\PSoC4/Thermocouple.c ****                 voltage = (int32)((uint64)((uint64)voltage << 
 331:.\Generated_Source\PSoC4/Thermocouple.c ****                                                (Thermocouple_IN_NORMALIZATION_VT - 
 332:.\Generated_Source\PSoC4/Thermocouple.c ****                                                 Thermocouple_xScaleVT[Thermocouple_RANGE_MAS_3])));
 333:.\Generated_Source\PSoC4/Thermocouple.c ****                 voltage = -voltage;
 334:.\Generated_Source\PSoC4/Thermocouple.c ****             }
 335:.\Generated_Source\PSoC4/Thermocouple.c ****             else
 336:.\Generated_Source\PSoC4/Thermocouple.c ****             {
 337:.\Generated_Source\PSoC4/Thermocouple.c ****                 voltage = (int32)((uint64)((uint64)voltage << 
 338:.\Generated_Source\PSoC4/Thermocouple.c ****                                                (Thermocouple_IN_NORMALIZATION_VT - 
 339:.\Generated_Source\PSoC4/Thermocouple.c ****                                                 Thermocouple_xScaleVT[Thermocouple_RANGE_MAS_3])));
 340:.\Generated_Source\PSoC4/Thermocouple.c ****             }              
 341:.\Generated_Source\PSoC4/Thermocouple.c **** 
 342:.\Generated_Source\PSoC4/Thermocouple.c ****             for (i=Thermocouple_ORDER_VT - 1u; i > 0u; i--)
 343:.\Generated_Source\PSoC4/Thermocouple.c ****             {
ARM GAS  C:\Users\faithc\AppData\Local\Temp\cchhuTE1.s 			page 9


 344:.\Generated_Source\PSoC4/Thermocouple.c ****                 temp = Thermocouple_MultShift24((Thermocouple_coeffVT[i][Thermocouple_RANGE_MAS_3] 
 345:.\Generated_Source\PSoC4/Thermocouple.c ****                        temp), voltage);
 346:.\Generated_Source\PSoC4/Thermocouple.c ****             }
 347:.\Generated_Source\PSoC4/Thermocouple.c **** 
 348:.\Generated_Source\PSoC4/Thermocouple.c ****             if(Thermocouple_coefScaleVT[Thermocouple_RANGE_MAS_3] < 0)
 349:.\Generated_Source\PSoC4/Thermocouple.c ****             {
 350:.\Generated_Source\PSoC4/Thermocouple.c ****                 temp = (int32)((uint64)((uint64)(int32)(temp + 
 351:.\Generated_Source\PSoC4/Thermocouple.c ****                         Thermocouple_coeffVT[Thermocouple_FIRST_EL_MAS][Thermocouple_RANGE_MAS_3]) 
 352:.\Generated_Source\PSoC4/Thermocouple.c ****                         Thermocouple_coefScaleVT[Thermocouple_RANGE_MAS_3]));
 353:.\Generated_Source\PSoC4/Thermocouple.c ****             }
 354:.\Generated_Source\PSoC4/Thermocouple.c **** 
 355:.\Generated_Source\PSoC4/Thermocouple.c ****             else
 356:.\Generated_Source\PSoC4/Thermocouple.c ****             {
 357:.\Generated_Source\PSoC4/Thermocouple.c ****                 temp = (int32)((uint32)((uint64)(int32)(temp + 
 358:.\Generated_Source\PSoC4/Thermocouple.c ****                         Thermocouple_coeffVT[Thermocouple_FIRST_EL_MAS][Thermocouple_RANGE_MAS_3]) 
 359:.\Generated_Source\PSoC4/Thermocouple.c ****                         Thermocouple_coefScaleVT[Thermocouple_RANGE_MAS_3]));
 360:.\Generated_Source\PSoC4/Thermocouple.c ****             }
 361:.\Generated_Source\PSoC4/Thermocouple.c ****         }
 362:.\Generated_Source\PSoC4/Thermocouple.c ****     }
 363:.\Generated_Source\PSoC4/Thermocouple.c **** 
 364:.\Generated_Source\PSoC4/Thermocouple.c ****     #else
 365:.\Generated_Source\PSoC4/Thermocouple.c ****     {
 366:.\Generated_Source\PSoC4/Thermocouple.c ****         if(voltage < Thermocouple_voltRange[Thermocouple_RANGE_MAS_0] )
 113              		.loc 1 366 0
 114 0014 002C     		cmp	r4, #0
 115 0016 00DA     		bge	.LCB87
 116 0018 0BE2     		b	.L92	@long jump
 117              	.LCB87:
 367:.\Generated_Source\PSoC4/Thermocouple.c ****         {
 368:.\Generated_Source\PSoC4/Thermocouple.c ****             if (voltage < 0)
 369:.\Generated_Source\PSoC4/Thermocouple.c ****             {
 370:.\Generated_Source\PSoC4/Thermocouple.c ****                 voltage = -voltage;
 371:.\Generated_Source\PSoC4/Thermocouple.c ****                 voltage = (int32)((uint64)((uint64)voltage << 
 372:.\Generated_Source\PSoC4/Thermocouple.c ****                                                (Thermocouple_IN_NORMALIZATION_VT - 
 373:.\Generated_Source\PSoC4/Thermocouple.c ****                                                 Thermocouple_xScaleVT[Thermocouple_RANGE_MAS_0])));
 374:.\Generated_Source\PSoC4/Thermocouple.c ****                 voltage = -voltage;
 375:.\Generated_Source\PSoC4/Thermocouple.c ****             }
 376:.\Generated_Source\PSoC4/Thermocouple.c ****             else
 377:.\Generated_Source\PSoC4/Thermocouple.c ****             {
 378:.\Generated_Source\PSoC4/Thermocouple.c ****                 voltage = (int32)((uint64)((uint64)voltage << 
 379:.\Generated_Source\PSoC4/Thermocouple.c ****                                                (Thermocouple_IN_NORMALIZATION_VT - 
 380:.\Generated_Source\PSoC4/Thermocouple.c ****                                                 Thermocouple_xScaleVT[Thermocouple_RANGE_MAS_0])));
 381:.\Generated_Source\PSoC4/Thermocouple.c ****             }            
 382:.\Generated_Source\PSoC4/Thermocouple.c **** 
 383:.\Generated_Source\PSoC4/Thermocouple.c ****             for (i=Thermocouple_ORDER_VT - 1u; i > 0u; i--)
 384:.\Generated_Source\PSoC4/Thermocouple.c ****             {
 385:.\Generated_Source\PSoC4/Thermocouple.c ****                 temp = Thermocouple_MultShift24((Thermocouple_coeffVT[i][Thermocouple_RANGE_MAS_0] 
 386:.\Generated_Source\PSoC4/Thermocouple.c ****                        temp), voltage);
 387:.\Generated_Source\PSoC4/Thermocouple.c ****             }
 388:.\Generated_Source\PSoC4/Thermocouple.c **** 
 389:.\Generated_Source\PSoC4/Thermocouple.c ****             if(Thermocouple_coefScaleVT[Thermocouple_RANGE_MAS_0] < 0)
 390:.\Generated_Source\PSoC4/Thermocouple.c ****             {
 391:.\Generated_Source\PSoC4/Thermocouple.c ****                 temp = (int32)((uint64)((uint64)(int32)(temp + 
 392:.\Generated_Source\PSoC4/Thermocouple.c ****                         Thermocouple_coeffVT[Thermocouple_FIRST_EL_MAS][Thermocouple_RANGE_MAS_0]) 
 393:.\Generated_Source\PSoC4/Thermocouple.c ****                         Thermocouple_coefScaleVT[Thermocouple_RANGE_MAS_0]));
 394:.\Generated_Source\PSoC4/Thermocouple.c ****             }
 395:.\Generated_Source\PSoC4/Thermocouple.c **** 
ARM GAS  C:\Users\faithc\AppData\Local\Temp\cchhuTE1.s 			page 10


 396:.\Generated_Source\PSoC4/Thermocouple.c ****             else
 397:.\Generated_Source\PSoC4/Thermocouple.c ****             {
 398:.\Generated_Source\PSoC4/Thermocouple.c ****                 temp = (int32)((uint32)((uint64)(int32)(temp + 
 399:.\Generated_Source\PSoC4/Thermocouple.c ****                         Thermocouple_coeffVT[Thermocouple_FIRST_EL_MAS][Thermocouple_RANGE_MAS_0]) 
 400:.\Generated_Source\PSoC4/Thermocouple.c ****                         Thermocouple_coefScaleVT[Thermocouple_RANGE_MAS_0]));
 401:.\Generated_Source\PSoC4/Thermocouple.c ****             }
 402:.\Generated_Source\PSoC4/Thermocouple.c ****         }
 403:.\Generated_Source\PSoC4/Thermocouple.c **** 
 404:.\Generated_Source\PSoC4/Thermocouple.c ****         else if(voltage <= Thermocouple_voltRange[Thermocouple_RANGE_MAS_1] )
 118              		.loc 1 404 0
 119 001a 874B     		ldr	r3, .L120+4
 120 001c 9C42     		cmp	r4, r3
 121 001e 00DD     		ble	.LCB90
 122 0020 0CE1     		b	.L36	@long jump
 123              	.LCB90:
 124              	.LVL13:
 405:.\Generated_Source\PSoC4/Thermocouple.c ****         {
 406:.\Generated_Source\PSoC4/Thermocouple.c ****             if (voltage < 0)
 407:.\Generated_Source\PSoC4/Thermocouple.c ****             {
 408:.\Generated_Source\PSoC4/Thermocouple.c ****                 voltage = -voltage;
 409:.\Generated_Source\PSoC4/Thermocouple.c ****                 voltage = (int32)((uint64)((uint64)voltage << 
 410:.\Generated_Source\PSoC4/Thermocouple.c ****                                                (Thermocouple_IN_NORMALIZATION_VT - 
 411:.\Generated_Source\PSoC4/Thermocouple.c ****                                                 Thermocouple_xScaleVT[Thermocouple_RANGE_MAS_1])));
 412:.\Generated_Source\PSoC4/Thermocouple.c ****                 voltage = -voltage;
 413:.\Generated_Source\PSoC4/Thermocouple.c ****             }
 414:.\Generated_Source\PSoC4/Thermocouple.c ****             else
 415:.\Generated_Source\PSoC4/Thermocouple.c ****             {
 416:.\Generated_Source\PSoC4/Thermocouple.c ****                 voltage = (int32)((uint64)((uint64)voltage << 
 125              		.loc 1 416 0
 126 0022 E517     		asr	r5, r4, #31
 127 0024 E30D     		lsr	r3, r4, #23
 128 0026 6D02     		lsl	r5, r5, #9
 129 0028 1D43     		orr	r5, r3
 130 002a 6302     		lsl	r3, r4, #9
 131              	.LVL14:
 132 002c 9846     		mov	r8, r3
 133              	.LVL15:
 134              	.LBB10:
 135              	.LBB11:
  43:.\Generated_Source\PSoC4/Thermocouple.c ****         if (result < 0)
 136              		.loc 1 43 0
 137 002e 1E9B     		ldr	r3, [sp, #120]
 138              	.LVL16:
 139 0030 4246     		mov	r2, r8
 140 0032 0193     		str	r3, [sp, #4]
 141 0034 D917     		asr	r1, r3, #31
 142 0036 181C     		mov	r0, r3
 143 0038 2B1C     		mov	r3, r5
 144 003a FFF7FEFF 		bl	__aeabi_lmul
 145              	.LVL17:
  46:.\Generated_Source\PSoC4/Thermocouple.c ****             result = (int32)((uint64)((uint64)result >> Thermocouple_24BIT_SHIFTING));
 146              		.loc 1 46 0
 147 003e 0027     		mov	r7, #0
 148 0040 4642     		neg	r6, r0
 149 0042 8F41     		sbc	r7, r1
  47:.\Generated_Source\PSoC4/Thermocouple.c ****             result = -result;
 150              		.loc 1 47 0
ARM GAS  C:\Users\faithc\AppData\Local\Temp\cchhuTE1.s 			page 11


 151 0044 3B02     		lsl	r3, r7, #8
 152 0046 1C1C     		mov	r4, r3
 153 0048 360E     		lsr	r6, r6, #24
 154 004a 3443     		orr	r4, r6
 155 004c 221C     		mov	r2, r4
 156 004e 3B0E     		lsr	r3, r7, #24
  48:.\Generated_Source\PSoC4/Thermocouple.c ****         }
 157              		.loc 1 48 0
 158 0050 0027     		mov	r7, #0
 159 0052 5642     		neg	r6, r2
 160 0054 9F41     		sbc	r7, r3
  52:.\Generated_Source\PSoC4/Thermocouple.c ****         }
 161              		.loc 1 52 0
 162 0056 030E     		lsr	r3, r0, #24
 163 0058 0A02     		lsl	r2, r1, #8
 164 005a 1A43     		orr	r2, r3
 165 005c 101C     		mov	r0, r2
 166 005e 0029     		cmp	r1, #0
 167 0060 00DA     		bge	.LCB129
 168 0062 F7E2     		b	.L93	@long jump
 169              	.LCB129:
 170              	.L38:
 171              	.LBE11:
 172              	.LBE10:
 417:.\Generated_Source\PSoC4/Thermocouple.c ****                                                (Thermocouple_IN_NORMALIZATION_VT - 
 418:.\Generated_Source\PSoC4/Thermocouple.c ****                                                 Thermocouple_xScaleVT[Thermocouple_RANGE_MAS_1])));
 419:.\Generated_Source\PSoC4/Thermocouple.c ****             }              
 420:.\Generated_Source\PSoC4/Thermocouple.c ****             
 421:.\Generated_Source\PSoC4/Thermocouple.c ****             for (i=Thermocouple_ORDER_VT - 1u; i > 0u; i--)
 422:.\Generated_Source\PSoC4/Thermocouple.c ****             {
 423:.\Generated_Source\PSoC4/Thermocouple.c ****                 temp = Thermocouple_MultShift24((Thermocouple_coeffVT[i][Thermocouple_RANGE_MAS_1] 
 173              		.loc 1 423 0
 174 0064 1B9B     		ldr	r3, [sp, #108]
 175              	.LBB28:
 176              	.LBB12:
  43:.\Generated_Source\PSoC4/Thermocouple.c ****         if (result < 0)
 177              		.loc 1 43 0
 178 0066 4246     		mov	r2, r8
 179              	.LBE12:
 180              	.LBE28:
 181              		.loc 1 423 0
 182 0068 9C46     		mov	ip, r3
 183 006a 6044     		add	r0, r0, ip
 184 006c 0193     		str	r3, [sp, #4]
 185              	.LBB29:
 186              	.LBB13:
  43:.\Generated_Source\PSoC4/Thermocouple.c ****         if (result < 0)
 187              		.loc 1 43 0
 188 006e C117     		asr	r1, r0, #31
 189 0070 2B1C     		mov	r3, r5
 190 0072 FFF7FEFF 		bl	__aeabi_lmul
 191              	.LVL18:
  46:.\Generated_Source\PSoC4/Thermocouple.c ****             result = (int32)((uint64)((uint64)result >> Thermocouple_24BIT_SHIFTING));
 192              		.loc 1 46 0
 193 0076 0027     		mov	r7, #0
 194 0078 4642     		neg	r6, r0
 195 007a 8F41     		sbc	r7, r1
ARM GAS  C:\Users\faithc\AppData\Local\Temp\cchhuTE1.s 			page 12


  47:.\Generated_Source\PSoC4/Thermocouple.c ****             result = -result;
 196              		.loc 1 47 0
 197 007c 3B02     		lsl	r3, r7, #8
 198 007e 1C1C     		mov	r4, r3
 199 0080 360E     		lsr	r6, r6, #24
 200 0082 3443     		orr	r4, r6
 201 0084 221C     		mov	r2, r4
 202 0086 3B0E     		lsr	r3, r7, #24
  48:.\Generated_Source\PSoC4/Thermocouple.c ****         }
 203              		.loc 1 48 0
 204 0088 0027     		mov	r7, #0
 205 008a 5642     		neg	r6, r2
 206 008c 9F41     		sbc	r7, r3
  52:.\Generated_Source\PSoC4/Thermocouple.c ****         }
 207              		.loc 1 52 0
 208 008e 030E     		lsr	r3, r0, #24
 209 0090 0A02     		lsl	r2, r1, #8
 210 0092 1A43     		orr	r2, r3
 211 0094 101C     		mov	r0, r2
 212 0096 0029     		cmp	r1, #0
 213 0098 00DA     		bge	.LCB163
 214 009a D9E2     		b	.L94	@long jump
 215              	.LCB163:
 216              	.L41:
 217              	.LBE13:
 218              	.LBE29:
 219              		.loc 1 423 0
 220 009c 189B     		ldr	r3, [sp, #96]
 221              	.LBB30:
 222              	.LBB14:
  43:.\Generated_Source\PSoC4/Thermocouple.c ****         if (result < 0)
 223              		.loc 1 43 0
 224 009e 4246     		mov	r2, r8
 225              	.LBE14:
 226              	.LBE30:
 227              		.loc 1 423 0
 228 00a0 9C46     		mov	ip, r3
 229 00a2 6044     		add	r0, r0, ip
 230 00a4 0193     		str	r3, [sp, #4]
 231              	.LBB31:
 232              	.LBB15:
  43:.\Generated_Source\PSoC4/Thermocouple.c ****         if (result < 0)
 233              		.loc 1 43 0
 234 00a6 C117     		asr	r1, r0, #31
 235 00a8 2B1C     		mov	r3, r5
 236 00aa FFF7FEFF 		bl	__aeabi_lmul
 237              	.LVL19:
  46:.\Generated_Source\PSoC4/Thermocouple.c ****             result = (int32)((uint64)((uint64)result >> Thermocouple_24BIT_SHIFTING));
 238              		.loc 1 46 0
 239 00ae 0027     		mov	r7, #0
 240 00b0 4642     		neg	r6, r0
 241 00b2 8F41     		sbc	r7, r1
  47:.\Generated_Source\PSoC4/Thermocouple.c ****             result = -result;
 242              		.loc 1 47 0
 243 00b4 3B02     		lsl	r3, r7, #8
 244 00b6 1C1C     		mov	r4, r3
 245 00b8 360E     		lsr	r6, r6, #24
ARM GAS  C:\Users\faithc\AppData\Local\Temp\cchhuTE1.s 			page 13


 246 00ba 3443     		orr	r4, r6
 247 00bc 221C     		mov	r2, r4
 248 00be 3B0E     		lsr	r3, r7, #24
  48:.\Generated_Source\PSoC4/Thermocouple.c ****         }
 249              		.loc 1 48 0
 250 00c0 0027     		mov	r7, #0
 251 00c2 5642     		neg	r6, r2
 252 00c4 9F41     		sbc	r7, r3
  52:.\Generated_Source\PSoC4/Thermocouple.c ****         }
 253              		.loc 1 52 0
 254 00c6 030E     		lsr	r3, r0, #24
 255 00c8 0A02     		lsl	r2, r1, #8
 256 00ca 1A43     		orr	r2, r3
 257 00cc 101C     		mov	r0, r2
 258 00ce 0029     		cmp	r1, #0
 259 00d0 00DA     		bge	.LCB197
 260 00d2 BBE2     		b	.L95	@long jump
 261              	.LCB197:
 262              	.L44:
 263              	.LBE15:
 264              	.LBE31:
 265              		.loc 1 423 0
 266 00d4 159B     		ldr	r3, [sp, #84]
 267              	.LBB32:
 268              	.LBB16:
  43:.\Generated_Source\PSoC4/Thermocouple.c ****         if (result < 0)
 269              		.loc 1 43 0
 270 00d6 4246     		mov	r2, r8
 271              	.LBE16:
 272              	.LBE32:
 273              		.loc 1 423 0
 274 00d8 9C46     		mov	ip, r3
 275 00da 6044     		add	r0, r0, ip
 276 00dc 0193     		str	r3, [sp, #4]
 277              	.LBB33:
 278              	.LBB17:
  43:.\Generated_Source\PSoC4/Thermocouple.c ****         if (result < 0)
 279              		.loc 1 43 0
 280 00de C117     		asr	r1, r0, #31
 281 00e0 2B1C     		mov	r3, r5
 282 00e2 FFF7FEFF 		bl	__aeabi_lmul
 283              	.LVL20:
  46:.\Generated_Source\PSoC4/Thermocouple.c ****             result = (int32)((uint64)((uint64)result >> Thermocouple_24BIT_SHIFTING));
 284              		.loc 1 46 0
 285 00e6 0027     		mov	r7, #0
 286 00e8 4642     		neg	r6, r0
 287 00ea 8F41     		sbc	r7, r1
  47:.\Generated_Source\PSoC4/Thermocouple.c ****             result = -result;
 288              		.loc 1 47 0
 289 00ec 3B02     		lsl	r3, r7, #8
 290 00ee 1C1C     		mov	r4, r3
 291 00f0 360E     		lsr	r6, r6, #24
 292 00f2 3443     		orr	r4, r6
 293 00f4 221C     		mov	r2, r4
 294 00f6 3B0E     		lsr	r3, r7, #24
  48:.\Generated_Source\PSoC4/Thermocouple.c ****         }
 295              		.loc 1 48 0
ARM GAS  C:\Users\faithc\AppData\Local\Temp\cchhuTE1.s 			page 14


 296 00f8 0027     		mov	r7, #0
 297 00fa 5642     		neg	r6, r2
 298 00fc 9F41     		sbc	r7, r3
  52:.\Generated_Source\PSoC4/Thermocouple.c ****         }
 299              		.loc 1 52 0
 300 00fe 030E     		lsr	r3, r0, #24
 301 0100 0A02     		lsl	r2, r1, #8
 302 0102 1A43     		orr	r2, r3
 303 0104 101C     		mov	r0, r2
 304 0106 0029     		cmp	r1, #0
 305 0108 00DA     		bge	.LCB231
 306 010a 9DE2     		b	.L96	@long jump
 307              	.LCB231:
 308              	.L47:
 309              	.LBE17:
 310              	.LBE33:
 311              		.loc 1 423 0
 312 010c 129B     		ldr	r3, [sp, #72]
 313              	.LBB34:
 314              	.LBB18:
  43:.\Generated_Source\PSoC4/Thermocouple.c ****         if (result < 0)
 315              		.loc 1 43 0
 316 010e 4246     		mov	r2, r8
 317              	.LBE18:
 318              	.LBE34:
 319              		.loc 1 423 0
 320 0110 9C46     		mov	ip, r3
 321 0112 6044     		add	r0, r0, ip
 322 0114 0193     		str	r3, [sp, #4]
 323              	.LBB35:
 324              	.LBB19:
  43:.\Generated_Source\PSoC4/Thermocouple.c ****         if (result < 0)
 325              		.loc 1 43 0
 326 0116 C117     		asr	r1, r0, #31
 327 0118 2B1C     		mov	r3, r5
 328 011a FFF7FEFF 		bl	__aeabi_lmul
 329              	.LVL21:
  46:.\Generated_Source\PSoC4/Thermocouple.c ****             result = (int32)((uint64)((uint64)result >> Thermocouple_24BIT_SHIFTING));
 330              		.loc 1 46 0
 331 011e 0027     		mov	r7, #0
 332 0120 4642     		neg	r6, r0
 333 0122 8F41     		sbc	r7, r1
  47:.\Generated_Source\PSoC4/Thermocouple.c ****             result = -result;
 334              		.loc 1 47 0
 335 0124 3B02     		lsl	r3, r7, #8
 336 0126 1C1C     		mov	r4, r3
 337 0128 360E     		lsr	r6, r6, #24
 338 012a 3443     		orr	r4, r6
 339 012c 221C     		mov	r2, r4
 340 012e 3B0E     		lsr	r3, r7, #24
  48:.\Generated_Source\PSoC4/Thermocouple.c ****         }
 341              		.loc 1 48 0
 342 0130 0027     		mov	r7, #0
 343 0132 5642     		neg	r6, r2
 344 0134 9F41     		sbc	r7, r3
  52:.\Generated_Source\PSoC4/Thermocouple.c ****         }
 345              		.loc 1 52 0
ARM GAS  C:\Users\faithc\AppData\Local\Temp\cchhuTE1.s 			page 15


 346 0136 030E     		lsr	r3, r0, #24
 347 0138 0A02     		lsl	r2, r1, #8
 348 013a 1A43     		orr	r2, r3
 349 013c 101C     		mov	r0, r2
 350 013e 0029     		cmp	r1, #0
 351 0140 00DA     		bge	.LCB265
 352 0142 7FE2     		b	.L97	@long jump
 353              	.LCB265:
 354              	.L50:
 355              	.LBE19:
 356              	.LBE35:
 357              		.loc 1 423 0
 358 0144 0F9B     		ldr	r3, [sp, #60]
 359              	.LBB36:
 360              	.LBB20:
  43:.\Generated_Source\PSoC4/Thermocouple.c ****         if (result < 0)
 361              		.loc 1 43 0
 362 0146 4246     		mov	r2, r8
 363              	.LBE20:
 364              	.LBE36:
 365              		.loc 1 423 0
 366 0148 9C46     		mov	ip, r3
 367 014a 6044     		add	r0, r0, ip
 368 014c 0193     		str	r3, [sp, #4]
 369              	.LBB37:
 370              	.LBB21:
  43:.\Generated_Source\PSoC4/Thermocouple.c ****         if (result < 0)
 371              		.loc 1 43 0
 372 014e C117     		asr	r1, r0, #31
 373 0150 2B1C     		mov	r3, r5
 374 0152 FFF7FEFF 		bl	__aeabi_lmul
 375              	.LVL22:
  46:.\Generated_Source\PSoC4/Thermocouple.c ****             result = (int32)((uint64)((uint64)result >> Thermocouple_24BIT_SHIFTING));
 376              		.loc 1 46 0
 377 0156 0027     		mov	r7, #0
 378 0158 4642     		neg	r6, r0
 379 015a 8F41     		sbc	r7, r1
  47:.\Generated_Source\PSoC4/Thermocouple.c ****             result = -result;
 380              		.loc 1 47 0
 381 015c 3B02     		lsl	r3, r7, #8
 382 015e 1C1C     		mov	r4, r3
 383 0160 360E     		lsr	r6, r6, #24
 384 0162 3443     		orr	r4, r6
 385 0164 221C     		mov	r2, r4
 386 0166 3B0E     		lsr	r3, r7, #24
  48:.\Generated_Source\PSoC4/Thermocouple.c ****         }
 387              		.loc 1 48 0
 388 0168 0027     		mov	r7, #0
 389 016a 5642     		neg	r6, r2
 390 016c 9F41     		sbc	r7, r3
  52:.\Generated_Source\PSoC4/Thermocouple.c ****         }
 391              		.loc 1 52 0
 392 016e 030E     		lsr	r3, r0, #24
 393 0170 0A02     		lsl	r2, r1, #8
 394 0172 1A43     		orr	r2, r3
 395 0174 101C     		mov	r0, r2
 396 0176 0029     		cmp	r1, #0
ARM GAS  C:\Users\faithc\AppData\Local\Temp\cchhuTE1.s 			page 16


 397 0178 00DA     		bge	.LCB299
 398 017a 61E2     		b	.L98	@long jump
 399              	.LCB299:
 400              	.L53:
 401              	.LBE21:
 402              	.LBE37:
 403              		.loc 1 423 0
 404 017c 0C9B     		ldr	r3, [sp, #48]
 405              	.LBB38:
 406              	.LBB22:
  43:.\Generated_Source\PSoC4/Thermocouple.c ****         if (result < 0)
 407              		.loc 1 43 0
 408 017e 4246     		mov	r2, r8
 409              	.LBE22:
 410              	.LBE38:
 411              		.loc 1 423 0
 412 0180 9C46     		mov	ip, r3
 413 0182 6044     		add	r0, r0, ip
 414 0184 0193     		str	r3, [sp, #4]
 415              	.LBB39:
 416              	.LBB23:
  43:.\Generated_Source\PSoC4/Thermocouple.c ****         if (result < 0)
 417              		.loc 1 43 0
 418 0186 C117     		asr	r1, r0, #31
 419 0188 2B1C     		mov	r3, r5
 420 018a FFF7FEFF 		bl	__aeabi_lmul
 421              	.LVL23:
  46:.\Generated_Source\PSoC4/Thermocouple.c ****             result = (int32)((uint64)((uint64)result >> Thermocouple_24BIT_SHIFTING));
 422              		.loc 1 46 0
 423 018e 0027     		mov	r7, #0
 424 0190 4642     		neg	r6, r0
 425 0192 8F41     		sbc	r7, r1
  47:.\Generated_Source\PSoC4/Thermocouple.c ****             result = -result;
 426              		.loc 1 47 0
 427 0194 3B02     		lsl	r3, r7, #8
 428 0196 1C1C     		mov	r4, r3
 429 0198 360E     		lsr	r6, r6, #24
 430 019a 3443     		orr	r4, r6
 431 019c 221C     		mov	r2, r4
 432 019e 3B0E     		lsr	r3, r7, #24
  48:.\Generated_Source\PSoC4/Thermocouple.c ****         }
 433              		.loc 1 48 0
 434 01a0 0027     		mov	r7, #0
 435 01a2 5642     		neg	r6, r2
 436 01a4 9F41     		sbc	r7, r3
  52:.\Generated_Source\PSoC4/Thermocouple.c ****         }
 437              		.loc 1 52 0
 438 01a6 030E     		lsr	r3, r0, #24
 439 01a8 0A02     		lsl	r2, r1, #8
 440 01aa 1A43     		orr	r2, r3
 441 01ac 101C     		mov	r0, r2
 442 01ae 0029     		cmp	r1, #0
 443 01b0 00DA     		bge	.LCB333
 444 01b2 43E2     		b	.L99	@long jump
 445              	.LCB333:
 446              	.L56:
 447              	.LBE23:
ARM GAS  C:\Users\faithc\AppData\Local\Temp\cchhuTE1.s 			page 17


 448              	.LBE39:
 449              		.loc 1 423 0
 450 01b4 099B     		ldr	r3, [sp, #36]
 451              	.LBB40:
 452              	.LBB24:
  43:.\Generated_Source\PSoC4/Thermocouple.c ****         if (result < 0)
 453              		.loc 1 43 0
 454 01b6 4246     		mov	r2, r8
 455              	.LBE24:
 456              	.LBE40:
 457              		.loc 1 423 0
 458 01b8 9C46     		mov	ip, r3
 459 01ba 6044     		add	r0, r0, ip
 460 01bc 0193     		str	r3, [sp, #4]
 461              	.LBB41:
 462              	.LBB25:
  43:.\Generated_Source\PSoC4/Thermocouple.c ****         if (result < 0)
 463              		.loc 1 43 0
 464 01be C117     		asr	r1, r0, #31
 465 01c0 2B1C     		mov	r3, r5
 466 01c2 FFF7FEFF 		bl	__aeabi_lmul
 467              	.LVL24:
  46:.\Generated_Source\PSoC4/Thermocouple.c ****             result = (int32)((uint64)((uint64)result >> Thermocouple_24BIT_SHIFTING));
 468              		.loc 1 46 0
 469 01c6 0027     		mov	r7, #0
 470 01c8 4642     		neg	r6, r0
 471 01ca 8F41     		sbc	r7, r1
  47:.\Generated_Source\PSoC4/Thermocouple.c ****             result = -result;
 472              		.loc 1 47 0
 473 01cc 3B02     		lsl	r3, r7, #8
 474 01ce 1C1C     		mov	r4, r3
 475 01d0 360E     		lsr	r6, r6, #24
 476 01d2 3443     		orr	r4, r6
 477 01d4 221C     		mov	r2, r4
 478 01d6 3B0E     		lsr	r3, r7, #24
  48:.\Generated_Source\PSoC4/Thermocouple.c ****         }
 479              		.loc 1 48 0
 480 01d8 0027     		mov	r7, #0
 481 01da 5642     		neg	r6, r2
 482 01dc 9F41     		sbc	r7, r3
  52:.\Generated_Source\PSoC4/Thermocouple.c ****         }
 483              		.loc 1 52 0
 484 01de 030E     		lsr	r3, r0, #24
 485 01e0 0A02     		lsl	r2, r1, #8
 486 01e2 1A43     		orr	r2, r3
 487 01e4 101C     		mov	r0, r2
 488 01e6 0029     		cmp	r1, #0
 489 01e8 00DA     		bge	.LCB367
 490 01ea 25E2     		b	.L100	@long jump
 491              	.LCB367:
 492              	.L59:
 493              	.LBE25:
 494              	.LBE41:
 495              		.loc 1 423 0
 496 01ec 069B     		ldr	r3, [sp, #24]
 497              	.LBB42:
 498              	.LBB26:
ARM GAS  C:\Users\faithc\AppData\Local\Temp\cchhuTE1.s 			page 18


  43:.\Generated_Source\PSoC4/Thermocouple.c ****         if (result < 0)
 499              		.loc 1 43 0
 500 01ee 4246     		mov	r2, r8
 501              	.LBE26:
 502              	.LBE42:
 503              		.loc 1 423 0
 504 01f0 9C46     		mov	ip, r3
 505 01f2 6044     		add	r0, r0, ip
 506 01f4 0193     		str	r3, [sp, #4]
 507              	.LBB43:
 508              	.LBB27:
  43:.\Generated_Source\PSoC4/Thermocouple.c ****         if (result < 0)
 509              		.loc 1 43 0
 510 01f6 C117     		asr	r1, r0, #31
 511 01f8 2B1C     		mov	r3, r5
 512 01fa FFF7FEFF 		bl	__aeabi_lmul
 513              	.LVL25:
  46:.\Generated_Source\PSoC4/Thermocouple.c ****             result = (int32)((uint64)((uint64)result >> Thermocouple_24BIT_SHIFTING));
 514              		.loc 1 46 0
 515 01fe 0025     		mov	r5, #0
 516 0200 4442     		neg	r4, r0
 517 0202 8D41     		sbc	r5, r1
  47:.\Generated_Source\PSoC4/Thermocouple.c ****             result = -result;
 518              		.loc 1 47 0
 519 0204 2E02     		lsl	r6, r5, #8
 520 0206 240E     		lsr	r4, r4, #24
 521 0208 2643     		orr	r6, r4
 522 020a 321C     		mov	r2, r6
 523 020c 2B0E     		lsr	r3, r5, #24
  48:.\Generated_Source\PSoC4/Thermocouple.c ****         }
 524              		.loc 1 48 0
 525 020e 0025     		mov	r5, #0
 526 0210 5442     		neg	r4, r2
 527 0212 9D41     		sbc	r5, r3
  52:.\Generated_Source\PSoC4/Thermocouple.c ****         }
 528              		.loc 1 52 0
 529 0214 0A02     		lsl	r2, r1, #8
 530 0216 030E     		lsr	r3, r0, #24
 531 0218 1343     		orr	r3, r2
 532              	.LVL26:
 533 021a 0029     		cmp	r1, #0
 534 021c 00DA     		bge	.LCB400
 535 021e F9E1     		b	.L101	@long jump
 536              	.LCB400:
 537              	.L62:
 538              	.LBE27:
 539              	.LBE43:
 424:.\Generated_Source\PSoC4/Thermocouple.c ****                        temp), voltage);
 425:.\Generated_Source\PSoC4/Thermocouple.c ****             }
 426:.\Generated_Source\PSoC4/Thermocouple.c **** 
 427:.\Generated_Source\PSoC4/Thermocouple.c ****             if(Thermocouple_coefScaleVT[Thermocouple_RANGE_MAS_1] < 0)
 428:.\Generated_Source\PSoC4/Thermocouple.c ****             {
 429:.\Generated_Source\PSoC4/Thermocouple.c ****                 temp = (int32)((uint64)((uint64)(int32)(temp + 
 430:.\Generated_Source\PSoC4/Thermocouple.c ****                         Thermocouple_coeffVT[Thermocouple_FIRST_EL_MAS][Thermocouple_RANGE_MAS_1]) 
 431:.\Generated_Source\PSoC4/Thermocouple.c ****                         Thermocouple_coefScaleVT[Thermocouple_RANGE_MAS_1]));
 432:.\Generated_Source\PSoC4/Thermocouple.c ****             }
 433:.\Generated_Source\PSoC4/Thermocouple.c **** 
ARM GAS  C:\Users\faithc\AppData\Local\Temp\cchhuTE1.s 			page 19


 434:.\Generated_Source\PSoC4/Thermocouple.c ****             else
 435:.\Generated_Source\PSoC4/Thermocouple.c ****             {
 436:.\Generated_Source\PSoC4/Thermocouple.c ****                 temp = (int32)((uint32)((uint64)(int32)(temp + 
 540              		.loc 1 436 0
 541 0220 0398     		ldr	r0, [sp, #12]
 542 0222 C318     		add	r3, r0, r3
 543 0224 D817     		asr	r0, r3, #31
 437:.\Generated_Source\PSoC4/Thermocouple.c ****                         Thermocouple_coeffVT[Thermocouple_FIRST_EL_MAS][Thermocouple_RANGE_MAS_1]) 
 544              		.loc 1 437 0
 545 0226 C007     		lsl	r0, r0, #31
 546 0228 5B08     		lsr	r3, r3, #1
 547 022a 1843     		orr	r0, r3
 548              	.LVL27:
 549              	.L35:
 438:.\Generated_Source\PSoC4/Thermocouple.c ****                         Thermocouple_coefScaleVT[Thermocouple_RANGE_MAS_1]));
 439:.\Generated_Source\PSoC4/Thermocouple.c ****             }
 440:.\Generated_Source\PSoC4/Thermocouple.c ****         }
 441:.\Generated_Source\PSoC4/Thermocouple.c **** 
 442:.\Generated_Source\PSoC4/Thermocouple.c ****         else
 443:.\Generated_Source\PSoC4/Thermocouple.c ****         {
 444:.\Generated_Source\PSoC4/Thermocouple.c ****             if (voltage < 0)
 445:.\Generated_Source\PSoC4/Thermocouple.c ****             {
 446:.\Generated_Source\PSoC4/Thermocouple.c ****                 voltage = -voltage;
 447:.\Generated_Source\PSoC4/Thermocouple.c ****                 voltage = (int32)((uint64)((uint64)voltage << 
 448:.\Generated_Source\PSoC4/Thermocouple.c ****                                                (Thermocouple_IN_NORMALIZATION_VT - 
 449:.\Generated_Source\PSoC4/Thermocouple.c ****                                                 Thermocouple_xScaleVT[Thermocouple_RANGE_MAS_2])));
 450:.\Generated_Source\PSoC4/Thermocouple.c ****                 voltage = -voltage;
 451:.\Generated_Source\PSoC4/Thermocouple.c ****             }
 452:.\Generated_Source\PSoC4/Thermocouple.c ****             else
 453:.\Generated_Source\PSoC4/Thermocouple.c ****             {
 454:.\Generated_Source\PSoC4/Thermocouple.c ****                 voltage = (int32)((uint64)((uint64)voltage << 
 455:.\Generated_Source\PSoC4/Thermocouple.c ****                                                (Thermocouple_IN_NORMALIZATION_VT - 
 456:.\Generated_Source\PSoC4/Thermocouple.c ****                                                 Thermocouple_xScaleVT[Thermocouple_RANGE_MAS_2])));
 457:.\Generated_Source\PSoC4/Thermocouple.c ****             }              
 458:.\Generated_Source\PSoC4/Thermocouple.c **** 
 459:.\Generated_Source\PSoC4/Thermocouple.c ****             for (i=Thermocouple_ORDER_VT - 1u; i > 0u; i--)
 460:.\Generated_Source\PSoC4/Thermocouple.c ****             {
 461:.\Generated_Source\PSoC4/Thermocouple.c ****                 temp = Thermocouple_MultShift24((Thermocouple_coeffVT[i][Thermocouple_RANGE_MAS_2] 
 462:.\Generated_Source\PSoC4/Thermocouple.c ****                        temp), voltage);
 463:.\Generated_Source\PSoC4/Thermocouple.c ****             }
 464:.\Generated_Source\PSoC4/Thermocouple.c **** 
 465:.\Generated_Source\PSoC4/Thermocouple.c ****             if(Thermocouple_coefScaleVT[Thermocouple_RANGE_MAS_2] < 0)
 466:.\Generated_Source\PSoC4/Thermocouple.c ****             {
 467:.\Generated_Source\PSoC4/Thermocouple.c ****                 temp = (int32)((uint64)((uint64)(int32)(temp + 
 468:.\Generated_Source\PSoC4/Thermocouple.c ****                         Thermocouple_coeffVT[Thermocouple_FIRST_EL_MAS][Thermocouple_RANGE_MAS_2]) 
 469:.\Generated_Source\PSoC4/Thermocouple.c ****                         Thermocouple_coefScaleVT[Thermocouple_RANGE_MAS_2]));
 470:.\Generated_Source\PSoC4/Thermocouple.c ****             }
 471:.\Generated_Source\PSoC4/Thermocouple.c **** 
 472:.\Generated_Source\PSoC4/Thermocouple.c ****             else
 473:.\Generated_Source\PSoC4/Thermocouple.c ****             {
 474:.\Generated_Source\PSoC4/Thermocouple.c ****                 temp = (int32)((uint32)((uint64)(int32)(temp + 
 475:.\Generated_Source\PSoC4/Thermocouple.c ****                         Thermocouple_coeffVT[Thermocouple_FIRST_EL_MAS][Thermocouple_RANGE_MAS_2]) 
 476:.\Generated_Source\PSoC4/Thermocouple.c ****                         Thermocouple_coefScaleVT[Thermocouple_RANGE_MAS_2]));
 477:.\Generated_Source\PSoC4/Thermocouple.c ****             }
 478:.\Generated_Source\PSoC4/Thermocouple.c ****         }
 479:.\Generated_Source\PSoC4/Thermocouple.c ****     }
 480:.\Generated_Source\PSoC4/Thermocouple.c **** 
ARM GAS  C:\Users\faithc\AppData\Local\Temp\cchhuTE1.s 			page 20


 481:.\Generated_Source\PSoC4/Thermocouple.c ****     #endif /* End Thermocouple_VT_RANGE_LEN == Thermocouple_THREE */
 482:.\Generated_Source\PSoC4/Thermocouple.c **** 
 483:.\Generated_Source\PSoC4/Thermocouple.c ****     return (temp);
 484:.\Generated_Source\PSoC4/Thermocouple.c **** }
 550              		.loc 1 484 0
 551 022c 20B0     		add	sp, sp, #128
 552              		@ sp needed
 553 022e 04BC     		pop	{r2}
 554 0230 9046     		mov	r8, r2
 555 0232 F0BD     		pop	{r4, r5, r6, r7, pc}
 556              	.L121:
 557              		.align	2
 558              	.L120:
 559 0234 00000000 		.word	.LANCHOR0
 560 0238 A4500000 		.word	20644
 561              	.LVL28:
 562              	.L36:
 563              	.LBB44:
 564              	.LBB45:
  43:.\Generated_Source\PSoC4/Thermocouple.c ****         if (result < 0)
 565              		.loc 1 43 0
 566 023c 1F9B     		ldr	r3, [sp, #124]
 567              	.LBE45:
 568              	.LBE44:
 454:.\Generated_Source\PSoC4/Thermocouple.c ****                                                (Thermocouple_IN_NORMALIZATION_VT - 
 569              		.loc 1 454 0
 570 023e 2402     		lsl	r4, r4, #8
 571              	.LVL29:
 572 0240 E517     		asr	r5, r4, #31
 573              	.LVL30:
 574              	.LBB63:
 575              	.LBB46:
  43:.\Generated_Source\PSoC4/Thermocouple.c ****         if (result < 0)
 576              		.loc 1 43 0
 577 0242 0193     		str	r3, [sp, #4]
 578 0244 D917     		asr	r1, r3, #31
 579 0246 181C     		mov	r0, r3
 580 0248 221C     		mov	r2, r4
 581 024a 2B1C     		mov	r3, r5
 582 024c FFF7FEFF 		bl	__aeabi_lmul
 583              	.LVL31:
  46:.\Generated_Source\PSoC4/Thermocouple.c ****             result = (int32)((uint64)((uint64)result >> Thermocouple_24BIT_SHIFTING));
 584              		.loc 1 46 0
 585 0250 0023     		mov	r3, #0
 586 0252 4242     		neg	r2, r0
 587 0254 8B41     		sbc	r3, r1
  47:.\Generated_Source\PSoC4/Thermocouple.c ****             result = -result;
 588              		.loc 1 47 0
 589 0256 1B02     		lsl	r3, r3, #8
 590 0258 160E     		lsr	r6, r2, #24
 591 025a 1E43     		orr	r6, r3
 592 025c 321C     		mov	r2, r6
 593 025e F317     		asr	r3, r6, #31
  48:.\Generated_Source\PSoC4/Thermocouple.c ****         }
 594              		.loc 1 48 0
 595 0260 0027     		mov	r7, #0
 596 0262 5642     		neg	r6, r2
ARM GAS  C:\Users\faithc\AppData\Local\Temp\cchhuTE1.s 			page 21


 597 0264 9F41     		sbc	r7, r3
  52:.\Generated_Source\PSoC4/Thermocouple.c ****         }
 598              		.loc 1 52 0
 599 0266 030E     		lsr	r3, r0, #24
 600 0268 0A02     		lsl	r2, r1, #8
 601 026a 1A43     		orr	r2, r3
 602 026c 101C     		mov	r0, r2
 603 026e 0029     		cmp	r1, #0
 604 0270 00DA     		bge	.LCB474
 605 0272 D7E1     		b	.L102	@long jump
 606              	.LCB474:
 607              	.L65:
 608              	.LBE46:
 609              	.LBE63:
 461:.\Generated_Source\PSoC4/Thermocouple.c ****                        temp), voltage);
 610              		.loc 1 461 0
 611 0274 1C9B     		ldr	r3, [sp, #112]
 612              	.LBB64:
 613              	.LBB47:
  43:.\Generated_Source\PSoC4/Thermocouple.c ****         if (result < 0)
 614              		.loc 1 43 0
 615 0276 221C     		mov	r2, r4
 616              	.LBE47:
 617              	.LBE64:
 461:.\Generated_Source\PSoC4/Thermocouple.c ****                        temp), voltage);
 618              		.loc 1 461 0
 619 0278 9C46     		mov	ip, r3
 620 027a 6044     		add	r0, r0, ip
 621 027c 0193     		str	r3, [sp, #4]
 622              	.LBB65:
 623              	.LBB48:
  43:.\Generated_Source\PSoC4/Thermocouple.c ****         if (result < 0)
 624              		.loc 1 43 0
 625 027e C117     		asr	r1, r0, #31
 626 0280 2B1C     		mov	r3, r5
 627 0282 FFF7FEFF 		bl	__aeabi_lmul
 628              	.LVL32:
  46:.\Generated_Source\PSoC4/Thermocouple.c ****             result = (int32)((uint64)((uint64)result >> Thermocouple_24BIT_SHIFTING));
 629              		.loc 1 46 0
 630 0286 0023     		mov	r3, #0
 631 0288 4242     		neg	r2, r0
 632 028a 8B41     		sbc	r3, r1
  47:.\Generated_Source\PSoC4/Thermocouple.c ****             result = -result;
 633              		.loc 1 47 0
 634 028c 1B02     		lsl	r3, r3, #8
 635 028e 160E     		lsr	r6, r2, #24
 636 0290 1E43     		orr	r6, r3
 637 0292 321C     		mov	r2, r6
 638 0294 F317     		asr	r3, r6, #31
  48:.\Generated_Source\PSoC4/Thermocouple.c ****         }
 639              		.loc 1 48 0
 640 0296 0027     		mov	r7, #0
 641 0298 5642     		neg	r6, r2
 642 029a 9F41     		sbc	r7, r3
  52:.\Generated_Source\PSoC4/Thermocouple.c ****         }
 643              		.loc 1 52 0
 644 029c 030E     		lsr	r3, r0, #24
ARM GAS  C:\Users\faithc\AppData\Local\Temp\cchhuTE1.s 			page 22


 645 029e 0A02     		lsl	r2, r1, #8
 646 02a0 1A43     		orr	r2, r3
 647 02a2 101C     		mov	r0, r2
 648 02a4 0029     		cmp	r1, #0
 649 02a6 00DA     		bge	.LCB506
 650 02a8 BAE1     		b	.L103	@long jump
 651              	.LCB506:
 652              	.L68:
 653              	.LBE48:
 654              	.LBE65:
 461:.\Generated_Source\PSoC4/Thermocouple.c ****                        temp), voltage);
 655              		.loc 1 461 0
 656 02aa 199B     		ldr	r3, [sp, #100]
 657              	.LBB66:
 658              	.LBB49:
  43:.\Generated_Source\PSoC4/Thermocouple.c ****         if (result < 0)
 659              		.loc 1 43 0
 660 02ac 221C     		mov	r2, r4
 661              	.LBE49:
 662              	.LBE66:
 461:.\Generated_Source\PSoC4/Thermocouple.c ****                        temp), voltage);
 663              		.loc 1 461 0
 664 02ae 9C46     		mov	ip, r3
 665 02b0 6044     		add	r0, r0, ip
 666 02b2 0193     		str	r3, [sp, #4]
 667              	.LBB67:
 668              	.LBB50:
  43:.\Generated_Source\PSoC4/Thermocouple.c ****         if (result < 0)
 669              		.loc 1 43 0
 670 02b4 C117     		asr	r1, r0, #31
 671 02b6 2B1C     		mov	r3, r5
 672 02b8 FFF7FEFF 		bl	__aeabi_lmul
 673              	.LVL33:
  46:.\Generated_Source\PSoC4/Thermocouple.c ****             result = (int32)((uint64)((uint64)result >> Thermocouple_24BIT_SHIFTING));
 674              		.loc 1 46 0
 675 02bc 0023     		mov	r3, #0
 676 02be 4242     		neg	r2, r0
 677 02c0 8B41     		sbc	r3, r1
  47:.\Generated_Source\PSoC4/Thermocouple.c ****             result = -result;
 678              		.loc 1 47 0
 679 02c2 1B02     		lsl	r3, r3, #8
 680 02c4 160E     		lsr	r6, r2, #24
 681 02c6 1E43     		orr	r6, r3
 682 02c8 321C     		mov	r2, r6
 683 02ca F317     		asr	r3, r6, #31
  48:.\Generated_Source\PSoC4/Thermocouple.c ****         }
 684              		.loc 1 48 0
 685 02cc 0027     		mov	r7, #0
 686 02ce 5642     		neg	r6, r2
 687 02d0 9F41     		sbc	r7, r3
  52:.\Generated_Source\PSoC4/Thermocouple.c ****         }
 688              		.loc 1 52 0
 689 02d2 030E     		lsr	r3, r0, #24
 690 02d4 0A02     		lsl	r2, r1, #8
 691 02d6 1A43     		orr	r2, r3
 692 02d8 101C     		mov	r0, r2
 693 02da 0029     		cmp	r1, #0
ARM GAS  C:\Users\faithc\AppData\Local\Temp\cchhuTE1.s 			page 23


 694 02dc 00DA     		bge	.LCB538
 695 02de A9E1     		b	.L104	@long jump
 696              	.LCB538:
 697              	.L71:
 698              	.LBE50:
 699              	.LBE67:
 461:.\Generated_Source\PSoC4/Thermocouple.c ****                        temp), voltage);
 700              		.loc 1 461 0
 701 02e0 169B     		ldr	r3, [sp, #88]
 702              	.LBB68:
 703              	.LBB51:
  43:.\Generated_Source\PSoC4/Thermocouple.c ****         if (result < 0)
 704              		.loc 1 43 0
 705 02e2 221C     		mov	r2, r4
 706              	.LBE51:
 707              	.LBE68:
 461:.\Generated_Source\PSoC4/Thermocouple.c ****                        temp), voltage);
 708              		.loc 1 461 0
 709 02e4 9C46     		mov	ip, r3
 710 02e6 6044     		add	r0, r0, ip
 711 02e8 0193     		str	r3, [sp, #4]
 712              	.LBB69:
 713              	.LBB52:
  43:.\Generated_Source\PSoC4/Thermocouple.c ****         if (result < 0)
 714              		.loc 1 43 0
 715 02ea C117     		asr	r1, r0, #31
 716 02ec 2B1C     		mov	r3, r5
 717 02ee FFF7FEFF 		bl	__aeabi_lmul
 718              	.LVL34:
  46:.\Generated_Source\PSoC4/Thermocouple.c ****             result = (int32)((uint64)((uint64)result >> Thermocouple_24BIT_SHIFTING));
 719              		.loc 1 46 0
 720 02f2 0023     		mov	r3, #0
 721 02f4 4242     		neg	r2, r0
 722 02f6 8B41     		sbc	r3, r1
  47:.\Generated_Source\PSoC4/Thermocouple.c ****             result = -result;
 723              		.loc 1 47 0
 724 02f8 1B02     		lsl	r3, r3, #8
 725 02fa 160E     		lsr	r6, r2, #24
 726 02fc 1E43     		orr	r6, r3
 727 02fe 321C     		mov	r2, r6
 728 0300 F317     		asr	r3, r6, #31
  48:.\Generated_Source\PSoC4/Thermocouple.c ****         }
 729              		.loc 1 48 0
 730 0302 0027     		mov	r7, #0
 731 0304 5642     		neg	r6, r2
 732 0306 9F41     		sbc	r7, r3
  52:.\Generated_Source\PSoC4/Thermocouple.c ****         }
 733              		.loc 1 52 0
 734 0308 030E     		lsr	r3, r0, #24
 735 030a 0A02     		lsl	r2, r1, #8
 736 030c 1A43     		orr	r2, r3
 737 030e 101C     		mov	r0, r2
 738 0310 0029     		cmp	r1, #0
 739 0312 00DA     		bge	.LCB570
 740 0314 8CE1     		b	.L105	@long jump
 741              	.LCB570:
 742              	.L74:
ARM GAS  C:\Users\faithc\AppData\Local\Temp\cchhuTE1.s 			page 24


 743              	.LBE52:
 744              	.LBE69:
 461:.\Generated_Source\PSoC4/Thermocouple.c ****                        temp), voltage);
 745              		.loc 1 461 0
 746 0316 139B     		ldr	r3, [sp, #76]
 747              	.LBB70:
 748              	.LBB53:
  43:.\Generated_Source\PSoC4/Thermocouple.c ****         if (result < 0)
 749              		.loc 1 43 0
 750 0318 221C     		mov	r2, r4
 751              	.LBE53:
 752              	.LBE70:
 461:.\Generated_Source\PSoC4/Thermocouple.c ****                        temp), voltage);
 753              		.loc 1 461 0
 754 031a 9C46     		mov	ip, r3
 755 031c 6044     		add	r0, r0, ip
 756 031e 0193     		str	r3, [sp, #4]
 757              	.LBB71:
 758              	.LBB54:
  43:.\Generated_Source\PSoC4/Thermocouple.c ****         if (result < 0)
 759              		.loc 1 43 0
 760 0320 C117     		asr	r1, r0, #31
 761 0322 2B1C     		mov	r3, r5
 762 0324 FFF7FEFF 		bl	__aeabi_lmul
 763              	.LVL35:
  46:.\Generated_Source\PSoC4/Thermocouple.c ****             result = (int32)((uint64)((uint64)result >> Thermocouple_24BIT_SHIFTING));
 764              		.loc 1 46 0
 765 0328 0023     		mov	r3, #0
 766 032a 4242     		neg	r2, r0
 767 032c 8B41     		sbc	r3, r1
  47:.\Generated_Source\PSoC4/Thermocouple.c ****             result = -result;
 768              		.loc 1 47 0
 769 032e 1B02     		lsl	r3, r3, #8
 770 0330 160E     		lsr	r6, r2, #24
 771 0332 1E43     		orr	r6, r3
 772 0334 321C     		mov	r2, r6
 773 0336 F317     		asr	r3, r6, #31
  48:.\Generated_Source\PSoC4/Thermocouple.c ****         }
 774              		.loc 1 48 0
 775 0338 0027     		mov	r7, #0
 776 033a 5642     		neg	r6, r2
 777 033c 9F41     		sbc	r7, r3
  52:.\Generated_Source\PSoC4/Thermocouple.c ****         }
 778              		.loc 1 52 0
 779 033e 030E     		lsr	r3, r0, #24
 780 0340 0A02     		lsl	r2, r1, #8
 781 0342 1A43     		orr	r2, r3
 782 0344 101C     		mov	r0, r2
 783 0346 0029     		cmp	r1, #0
 784 0348 00DA     		bge	.LCB602
 785 034a 6FE1     		b	.L106	@long jump
 786              	.LCB602:
 787              	.L77:
 788              	.LBE54:
 789              	.LBE71:
 461:.\Generated_Source\PSoC4/Thermocouple.c ****                        temp), voltage);
 790              		.loc 1 461 0
ARM GAS  C:\Users\faithc\AppData\Local\Temp\cchhuTE1.s 			page 25


 791 034c 109B     		ldr	r3, [sp, #64]
 792              	.LBB72:
 793              	.LBB55:
  43:.\Generated_Source\PSoC4/Thermocouple.c ****         if (result < 0)
 794              		.loc 1 43 0
 795 034e 221C     		mov	r2, r4
 796              	.LBE55:
 797              	.LBE72:
 461:.\Generated_Source\PSoC4/Thermocouple.c ****                        temp), voltage);
 798              		.loc 1 461 0
 799 0350 9C46     		mov	ip, r3
 800 0352 6044     		add	r0, r0, ip
 801 0354 0193     		str	r3, [sp, #4]
 802              	.LBB73:
 803              	.LBB56:
  43:.\Generated_Source\PSoC4/Thermocouple.c ****         if (result < 0)
 804              		.loc 1 43 0
 805 0356 C117     		asr	r1, r0, #31
 806 0358 2B1C     		mov	r3, r5
 807 035a FFF7FEFF 		bl	__aeabi_lmul
 808              	.LVL36:
  46:.\Generated_Source\PSoC4/Thermocouple.c ****             result = (int32)((uint64)((uint64)result >> Thermocouple_24BIT_SHIFTING));
 809              		.loc 1 46 0
 810 035e 0023     		mov	r3, #0
 811 0360 4242     		neg	r2, r0
 812 0362 8B41     		sbc	r3, r1
  47:.\Generated_Source\PSoC4/Thermocouple.c ****             result = -result;
 813              		.loc 1 47 0
 814 0364 1B02     		lsl	r3, r3, #8
 815 0366 160E     		lsr	r6, r2, #24
 816 0368 1E43     		orr	r6, r3
 817 036a 321C     		mov	r2, r6
 818 036c F317     		asr	r3, r6, #31
  48:.\Generated_Source\PSoC4/Thermocouple.c ****         }
 819              		.loc 1 48 0
 820 036e 0027     		mov	r7, #0
 821 0370 5642     		neg	r6, r2
 822 0372 9F41     		sbc	r7, r3
  52:.\Generated_Source\PSoC4/Thermocouple.c ****         }
 823              		.loc 1 52 0
 824 0374 030E     		lsr	r3, r0, #24
 825 0376 0A02     		lsl	r2, r1, #8
 826 0378 1A43     		orr	r2, r3
 827 037a 101C     		mov	r0, r2
 828 037c 0029     		cmp	r1, #0
 829 037e 00DA     		bge	.LCB634
 830 0380 52E1     		b	.L107	@long jump
 831              	.LCB634:
 832              	.L80:
 833              	.LBE56:
 834              	.LBE73:
 461:.\Generated_Source\PSoC4/Thermocouple.c ****                        temp), voltage);
 835              		.loc 1 461 0
 836 0382 0D9B     		ldr	r3, [sp, #52]
 837              	.LBB74:
 838              	.LBB57:
  43:.\Generated_Source\PSoC4/Thermocouple.c ****         if (result < 0)
ARM GAS  C:\Users\faithc\AppData\Local\Temp\cchhuTE1.s 			page 26


 839              		.loc 1 43 0
 840 0384 221C     		mov	r2, r4
 841              	.LBE57:
 842              	.LBE74:
 461:.\Generated_Source\PSoC4/Thermocouple.c ****                        temp), voltage);
 843              		.loc 1 461 0
 844 0386 9C46     		mov	ip, r3
 845 0388 6044     		add	r0, r0, ip
 846 038a 0193     		str	r3, [sp, #4]
 847              	.LBB75:
 848              	.LBB58:
  43:.\Generated_Source\PSoC4/Thermocouple.c ****         if (result < 0)
 849              		.loc 1 43 0
 850 038c C117     		asr	r1, r0, #31
 851 038e 2B1C     		mov	r3, r5
 852 0390 FFF7FEFF 		bl	__aeabi_lmul
 853              	.LVL37:
  46:.\Generated_Source\PSoC4/Thermocouple.c ****             result = (int32)((uint64)((uint64)result >> Thermocouple_24BIT_SHIFTING));
 854              		.loc 1 46 0
 855 0394 0023     		mov	r3, #0
 856 0396 4242     		neg	r2, r0
 857 0398 8B41     		sbc	r3, r1
  47:.\Generated_Source\PSoC4/Thermocouple.c ****             result = -result;
 858              		.loc 1 47 0
 859 039a 1B02     		lsl	r3, r3, #8
 860 039c 160E     		lsr	r6, r2, #24
 861 039e 1E43     		orr	r6, r3
 862 03a0 321C     		mov	r2, r6
 863 03a2 F317     		asr	r3, r6, #31
  48:.\Generated_Source\PSoC4/Thermocouple.c ****         }
 864              		.loc 1 48 0
 865 03a4 0027     		mov	r7, #0
 866 03a6 5642     		neg	r6, r2
 867 03a8 9F41     		sbc	r7, r3
  52:.\Generated_Source\PSoC4/Thermocouple.c ****         }
 868              		.loc 1 52 0
 869 03aa 030E     		lsr	r3, r0, #24
 870 03ac 0A02     		lsl	r2, r1, #8
 871 03ae 1A43     		orr	r2, r3
 872 03b0 101C     		mov	r0, r2
 873 03b2 0029     		cmp	r1, #0
 874 03b4 00DA     		bge	.LCB666
 875 03b6 31E1     		b	.L108	@long jump
 876              	.LCB666:
 877              	.L83:
 878              	.LBE58:
 879              	.LBE75:
 461:.\Generated_Source\PSoC4/Thermocouple.c ****                        temp), voltage);
 880              		.loc 1 461 0
 881 03b8 0A9B     		ldr	r3, [sp, #40]
 882              	.LBB76:
 883              	.LBB59:
  43:.\Generated_Source\PSoC4/Thermocouple.c ****         if (result < 0)
 884              		.loc 1 43 0
 885 03ba 221C     		mov	r2, r4
 886              	.LBE59:
 887              	.LBE76:
ARM GAS  C:\Users\faithc\AppData\Local\Temp\cchhuTE1.s 			page 27


 461:.\Generated_Source\PSoC4/Thermocouple.c ****                        temp), voltage);
 888              		.loc 1 461 0
 889 03bc 9C46     		mov	ip, r3
 890 03be 6044     		add	r0, r0, ip
 891 03c0 0193     		str	r3, [sp, #4]
 892              	.LBB77:
 893              	.LBB60:
  43:.\Generated_Source\PSoC4/Thermocouple.c ****         if (result < 0)
 894              		.loc 1 43 0
 895 03c2 C117     		asr	r1, r0, #31
 896 03c4 2B1C     		mov	r3, r5
 897 03c6 FFF7FEFF 		bl	__aeabi_lmul
 898              	.LVL38:
  46:.\Generated_Source\PSoC4/Thermocouple.c ****             result = (int32)((uint64)((uint64)result >> Thermocouple_24BIT_SHIFTING));
 899              		.loc 1 46 0
 900 03ca 0023     		mov	r3, #0
 901 03cc 4242     		neg	r2, r0
 902 03ce 8B41     		sbc	r3, r1
  47:.\Generated_Source\PSoC4/Thermocouple.c ****             result = -result;
 903              		.loc 1 47 0
 904 03d0 1B02     		lsl	r3, r3, #8
 905 03d2 160E     		lsr	r6, r2, #24
 906 03d4 1E43     		orr	r6, r3
 907 03d6 321C     		mov	r2, r6
 908 03d8 F317     		asr	r3, r6, #31
  48:.\Generated_Source\PSoC4/Thermocouple.c ****         }
 909              		.loc 1 48 0
 910 03da 0027     		mov	r7, #0
 911 03dc 5642     		neg	r6, r2
 912 03de 9F41     		sbc	r7, r3
  52:.\Generated_Source\PSoC4/Thermocouple.c ****         }
 913              		.loc 1 52 0
 914 03e0 030E     		lsr	r3, r0, #24
 915 03e2 0A02     		lsl	r2, r1, #8
 916 03e4 1A43     		orr	r2, r3
 917 03e6 101C     		mov	r0, r2
 918 03e8 0029     		cmp	r1, #0
 919 03ea 00DA     		bge	.LCB698
 920 03ec 14E1     		b	.L109	@long jump
 921              	.LCB698:
 922              	.L86:
 923              	.LBE60:
 924              	.LBE77:
 461:.\Generated_Source\PSoC4/Thermocouple.c ****                        temp), voltage);
 925              		.loc 1 461 0
 926 03ee 079B     		ldr	r3, [sp, #28]
 927              	.LBB78:
 928              	.LBB61:
  43:.\Generated_Source\PSoC4/Thermocouple.c ****         if (result < 0)
 929              		.loc 1 43 0
 930 03f0 221C     		mov	r2, r4
 931              	.LBE61:
 932              	.LBE78:
 461:.\Generated_Source\PSoC4/Thermocouple.c ****                        temp), voltage);
 933              		.loc 1 461 0
 934 03f2 9C46     		mov	ip, r3
 935 03f4 6044     		add	r0, r0, ip
ARM GAS  C:\Users\faithc\AppData\Local\Temp\cchhuTE1.s 			page 28


 936 03f6 0193     		str	r3, [sp, #4]
 937              	.LBB79:
 938              	.LBB62:
  43:.\Generated_Source\PSoC4/Thermocouple.c ****         if (result < 0)
 939              		.loc 1 43 0
 940 03f8 C117     		asr	r1, r0, #31
 941 03fa 2B1C     		mov	r3, r5
 942 03fc FFF7FEFF 		bl	__aeabi_lmul
 943              	.LVL39:
  46:.\Generated_Source\PSoC4/Thermocouple.c ****             result = (int32)((uint64)((uint64)result >> Thermocouple_24BIT_SHIFTING));
 944              		.loc 1 46 0
 945 0400 0023     		mov	r3, #0
 946 0402 4242     		neg	r2, r0
 947 0404 8B41     		sbc	r3, r1
  47:.\Generated_Source\PSoC4/Thermocouple.c ****             result = -result;
 948              		.loc 1 47 0
 949 0406 1B02     		lsl	r3, r3, #8
 950 0408 120E     		lsr	r2, r2, #24
 951 040a 1A43     		orr	r2, r3
 952 040c 161C     		mov	r6, r2
 953 040e D717     		asr	r7, r2, #31
  52:.\Generated_Source\PSoC4/Thermocouple.c ****         }
 954              		.loc 1 52 0
 955 0410 030E     		lsr	r3, r0, #24
 956 0412 0A02     		lsl	r2, r1, #8
  48:.\Generated_Source\PSoC4/Thermocouple.c ****         }
 957              		.loc 1 48 0
 958 0414 0025     		mov	r5, #0
 959 0416 7442     		neg	r4, r6
 960 0418 BD41     		sbc	r5, r7
 961              	.LVL40:
  52:.\Generated_Source\PSoC4/Thermocouple.c ****         }
 962              		.loc 1 52 0
 963 041a 1343     		orr	r3, r2
 964              	.LVL41:
 965 041c 0029     		cmp	r1, #0
 966 041e 06DB     		blt	.L110
 967              	.L89:
 968              	.LBE62:
 969              	.LBE79:
 474:.\Generated_Source\PSoC4/Thermocouple.c ****                         Thermocouple_coeffVT[Thermocouple_FIRST_EL_MAS][Thermocouple_RANGE_MAS_2]) 
 970              		.loc 1 474 0
 971 0420 0498     		ldr	r0, [sp, #16]
 972              	.LVL42:
 973              	.L91:
 974 0422 C318     		add	r3, r0, r3
 975 0424 D817     		asr	r0, r3, #31
 475:.\Generated_Source\PSoC4/Thermocouple.c ****                         Thermocouple_coefScaleVT[Thermocouple_RANGE_MAS_2]));
 976              		.loc 1 475 0
 977 0426 4006     		lsl	r0, r0, #25
 978 0428 DB09     		lsr	r3, r3, #7
 979 042a 1843     		orr	r0, r3
 980              	.LVL43:
 981 042c FEE6     		b	.L35
 982              	.LVL44:
 983              	.L110:
 984 042e 231C     		mov	r3, r4
ARM GAS  C:\Users\faithc\AppData\Local\Temp\cchhuTE1.s 			page 29


 985 0430 F6E7     		b	.L89
 986              	.LVL45:
 987              	.L92:
 988              	.LBB80:
 989              	.LBB81:
  43:.\Generated_Source\PSoC4/Thermocouple.c ****         if (result < 0)
 990              		.loc 1 43 0
 991 0432 1D9B     		ldr	r3, [sp, #116]
 992              	.LBE81:
 993              	.LBE80:
 374:.\Generated_Source\PSoC4/Thermocouple.c ****             }
 994              		.loc 1 374 0
 995 0434 E402     		lsl	r4, r4, #11
 996              	.LVL46:
 997 0436 E517     		asr	r5, r4, #31
 998              	.LVL47:
 999              	.LBB99:
 1000              	.LBB82:
  43:.\Generated_Source\PSoC4/Thermocouple.c ****         if (result < 0)
 1001              		.loc 1 43 0
 1002 0438 0193     		str	r3, [sp, #4]
 1003 043a D917     		asr	r1, r3, #31
 1004 043c 181C     		mov	r0, r3
 1005 043e 221C     		mov	r2, r4
 1006 0440 2B1C     		mov	r3, r5
 1007 0442 FFF7FEFF 		bl	__aeabi_lmul
 1008              	.LVL48:
  46:.\Generated_Source\PSoC4/Thermocouple.c ****             result = (int32)((uint64)((uint64)result >> Thermocouple_24BIT_SHIFTING));
 1009              		.loc 1 46 0
 1010 0446 0023     		mov	r3, #0
 1011 0448 4242     		neg	r2, r0
 1012 044a 8B41     		sbc	r3, r1
  47:.\Generated_Source\PSoC4/Thermocouple.c ****             result = -result;
 1013              		.loc 1 47 0
 1014 044c 1B02     		lsl	r3, r3, #8
 1015 044e 160E     		lsr	r6, r2, #24
 1016 0450 1E43     		orr	r6, r3
 1017 0452 321C     		mov	r2, r6
 1018 0454 F317     		asr	r3, r6, #31
  48:.\Generated_Source\PSoC4/Thermocouple.c ****         }
 1019              		.loc 1 48 0
 1020 0456 0027     		mov	r7, #0
 1021 0458 5642     		neg	r6, r2
 1022 045a 9F41     		sbc	r7, r3
  52:.\Generated_Source\PSoC4/Thermocouple.c ****         }
 1023              		.loc 1 52 0
 1024 045c 030E     		lsr	r3, r0, #24
 1025 045e 0A02     		lsl	r2, r1, #8
 1026 0460 1A43     		orr	r2, r3
 1027 0462 101C     		mov	r0, r2
 1028 0464 0029     		cmp	r1, #0
 1029 0466 00DA     		bge	.LCB795
 1030 0468 07E1     		b	.L111	@long jump
 1031              	.LCB795:
 1032              	.L9:
 1033              	.LBE82:
 1034              	.LBE99:
ARM GAS  C:\Users\faithc\AppData\Local\Temp\cchhuTE1.s 			page 30


 385:.\Generated_Source\PSoC4/Thermocouple.c ****                        temp), voltage);
 1035              		.loc 1 385 0
 1036 046a 1A9B     		ldr	r3, [sp, #104]
 1037              	.LBB100:
 1038              	.LBB83:
  43:.\Generated_Source\PSoC4/Thermocouple.c ****         if (result < 0)
 1039              		.loc 1 43 0
 1040 046c 221C     		mov	r2, r4
 1041              	.LBE83:
 1042              	.LBE100:
 385:.\Generated_Source\PSoC4/Thermocouple.c ****                        temp), voltage);
 1043              		.loc 1 385 0
 1044 046e 9C46     		mov	ip, r3
 1045 0470 6044     		add	r0, r0, ip
 1046 0472 0193     		str	r3, [sp, #4]
 1047              	.LBB101:
 1048              	.LBB84:
  43:.\Generated_Source\PSoC4/Thermocouple.c ****         if (result < 0)
 1049              		.loc 1 43 0
 1050 0474 C117     		asr	r1, r0, #31
 1051 0476 2B1C     		mov	r3, r5
 1052 0478 FFF7FEFF 		bl	__aeabi_lmul
 1053              	.LVL49:
  46:.\Generated_Source\PSoC4/Thermocouple.c ****             result = (int32)((uint64)((uint64)result >> Thermocouple_24BIT_SHIFTING));
 1054              		.loc 1 46 0
 1055 047c 0023     		mov	r3, #0
 1056 047e 4242     		neg	r2, r0
 1057 0480 8B41     		sbc	r3, r1
  47:.\Generated_Source\PSoC4/Thermocouple.c ****             result = -result;
 1058              		.loc 1 47 0
 1059 0482 1B02     		lsl	r3, r3, #8
 1060 0484 160E     		lsr	r6, r2, #24
 1061 0486 1E43     		orr	r6, r3
 1062 0488 321C     		mov	r2, r6
 1063 048a F317     		asr	r3, r6, #31
  48:.\Generated_Source\PSoC4/Thermocouple.c ****         }
 1064              		.loc 1 48 0
 1065 048c 0027     		mov	r7, #0
 1066 048e 5642     		neg	r6, r2
 1067 0490 9F41     		sbc	r7, r3
  52:.\Generated_Source\PSoC4/Thermocouple.c ****         }
 1068              		.loc 1 52 0
 1069 0492 030E     		lsr	r3, r0, #24
 1070 0494 0A02     		lsl	r2, r1, #8
 1071 0496 1A43     		orr	r2, r3
 1072 0498 101C     		mov	r0, r2
 1073 049a 0029     		cmp	r1, #0
 1074 049c 00DA     		bge	.LCB827
 1075 049e EAE0     		b	.L112	@long jump
 1076              	.LCB827:
 1077              	.L12:
 1078              	.LBE84:
 1079              	.LBE101:
 385:.\Generated_Source\PSoC4/Thermocouple.c ****                        temp), voltage);
 1080              		.loc 1 385 0
 1081 04a0 179B     		ldr	r3, [sp, #92]
 1082              	.LBB102:
ARM GAS  C:\Users\faithc\AppData\Local\Temp\cchhuTE1.s 			page 31


 1083              	.LBB85:
  43:.\Generated_Source\PSoC4/Thermocouple.c ****         if (result < 0)
 1084              		.loc 1 43 0
 1085 04a2 221C     		mov	r2, r4
 1086              	.LBE85:
 1087              	.LBE102:
 385:.\Generated_Source\PSoC4/Thermocouple.c ****                        temp), voltage);
 1088              		.loc 1 385 0
 1089 04a4 9C46     		mov	ip, r3
 1090 04a6 6044     		add	r0, r0, ip
 1091 04a8 0193     		str	r3, [sp, #4]
 1092              	.LBB103:
 1093              	.LBB86:
  43:.\Generated_Source\PSoC4/Thermocouple.c ****         if (result < 0)
 1094              		.loc 1 43 0
 1095 04aa C117     		asr	r1, r0, #31
 1096 04ac 2B1C     		mov	r3, r5
 1097 04ae FFF7FEFF 		bl	__aeabi_lmul
 1098              	.LVL50:
  46:.\Generated_Source\PSoC4/Thermocouple.c ****             result = (int32)((uint64)((uint64)result >> Thermocouple_24BIT_SHIFTING));
 1099              		.loc 1 46 0
 1100 04b2 0023     		mov	r3, #0
 1101 04b4 4242     		neg	r2, r0
 1102 04b6 8B41     		sbc	r3, r1
  47:.\Generated_Source\PSoC4/Thermocouple.c ****             result = -result;
 1103              		.loc 1 47 0
 1104 04b8 1B02     		lsl	r3, r3, #8
 1105 04ba 160E     		lsr	r6, r2, #24
 1106 04bc 1E43     		orr	r6, r3
 1107 04be 321C     		mov	r2, r6
 1108 04c0 F317     		asr	r3, r6, #31
  48:.\Generated_Source\PSoC4/Thermocouple.c ****         }
 1109              		.loc 1 48 0
 1110 04c2 0027     		mov	r7, #0
 1111 04c4 5642     		neg	r6, r2
 1112 04c6 9F41     		sbc	r7, r3
  52:.\Generated_Source\PSoC4/Thermocouple.c ****         }
 1113              		.loc 1 52 0
 1114 04c8 030E     		lsr	r3, r0, #24
 1115 04ca 0A02     		lsl	r2, r1, #8
 1116 04cc 1A43     		orr	r2, r3
 1117 04ce 101C     		mov	r0, r2
 1118 04d0 0029     		cmp	r1, #0
 1119 04d2 00DA     		bge	.LCB859
 1120 04d4 CDE0     		b	.L113	@long jump
 1121              	.LCB859:
 1122              	.L15:
 1123              	.LBE86:
 1124              	.LBE103:
 385:.\Generated_Source\PSoC4/Thermocouple.c ****                        temp), voltage);
 1125              		.loc 1 385 0
 1126 04d6 149B     		ldr	r3, [sp, #80]
 1127              	.LBB104:
 1128              	.LBB87:
  43:.\Generated_Source\PSoC4/Thermocouple.c ****         if (result < 0)
 1129              		.loc 1 43 0
 1130 04d8 221C     		mov	r2, r4
ARM GAS  C:\Users\faithc\AppData\Local\Temp\cchhuTE1.s 			page 32


 1131              	.LBE87:
 1132              	.LBE104:
 385:.\Generated_Source\PSoC4/Thermocouple.c ****                        temp), voltage);
 1133              		.loc 1 385 0
 1134 04da 9C46     		mov	ip, r3
 1135 04dc 6044     		add	r0, r0, ip
 1136 04de 0193     		str	r3, [sp, #4]
 1137              	.LBB105:
 1138              	.LBB88:
  43:.\Generated_Source\PSoC4/Thermocouple.c ****         if (result < 0)
 1139              		.loc 1 43 0
 1140 04e0 C117     		asr	r1, r0, #31
 1141 04e2 2B1C     		mov	r3, r5
 1142 04e4 FFF7FEFF 		bl	__aeabi_lmul
 1143              	.LVL51:
  46:.\Generated_Source\PSoC4/Thermocouple.c ****             result = (int32)((uint64)((uint64)result >> Thermocouple_24BIT_SHIFTING));
 1144              		.loc 1 46 0
 1145 04e8 0023     		mov	r3, #0
 1146 04ea 4242     		neg	r2, r0
 1147 04ec 8B41     		sbc	r3, r1
  47:.\Generated_Source\PSoC4/Thermocouple.c ****             result = -result;
 1148              		.loc 1 47 0
 1149 04ee 1B02     		lsl	r3, r3, #8
 1150 04f0 160E     		lsr	r6, r2, #24
 1151 04f2 1E43     		orr	r6, r3
 1152 04f4 321C     		mov	r2, r6
 1153 04f6 F317     		asr	r3, r6, #31
  48:.\Generated_Source\PSoC4/Thermocouple.c ****         }
 1154              		.loc 1 48 0
 1155 04f8 0027     		mov	r7, #0
 1156 04fa 5642     		neg	r6, r2
 1157 04fc 9F41     		sbc	r7, r3
  52:.\Generated_Source\PSoC4/Thermocouple.c ****         }
 1158              		.loc 1 52 0
 1159 04fe 030E     		lsr	r3, r0, #24
 1160 0500 0A02     		lsl	r2, r1, #8
 1161 0502 1A43     		orr	r2, r3
 1162 0504 101C     		mov	r0, r2
 1163 0506 0029     		cmp	r1, #0
 1164 0508 00DA     		bge	.LCB891
 1165 050a B0E0     		b	.L114	@long jump
 1166              	.LCB891:
 1167              	.L18:
 1168              	.LBE88:
 1169              	.LBE105:
 385:.\Generated_Source\PSoC4/Thermocouple.c ****                        temp), voltage);
 1170              		.loc 1 385 0
 1171 050c 119B     		ldr	r3, [sp, #68]
 1172              	.LBB106:
 1173              	.LBB89:
  43:.\Generated_Source\PSoC4/Thermocouple.c ****         if (result < 0)
 1174              		.loc 1 43 0
 1175 050e 221C     		mov	r2, r4
 1176              	.LBE89:
 1177              	.LBE106:
 385:.\Generated_Source\PSoC4/Thermocouple.c ****                        temp), voltage);
 1178              		.loc 1 385 0
ARM GAS  C:\Users\faithc\AppData\Local\Temp\cchhuTE1.s 			page 33


 1179 0510 9C46     		mov	ip, r3
 1180 0512 6044     		add	r0, r0, ip
 1181 0514 0193     		str	r3, [sp, #4]
 1182              	.LBB107:
 1183              	.LBB90:
  43:.\Generated_Source\PSoC4/Thermocouple.c ****         if (result < 0)
 1184              		.loc 1 43 0
 1185 0516 C117     		asr	r1, r0, #31
 1186 0518 2B1C     		mov	r3, r5
 1187 051a FFF7FEFF 		bl	__aeabi_lmul
 1188              	.LVL52:
  46:.\Generated_Source\PSoC4/Thermocouple.c ****             result = (int32)((uint64)((uint64)result >> Thermocouple_24BIT_SHIFTING));
 1189              		.loc 1 46 0
 1190 051e 0023     		mov	r3, #0
 1191 0520 4242     		neg	r2, r0
 1192 0522 8B41     		sbc	r3, r1
  47:.\Generated_Source\PSoC4/Thermocouple.c ****             result = -result;
 1193              		.loc 1 47 0
 1194 0524 1B02     		lsl	r3, r3, #8
 1195 0526 160E     		lsr	r6, r2, #24
 1196 0528 1E43     		orr	r6, r3
 1197 052a 321C     		mov	r2, r6
 1198 052c F317     		asr	r3, r6, #31
  48:.\Generated_Source\PSoC4/Thermocouple.c ****         }
 1199              		.loc 1 48 0
 1200 052e 0027     		mov	r7, #0
 1201 0530 5642     		neg	r6, r2
 1202 0532 9F41     		sbc	r7, r3
  52:.\Generated_Source\PSoC4/Thermocouple.c ****         }
 1203              		.loc 1 52 0
 1204 0534 030E     		lsr	r3, r0, #24
 1205 0536 0A02     		lsl	r2, r1, #8
 1206 0538 1A43     		orr	r2, r3
 1207 053a 101C     		mov	r0, r2
 1208 053c 0029     		cmp	r1, #0
 1209 053e 00DA     		bge	.LCB923
 1210 0540 93E0     		b	.L115	@long jump
 1211              	.LCB923:
 1212              	.L21:
 1213              	.LBE90:
 1214              	.LBE107:
 385:.\Generated_Source\PSoC4/Thermocouple.c ****                        temp), voltage);
 1215              		.loc 1 385 0
 1216 0542 0E9B     		ldr	r3, [sp, #56]
 1217              	.LBB108:
 1218              	.LBB91:
  43:.\Generated_Source\PSoC4/Thermocouple.c ****         if (result < 0)
 1219              		.loc 1 43 0
 1220 0544 221C     		mov	r2, r4
 1221              	.LBE91:
 1222              	.LBE108:
 385:.\Generated_Source\PSoC4/Thermocouple.c ****                        temp), voltage);
 1223              		.loc 1 385 0
 1224 0546 9C46     		mov	ip, r3
 1225 0548 6044     		add	r0, r0, ip
 1226 054a 0193     		str	r3, [sp, #4]
 1227              	.LBB109:
ARM GAS  C:\Users\faithc\AppData\Local\Temp\cchhuTE1.s 			page 34


 1228              	.LBB92:
  43:.\Generated_Source\PSoC4/Thermocouple.c ****         if (result < 0)
 1229              		.loc 1 43 0
 1230 054c C117     		asr	r1, r0, #31
 1231 054e 2B1C     		mov	r3, r5
 1232 0550 FFF7FEFF 		bl	__aeabi_lmul
 1233              	.LVL53:
  46:.\Generated_Source\PSoC4/Thermocouple.c ****             result = (int32)((uint64)((uint64)result >> Thermocouple_24BIT_SHIFTING));
 1234              		.loc 1 46 0
 1235 0554 0023     		mov	r3, #0
 1236 0556 4242     		neg	r2, r0
 1237 0558 8B41     		sbc	r3, r1
  47:.\Generated_Source\PSoC4/Thermocouple.c ****             result = -result;
 1238              		.loc 1 47 0
 1239 055a 1B02     		lsl	r3, r3, #8
 1240 055c 160E     		lsr	r6, r2, #24
 1241 055e 1E43     		orr	r6, r3
 1242 0560 321C     		mov	r2, r6
 1243 0562 F317     		asr	r3, r6, #31
  48:.\Generated_Source\PSoC4/Thermocouple.c ****         }
 1244              		.loc 1 48 0
 1245 0564 0027     		mov	r7, #0
 1246 0566 5642     		neg	r6, r2
 1247 0568 9F41     		sbc	r7, r3
  52:.\Generated_Source\PSoC4/Thermocouple.c ****         }
 1248              		.loc 1 52 0
 1249 056a 030E     		lsr	r3, r0, #24
 1250 056c 0A02     		lsl	r2, r1, #8
 1251 056e 1A43     		orr	r2, r3
 1252 0570 101C     		mov	r0, r2
 1253 0572 0029     		cmp	r1, #0
 1254 0574 77DB     		blt	.L116
 1255              	.L24:
 1256              	.LBE92:
 1257              	.LBE109:
 385:.\Generated_Source\PSoC4/Thermocouple.c ****                        temp), voltage);
 1258              		.loc 1 385 0
 1259 0576 0B9B     		ldr	r3, [sp, #44]
 1260              	.LBB110:
 1261              	.LBB93:
  43:.\Generated_Source\PSoC4/Thermocouple.c ****         if (result < 0)
 1262              		.loc 1 43 0
 1263 0578 221C     		mov	r2, r4
 1264              	.LBE93:
 1265              	.LBE110:
 385:.\Generated_Source\PSoC4/Thermocouple.c ****                        temp), voltage);
 1266              		.loc 1 385 0
 1267 057a 9C46     		mov	ip, r3
 1268 057c 6044     		add	r0, r0, ip
 1269 057e 0193     		str	r3, [sp, #4]
 1270              	.LBB111:
 1271              	.LBB94:
  43:.\Generated_Source\PSoC4/Thermocouple.c ****         if (result < 0)
 1272              		.loc 1 43 0
 1273 0580 C117     		asr	r1, r0, #31
 1274 0582 2B1C     		mov	r3, r5
 1275 0584 FFF7FEFF 		bl	__aeabi_lmul
ARM GAS  C:\Users\faithc\AppData\Local\Temp\cchhuTE1.s 			page 35


 1276              	.LVL54:
  46:.\Generated_Source\PSoC4/Thermocouple.c ****             result = (int32)((uint64)((uint64)result >> Thermocouple_24BIT_SHIFTING));
 1277              		.loc 1 46 0
 1278 0588 0023     		mov	r3, #0
 1279 058a 4242     		neg	r2, r0
 1280 058c 8B41     		sbc	r3, r1
  47:.\Generated_Source\PSoC4/Thermocouple.c ****             result = -result;
 1281              		.loc 1 47 0
 1282 058e 1B02     		lsl	r3, r3, #8
 1283 0590 160E     		lsr	r6, r2, #24
 1284 0592 1E43     		orr	r6, r3
 1285 0594 321C     		mov	r2, r6
 1286 0596 F317     		asr	r3, r6, #31
  48:.\Generated_Source\PSoC4/Thermocouple.c ****         }
 1287              		.loc 1 48 0
 1288 0598 0027     		mov	r7, #0
 1289 059a 5642     		neg	r6, r2
 1290 059c 9F41     		sbc	r7, r3
  52:.\Generated_Source\PSoC4/Thermocouple.c ****         }
 1291              		.loc 1 52 0
 1292 059e 030E     		lsr	r3, r0, #24
 1293 05a0 0A02     		lsl	r2, r1, #8
 1294 05a2 1A43     		orr	r2, r3
 1295 05a4 101C     		mov	r0, r2
 1296 05a6 0029     		cmp	r1, #0
 1297 05a8 5BDB     		blt	.L117
 1298              	.L27:
 1299              	.LBE94:
 1300              	.LBE111:
 385:.\Generated_Source\PSoC4/Thermocouple.c ****                        temp), voltage);
 1301              		.loc 1 385 0
 1302 05aa 089B     		ldr	r3, [sp, #32]
 1303              	.LBB112:
 1304              	.LBB95:
  43:.\Generated_Source\PSoC4/Thermocouple.c ****         if (result < 0)
 1305              		.loc 1 43 0
 1306 05ac 221C     		mov	r2, r4
 1307              	.LBE95:
 1308              	.LBE112:
 385:.\Generated_Source\PSoC4/Thermocouple.c ****                        temp), voltage);
 1309              		.loc 1 385 0
 1310 05ae 9C46     		mov	ip, r3
 1311 05b0 6044     		add	r0, r0, ip
 1312 05b2 0193     		str	r3, [sp, #4]
 1313              	.LBB113:
 1314              	.LBB96:
  43:.\Generated_Source\PSoC4/Thermocouple.c ****         if (result < 0)
 1315              		.loc 1 43 0
 1316 05b4 C117     		asr	r1, r0, #31
 1317 05b6 2B1C     		mov	r3, r5
 1318 05b8 FFF7FEFF 		bl	__aeabi_lmul
 1319              	.LVL55:
  46:.\Generated_Source\PSoC4/Thermocouple.c ****             result = (int32)((uint64)((uint64)result >> Thermocouple_24BIT_SHIFTING));
 1320              		.loc 1 46 0
 1321 05bc 0023     		mov	r3, #0
 1322 05be 4242     		neg	r2, r0
 1323 05c0 8B41     		sbc	r3, r1
ARM GAS  C:\Users\faithc\AppData\Local\Temp\cchhuTE1.s 			page 36


  47:.\Generated_Source\PSoC4/Thermocouple.c ****             result = -result;
 1324              		.loc 1 47 0
 1325 05c2 1B02     		lsl	r3, r3, #8
 1326 05c4 160E     		lsr	r6, r2, #24
 1327 05c6 1E43     		orr	r6, r3
 1328 05c8 321C     		mov	r2, r6
 1329 05ca F317     		asr	r3, r6, #31
  48:.\Generated_Source\PSoC4/Thermocouple.c ****         }
 1330              		.loc 1 48 0
 1331 05cc 0027     		mov	r7, #0
 1332 05ce 5642     		neg	r6, r2
 1333 05d0 9F41     		sbc	r7, r3
  52:.\Generated_Source\PSoC4/Thermocouple.c ****         }
 1334              		.loc 1 52 0
 1335 05d2 030E     		lsr	r3, r0, #24
 1336 05d4 0A02     		lsl	r2, r1, #8
 1337 05d6 1A43     		orr	r2, r3
 1338 05d8 101C     		mov	r0, r2
 1339 05da 0029     		cmp	r1, #0
 1340 05dc 3FDB     		blt	.L118
 1341              	.L30:
 1342              	.LBE96:
 1343              	.LBE113:
 385:.\Generated_Source\PSoC4/Thermocouple.c ****                        temp), voltage);
 1344              		.loc 1 385 0
 1345 05de 059B     		ldr	r3, [sp, #20]
 1346              	.LBB114:
 1347              	.LBB97:
  43:.\Generated_Source\PSoC4/Thermocouple.c ****         if (result < 0)
 1348              		.loc 1 43 0
 1349 05e0 221C     		mov	r2, r4
 1350              	.LBE97:
 1351              	.LBE114:
 385:.\Generated_Source\PSoC4/Thermocouple.c ****                        temp), voltage);
 1352              		.loc 1 385 0
 1353 05e2 9C46     		mov	ip, r3
 1354 05e4 6044     		add	r0, r0, ip
 1355 05e6 0193     		str	r3, [sp, #4]
 1356              	.LBB115:
 1357              	.LBB98:
  43:.\Generated_Source\PSoC4/Thermocouple.c ****         if (result < 0)
 1358              		.loc 1 43 0
 1359 05e8 C117     		asr	r1, r0, #31
 1360 05ea 2B1C     		mov	r3, r5
 1361 05ec FFF7FEFF 		bl	__aeabi_lmul
 1362              	.LVL56:
  46:.\Generated_Source\PSoC4/Thermocouple.c ****             result = (int32)((uint64)((uint64)result >> Thermocouple_24BIT_SHIFTING));
 1363              		.loc 1 46 0
 1364 05f0 0023     		mov	r3, #0
 1365 05f2 4242     		neg	r2, r0
 1366 05f4 8B41     		sbc	r3, r1
  47:.\Generated_Source\PSoC4/Thermocouple.c ****             result = -result;
 1367              		.loc 1 47 0
 1368 05f6 1B02     		lsl	r3, r3, #8
 1369 05f8 120E     		lsr	r2, r2, #24
 1370 05fa 1A43     		orr	r2, r3
 1371 05fc 161C     		mov	r6, r2
ARM GAS  C:\Users\faithc\AppData\Local\Temp\cchhuTE1.s 			page 37


 1372 05fe D717     		asr	r7, r2, #31
  52:.\Generated_Source\PSoC4/Thermocouple.c ****         }
 1373              		.loc 1 52 0
 1374 0600 030E     		lsr	r3, r0, #24
 1375 0602 0A02     		lsl	r2, r1, #8
  48:.\Generated_Source\PSoC4/Thermocouple.c ****         }
 1376              		.loc 1 48 0
 1377 0604 0025     		mov	r5, #0
 1378 0606 7442     		neg	r4, r6
 1379 0608 BD41     		sbc	r5, r7
 1380              	.LVL57:
  52:.\Generated_Source\PSoC4/Thermocouple.c ****         }
 1381              		.loc 1 52 0
 1382 060a 1343     		orr	r3, r2
 1383              	.LVL58:
 1384 060c 0029     		cmp	r1, #0
 1385 060e 23DB     		blt	.L119
 1386              	.LBE98:
 1387              	.LBE115:
 398:.\Generated_Source\PSoC4/Thermocouple.c ****                         Thermocouple_coeffVT[Thermocouple_FIRST_EL_MAS][Thermocouple_RANGE_MAS_0]) 
 1388              		.loc 1 398 0
 1389 0610 0298     		ldr	r0, [sp, #8]
 1390 0612 06E7     		b	.L91
 1391              	.LVL59:
 1392              	.L101:
 1393 0614 231C     		mov	r3, r4
 1394 0616 03E6     		b	.L62
 1395              	.LVL60:
 1396              	.L109:
 1397 0618 301C     		mov	r0, r6
 1398 061a E8E6     		b	.L86
 1399              	.L108:
 1400 061c 301C     		mov	r0, r6
 1401 061e CBE6     		b	.L83
 1402              	.L103:
 1403 0620 301C     		mov	r0, r6
 1404 0622 42E6     		b	.L68
 1405              	.L102:
 1406 0624 301C     		mov	r0, r6
 1407 0626 25E6     		b	.L65
 1408              	.L107:
 1409 0628 301C     		mov	r0, r6
 1410 062a AAE6     		b	.L80
 1411              	.L106:
 1412 062c 301C     		mov	r0, r6
 1413 062e 8DE6     		b	.L77
 1414              	.L105:
 1415 0630 301C     		mov	r0, r6
 1416 0632 70E6     		b	.L74
 1417              	.L104:
 1418 0634 301C     		mov	r0, r6
 1419 0636 53E6     		b	.L71
 1420              	.LVL61:
 1421              	.L100:
 1422 0638 301C     		mov	r0, r6
 1423 063a D7E5     		b	.L59
 1424              	.L99:
ARM GAS  C:\Users\faithc\AppData\Local\Temp\cchhuTE1.s 			page 38


 1425 063c 301C     		mov	r0, r6
 1426 063e B9E5     		b	.L56
 1427              	.L98:
 1428 0640 301C     		mov	r0, r6
 1429 0642 9BE5     		b	.L53
 1430              	.L97:
 1431 0644 301C     		mov	r0, r6
 1432 0646 7DE5     		b	.L50
 1433              	.L96:
 1434 0648 301C     		mov	r0, r6
 1435 064a 5FE5     		b	.L47
 1436              	.L95:
 1437 064c 301C     		mov	r0, r6
 1438 064e 41E5     		b	.L44
 1439              	.L94:
 1440 0650 301C     		mov	r0, r6
 1441 0652 23E5     		b	.L41
 1442              	.L93:
 1443 0654 301C     		mov	r0, r6
 1444 0656 05E5     		b	.L38
 1445              	.LVL62:
 1446              	.L119:
 1447 0658 231C     		mov	r3, r4
 1448 065a 0298     		ldr	r0, [sp, #8]
 1449 065c E1E6     		b	.L91
 1450              	.LVL63:
 1451              	.L118:
 1452 065e 301C     		mov	r0, r6
 1453 0660 BDE7     		b	.L30
 1454              	.L117:
 1455 0662 301C     		mov	r0, r6
 1456 0664 A1E7     		b	.L27
 1457              	.L116:
 1458 0666 301C     		mov	r0, r6
 1459 0668 85E7     		b	.L24
 1460              	.L115:
 1461 066a 301C     		mov	r0, r6
 1462 066c 69E7     		b	.L21
 1463              	.L114:
 1464 066e 301C     		mov	r0, r6
 1465 0670 4CE7     		b	.L18
 1466              	.L113:
 1467 0672 301C     		mov	r0, r6
 1468 0674 2FE7     		b	.L15
 1469              	.L112:
 1470 0676 301C     		mov	r0, r6
 1471 0678 12E7     		b	.L12
 1472              	.L111:
 1473 067a 301C     		mov	r0, r6
 1474 067c F5E6     		b	.L9
 1475              		.cfi_endproc
 1476              	.LFE1:
 1477              		.size	Thermocouple_GetTemperature, .-Thermocouple_GetTemperature
 1478 067e C046     		.section	.text.Thermocouple_GetVoltage,"ax",%progbits
 1479              		.align	2
 1480              		.global	Thermocouple_GetVoltage
 1481              		.code	16
ARM GAS  C:\Users\faithc\AppData\Local\Temp\cchhuTE1.s 			page 39


 1482              		.thumb_func
 1483              		.type	Thermocouple_GetVoltage, %function
 1484              	Thermocouple_GetVoltage:
 1485              	.LFB2:
 485:.\Generated_Source\PSoC4/Thermocouple.c **** #endif /* End CY_PSOC3 */
 486:.\Generated_Source\PSoC4/Thermocouple.c **** 
 487:.\Generated_Source\PSoC4/Thermocouple.c **** 
 488:.\Generated_Source\PSoC4/Thermocouple.c **** /*******************************************************************************
 489:.\Generated_Source\PSoC4/Thermocouple.c **** * Function Name: Thermocouple_GetVoltage
 490:.\Generated_Source\PSoC4/Thermocouple.c **** ********************************************************************************
 491:.\Generated_Source\PSoC4/Thermocouple.c **** *
 492:.\Generated_Source\PSoC4/Thermocouple.c **** * Summary:
 493:.\Generated_Source\PSoC4/Thermocouple.c **** *  This function takes the temperature as input and provides the expected
 494:.\Generated_Source\PSoC4/Thermocouple.c **** *  voltage for that temperature.
 495:.\Generated_Source\PSoC4/Thermocouple.c **** *
 496:.\Generated_Source\PSoC4/Thermocouple.c **** * Parameters:
 497:.\Generated_Source\PSoC4/Thermocouple.c **** *  int32 temperature : Temperature of the cold junction in 1/100 degree C
 498:.\Generated_Source\PSoC4/Thermocouple.c **** *
 499:.\Generated_Source\PSoC4/Thermocouple.c **** * Return:
 500:.\Generated_Source\PSoC4/Thermocouple.c **** *  int32 : Expected voltage output of the thermocouple in microvolts
 501:.\Generated_Source\PSoC4/Thermocouple.c **** *
 502:.\Generated_Source\PSoC4/Thermocouple.c **** *******************************************************************************/
 503:.\Generated_Source\PSoC4/Thermocouple.c **** int32 Thermocouple_GetVoltage(int32 temperature) 
 504:.\Generated_Source\PSoC4/Thermocouple.c **** 
 505:.\Generated_Source\PSoC4/Thermocouple.c **** #if (CY_PSOC3)
 506:.\Generated_Source\PSoC4/Thermocouple.c **** {
 507:.\Generated_Source\PSoC4/Thermocouple.c **** 
 508:.\Generated_Source\PSoC4/Thermocouple.c ****     /***************************************
 509:.\Generated_Source\PSoC4/Thermocouple.c ****     *  Customizer Generated Coefficients
 510:.\Generated_Source\PSoC4/Thermocouple.c ****     ***************************************/
 511:.\Generated_Source\PSoC4/Thermocouple.c ****     const int32 CYCODE Thermocouple_coeffTV[9] = {0, 
 512:.\Generated_Source\PSoC4/Thermocouple.c ****                                               413735, 
 513:.\Generated_Source\PSoC4/Thermocouple.c ****                                               83372, 
 514:.\Generated_Source\PSoC4/Thermocouple.c ****                                               -137607, 
 515:.\Generated_Source\PSoC4/Thermocouple.c ****                                               1089544, 
 516:.\Generated_Source\PSoC4/Thermocouple.c ****                                               -9978037, 
 517:.\Generated_Source\PSoC4/Thermocouple.c ****                                               43567176, 
 518:.\Generated_Source\PSoC4/Thermocouple.c ****                                               -95708775, 
 519:.\Generated_Source\PSoC4/Thermocouple.c ****                                               84037362};
 520:.\Generated_Source\PSoC4/Thermocouple.c **** 
 521:.\Generated_Source\PSoC4/Thermocouple.c ****     /* Variable to store calculated voltage */
 522:.\Generated_Source\PSoC4/Thermocouple.c ****     uint8 i=0u;
 523:.\Generated_Source\PSoC4/Thermocouple.c ****     float32 voltage=0.0f;
 524:.\Generated_Source\PSoC4/Thermocouple.c ****     float32 temperatureNorm=0.0f;
 525:.\Generated_Source\PSoC4/Thermocouple.c **** 
 526:.\Generated_Source\PSoC4/Thermocouple.c ****     temperatureNorm  = (float32)temperature;
 527:.\Generated_Source\PSoC4/Thermocouple.c **** 
 528:.\Generated_Source\PSoC4/Thermocouple.c ****     for (i = Thermocouple_ORDER_TV - 1u; i > 0u; i--)
 529:.\Generated_Source\PSoC4/Thermocouple.c ****     {
 530:.\Generated_Source\PSoC4/Thermocouple.c ****         voltage = (Thermocouple_coeffTV[i] + voltage) * temperatureNorm;
 531:.\Generated_Source\PSoC4/Thermocouple.c ****     }
 532:.\Generated_Source\PSoC4/Thermocouple.c ****     voltage = (voltage + Thermocouple_coeffTV[Thermocouple_FIRST_EL_MAS]);
 533:.\Generated_Source\PSoC4/Thermocouple.c **** 
 534:.\Generated_Source\PSoC4/Thermocouple.c ****     return ((int32) (voltage));
 535:.\Generated_Source\PSoC4/Thermocouple.c **** }
 536:.\Generated_Source\PSoC4/Thermocouple.c **** #else
 537:.\Generated_Source\PSoC4/Thermocouple.c **** {
ARM GAS  C:\Users\faithc\AppData\Local\Temp\cchhuTE1.s 			page 40


 1486              		.loc 1 537 0
 1487              		.cfi_startproc
 1488              	.LVL64:
 1489 0000 F0B5     		push	{r4, r5, r6, r7, lr}
 1490              		.cfi_def_cfa_offset 20
 1491              		.cfi_offset 4, -20
 1492              		.cfi_offset 5, -16
 1493              		.cfi_offset 6, -12
 1494              		.cfi_offset 7, -8
 1495              		.cfi_offset 14, -4
 1496 0002 4746     		mov	r7, r8
 1497 0004 80B4     		push	{r7}
 1498              		.cfi_def_cfa_offset 24
 1499              		.cfi_offset 8, -24
 1500 0006 8CB0     		sub	sp, sp, #48
 1501              		.cfi_def_cfa_offset 72
 538:.\Generated_Source\PSoC4/Thermocouple.c **** 
 539:.\Generated_Source\PSoC4/Thermocouple.c ****     /***************************************
 540:.\Generated_Source\PSoC4/Thermocouple.c ****     *  Customizer Generated Coefficients
 541:.\Generated_Source\PSoC4/Thermocouple.c ****     ***************************************/
 542:.\Generated_Source\PSoC4/Thermocouple.c ****     const int32 CYCODE Thermocouple_coeffTV[9] = {0, 
 1502              		.loc 1 542 0
 1503 0008 03AE     		add	r6, sp, #12
 1504 000a 321C     		mov	r2, r6
 1505 000c 944B     		ldr	r3, .L157
 543:.\Generated_Source\PSoC4/Thermocouple.c ****                                               413735, 
 544:.\Generated_Source\PSoC4/Thermocouple.c ****                                               83372, 
 545:.\Generated_Source\PSoC4/Thermocouple.c ****                                               -137607, 
 546:.\Generated_Source\PSoC4/Thermocouple.c ****                                               1089544, 
 547:.\Generated_Source\PSoC4/Thermocouple.c ****                                               -9978037, 
 548:.\Generated_Source\PSoC4/Thermocouple.c ****                                               43567176, 
 549:.\Generated_Source\PSoC4/Thermocouple.c ****                                               -95708775, 
 550:.\Generated_Source\PSoC4/Thermocouple.c ****                                               84037362};
 551:.\Generated_Source\PSoC4/Thermocouple.c **** 
 552:.\Generated_Source\PSoC4/Thermocouple.c ****     /* Variable to store calculated voltage */
 553:.\Generated_Source\PSoC4/Thermocouple.c ****     uint8 i=0u;
 554:.\Generated_Source\PSoC4/Thermocouple.c ****     int32 voltage=0;
 555:.\Generated_Source\PSoC4/Thermocouple.c **** 
 556:.\Generated_Source\PSoC4/Thermocouple.c ****     if (temperature < 0)
 557:.\Generated_Source\PSoC4/Thermocouple.c ****     {
 558:.\Generated_Source\PSoC4/Thermocouple.c ****         temperature = -temperature;
 559:.\Generated_Source\PSoC4/Thermocouple.c ****         temperature = (int32)((uint64)((uint64)temperature << 
 560:.\Generated_Source\PSoC4/Thermocouple.c ****                                        (Thermocouple_IN_NORMALIZATION_TV - Thermocouple_X_SCALE_TV)
 561:.\Generated_Source\PSoC4/Thermocouple.c ****         temperature = -temperature;
 562:.\Generated_Source\PSoC4/Thermocouple.c ****     }
 563:.\Generated_Source\PSoC4/Thermocouple.c ****     else
 564:.\Generated_Source\PSoC4/Thermocouple.c ****     {
 565:.\Generated_Source\PSoC4/Thermocouple.c ****         temperature = (int32)((uint64)((uint64)temperature << 
 1506              		.loc 1 565 0
 1507 000e 4702     		lsl	r7, r0, #9
 542:.\Generated_Source\PSoC4/Thermocouple.c ****                                               413735, 
 1508              		.loc 1 542 0
 1509 0010 7833     		add	r3, r3, #120
 1510 0012 32CB     		ldmia	r3!, {r1, r4, r5}
 1511 0014 32C2     		stmia	r2!, {r1, r4, r5}
 1512 0016 32CB     		ldmia	r3!, {r1, r4, r5}
 1513 0018 32C2     		stmia	r2!, {r1, r4, r5}
ARM GAS  C:\Users\faithc\AppData\Local\Temp\cchhuTE1.s 			page 41


 1514 001a 32CB     		ldmia	r3!, {r1, r4, r5}
 1515 001c 32C2     		stmia	r2!, {r1, r4, r5}
 1516              	.LVL65:
 1517 001e FB17     		asr	r3, r7, #31
 1518 0020 9846     		mov	r8, r3
 1519              	.LVL66:
 1520              	.LBB116:
 1521              	.LBB117:
  43:.\Generated_Source\PSoC4/Thermocouple.c ****         if (result < 0)
 1522              		.loc 1 43 0
 1523 0022 336A     		ldr	r3, [r6, #32]
 1524 0024 3A1C     		mov	r2, r7
 1525 0026 D917     		asr	r1, r3, #31
 1526 0028 181C     		mov	r0, r3
 1527 002a 4346     		mov	r3, r8
 1528 002c FFF7FEFF 		bl	__aeabi_lmul
 1529              	.LVL67:
  46:.\Generated_Source\PSoC4/Thermocouple.c ****             result = (int32)((uint64)((uint64)result >> Thermocouple_24BIT_SHIFTING));
 1530              		.loc 1 46 0
 1531 0030 031C     		mov	r3, r0
 1532 0032 0C1C     		mov	r4, r1
 1533 0034 0090     		str	r0, [sp]
 1534 0036 0191     		str	r1, [sp, #4]
 1535 0038 0022     		mov	r2, #0
 1536 003a 5942     		neg	r1, r3
 1537 003c A241     		sbc	r2, r4
  47:.\Generated_Source\PSoC4/Thermocouple.c ****             result = -result;
 1538              		.loc 1 47 0
 1539 003e 1302     		lsl	r3, r2, #8
 1540 0040 0C0E     		lsr	r4, r1, #24
 1541 0042 1C43     		orr	r4, r3
 1542 0044 221C     		mov	r2, r4
  52:.\Generated_Source\PSoC4/Thermocouple.c ****         }
 1543              		.loc 1 52 0
 1544 0046 0098     		ldr	r0, [sp]
 1545 0048 0199     		ldr	r1, [sp, #4]
  47:.\Generated_Source\PSoC4/Thermocouple.c ****             result = -result;
 1546              		.loc 1 47 0
 1547 004a E317     		asr	r3, r4, #31
  48:.\Generated_Source\PSoC4/Thermocouple.c ****         }
 1548              		.loc 1 48 0
 1549 004c 0025     		mov	r5, #0
 1550 004e 5442     		neg	r4, r2
 1551 0050 9D41     		sbc	r5, r3
  52:.\Generated_Source\PSoC4/Thermocouple.c ****         }
 1552              		.loc 1 52 0
 1553 0052 030E     		lsr	r3, r0, #24
 1554 0054 0A02     		lsl	r2, r1, #8
 1555 0056 1A43     		orr	r2, r3
 1556 0058 019B     		ldr	r3, [sp, #4]
 1557 005a 101C     		mov	r0, r2
 1558 005c 002B     		cmp	r3, #0
 1559 005e 00DA     		bge	.LCB1283
 1560 0060 EDE0     		b	.L149	@long jump
 1561              	.LCB1283:
 1562              	.L126:
 1563              	.LBE117:
ARM GAS  C:\Users\faithc\AppData\Local\Temp\cchhuTE1.s 			page 42


 1564              	.LBE116:
 566:.\Generated_Source\PSoC4/Thermocouple.c ****                                        (Thermocouple_IN_NORMALIZATION_TV - Thermocouple_X_SCALE_TV)
 567:.\Generated_Source\PSoC4/Thermocouple.c ****     }
 568:.\Generated_Source\PSoC4/Thermocouple.c ****     
 569:.\Generated_Source\PSoC4/Thermocouple.c ****     for (i = Thermocouple_ORDER_TV - 1u; i > 0u; i--)
 570:.\Generated_Source\PSoC4/Thermocouple.c ****     {
 571:.\Generated_Source\PSoC4/Thermocouple.c ****         voltage = Thermocouple_MultShift24((Thermocouple_coeffTV[i] + voltage), temperature);
 1565              		.loc 1 571 0
 1566 0062 F369     		ldr	r3, [r6, #28]
 1567              	.LBB132:
 1568              	.LBB118:
  43:.\Generated_Source\PSoC4/Thermocouple.c ****         if (result < 0)
 1569              		.loc 1 43 0
 1570 0064 3A1C     		mov	r2, r7
 1571              	.LBE118:
 1572              	.LBE132:
 1573              		.loc 1 571 0
 1574 0066 9C46     		mov	ip, r3
 1575 0068 6044     		add	r0, r0, ip
 1576              	.LBB133:
 1577              	.LBB119:
  43:.\Generated_Source\PSoC4/Thermocouple.c ****         if (result < 0)
 1578              		.loc 1 43 0
 1579 006a 4346     		mov	r3, r8
 1580 006c C117     		asr	r1, r0, #31
 1581 006e FFF7FEFF 		bl	__aeabi_lmul
 1582              	.LVL68:
  46:.\Generated_Source\PSoC4/Thermocouple.c ****             result = (int32)((uint64)((uint64)result >> Thermocouple_24BIT_SHIFTING));
 1583              		.loc 1 46 0
 1584 0072 031C     		mov	r3, r0
 1585 0074 0C1C     		mov	r4, r1
 1586 0076 0090     		str	r0, [sp]
 1587 0078 0191     		str	r1, [sp, #4]
 1588 007a 0022     		mov	r2, #0
 1589 007c 5942     		neg	r1, r3
 1590 007e A241     		sbc	r2, r4
  47:.\Generated_Source\PSoC4/Thermocouple.c ****             result = -result;
 1591              		.loc 1 47 0
 1592 0080 1302     		lsl	r3, r2, #8
 1593 0082 0C0E     		lsr	r4, r1, #24
 1594 0084 1C43     		orr	r4, r3
 1595 0086 221C     		mov	r2, r4
  52:.\Generated_Source\PSoC4/Thermocouple.c ****         }
 1596              		.loc 1 52 0
 1597 0088 0098     		ldr	r0, [sp]
 1598 008a 0199     		ldr	r1, [sp, #4]
  47:.\Generated_Source\PSoC4/Thermocouple.c ****             result = -result;
 1599              		.loc 1 47 0
 1600 008c E317     		asr	r3, r4, #31
  48:.\Generated_Source\PSoC4/Thermocouple.c ****         }
 1601              		.loc 1 48 0
 1602 008e 0025     		mov	r5, #0
 1603 0090 5442     		neg	r4, r2
 1604 0092 9D41     		sbc	r5, r3
  52:.\Generated_Source\PSoC4/Thermocouple.c ****         }
 1605              		.loc 1 52 0
 1606 0094 030E     		lsr	r3, r0, #24
ARM GAS  C:\Users\faithc\AppData\Local\Temp\cchhuTE1.s 			page 43


 1607 0096 0A02     		lsl	r2, r1, #8
 1608 0098 1A43     		orr	r2, r3
 1609 009a 019B     		ldr	r3, [sp, #4]
 1610 009c 101C     		mov	r0, r2
 1611 009e 002B     		cmp	r3, #0
 1612 00a0 00DA     		bge	.LCB1321
 1613 00a2 DAE0     		b	.L150	@long jump
 1614              	.LCB1321:
 1615              	.L129:
 1616              	.LBE119:
 1617              	.LBE133:
 1618              		.loc 1 571 0
 1619 00a4 B369     		ldr	r3, [r6, #24]
 1620              	.LBB134:
 1621              	.LBB120:
  43:.\Generated_Source\PSoC4/Thermocouple.c ****         if (result < 0)
 1622              		.loc 1 43 0
 1623 00a6 3A1C     		mov	r2, r7
 1624              	.LBE120:
 1625              	.LBE134:
 1626              		.loc 1 571 0
 1627 00a8 9C46     		mov	ip, r3
 1628 00aa 6044     		add	r0, r0, ip
 1629              	.LBB135:
 1630              	.LBB121:
  43:.\Generated_Source\PSoC4/Thermocouple.c ****         if (result < 0)
 1631              		.loc 1 43 0
 1632 00ac 4346     		mov	r3, r8
 1633 00ae C117     		asr	r1, r0, #31
 1634 00b0 FFF7FEFF 		bl	__aeabi_lmul
 1635              	.LVL69:
  46:.\Generated_Source\PSoC4/Thermocouple.c ****             result = (int32)((uint64)((uint64)result >> Thermocouple_24BIT_SHIFTING));
 1636              		.loc 1 46 0
 1637 00b4 031C     		mov	r3, r0
 1638 00b6 0C1C     		mov	r4, r1
 1639 00b8 0090     		str	r0, [sp]
 1640 00ba 0191     		str	r1, [sp, #4]
 1641 00bc 0022     		mov	r2, #0
 1642 00be 5942     		neg	r1, r3
 1643 00c0 A241     		sbc	r2, r4
  47:.\Generated_Source\PSoC4/Thermocouple.c ****             result = -result;
 1644              		.loc 1 47 0
 1645 00c2 1302     		lsl	r3, r2, #8
 1646 00c4 0C0E     		lsr	r4, r1, #24
 1647 00c6 1C43     		orr	r4, r3
 1648 00c8 221C     		mov	r2, r4
  52:.\Generated_Source\PSoC4/Thermocouple.c ****         }
 1649              		.loc 1 52 0
 1650 00ca 0098     		ldr	r0, [sp]
 1651 00cc 0199     		ldr	r1, [sp, #4]
  47:.\Generated_Source\PSoC4/Thermocouple.c ****             result = -result;
 1652              		.loc 1 47 0
 1653 00ce E317     		asr	r3, r4, #31
  48:.\Generated_Source\PSoC4/Thermocouple.c ****         }
 1654              		.loc 1 48 0
 1655 00d0 0025     		mov	r5, #0
 1656 00d2 5442     		neg	r4, r2
ARM GAS  C:\Users\faithc\AppData\Local\Temp\cchhuTE1.s 			page 44


 1657 00d4 9D41     		sbc	r5, r3
  52:.\Generated_Source\PSoC4/Thermocouple.c ****         }
 1658              		.loc 1 52 0
 1659 00d6 030E     		lsr	r3, r0, #24
 1660 00d8 0A02     		lsl	r2, r1, #8
 1661 00da 1A43     		orr	r2, r3
 1662 00dc 019B     		ldr	r3, [sp, #4]
 1663 00de 101C     		mov	r0, r2
 1664 00e0 002B     		cmp	r3, #0
 1665 00e2 00DA     		bge	.LCB1359
 1666 00e4 B7E0     		b	.L151	@long jump
 1667              	.LCB1359:
 1668              	.L132:
 1669              	.LBE121:
 1670              	.LBE135:
 1671              		.loc 1 571 0
 1672 00e6 7369     		ldr	r3, [r6, #20]
 1673              	.LBB136:
 1674              	.LBB122:
  43:.\Generated_Source\PSoC4/Thermocouple.c ****         if (result < 0)
 1675              		.loc 1 43 0
 1676 00e8 3A1C     		mov	r2, r7
 1677              	.LBE122:
 1678              	.LBE136:
 1679              		.loc 1 571 0
 1680 00ea 9C46     		mov	ip, r3
 1681 00ec 6044     		add	r0, r0, ip
 1682              	.LBB137:
 1683              	.LBB123:
  43:.\Generated_Source\PSoC4/Thermocouple.c ****         if (result < 0)
 1684              		.loc 1 43 0
 1685 00ee 4346     		mov	r3, r8
 1686 00f0 C117     		asr	r1, r0, #31
 1687 00f2 FFF7FEFF 		bl	__aeabi_lmul
 1688              	.LVL70:
  46:.\Generated_Source\PSoC4/Thermocouple.c ****             result = (int32)((uint64)((uint64)result >> Thermocouple_24BIT_SHIFTING));
 1689              		.loc 1 46 0
 1690 00f6 031C     		mov	r3, r0
 1691 00f8 0C1C     		mov	r4, r1
 1692 00fa 0090     		str	r0, [sp]
 1693 00fc 0191     		str	r1, [sp, #4]
 1694 00fe 0022     		mov	r2, #0
 1695 0100 5942     		neg	r1, r3
 1696 0102 A241     		sbc	r2, r4
  47:.\Generated_Source\PSoC4/Thermocouple.c ****             result = -result;
 1697              		.loc 1 47 0
 1698 0104 1302     		lsl	r3, r2, #8
 1699 0106 0C0E     		lsr	r4, r1, #24
 1700 0108 1C43     		orr	r4, r3
 1701 010a 221C     		mov	r2, r4
  52:.\Generated_Source\PSoC4/Thermocouple.c ****         }
 1702              		.loc 1 52 0
 1703 010c 0098     		ldr	r0, [sp]
 1704 010e 0199     		ldr	r1, [sp, #4]
  47:.\Generated_Source\PSoC4/Thermocouple.c ****             result = -result;
 1705              		.loc 1 47 0
 1706 0110 E317     		asr	r3, r4, #31
ARM GAS  C:\Users\faithc\AppData\Local\Temp\cchhuTE1.s 			page 45


  48:.\Generated_Source\PSoC4/Thermocouple.c ****         }
 1707              		.loc 1 48 0
 1708 0112 0025     		mov	r5, #0
 1709 0114 5442     		neg	r4, r2
 1710 0116 9D41     		sbc	r5, r3
  52:.\Generated_Source\PSoC4/Thermocouple.c ****         }
 1711              		.loc 1 52 0
 1712 0118 030E     		lsr	r3, r0, #24
 1713 011a 0A02     		lsl	r2, r1, #8
 1714 011c 1A43     		orr	r2, r3
 1715 011e 019B     		ldr	r3, [sp, #4]
 1716 0120 101C     		mov	r0, r2
 1717 0122 002B     		cmp	r3, #0
 1718 0124 00DA     		bge	.LCB1397
 1719 0126 94E0     		b	.L152	@long jump
 1720              	.LCB1397:
 1721              	.L135:
 1722              	.LBE123:
 1723              	.LBE137:
 1724              		.loc 1 571 0
 1725 0128 3369     		ldr	r3, [r6, #16]
 1726              	.LBB138:
 1727              	.LBB124:
  43:.\Generated_Source\PSoC4/Thermocouple.c ****         if (result < 0)
 1728              		.loc 1 43 0
 1729 012a 3A1C     		mov	r2, r7
 1730              	.LBE124:
 1731              	.LBE138:
 1732              		.loc 1 571 0
 1733 012c 9C46     		mov	ip, r3
 1734 012e 6044     		add	r0, r0, ip
 1735              	.LBB139:
 1736              	.LBB125:
  43:.\Generated_Source\PSoC4/Thermocouple.c ****         if (result < 0)
 1737              		.loc 1 43 0
 1738 0130 4346     		mov	r3, r8
 1739 0132 C117     		asr	r1, r0, #31
 1740 0134 FFF7FEFF 		bl	__aeabi_lmul
 1741              	.LVL71:
  46:.\Generated_Source\PSoC4/Thermocouple.c ****             result = (int32)((uint64)((uint64)result >> Thermocouple_24BIT_SHIFTING));
 1742              		.loc 1 46 0
 1743 0138 031C     		mov	r3, r0
 1744 013a 0C1C     		mov	r4, r1
 1745 013c 0090     		str	r0, [sp]
 1746 013e 0191     		str	r1, [sp, #4]
 1747 0140 0022     		mov	r2, #0
 1748 0142 5942     		neg	r1, r3
 1749 0144 A241     		sbc	r2, r4
  47:.\Generated_Source\PSoC4/Thermocouple.c ****             result = -result;
 1750              		.loc 1 47 0
 1751 0146 1302     		lsl	r3, r2, #8
 1752 0148 0C0E     		lsr	r4, r1, #24
 1753 014a 1C43     		orr	r4, r3
 1754 014c 221C     		mov	r2, r4
  52:.\Generated_Source\PSoC4/Thermocouple.c ****         }
 1755              		.loc 1 52 0
 1756 014e 0098     		ldr	r0, [sp]
ARM GAS  C:\Users\faithc\AppData\Local\Temp\cchhuTE1.s 			page 46


 1757 0150 0199     		ldr	r1, [sp, #4]
  47:.\Generated_Source\PSoC4/Thermocouple.c ****             result = -result;
 1758              		.loc 1 47 0
 1759 0152 E317     		asr	r3, r4, #31
  48:.\Generated_Source\PSoC4/Thermocouple.c ****         }
 1760              		.loc 1 48 0
 1761 0154 0025     		mov	r5, #0
 1762 0156 5442     		neg	r4, r2
 1763 0158 9D41     		sbc	r5, r3
  52:.\Generated_Source\PSoC4/Thermocouple.c ****         }
 1764              		.loc 1 52 0
 1765 015a 030E     		lsr	r3, r0, #24
 1766 015c 0A02     		lsl	r2, r1, #8
 1767 015e 1A43     		orr	r2, r3
 1768 0160 019B     		ldr	r3, [sp, #4]
 1769 0162 101C     		mov	r0, r2
 1770 0164 002B     		cmp	r3, #0
 1771 0166 00DA     		bge	.LCB1435
 1772 0168 71E0     		b	.L153	@long jump
 1773              	.LCB1435:
 1774              	.L138:
 1775              	.LBE125:
 1776              	.LBE139:
 1777              		.loc 1 571 0
 1778 016a F368     		ldr	r3, [r6, #12]
 1779              	.LBB140:
 1780              	.LBB126:
  43:.\Generated_Source\PSoC4/Thermocouple.c ****         if (result < 0)
 1781              		.loc 1 43 0
 1782 016c 3A1C     		mov	r2, r7
 1783              	.LBE126:
 1784              	.LBE140:
 1785              		.loc 1 571 0
 1786 016e 9C46     		mov	ip, r3
 1787 0170 6044     		add	r0, r0, ip
 1788              	.LBB141:
 1789              	.LBB127:
  43:.\Generated_Source\PSoC4/Thermocouple.c ****         if (result < 0)
 1790              		.loc 1 43 0
 1791 0172 4346     		mov	r3, r8
 1792 0174 C117     		asr	r1, r0, #31
 1793 0176 FFF7FEFF 		bl	__aeabi_lmul
 1794              	.LVL72:
  46:.\Generated_Source\PSoC4/Thermocouple.c ****             result = (int32)((uint64)((uint64)result >> Thermocouple_24BIT_SHIFTING));
 1795              		.loc 1 46 0
 1796 017a 031C     		mov	r3, r0
 1797 017c 0C1C     		mov	r4, r1
 1798 017e 0090     		str	r0, [sp]
 1799 0180 0191     		str	r1, [sp, #4]
 1800 0182 0022     		mov	r2, #0
 1801 0184 5942     		neg	r1, r3
 1802 0186 A241     		sbc	r2, r4
  47:.\Generated_Source\PSoC4/Thermocouple.c ****             result = -result;
 1803              		.loc 1 47 0
 1804 0188 1302     		lsl	r3, r2, #8
 1805 018a 0C0E     		lsr	r4, r1, #24
 1806 018c 1C43     		orr	r4, r3
ARM GAS  C:\Users\faithc\AppData\Local\Temp\cchhuTE1.s 			page 47


 1807 018e 221C     		mov	r2, r4
  52:.\Generated_Source\PSoC4/Thermocouple.c ****         }
 1808              		.loc 1 52 0
 1809 0190 0098     		ldr	r0, [sp]
 1810 0192 0199     		ldr	r1, [sp, #4]
  47:.\Generated_Source\PSoC4/Thermocouple.c ****             result = -result;
 1811              		.loc 1 47 0
 1812 0194 E317     		asr	r3, r4, #31
  48:.\Generated_Source\PSoC4/Thermocouple.c ****         }
 1813              		.loc 1 48 0
 1814 0196 0025     		mov	r5, #0
 1815 0198 5442     		neg	r4, r2
 1816 019a 9D41     		sbc	r5, r3
  52:.\Generated_Source\PSoC4/Thermocouple.c ****         }
 1817              		.loc 1 52 0
 1818 019c 030E     		lsr	r3, r0, #24
 1819 019e 0A02     		lsl	r2, r1, #8
 1820 01a0 1A43     		orr	r2, r3
 1821 01a2 019B     		ldr	r3, [sp, #4]
 1822 01a4 101C     		mov	r0, r2
 1823 01a6 002B     		cmp	r3, #0
 1824 01a8 4FDB     		blt	.L154
 1825              	.L141:
 1826              	.LBE127:
 1827              	.LBE141:
 1828              		.loc 1 571 0
 1829 01aa B368     		ldr	r3, [r6, #8]
 1830              	.LBB142:
 1831              	.LBB128:
  43:.\Generated_Source\PSoC4/Thermocouple.c ****         if (result < 0)
 1832              		.loc 1 43 0
 1833 01ac 3A1C     		mov	r2, r7
 1834              	.LBE128:
 1835              	.LBE142:
 1836              		.loc 1 571 0
 1837 01ae 9C46     		mov	ip, r3
 1838 01b0 6044     		add	r0, r0, ip
 1839              	.LBB143:
 1840              	.LBB129:
  43:.\Generated_Source\PSoC4/Thermocouple.c ****         if (result < 0)
 1841              		.loc 1 43 0
 1842 01b2 4346     		mov	r3, r8
 1843 01b4 C117     		asr	r1, r0, #31
 1844 01b6 FFF7FEFF 		bl	__aeabi_lmul
 1845              	.LVL73:
  46:.\Generated_Source\PSoC4/Thermocouple.c ****             result = (int32)((uint64)((uint64)result >> Thermocouple_24BIT_SHIFTING));
 1846              		.loc 1 46 0
 1847 01ba 031C     		mov	r3, r0
 1848 01bc 0C1C     		mov	r4, r1
 1849 01be 0090     		str	r0, [sp]
 1850 01c0 0191     		str	r1, [sp, #4]
 1851 01c2 0022     		mov	r2, #0
 1852 01c4 5942     		neg	r1, r3
 1853 01c6 A241     		sbc	r2, r4
  47:.\Generated_Source\PSoC4/Thermocouple.c ****             result = -result;
 1854              		.loc 1 47 0
 1855 01c8 1302     		lsl	r3, r2, #8
ARM GAS  C:\Users\faithc\AppData\Local\Temp\cchhuTE1.s 			page 48


 1856 01ca 0C0E     		lsr	r4, r1, #24
 1857 01cc 1C43     		orr	r4, r3
 1858 01ce 221C     		mov	r2, r4
  52:.\Generated_Source\PSoC4/Thermocouple.c ****         }
 1859              		.loc 1 52 0
 1860 01d0 0098     		ldr	r0, [sp]
 1861 01d2 0199     		ldr	r1, [sp, #4]
  47:.\Generated_Source\PSoC4/Thermocouple.c ****             result = -result;
 1862              		.loc 1 47 0
 1863 01d4 E317     		asr	r3, r4, #31
  48:.\Generated_Source\PSoC4/Thermocouple.c ****         }
 1864              		.loc 1 48 0
 1865 01d6 0025     		mov	r5, #0
 1866 01d8 5442     		neg	r4, r2
 1867 01da 9D41     		sbc	r5, r3
  52:.\Generated_Source\PSoC4/Thermocouple.c ****         }
 1868              		.loc 1 52 0
 1869 01dc 030E     		lsr	r3, r0, #24
 1870 01de 0A02     		lsl	r2, r1, #8
 1871 01e0 1A43     		orr	r2, r3
 1872 01e2 019B     		ldr	r3, [sp, #4]
 1873 01e4 101C     		mov	r0, r2
 1874 01e6 002B     		cmp	r3, #0
 1875 01e8 2DDB     		blt	.L155
 1876              	.L144:
 1877              	.LBE129:
 1878              	.LBE143:
 1879              		.loc 1 571 0
 1880 01ea 7368     		ldr	r3, [r6, #4]
 1881              	.LBB144:
 1882              	.LBB130:
  43:.\Generated_Source\PSoC4/Thermocouple.c ****         if (result < 0)
 1883              		.loc 1 43 0
 1884 01ec 3A1C     		mov	r2, r7
 1885              	.LBE130:
 1886              	.LBE144:
 1887              		.loc 1 571 0
 1888 01ee 9C46     		mov	ip, r3
 1889 01f0 6044     		add	r0, r0, ip
 1890              	.LBB145:
 1891              	.LBB131:
  43:.\Generated_Source\PSoC4/Thermocouple.c ****         if (result < 0)
 1892              		.loc 1 43 0
 1893 01f2 4346     		mov	r3, r8
 1894 01f4 C117     		asr	r1, r0, #31
 1895 01f6 FFF7FEFF 		bl	__aeabi_lmul
 1896              	.LVL74:
  46:.\Generated_Source\PSoC4/Thermocouple.c ****             result = (int32)((uint64)((uint64)result >> Thermocouple_24BIT_SHIFTING));
 1897              		.loc 1 46 0
 1898 01fa 031C     		mov	r3, r0
 1899 01fc 0C1C     		mov	r4, r1
 1900 01fe 0090     		str	r0, [sp]
 1901 0200 0191     		str	r1, [sp, #4]
 1902 0202 0022     		mov	r2, #0
 1903 0204 5942     		neg	r1, r3
 1904 0206 A241     		sbc	r2, r4
  47:.\Generated_Source\PSoC4/Thermocouple.c ****             result = -result;
ARM GAS  C:\Users\faithc\AppData\Local\Temp\cchhuTE1.s 			page 49


 1905              		.loc 1 47 0
 1906 0208 1302     		lsl	r3, r2, #8
 1907 020a 0C0E     		lsr	r4, r1, #24
 1908 020c 1C43     		orr	r4, r3
 1909 020e 221C     		mov	r2, r4
  52:.\Generated_Source\PSoC4/Thermocouple.c ****         }
 1910              		.loc 1 52 0
 1911 0210 0098     		ldr	r0, [sp]
 1912 0212 0199     		ldr	r1, [sp, #4]
  47:.\Generated_Source\PSoC4/Thermocouple.c ****             result = -result;
 1913              		.loc 1 47 0
 1914 0214 E317     		asr	r3, r4, #31
  48:.\Generated_Source\PSoC4/Thermocouple.c ****         }
 1915              		.loc 1 48 0
 1916 0216 0025     		mov	r5, #0
 1917 0218 5442     		neg	r4, r2
 1918 021a 9D41     		sbc	r5, r3
  52:.\Generated_Source\PSoC4/Thermocouple.c ****         }
 1919              		.loc 1 52 0
 1920 021c 030E     		lsr	r3, r0, #24
 1921 021e 0A02     		lsl	r2, r1, #8
 1922 0220 1A43     		orr	r2, r3
 1923 0222 019B     		ldr	r3, [sp, #4]
 1924 0224 101C     		mov	r0, r2
 1925              	.LVL75:
 1926 0226 002B     		cmp	r3, #0
 1927 0228 0BDB     		blt	.L156
 1928              	.L147:
 1929              	.LBE131:
 1930              	.LBE145:
 572:.\Generated_Source\PSoC4/Thermocouple.c ****     }
 573:.\Generated_Source\PSoC4/Thermocouple.c **** 
 574:.\Generated_Source\PSoC4/Thermocouple.c ****     voltage = (int32)((uint32)((uint64)(int32)(voltage + Thermocouple_coeffTV[Thermocouple_FIRST_EL
 1931              		.loc 1 574 0
 1932 022a 3368     		ldr	r3, [r6]
 1933 022c 1818     		add	r0, r3, r0
 1934 022e C317     		asr	r3, r0, #31
 1935 0230 DB06     		lsl	r3, r3, #27
 1936 0232 4009     		lsr	r0, r0, #5
 1937 0234 1843     		orr	r0, r3
 1938              	.LVL76:
 575:.\Generated_Source\PSoC4/Thermocouple.c ****                                         Thermocouple_COEF_SCALE_TV));
 576:.\Generated_Source\PSoC4/Thermocouple.c **** 
 577:.\Generated_Source\PSoC4/Thermocouple.c ****     return (voltage);
 578:.\Generated_Source\PSoC4/Thermocouple.c **** }
 1939              		.loc 1 578 0
 1940 0236 0CB0     		add	sp, sp, #48
 1941              		@ sp needed
 1942              	.LVL77:
 1943 0238 04BC     		pop	{r2}
 1944 023a 9046     		mov	r8, r2
 1945 023c F0BD     		pop	{r4, r5, r6, r7, pc}
 1946              	.LVL78:
 1947              	.L149:
 1948 023e 201C     		mov	r0, r4
 1949 0240 0FE7     		b	.L126
 1950              	.LVL79:
ARM GAS  C:\Users\faithc\AppData\Local\Temp\cchhuTE1.s 			page 50


 1951              	.L156:
 1952 0242 201C     		mov	r0, r4
 1953 0244 F1E7     		b	.L147
 1954              	.LVL80:
 1955              	.L155:
 1956 0246 201C     		mov	r0, r4
 1957 0248 CFE7     		b	.L144
 1958              	.L154:
 1959 024a 201C     		mov	r0, r4
 1960 024c ADE7     		b	.L141
 1961              	.L153:
 1962 024e 201C     		mov	r0, r4
 1963 0250 8BE7     		b	.L138
 1964              	.L152:
 1965 0252 201C     		mov	r0, r4
 1966 0254 68E7     		b	.L135
 1967              	.L151:
 1968 0256 201C     		mov	r0, r4
 1969 0258 45E7     		b	.L132
 1970              	.L150:
 1971 025a 201C     		mov	r0, r4
 1972 025c 22E7     		b	.L129
 1973              	.L158:
 1974 025e C046     		.align	2
 1975              	.L157:
 1976 0260 00000000 		.word	.LANCHOR0
 1977              		.cfi_endproc
 1978              	.LFE2:
 1979              		.size	Thermocouple_GetVoltage, .-Thermocouple_GetVoltage
 1980              		.section	.rodata
 1981              		.align	2
 1982              		.set	.LANCHOR0,. + 0
 1983              	.LC0:
 1984 0000 00000000 		.word	0
 1985 0004 00000000 		.word	0
 1986 0008 B641E6FF 		.word	-1687114
 1987 000c 0D472800 		.word	2639629
 1988 0010 24820200 		.word	164388
 1989 0014 B7446A02 		.word	40518839
 1990 0018 96B6F0FF 		.word	-1001834
 1991 001c EF410000 		.word	16879
 1992 0020 89359BFA 		.word	-90491511
 1993 0024 B9AC8BFF 		.word	-7623495
 1994 0028 721FE5FF 		.word	-1761422
 1995 002c 8444BC0B 		.word	196887684
 1996 0030 F657EAFC 		.word	-51750922
 1997 0034 4B912401 		.word	19173707
 1998 0038 A7F66AF2 		.word	-227871065
 1999 003c BA327DF5 		.word	-176344390
 2000 0040 562C78FA 		.word	-92787626
 2001 0044 EB5B1E08 		.word	136207339
 2002 0048 831C06EC 		.word	-335143805
 2003 004c 2EDC770E 		.word	242736174
 2004 0050 1FA01EFE 		.word	-31547361
 2005 0054 A16642EC 		.word	-331192671
 2006 0058 F8EEA8EA 		.word	-358027528
 2007 005c 00000000 		.word	0
ARM GAS  C:\Users\faithc\AppData\Local\Temp\cchhuTE1.s 			page 51


 2008 0060 CC36F7F7 		.word	-134793524
 2009 0064 C9ADC210 		.word	281193929
 2010 0068 00000000 		.word	0
 2011 006c 00000000 		.word	0
 2012 0070 09A688FA 		.word	-91707895
 2013 0074 00000000 		.word	0
 2014              	.LC1:
 2015 0078 00000000 		.word	0
 2016 007c 27500600 		.word	413735
 2017 0080 AC450100 		.word	83372
 2018 0084 79E6FDFF 		.word	-137607
 2019 0088 08A01000 		.word	1089544
 2020 008c 4BBF67FF 		.word	-9978037
 2021 0090 48C89802 		.word	43567176
 2022 0094 99994BFA 		.word	-95708775
 2023 0098 F24E0205 		.word	84037362
 2024              		.text
 2025              	.Letext0:
 2026              		.file 2 ".\\Generated_Source\\PSoC4\\cytypes.h"