ARM GAS  C:\Users\faithc\AppData\Local\Temp\ccxciHNb.s 			page 1


   1              		.cpu cortex-m0
   2              		.fpu softvfp
   3              		.eabi_attribute 20, 1
   4              		.eabi_attribute 21, 1
   5              		.eabi_attribute 23, 3
   6              		.eabi_attribute 24, 1
   7              		.eabi_attribute 25, 1
   8              		.eabi_attribute 26, 1
   9              		.eabi_attribute 30, 2
  10              		.eabi_attribute 34, 0
  11              		.eabi_attribute 18, 4
  12              		.code	16
  13              		.file	"UART_Out_PM.c"
  14              		.text
  15              	.Ltext0:
  16              		.cfi_sections	.debug_frame
  17              		.section	.text.UART_Out_SaveConfig,"ax",%progbits
  18              		.align	2
  19              		.global	UART_Out_SaveConfig
  20              		.code	16
  21              		.thumb_func
  22              		.type	UART_Out_SaveConfig, %function
  23              	UART_Out_SaveConfig:
  24              	.LFB0:
  25              		.file 1 ".\\Generated_Source\\PSoC4\\UART_Out_PM.c"
   1:.\Generated_Source\PSoC4/UART_Out_PM.c **** /*******************************************************************************
   2:.\Generated_Source\PSoC4/UART_Out_PM.c **** * File Name: UART_Out_PM.c
   3:.\Generated_Source\PSoC4/UART_Out_PM.c **** * Version 2.50
   4:.\Generated_Source\PSoC4/UART_Out_PM.c **** *
   5:.\Generated_Source\PSoC4/UART_Out_PM.c **** * Description:
   6:.\Generated_Source\PSoC4/UART_Out_PM.c **** *  This file provides Sleep/WakeUp APIs functionality.
   7:.\Generated_Source\PSoC4/UART_Out_PM.c **** *
   8:.\Generated_Source\PSoC4/UART_Out_PM.c **** * Note:
   9:.\Generated_Source\PSoC4/UART_Out_PM.c **** *
  10:.\Generated_Source\PSoC4/UART_Out_PM.c **** ********************************************************************************
  11:.\Generated_Source\PSoC4/UART_Out_PM.c **** * Copyright 2008-2015, Cypress Semiconductor Corporation.  All rights reserved.
  12:.\Generated_Source\PSoC4/UART_Out_PM.c **** * You may use this file only in accordance with the license, terms, conditions,
  13:.\Generated_Source\PSoC4/UART_Out_PM.c **** * disclaimers, and limitations in the end user license agreement accompanying
  14:.\Generated_Source\PSoC4/UART_Out_PM.c **** * the software package with which this file was provided.
  15:.\Generated_Source\PSoC4/UART_Out_PM.c **** *******************************************************************************/
  16:.\Generated_Source\PSoC4/UART_Out_PM.c **** 
  17:.\Generated_Source\PSoC4/UART_Out_PM.c **** #include "UART_Out.h"
  18:.\Generated_Source\PSoC4/UART_Out_PM.c **** 
  19:.\Generated_Source\PSoC4/UART_Out_PM.c **** 
  20:.\Generated_Source\PSoC4/UART_Out_PM.c **** /***************************************
  21:.\Generated_Source\PSoC4/UART_Out_PM.c **** * Local data allocation
  22:.\Generated_Source\PSoC4/UART_Out_PM.c **** ***************************************/
  23:.\Generated_Source\PSoC4/UART_Out_PM.c **** 
  24:.\Generated_Source\PSoC4/UART_Out_PM.c **** static UART_Out_BACKUP_STRUCT  UART_Out_backup =
  25:.\Generated_Source\PSoC4/UART_Out_PM.c **** {
  26:.\Generated_Source\PSoC4/UART_Out_PM.c ****     /* enableState - disabled */
  27:.\Generated_Source\PSoC4/UART_Out_PM.c ****     0u,
  28:.\Generated_Source\PSoC4/UART_Out_PM.c **** };
  29:.\Generated_Source\PSoC4/UART_Out_PM.c **** 
  30:.\Generated_Source\PSoC4/UART_Out_PM.c **** 
  31:.\Generated_Source\PSoC4/UART_Out_PM.c **** 
  32:.\Generated_Source\PSoC4/UART_Out_PM.c **** /*******************************************************************************
ARM GAS  C:\Users\faithc\AppData\Local\Temp\ccxciHNb.s 			page 2


  33:.\Generated_Source\PSoC4/UART_Out_PM.c **** * Function Name: UART_Out_SaveConfig
  34:.\Generated_Source\PSoC4/UART_Out_PM.c **** ********************************************************************************
  35:.\Generated_Source\PSoC4/UART_Out_PM.c **** *
  36:.\Generated_Source\PSoC4/UART_Out_PM.c **** * Summary:
  37:.\Generated_Source\PSoC4/UART_Out_PM.c **** *  This function saves the component nonretention control register.
  38:.\Generated_Source\PSoC4/UART_Out_PM.c **** *  Does not save the FIFO which is a set of nonretention registers.
  39:.\Generated_Source\PSoC4/UART_Out_PM.c **** *  This function is called by the UART_Out_Sleep() function.
  40:.\Generated_Source\PSoC4/UART_Out_PM.c **** *
  41:.\Generated_Source\PSoC4/UART_Out_PM.c **** * Parameters:
  42:.\Generated_Source\PSoC4/UART_Out_PM.c **** *  None.
  43:.\Generated_Source\PSoC4/UART_Out_PM.c **** *
  44:.\Generated_Source\PSoC4/UART_Out_PM.c **** * Return:
  45:.\Generated_Source\PSoC4/UART_Out_PM.c **** *  None.
  46:.\Generated_Source\PSoC4/UART_Out_PM.c **** *
  47:.\Generated_Source\PSoC4/UART_Out_PM.c **** * Global Variables:
  48:.\Generated_Source\PSoC4/UART_Out_PM.c **** *  UART_Out_backup - modified when non-retention registers are saved.
  49:.\Generated_Source\PSoC4/UART_Out_PM.c **** *
  50:.\Generated_Source\PSoC4/UART_Out_PM.c **** * Reentrant:
  51:.\Generated_Source\PSoC4/UART_Out_PM.c **** *  No.
  52:.\Generated_Source\PSoC4/UART_Out_PM.c **** *
  53:.\Generated_Source\PSoC4/UART_Out_PM.c **** *******************************************************************************/
  54:.\Generated_Source\PSoC4/UART_Out_PM.c **** void UART_Out_SaveConfig(void)
  55:.\Generated_Source\PSoC4/UART_Out_PM.c **** {
  26              		.loc 1 55 0
  27              		.cfi_startproc
  56:.\Generated_Source\PSoC4/UART_Out_PM.c ****     #if(UART_Out_CONTROL_REG_REMOVED == 0u)
  57:.\Generated_Source\PSoC4/UART_Out_PM.c ****         UART_Out_backup.cr = UART_Out_CONTROL_REG;
  58:.\Generated_Source\PSoC4/UART_Out_PM.c ****     #endif /* End UART_Out_CONTROL_REG_REMOVED */
  59:.\Generated_Source\PSoC4/UART_Out_PM.c **** }
  28              		.loc 1 59 0
  29              		@ sp needed
  30 0000 7047     		bx	lr
  31              		.cfi_endproc
  32              	.LFE0:
  33              		.size	UART_Out_SaveConfig, .-UART_Out_SaveConfig
  34 0002 C046     		.section	.text.UART_Out_RestoreConfig,"ax",%progbits
  35              		.align	2
  36              		.global	UART_Out_RestoreConfig
  37              		.code	16
  38              		.thumb_func
  39              		.type	UART_Out_RestoreConfig, %function
  40              	UART_Out_RestoreConfig:
  41              	.LFB1:
  60:.\Generated_Source\PSoC4/UART_Out_PM.c **** 
  61:.\Generated_Source\PSoC4/UART_Out_PM.c **** 
  62:.\Generated_Source\PSoC4/UART_Out_PM.c **** /*******************************************************************************
  63:.\Generated_Source\PSoC4/UART_Out_PM.c **** * Function Name: UART_Out_RestoreConfig
  64:.\Generated_Source\PSoC4/UART_Out_PM.c **** ********************************************************************************
  65:.\Generated_Source\PSoC4/UART_Out_PM.c **** *
  66:.\Generated_Source\PSoC4/UART_Out_PM.c **** * Summary:
  67:.\Generated_Source\PSoC4/UART_Out_PM.c **** *  Restores the nonretention control register except FIFO.
  68:.\Generated_Source\PSoC4/UART_Out_PM.c **** *  Does not restore the FIFO which is a set of nonretention registers.
  69:.\Generated_Source\PSoC4/UART_Out_PM.c **** *
  70:.\Generated_Source\PSoC4/UART_Out_PM.c **** * Parameters:
  71:.\Generated_Source\PSoC4/UART_Out_PM.c **** *  None.
  72:.\Generated_Source\PSoC4/UART_Out_PM.c **** *
  73:.\Generated_Source\PSoC4/UART_Out_PM.c **** * Return:
ARM GAS  C:\Users\faithc\AppData\Local\Temp\ccxciHNb.s 			page 3


  74:.\Generated_Source\PSoC4/UART_Out_PM.c **** *  None.
  75:.\Generated_Source\PSoC4/UART_Out_PM.c **** *
  76:.\Generated_Source\PSoC4/UART_Out_PM.c **** * Global Variables:
  77:.\Generated_Source\PSoC4/UART_Out_PM.c **** *  UART_Out_backup - used when non-retention registers are restored.
  78:.\Generated_Source\PSoC4/UART_Out_PM.c **** *
  79:.\Generated_Source\PSoC4/UART_Out_PM.c **** * Reentrant:
  80:.\Generated_Source\PSoC4/UART_Out_PM.c **** *  No.
  81:.\Generated_Source\PSoC4/UART_Out_PM.c **** *
  82:.\Generated_Source\PSoC4/UART_Out_PM.c **** * Notes:
  83:.\Generated_Source\PSoC4/UART_Out_PM.c **** *  If this function is called without calling UART_Out_SaveConfig() 
  84:.\Generated_Source\PSoC4/UART_Out_PM.c **** *  first, the data loaded may be incorrect.
  85:.\Generated_Source\PSoC4/UART_Out_PM.c **** *
  86:.\Generated_Source\PSoC4/UART_Out_PM.c **** *******************************************************************************/
  87:.\Generated_Source\PSoC4/UART_Out_PM.c **** void UART_Out_RestoreConfig(void)
  88:.\Generated_Source\PSoC4/UART_Out_PM.c **** {
  42              		.loc 1 88 0
  43              		.cfi_startproc
  89:.\Generated_Source\PSoC4/UART_Out_PM.c ****     #if(UART_Out_CONTROL_REG_REMOVED == 0u)
  90:.\Generated_Source\PSoC4/UART_Out_PM.c ****         UART_Out_CONTROL_REG = UART_Out_backup.cr;
  91:.\Generated_Source\PSoC4/UART_Out_PM.c ****     #endif /* End UART_Out_CONTROL_REG_REMOVED */
  92:.\Generated_Source\PSoC4/UART_Out_PM.c **** }
  44              		.loc 1 92 0
  45              		@ sp needed
  46 0000 7047     		bx	lr
  47              		.cfi_endproc
  48              	.LFE1:
  49              		.size	UART_Out_RestoreConfig, .-UART_Out_RestoreConfig
  50 0002 C046     		.section	.text.UART_Out_Sleep,"ax",%progbits
  51              		.align	2
  52              		.global	UART_Out_Sleep
  53              		.code	16
  54              		.thumb_func
  55              		.type	UART_Out_Sleep, %function
  56              	UART_Out_Sleep:
  57              	.LFB2:
  93:.\Generated_Source\PSoC4/UART_Out_PM.c **** 
  94:.\Generated_Source\PSoC4/UART_Out_PM.c **** 
  95:.\Generated_Source\PSoC4/UART_Out_PM.c **** /*******************************************************************************
  96:.\Generated_Source\PSoC4/UART_Out_PM.c **** * Function Name: UART_Out_Sleep
  97:.\Generated_Source\PSoC4/UART_Out_PM.c **** ********************************************************************************
  98:.\Generated_Source\PSoC4/UART_Out_PM.c **** *
  99:.\Generated_Source\PSoC4/UART_Out_PM.c **** * Summary:
 100:.\Generated_Source\PSoC4/UART_Out_PM.c **** *  This is the preferred API to prepare the component for sleep. 
 101:.\Generated_Source\PSoC4/UART_Out_PM.c **** *  The UART_Out_Sleep() API saves the current component state. Then it
 102:.\Generated_Source\PSoC4/UART_Out_PM.c **** *  calls the UART_Out_Stop() function and calls 
 103:.\Generated_Source\PSoC4/UART_Out_PM.c **** *  UART_Out_SaveConfig() to save the hardware configuration.
 104:.\Generated_Source\PSoC4/UART_Out_PM.c **** *  Call the UART_Out_Sleep() function before calling the CyPmSleep() 
 105:.\Generated_Source\PSoC4/UART_Out_PM.c **** *  or the CyPmHibernate() function. 
 106:.\Generated_Source\PSoC4/UART_Out_PM.c **** *
 107:.\Generated_Source\PSoC4/UART_Out_PM.c **** * Parameters:
 108:.\Generated_Source\PSoC4/UART_Out_PM.c **** *  None.
 109:.\Generated_Source\PSoC4/UART_Out_PM.c **** *
 110:.\Generated_Source\PSoC4/UART_Out_PM.c **** * Return:
 111:.\Generated_Source\PSoC4/UART_Out_PM.c **** *  None.
 112:.\Generated_Source\PSoC4/UART_Out_PM.c **** *
 113:.\Generated_Source\PSoC4/UART_Out_PM.c **** * Global Variables:
 114:.\Generated_Source\PSoC4/UART_Out_PM.c **** *  UART_Out_backup - modified when non-retention registers are saved.
ARM GAS  C:\Users\faithc\AppData\Local\Temp\ccxciHNb.s 			page 4


 115:.\Generated_Source\PSoC4/UART_Out_PM.c **** *
 116:.\Generated_Source\PSoC4/UART_Out_PM.c **** * Reentrant:
 117:.\Generated_Source\PSoC4/UART_Out_PM.c **** *  No.
 118:.\Generated_Source\PSoC4/UART_Out_PM.c **** *
 119:.\Generated_Source\PSoC4/UART_Out_PM.c **** *******************************************************************************/
 120:.\Generated_Source\PSoC4/UART_Out_PM.c **** void UART_Out_Sleep(void)
 121:.\Generated_Source\PSoC4/UART_Out_PM.c **** {
  58              		.loc 1 121 0
  59              		.cfi_startproc
  60 0000 08B5     		push	{r3, lr}
  61              		.cfi_def_cfa_offset 8
  62              		.cfi_offset 3, -8
  63              		.cfi_offset 14, -4
 122:.\Generated_Source\PSoC4/UART_Out_PM.c ****     #if(UART_Out_RX_ENABLED || UART_Out_HD_ENABLED)
 123:.\Generated_Source\PSoC4/UART_Out_PM.c ****         if((UART_Out_RXSTATUS_ACTL_REG  & UART_Out_INT_ENABLE) != 0u)
  64              		.loc 1 123 0
  65 0002 044B     		ldr	r3, .L4
  66 0004 044A     		ldr	r2, .L4+4
  67 0006 1B78     		ldrb	r3, [r3]
 124:.\Generated_Source\PSoC4/UART_Out_PM.c ****         {
 125:.\Generated_Source\PSoC4/UART_Out_PM.c ****             UART_Out_backup.enableState = 1u;
 126:.\Generated_Source\PSoC4/UART_Out_PM.c ****         }
 127:.\Generated_Source\PSoC4/UART_Out_PM.c ****         else
 128:.\Generated_Source\PSoC4/UART_Out_PM.c ****         {
 129:.\Generated_Source\PSoC4/UART_Out_PM.c ****             UART_Out_backup.enableState = 0u;
 130:.\Generated_Source\PSoC4/UART_Out_PM.c ****         }
 131:.\Generated_Source\PSoC4/UART_Out_PM.c ****     #else
 132:.\Generated_Source\PSoC4/UART_Out_PM.c ****         if((UART_Out_TXSTATUS_ACTL_REG  & UART_Out_INT_ENABLE) !=0u)
 133:.\Generated_Source\PSoC4/UART_Out_PM.c ****         {
 134:.\Generated_Source\PSoC4/UART_Out_PM.c ****             UART_Out_backup.enableState = 1u;
 135:.\Generated_Source\PSoC4/UART_Out_PM.c ****         }
 136:.\Generated_Source\PSoC4/UART_Out_PM.c ****         else
 137:.\Generated_Source\PSoC4/UART_Out_PM.c ****         {
 138:.\Generated_Source\PSoC4/UART_Out_PM.c ****             UART_Out_backup.enableState = 0u;
 139:.\Generated_Source\PSoC4/UART_Out_PM.c ****         }
 140:.\Generated_Source\PSoC4/UART_Out_PM.c ****     #endif /* End UART_Out_RX_ENABLED || UART_Out_HD_ENABLED*/
 141:.\Generated_Source\PSoC4/UART_Out_PM.c **** 
 142:.\Generated_Source\PSoC4/UART_Out_PM.c ****     UART_Out_Stop();
 143:.\Generated_Source\PSoC4/UART_Out_PM.c ****     UART_Out_SaveConfig();
 144:.\Generated_Source\PSoC4/UART_Out_PM.c **** }
  68              		.loc 1 144 0
  69              		@ sp needed
 123:.\Generated_Source\PSoC4/UART_Out_PM.c ****         {
  70              		.loc 1 123 0
  71 0008 DB06     		lsl	r3, r3, #27
  72 000a DB0F     		lsr	r3, r3, #31
  73 000c 1370     		strb	r3, [r2]
 142:.\Generated_Source\PSoC4/UART_Out_PM.c ****     UART_Out_SaveConfig();
  74              		.loc 1 142 0
  75 000e FFF7FEFF 		bl	UART_Out_Stop
  76              	.LVL0:
  77              		.loc 1 144 0
  78 0012 08BD     		pop	{r3, pc}
  79              	.L5:
  80              		.align	2
  81              	.L4:
  82 0014 90000F40 		.word	1074725008
ARM GAS  C:\Users\faithc\AppData\Local\Temp\ccxciHNb.s 			page 5


  83 0018 00000000 		.word	.LANCHOR0
  84              		.cfi_endproc
  85              	.LFE2:
  86              		.size	UART_Out_Sleep, .-UART_Out_Sleep
  87              		.section	.text.UART_Out_Wakeup,"ax",%progbits
  88              		.align	2
  89              		.global	UART_Out_Wakeup
  90              		.code	16
  91              		.thumb_func
  92              		.type	UART_Out_Wakeup, %function
  93              	UART_Out_Wakeup:
  94              	.LFB3:
 145:.\Generated_Source\PSoC4/UART_Out_PM.c **** 
 146:.\Generated_Source\PSoC4/UART_Out_PM.c **** 
 147:.\Generated_Source\PSoC4/UART_Out_PM.c **** /*******************************************************************************
 148:.\Generated_Source\PSoC4/UART_Out_PM.c **** * Function Name: UART_Out_Wakeup
 149:.\Generated_Source\PSoC4/UART_Out_PM.c **** ********************************************************************************
 150:.\Generated_Source\PSoC4/UART_Out_PM.c **** *
 151:.\Generated_Source\PSoC4/UART_Out_PM.c **** * Summary:
 152:.\Generated_Source\PSoC4/UART_Out_PM.c **** *  This is the preferred API to restore the component to the state when 
 153:.\Generated_Source\PSoC4/UART_Out_PM.c **** *  UART_Out_Sleep() was called. The UART_Out_Wakeup() function
 154:.\Generated_Source\PSoC4/UART_Out_PM.c **** *  calls the UART_Out_RestoreConfig() function to restore the 
 155:.\Generated_Source\PSoC4/UART_Out_PM.c **** *  configuration. If the component was enabled before the 
 156:.\Generated_Source\PSoC4/UART_Out_PM.c **** *  UART_Out_Sleep() function was called, the UART_Out_Wakeup()
 157:.\Generated_Source\PSoC4/UART_Out_PM.c **** *  function will also re-enable the component.
 158:.\Generated_Source\PSoC4/UART_Out_PM.c **** *
 159:.\Generated_Source\PSoC4/UART_Out_PM.c **** * Parameters:
 160:.\Generated_Source\PSoC4/UART_Out_PM.c **** *  None.
 161:.\Generated_Source\PSoC4/UART_Out_PM.c **** *
 162:.\Generated_Source\PSoC4/UART_Out_PM.c **** * Return:
 163:.\Generated_Source\PSoC4/UART_Out_PM.c **** *  None.
 164:.\Generated_Source\PSoC4/UART_Out_PM.c **** *
 165:.\Generated_Source\PSoC4/UART_Out_PM.c **** * Global Variables:
 166:.\Generated_Source\PSoC4/UART_Out_PM.c **** *  UART_Out_backup - used when non-retention registers are restored.
 167:.\Generated_Source\PSoC4/UART_Out_PM.c **** *
 168:.\Generated_Source\PSoC4/UART_Out_PM.c **** * Reentrant:
 169:.\Generated_Source\PSoC4/UART_Out_PM.c **** *  No.
 170:.\Generated_Source\PSoC4/UART_Out_PM.c **** *
 171:.\Generated_Source\PSoC4/UART_Out_PM.c **** *******************************************************************************/
 172:.\Generated_Source\PSoC4/UART_Out_PM.c **** void UART_Out_Wakeup(void)
 173:.\Generated_Source\PSoC4/UART_Out_PM.c **** {
  95              		.loc 1 173 0
  96              		.cfi_startproc
  97 0000 08B5     		push	{r3, lr}
  98              		.cfi_def_cfa_offset 8
  99              		.cfi_offset 3, -8
 100              		.cfi_offset 14, -4
 174:.\Generated_Source\PSoC4/UART_Out_PM.c ****     UART_Out_RestoreConfig();
 175:.\Generated_Source\PSoC4/UART_Out_PM.c ****     #if( (UART_Out_RX_ENABLED) || (UART_Out_HD_ENABLED) )
 176:.\Generated_Source\PSoC4/UART_Out_PM.c ****         UART_Out_ClearRxBuffer();
 101              		.loc 1 176 0
 102 0002 FFF7FEFF 		bl	UART_Out_ClearRxBuffer
 103              	.LVL1:
 177:.\Generated_Source\PSoC4/UART_Out_PM.c ****     #endif /* End (UART_Out_RX_ENABLED) || (UART_Out_HD_ENABLED) */
 178:.\Generated_Source\PSoC4/UART_Out_PM.c ****     #if(UART_Out_TX_ENABLED || UART_Out_HD_ENABLED)
 179:.\Generated_Source\PSoC4/UART_Out_PM.c ****         UART_Out_ClearTxBuffer();
 104              		.loc 1 179 0
ARM GAS  C:\Users\faithc\AppData\Local\Temp\ccxciHNb.s 			page 6


 105 0006 FFF7FEFF 		bl	UART_Out_ClearTxBuffer
 106              	.LVL2:
 180:.\Generated_Source\PSoC4/UART_Out_PM.c ****     #endif /* End UART_Out_TX_ENABLED || UART_Out_HD_ENABLED */
 181:.\Generated_Source\PSoC4/UART_Out_PM.c **** 
 182:.\Generated_Source\PSoC4/UART_Out_PM.c ****     if(UART_Out_backup.enableState != 0u)
 107              		.loc 1 182 0
 108 000a 034B     		ldr	r3, .L12
 109 000c 1B78     		ldrb	r3, [r3]
 110 000e 002B     		cmp	r3, #0
 111 0010 01D0     		beq	.L6
 183:.\Generated_Source\PSoC4/UART_Out_PM.c ****     {
 184:.\Generated_Source\PSoC4/UART_Out_PM.c ****         UART_Out_Enable();
 112              		.loc 1 184 0
 113 0012 FFF7FEFF 		bl	UART_Out_Enable
 114              	.LVL3:
 115              	.L6:
 185:.\Generated_Source\PSoC4/UART_Out_PM.c ****     }
 186:.\Generated_Source\PSoC4/UART_Out_PM.c **** }
 116              		.loc 1 186 0
 117              		@ sp needed
 118 0016 08BD     		pop	{r3, pc}
 119              	.L13:
 120              		.align	2
 121              	.L12:
 122 0018 00000000 		.word	.LANCHOR0
 123              		.cfi_endproc
 124              	.LFE3:
 125              		.size	UART_Out_Wakeup, .-UART_Out_Wakeup
 126              		.bss
 127              		.align	2
 128              		.set	.LANCHOR0,. + 0
 129              		.type	UART_Out_backup, %object
 130              		.size	UART_Out_backup, 1
 131              	UART_Out_backup:
 132 0000 00       		.space	1
 133 0001 000000   		.text
 134              	.Letext0:
 135              		.file 2 ".\\Generated_Source\\PSoC4\\cytypes.h"
 136              		.file 3 ".\\Generated_Source\\PSoC4\\UART_Out.h"