ARM GAS  C:\Users\faithc\AppData\Local\Temp\ccjM2v7T.s 			page 1


   1              		.cpu cortex-m0
   2              		.fpu softvfp
   3              		.eabi_attribute 20, 1
   4              		.eabi_attribute 21, 1
   5              		.eabi_attribute 23, 3
   6              		.eabi_attribute 24, 1
   7              		.eabi_attribute 25, 1
   8              		.eabi_attribute 26, 1
   9              		.eabi_attribute 30, 2
  10              		.eabi_attribute 34, 0
  11              		.eabi_attribute 18, 4
  12              		.code	16
  13              		.file	"UART_In_UART.c"
  14              		.text
  15              	.Ltext0:
  16              		.cfi_sections	.debug_frame
  17              		.section	.text.UART_In_UartInit,"ax",%progbits
  18              		.align	2
  19              		.global	UART_In_UartInit
  20              		.code	16
  21              		.thumb_func
  22              		.type	UART_In_UartInit, %function
  23              	UART_In_UartInit:
  24              	.LFB0:
  25              		.file 1 ".\\Generated_Source\\PSoC4\\UART_In_UART.c"
   1:.\Generated_Source\PSoC4/UART_In_UART.c **** /*******************************************************************************
   2:.\Generated_Source\PSoC4/UART_In_UART.c **** * File Name: UART_In_UART.c
   3:.\Generated_Source\PSoC4/UART_In_UART.c **** * Version 3.10
   4:.\Generated_Source\PSoC4/UART_In_UART.c **** *
   5:.\Generated_Source\PSoC4/UART_In_UART.c **** * Description:
   6:.\Generated_Source\PSoC4/UART_In_UART.c **** *  This file provides the source code to the API for the SCB Component in
   7:.\Generated_Source\PSoC4/UART_In_UART.c **** *  UART mode.
   8:.\Generated_Source\PSoC4/UART_In_UART.c **** *
   9:.\Generated_Source\PSoC4/UART_In_UART.c **** * Note:
  10:.\Generated_Source\PSoC4/UART_In_UART.c **** *
  11:.\Generated_Source\PSoC4/UART_In_UART.c **** *******************************************************************************
  12:.\Generated_Source\PSoC4/UART_In_UART.c **** * Copyright 2013-2015, Cypress Semiconductor Corporation.  All rights reserved.
  13:.\Generated_Source\PSoC4/UART_In_UART.c **** * You may use this file only in accordance with the license, terms, conditions,
  14:.\Generated_Source\PSoC4/UART_In_UART.c **** * disclaimers, and limitations in the end user license agreement accompanying
  15:.\Generated_Source\PSoC4/UART_In_UART.c **** * the software package with which this file was provided.
  16:.\Generated_Source\PSoC4/UART_In_UART.c **** *******************************************************************************/
  17:.\Generated_Source\PSoC4/UART_In_UART.c **** 
  18:.\Generated_Source\PSoC4/UART_In_UART.c **** #include "UART_In_PVT.h"
  19:.\Generated_Source\PSoC4/UART_In_UART.c **** #include "UART_In_SPI_UART_PVT.h"
  20:.\Generated_Source\PSoC4/UART_In_UART.c **** 
  21:.\Generated_Source\PSoC4/UART_In_UART.c **** 
  22:.\Generated_Source\PSoC4/UART_In_UART.c **** #if(UART_In_SCB_MODE_UNCONFIG_CONST_CFG)
  23:.\Generated_Source\PSoC4/UART_In_UART.c **** 
  24:.\Generated_Source\PSoC4/UART_In_UART.c ****     /***************************************
  25:.\Generated_Source\PSoC4/UART_In_UART.c ****     *  Configuration Structure Initialization
  26:.\Generated_Source\PSoC4/UART_In_UART.c ****     ***************************************/
  27:.\Generated_Source\PSoC4/UART_In_UART.c **** 
  28:.\Generated_Source\PSoC4/UART_In_UART.c ****     const UART_In_UART_INIT_STRUCT UART_In_configUart =
  29:.\Generated_Source\PSoC4/UART_In_UART.c ****     {
  30:.\Generated_Source\PSoC4/UART_In_UART.c ****         UART_In_UART_SUB_MODE,
  31:.\Generated_Source\PSoC4/UART_In_UART.c ****         UART_In_UART_DIRECTION,
  32:.\Generated_Source\PSoC4/UART_In_UART.c ****         UART_In_UART_DATA_BITS_NUM,
ARM GAS  C:\Users\faithc\AppData\Local\Temp\ccjM2v7T.s 			page 2


  33:.\Generated_Source\PSoC4/UART_In_UART.c ****         UART_In_UART_PARITY_TYPE,
  34:.\Generated_Source\PSoC4/UART_In_UART.c ****         UART_In_UART_STOP_BITS_NUM,
  35:.\Generated_Source\PSoC4/UART_In_UART.c ****         UART_In_UART_OVS_FACTOR,
  36:.\Generated_Source\PSoC4/UART_In_UART.c ****         UART_In_UART_IRDA_LOW_POWER,
  37:.\Generated_Source\PSoC4/UART_In_UART.c ****         UART_In_UART_MEDIAN_FILTER_ENABLE,
  38:.\Generated_Source\PSoC4/UART_In_UART.c ****         UART_In_UART_RETRY_ON_NACK,
  39:.\Generated_Source\PSoC4/UART_In_UART.c ****         UART_In_UART_IRDA_POLARITY,
  40:.\Generated_Source\PSoC4/UART_In_UART.c ****         UART_In_UART_DROP_ON_PARITY_ERR,
  41:.\Generated_Source\PSoC4/UART_In_UART.c ****         UART_In_UART_DROP_ON_FRAME_ERR,
  42:.\Generated_Source\PSoC4/UART_In_UART.c ****         UART_In_UART_WAKE_ENABLE,
  43:.\Generated_Source\PSoC4/UART_In_UART.c ****         0u,
  44:.\Generated_Source\PSoC4/UART_In_UART.c ****         NULL,
  45:.\Generated_Source\PSoC4/UART_In_UART.c ****         0u,
  46:.\Generated_Source\PSoC4/UART_In_UART.c ****         NULL,
  47:.\Generated_Source\PSoC4/UART_In_UART.c ****         UART_In_UART_MP_MODE_ENABLE,
  48:.\Generated_Source\PSoC4/UART_In_UART.c ****         UART_In_UART_MP_ACCEPT_ADDRESS,
  49:.\Generated_Source\PSoC4/UART_In_UART.c ****         UART_In_UART_MP_RX_ADDRESS,
  50:.\Generated_Source\PSoC4/UART_In_UART.c ****         UART_In_UART_MP_RX_ADDRESS_MASK,
  51:.\Generated_Source\PSoC4/UART_In_UART.c ****         (uint32) UART_In_SCB_IRQ_INTERNAL,
  52:.\Generated_Source\PSoC4/UART_In_UART.c ****         UART_In_UART_INTR_RX_MASK,
  53:.\Generated_Source\PSoC4/UART_In_UART.c ****         UART_In_UART_RX_TRIGGER_LEVEL,
  54:.\Generated_Source\PSoC4/UART_In_UART.c ****         UART_In_UART_INTR_TX_MASK,
  55:.\Generated_Source\PSoC4/UART_In_UART.c ****         UART_In_UART_TX_TRIGGER_LEVEL,
  56:.\Generated_Source\PSoC4/UART_In_UART.c ****         (uint8) UART_In_UART_BYTE_MODE_ENABLE,
  57:.\Generated_Source\PSoC4/UART_In_UART.c ****         (uint8) UART_In_UART_CTS_ENABLE,
  58:.\Generated_Source\PSoC4/UART_In_UART.c ****         (uint8) UART_In_UART_CTS_POLARITY,
  59:.\Generated_Source\PSoC4/UART_In_UART.c ****         (uint8) UART_In_UART_RTS_POLARITY,
  60:.\Generated_Source\PSoC4/UART_In_UART.c ****         (uint8) UART_In_UART_RTS_FIFO_LEVEL
  61:.\Generated_Source\PSoC4/UART_In_UART.c ****     };
  62:.\Generated_Source\PSoC4/UART_In_UART.c **** 
  63:.\Generated_Source\PSoC4/UART_In_UART.c **** 
  64:.\Generated_Source\PSoC4/UART_In_UART.c ****     /*******************************************************************************
  65:.\Generated_Source\PSoC4/UART_In_UART.c ****     * Function Name: UART_In_UartInit
  66:.\Generated_Source\PSoC4/UART_In_UART.c ****     ********************************************************************************
  67:.\Generated_Source\PSoC4/UART_In_UART.c ****     *
  68:.\Generated_Source\PSoC4/UART_In_UART.c ****     * Summary:
  69:.\Generated_Source\PSoC4/UART_In_UART.c ****     *  Configures the SCB for the UART operation.
  70:.\Generated_Source\PSoC4/UART_In_UART.c ****     *
  71:.\Generated_Source\PSoC4/UART_In_UART.c ****     * Parameters:
  72:.\Generated_Source\PSoC4/UART_In_UART.c ****     *  config:  Pointer to a structure that contains the following ordered list of
  73:.\Generated_Source\PSoC4/UART_In_UART.c ****     *           fields. These fields match the selections available in the
  74:.\Generated_Source\PSoC4/UART_In_UART.c ****     *           customizer.
  75:.\Generated_Source\PSoC4/UART_In_UART.c ****     *
  76:.\Generated_Source\PSoC4/UART_In_UART.c ****     * Return:
  77:.\Generated_Source\PSoC4/UART_In_UART.c ****     *  None
  78:.\Generated_Source\PSoC4/UART_In_UART.c ****     *
  79:.\Generated_Source\PSoC4/UART_In_UART.c ****     *******************************************************************************/
  80:.\Generated_Source\PSoC4/UART_In_UART.c ****     void UART_In_UartInit(const UART_In_UART_INIT_STRUCT *config)
  81:.\Generated_Source\PSoC4/UART_In_UART.c ****     {
  82:.\Generated_Source\PSoC4/UART_In_UART.c ****         uint32 pinsConfig;
  83:.\Generated_Source\PSoC4/UART_In_UART.c **** 
  84:.\Generated_Source\PSoC4/UART_In_UART.c ****         if (NULL == config)
  85:.\Generated_Source\PSoC4/UART_In_UART.c ****         {
  86:.\Generated_Source\PSoC4/UART_In_UART.c ****             CYASSERT(0u != 0u); /* Halt execution due to bad function parameter */
  87:.\Generated_Source\PSoC4/UART_In_UART.c ****         }
  88:.\Generated_Source\PSoC4/UART_In_UART.c ****         else
  89:.\Generated_Source\PSoC4/UART_In_UART.c ****         {
ARM GAS  C:\Users\faithc\AppData\Local\Temp\ccjM2v7T.s 			page 3


  90:.\Generated_Source\PSoC4/UART_In_UART.c ****             /* Get direction to configure UART pins: TX, RX or TX+RX */
  91:.\Generated_Source\PSoC4/UART_In_UART.c ****             pinsConfig  = config->direction;
  92:.\Generated_Source\PSoC4/UART_In_UART.c **** 
  93:.\Generated_Source\PSoC4/UART_In_UART.c ****         #if !(UART_In_CY_SCBIP_V0 || UART_In_CY_SCBIP_V1)
  94:.\Generated_Source\PSoC4/UART_In_UART.c ****             /* Add RTS and CTS pins to configure */
  95:.\Generated_Source\PSoC4/UART_In_UART.c ****             pinsConfig |= (0u != config->rtsRxFifoLevel) ? (UART_In_UART_RTS_PIN_ENABLE) : (0u);
  96:.\Generated_Source\PSoC4/UART_In_UART.c ****             pinsConfig |= (0u != config->enableCts)      ? (UART_In_UART_CTS_PIN_ENABLE) : (0u);
  97:.\Generated_Source\PSoC4/UART_In_UART.c ****         #endif /* !(UART_In_CY_SCBIP_V0 || UART_In_CY_SCBIP_V1) */
  98:.\Generated_Source\PSoC4/UART_In_UART.c **** 
  99:.\Generated_Source\PSoC4/UART_In_UART.c ****             /* Configure pins */
 100:.\Generated_Source\PSoC4/UART_In_UART.c ****             UART_In_SetPins(UART_In_SCB_MODE_UART, config->mode, pinsConfig);
 101:.\Generated_Source\PSoC4/UART_In_UART.c **** 
 102:.\Generated_Source\PSoC4/UART_In_UART.c ****             /* Store internal configuration */
 103:.\Generated_Source\PSoC4/UART_In_UART.c ****             UART_In_scbMode       = (uint8) UART_In_SCB_MODE_UART;
 104:.\Generated_Source\PSoC4/UART_In_UART.c ****             UART_In_scbEnableWake = (uint8) config->enableWake;
 105:.\Generated_Source\PSoC4/UART_In_UART.c ****             UART_In_scbEnableIntr = (uint8) config->enableInterrupt;
 106:.\Generated_Source\PSoC4/UART_In_UART.c **** 
 107:.\Generated_Source\PSoC4/UART_In_UART.c ****             /* Set RX direction internal variables */
 108:.\Generated_Source\PSoC4/UART_In_UART.c ****             UART_In_rxBuffer      =         config->rxBuffer;
 109:.\Generated_Source\PSoC4/UART_In_UART.c ****             UART_In_rxDataBits    = (uint8) config->dataBits;
 110:.\Generated_Source\PSoC4/UART_In_UART.c ****             UART_In_rxBufferSize  = (uint8) config->rxBufferSize;
 111:.\Generated_Source\PSoC4/UART_In_UART.c **** 
 112:.\Generated_Source\PSoC4/UART_In_UART.c ****             /* Set TX direction internal variables */
 113:.\Generated_Source\PSoC4/UART_In_UART.c ****             UART_In_txBuffer      =         config->txBuffer;
 114:.\Generated_Source\PSoC4/UART_In_UART.c ****             UART_In_txDataBits    = (uint8) config->dataBits;
 115:.\Generated_Source\PSoC4/UART_In_UART.c ****             UART_In_txBufferSize  = (uint8) config->txBufferSize;
 116:.\Generated_Source\PSoC4/UART_In_UART.c **** 
 117:.\Generated_Source\PSoC4/UART_In_UART.c ****             /* Configure UART interface */
 118:.\Generated_Source\PSoC4/UART_In_UART.c ****             if(UART_In_UART_MODE_IRDA == config->mode)
 119:.\Generated_Source\PSoC4/UART_In_UART.c ****             {
 120:.\Generated_Source\PSoC4/UART_In_UART.c ****                 /* OVS settings: IrDA */
 121:.\Generated_Source\PSoC4/UART_In_UART.c ****                 UART_In_CTRL_REG  = ((0u != config->enableIrdaLowPower) ?
 122:.\Generated_Source\PSoC4/UART_In_UART.c ****                                                 (UART_In_UART_GET_CTRL_OVS_IRDA_LP(config->oversamp
 123:.\Generated_Source\PSoC4/UART_In_UART.c ****                                                 (UART_In_CTRL_OVS_IRDA_OVS16));
 124:.\Generated_Source\PSoC4/UART_In_UART.c ****             }
 125:.\Generated_Source\PSoC4/UART_In_UART.c ****             else
 126:.\Generated_Source\PSoC4/UART_In_UART.c ****             {
 127:.\Generated_Source\PSoC4/UART_In_UART.c ****                 /* OVS settings: UART and SmartCard */
 128:.\Generated_Source\PSoC4/UART_In_UART.c ****                 UART_In_CTRL_REG  = UART_In_GET_CTRL_OVS(config->oversample);
 129:.\Generated_Source\PSoC4/UART_In_UART.c ****             }
 130:.\Generated_Source\PSoC4/UART_In_UART.c **** 
 131:.\Generated_Source\PSoC4/UART_In_UART.c ****             UART_In_CTRL_REG     |= UART_In_GET_CTRL_BYTE_MODE  (config->enableByteMode)      |
 132:.\Generated_Source\PSoC4/UART_In_UART.c ****                                              UART_In_GET_CTRL_ADDR_ACCEPT(config->multiprocAcceptAd
 133:.\Generated_Source\PSoC4/UART_In_UART.c ****                                              UART_In_CTRL_UART;
 134:.\Generated_Source\PSoC4/UART_In_UART.c **** 
 135:.\Generated_Source\PSoC4/UART_In_UART.c ****             /* Configure sub-mode: UART, SmartCard or IrDA */
 136:.\Generated_Source\PSoC4/UART_In_UART.c ****             UART_In_UART_CTRL_REG = UART_In_GET_UART_CTRL_MODE(config->mode);
 137:.\Generated_Source\PSoC4/UART_In_UART.c **** 
 138:.\Generated_Source\PSoC4/UART_In_UART.c ****             /* Configure RX direction */
 139:.\Generated_Source\PSoC4/UART_In_UART.c ****             UART_In_UART_RX_CTRL_REG = UART_In_GET_UART_RX_CTRL_MODE(config->stopBits)             
 140:.\Generated_Source\PSoC4/UART_In_UART.c ****                                         UART_In_GET_UART_RX_CTRL_POLARITY(config->enableInvertedRx)
 141:.\Generated_Source\PSoC4/UART_In_UART.c ****                                         UART_In_GET_UART_RX_CTRL_MP_MODE(config->enableMultiproc)  
 142:.\Generated_Source\PSoC4/UART_In_UART.c ****                                         UART_In_GET_UART_RX_CTRL_DROP_ON_PARITY_ERR(config->dropOnP
 143:.\Generated_Source\PSoC4/UART_In_UART.c ****                                         UART_In_GET_UART_RX_CTRL_DROP_ON_FRAME_ERR(config->dropOnFr
 144:.\Generated_Source\PSoC4/UART_In_UART.c **** 
 145:.\Generated_Source\PSoC4/UART_In_UART.c ****             if(UART_In_UART_PARITY_NONE != config->parity)
 146:.\Generated_Source\PSoC4/UART_In_UART.c ****             {
ARM GAS  C:\Users\faithc\AppData\Local\Temp\ccjM2v7T.s 			page 4


 147:.\Generated_Source\PSoC4/UART_In_UART.c ****                UART_In_UART_RX_CTRL_REG |= UART_In_GET_UART_RX_CTRL_PARITY(config->parity) |
 148:.\Generated_Source\PSoC4/UART_In_UART.c ****                                                     UART_In_UART_RX_CTRL_PARITY_ENABLED;
 149:.\Generated_Source\PSoC4/UART_In_UART.c ****             }
 150:.\Generated_Source\PSoC4/UART_In_UART.c **** 
 151:.\Generated_Source\PSoC4/UART_In_UART.c ****             UART_In_RX_CTRL_REG      = UART_In_GET_RX_CTRL_DATA_WIDTH(config->dataBits)       |
 152:.\Generated_Source\PSoC4/UART_In_UART.c ****                                                 UART_In_GET_RX_CTRL_MEDIAN(config->enableMedianFilt
 153:.\Generated_Source\PSoC4/UART_In_UART.c ****                                                 UART_In_GET_UART_RX_CTRL_ENABLED(config->direction)
 154:.\Generated_Source\PSoC4/UART_In_UART.c **** 
 155:.\Generated_Source\PSoC4/UART_In_UART.c ****             UART_In_RX_FIFO_CTRL_REG = UART_In_GET_RX_FIFO_CTRL_TRIGGER_LEVEL(config->rxTriggerLeve
 156:.\Generated_Source\PSoC4/UART_In_UART.c **** 
 157:.\Generated_Source\PSoC4/UART_In_UART.c ****             /* Configure MP address */
 158:.\Generated_Source\PSoC4/UART_In_UART.c ****             UART_In_RX_MATCH_REG     = UART_In_GET_RX_MATCH_ADDR(config->multiprocAddr) |
 159:.\Generated_Source\PSoC4/UART_In_UART.c ****                                                 UART_In_GET_RX_MATCH_MASK(config->multiprocAddrMask
 160:.\Generated_Source\PSoC4/UART_In_UART.c **** 
 161:.\Generated_Source\PSoC4/UART_In_UART.c ****             /* Configure RX direction */
 162:.\Generated_Source\PSoC4/UART_In_UART.c ****             UART_In_UART_TX_CTRL_REG = UART_In_GET_UART_TX_CTRL_MODE(config->stopBits) |
 163:.\Generated_Source\PSoC4/UART_In_UART.c ****                                                 UART_In_GET_UART_TX_CTRL_RETRY_NACK(config->enableR
 164:.\Generated_Source\PSoC4/UART_In_UART.c **** 
 165:.\Generated_Source\PSoC4/UART_In_UART.c ****             if(UART_In_UART_PARITY_NONE != config->parity)
 166:.\Generated_Source\PSoC4/UART_In_UART.c ****             {
 167:.\Generated_Source\PSoC4/UART_In_UART.c ****                UART_In_UART_TX_CTRL_REG |= UART_In_GET_UART_TX_CTRL_PARITY(config->parity) |
 168:.\Generated_Source\PSoC4/UART_In_UART.c ****                                                     UART_In_UART_TX_CTRL_PARITY_ENABLED;
 169:.\Generated_Source\PSoC4/UART_In_UART.c ****             }
 170:.\Generated_Source\PSoC4/UART_In_UART.c **** 
 171:.\Generated_Source\PSoC4/UART_In_UART.c ****             UART_In_TX_CTRL_REG      = UART_In_GET_TX_CTRL_DATA_WIDTH(config->dataBits)    |
 172:.\Generated_Source\PSoC4/UART_In_UART.c ****                                                 UART_In_GET_UART_TX_CTRL_ENABLED(config->direction)
 173:.\Generated_Source\PSoC4/UART_In_UART.c **** 
 174:.\Generated_Source\PSoC4/UART_In_UART.c ****             UART_In_TX_FIFO_CTRL_REG = UART_In_GET_TX_FIFO_CTRL_TRIGGER_LEVEL(config->txTriggerLeve
 175:.\Generated_Source\PSoC4/UART_In_UART.c **** 
 176:.\Generated_Source\PSoC4/UART_In_UART.c ****         #if !(UART_In_CY_SCBIP_V0 || UART_In_CY_SCBIP_V1)
 177:.\Generated_Source\PSoC4/UART_In_UART.c ****             UART_In_UART_FLOW_CTRL_REG = UART_In_GET_UART_FLOW_CTRL_CTS_ENABLE(config->enableCts) |
 178:.\Generated_Source\PSoC4/UART_In_UART.c ****                                             UART_In_GET_UART_FLOW_CTRL_CTS_POLARITY (config->ctsPol
 179:.\Generated_Source\PSoC4/UART_In_UART.c ****                                             UART_In_GET_UART_FLOW_CTRL_RTS_POLARITY (config->rtsPol
 180:.\Generated_Source\PSoC4/UART_In_UART.c ****                                             UART_In_GET_UART_FLOW_CTRL_TRIGGER_LEVEL(config->rtsRxF
 181:.\Generated_Source\PSoC4/UART_In_UART.c ****         #endif /* !(UART_In_CY_SCBIP_V0 || UART_In_CY_SCBIP_V1) */
 182:.\Generated_Source\PSoC4/UART_In_UART.c **** 
 183:.\Generated_Source\PSoC4/UART_In_UART.c ****             /* Configure interrupt with UART handler but do not enable it */
 184:.\Generated_Source\PSoC4/UART_In_UART.c ****             CyIntDisable    (UART_In_ISR_NUMBER);
 185:.\Generated_Source\PSoC4/UART_In_UART.c ****             CyIntSetPriority(UART_In_ISR_NUMBER, UART_In_ISR_PRIORITY);
 186:.\Generated_Source\PSoC4/UART_In_UART.c ****             (void) CyIntSetVector(UART_In_ISR_NUMBER, &UART_In_SPI_UART_ISR);
 187:.\Generated_Source\PSoC4/UART_In_UART.c **** 
 188:.\Generated_Source\PSoC4/UART_In_UART.c ****             /* Configure WAKE interrupt */
 189:.\Generated_Source\PSoC4/UART_In_UART.c ****         #if(UART_In_UART_RX_WAKEUP_IRQ)
 190:.\Generated_Source\PSoC4/UART_In_UART.c ****             CyIntDisable    (UART_In_RX_WAKE_ISR_NUMBER);
 191:.\Generated_Source\PSoC4/UART_In_UART.c ****             CyIntSetPriority(UART_In_RX_WAKE_ISR_NUMBER, UART_In_RX_WAKE_ISR_PRIORITY);
 192:.\Generated_Source\PSoC4/UART_In_UART.c ****             (void) CyIntSetVector(UART_In_RX_WAKE_ISR_NUMBER, &UART_In_UART_WAKEUP_ISR);
 193:.\Generated_Source\PSoC4/UART_In_UART.c ****         #endif /* (UART_In_UART_RX_WAKEUP_IRQ) */
 194:.\Generated_Source\PSoC4/UART_In_UART.c **** 
 195:.\Generated_Source\PSoC4/UART_In_UART.c ****             /* Configure interrupt sources */
 196:.\Generated_Source\PSoC4/UART_In_UART.c ****             UART_In_INTR_I2C_EC_MASK_REG = UART_In_NO_INTR_SOURCES;
 197:.\Generated_Source\PSoC4/UART_In_UART.c ****             UART_In_INTR_SPI_EC_MASK_REG = UART_In_NO_INTR_SOURCES;
 198:.\Generated_Source\PSoC4/UART_In_UART.c ****             UART_In_INTR_SLAVE_MASK_REG  = UART_In_NO_INTR_SOURCES;
 199:.\Generated_Source\PSoC4/UART_In_UART.c ****             UART_In_INTR_MASTER_MASK_REG = UART_In_NO_INTR_SOURCES;
 200:.\Generated_Source\PSoC4/UART_In_UART.c ****             UART_In_INTR_RX_MASK_REG     = config->rxInterruptMask;
 201:.\Generated_Source\PSoC4/UART_In_UART.c ****             UART_In_INTR_TX_MASK_REG     = config->txInterruptMask;
 202:.\Generated_Source\PSoC4/UART_In_UART.c **** 
 203:.\Generated_Source\PSoC4/UART_In_UART.c ****             /* Clear RX buffer indexes */
ARM GAS  C:\Users\faithc\AppData\Local\Temp\ccjM2v7T.s 			page 5


 204:.\Generated_Source\PSoC4/UART_In_UART.c ****             UART_In_rxBufferHead     = 0u;
 205:.\Generated_Source\PSoC4/UART_In_UART.c ****             UART_In_rxBufferTail     = 0u;
 206:.\Generated_Source\PSoC4/UART_In_UART.c ****             UART_In_rxBufferOverflow = 0u;
 207:.\Generated_Source\PSoC4/UART_In_UART.c **** 
 208:.\Generated_Source\PSoC4/UART_In_UART.c ****             /* Clear TX buffer indexes */
 209:.\Generated_Source\PSoC4/UART_In_UART.c ****             UART_In_txBufferHead = 0u;
 210:.\Generated_Source\PSoC4/UART_In_UART.c ****             UART_In_txBufferTail = 0u;
 211:.\Generated_Source\PSoC4/UART_In_UART.c ****         }
 212:.\Generated_Source\PSoC4/UART_In_UART.c ****     }
 213:.\Generated_Source\PSoC4/UART_In_UART.c **** 
 214:.\Generated_Source\PSoC4/UART_In_UART.c **** #else
 215:.\Generated_Source\PSoC4/UART_In_UART.c **** 
 216:.\Generated_Source\PSoC4/UART_In_UART.c ****     /*******************************************************************************
 217:.\Generated_Source\PSoC4/UART_In_UART.c ****     * Function Name: UART_In_UartInit
 218:.\Generated_Source\PSoC4/UART_In_UART.c ****     ********************************************************************************
 219:.\Generated_Source\PSoC4/UART_In_UART.c ****     *
 220:.\Generated_Source\PSoC4/UART_In_UART.c ****     * Summary:
 221:.\Generated_Source\PSoC4/UART_In_UART.c ****     *  Configures the SCB for the UART operation.
 222:.\Generated_Source\PSoC4/UART_In_UART.c ****     *
 223:.\Generated_Source\PSoC4/UART_In_UART.c ****     * Parameters:
 224:.\Generated_Source\PSoC4/UART_In_UART.c ****     *  None
 225:.\Generated_Source\PSoC4/UART_In_UART.c ****     *
 226:.\Generated_Source\PSoC4/UART_In_UART.c ****     * Return:
 227:.\Generated_Source\PSoC4/UART_In_UART.c ****     *  None
 228:.\Generated_Source\PSoC4/UART_In_UART.c ****     *
 229:.\Generated_Source\PSoC4/UART_In_UART.c ****     *******************************************************************************/
 230:.\Generated_Source\PSoC4/UART_In_UART.c ****     void UART_In_UartInit(void)
 231:.\Generated_Source\PSoC4/UART_In_UART.c ****     {
  26              		.loc 1 231 0
  27              		.cfi_startproc
 232:.\Generated_Source\PSoC4/UART_In_UART.c ****         /* Configure UART interface */
 233:.\Generated_Source\PSoC4/UART_In_UART.c ****         UART_In_CTRL_REG = UART_In_UART_DEFAULT_CTRL;
  28              		.loc 1 233 0
  29 0000 124A     		ldr	r2, .L2
  30 0002 134B     		ldr	r3, .L2+4
 231:.\Generated_Source\PSoC4/UART_In_UART.c ****         /* Configure UART interface */
  31              		.loc 1 231 0
  32 0004 10B5     		push	{r4, lr}
  33              		.cfi_def_cfa_offset 8
  34              		.cfi_offset 4, -8
  35              		.cfi_offset 14, -4
  36              		.loc 1 233 0
  37 0006 1A60     		str	r2, [r3]
 234:.\Generated_Source\PSoC4/UART_In_UART.c **** 
 235:.\Generated_Source\PSoC4/UART_In_UART.c ****         /* Configure sub-mode: UART, SmartCard or IrDA */
 236:.\Generated_Source\PSoC4/UART_In_UART.c ****         UART_In_UART_CTRL_REG = UART_In_UART_DEFAULT_UART_CTRL;
  38              		.loc 1 236 0
  39 0008 0023     		mov	r3, #0
 237:.\Generated_Source\PSoC4/UART_In_UART.c **** 
 238:.\Generated_Source\PSoC4/UART_In_UART.c ****         /* Configure RX direction */
 239:.\Generated_Source\PSoC4/UART_In_UART.c ****         UART_In_UART_RX_CTRL_REG = UART_In_UART_DEFAULT_UART_RX_CTRL;
  40              		.loc 1 239 0
  41 000a 0121     		mov	r1, #1
 240:.\Generated_Source\PSoC4/UART_In_UART.c ****         UART_In_RX_CTRL_REG      = UART_In_UART_DEFAULT_RX_CTRL;
 241:.\Generated_Source\PSoC4/UART_In_UART.c ****         UART_In_RX_FIFO_CTRL_REG = UART_In_UART_DEFAULT_RX_FIFO_CTRL;
  42              		.loc 1 241 0
  43 000c 0724     		mov	r4, #7
ARM GAS  C:\Users\faithc\AppData\Local\Temp\ccjM2v7T.s 			page 6


 236:.\Generated_Source\PSoC4/UART_In_UART.c **** 
  44              		.loc 1 236 0
  45 000e 114A     		ldr	r2, .L2+8
 240:.\Generated_Source\PSoC4/UART_In_UART.c ****         UART_In_RX_CTRL_REG      = UART_In_UART_DEFAULT_RX_CTRL;
  46              		.loc 1 240 0
  47 0010 1148     		ldr	r0, .L2+12
 236:.\Generated_Source\PSoC4/UART_In_UART.c **** 
  48              		.loc 1 236 0
  49 0012 1360     		str	r3, [r2]
 239:.\Generated_Source\PSoC4/UART_In_UART.c ****         UART_In_RX_CTRL_REG      = UART_In_UART_DEFAULT_RX_CTRL;
  50              		.loc 1 239 0
  51 0014 114A     		ldr	r2, .L2+16
 242:.\Generated_Source\PSoC4/UART_In_UART.c ****         UART_In_RX_MATCH_REG     = UART_In_UART_DEFAULT_RX_MATCH_REG;
 243:.\Generated_Source\PSoC4/UART_In_UART.c **** 
 244:.\Generated_Source\PSoC4/UART_In_UART.c ****         /* Configure TX direction */
 245:.\Generated_Source\PSoC4/UART_In_UART.c ****         UART_In_UART_TX_CTRL_REG = UART_In_UART_DEFAULT_UART_TX_CTRL;
 246:.\Generated_Source\PSoC4/UART_In_UART.c ****         UART_In_TX_CTRL_REG      = UART_In_UART_DEFAULT_TX_CTRL;
 247:.\Generated_Source\PSoC4/UART_In_UART.c ****         UART_In_TX_FIFO_CTRL_REG = UART_In_UART_DEFAULT_TX_FIFO_CTRL;
 248:.\Generated_Source\PSoC4/UART_In_UART.c **** 
 249:.\Generated_Source\PSoC4/UART_In_UART.c ****     #if !(UART_In_CY_SCBIP_V0 || UART_In_CY_SCBIP_V1)
 250:.\Generated_Source\PSoC4/UART_In_UART.c ****         UART_In_UART_FLOW_CTRL_REG = UART_In_UART_DEFAULT_FLOW_CTRL;
 251:.\Generated_Source\PSoC4/UART_In_UART.c ****     #endif /* !(UART_In_CY_SCBIP_V0 || UART_In_CY_SCBIP_V1) */
 252:.\Generated_Source\PSoC4/UART_In_UART.c **** 
 253:.\Generated_Source\PSoC4/UART_In_UART.c ****         /* Configure interrupt with UART handler but do not enable it */
 254:.\Generated_Source\PSoC4/UART_In_UART.c ****     #if(UART_In_SCB_IRQ_INTERNAL)
 255:.\Generated_Source\PSoC4/UART_In_UART.c ****         CyIntDisable    (UART_In_ISR_NUMBER);
 256:.\Generated_Source\PSoC4/UART_In_UART.c ****         CyIntSetPriority(UART_In_ISR_NUMBER, UART_In_ISR_PRIORITY);
 257:.\Generated_Source\PSoC4/UART_In_UART.c ****         (void) CyIntSetVector(UART_In_ISR_NUMBER, &UART_In_SPI_UART_ISR);
 258:.\Generated_Source\PSoC4/UART_In_UART.c ****     #endif /* (UART_In_SCB_IRQ_INTERNAL) */
 259:.\Generated_Source\PSoC4/UART_In_UART.c **** 
 260:.\Generated_Source\PSoC4/UART_In_UART.c ****         /* Configure WAKE interrupt */
 261:.\Generated_Source\PSoC4/UART_In_UART.c ****     #if(UART_In_UART_RX_WAKEUP_IRQ)
 262:.\Generated_Source\PSoC4/UART_In_UART.c ****         CyIntDisable    (UART_In_RX_WAKE_ISR_NUMBER);
 263:.\Generated_Source\PSoC4/UART_In_UART.c ****         CyIntSetPriority(UART_In_RX_WAKE_ISR_NUMBER, UART_In_RX_WAKE_ISR_PRIORITY);
 264:.\Generated_Source\PSoC4/UART_In_UART.c ****         (void) CyIntSetVector(UART_In_RX_WAKE_ISR_NUMBER, &UART_In_UART_WAKEUP_ISR);
 265:.\Generated_Source\PSoC4/UART_In_UART.c ****     #endif /* (UART_In_UART_RX_WAKEUP_IRQ) */
 266:.\Generated_Source\PSoC4/UART_In_UART.c **** 
 267:.\Generated_Source\PSoC4/UART_In_UART.c ****         /* Configure interrupt sources */
 268:.\Generated_Source\PSoC4/UART_In_UART.c ****         UART_In_INTR_I2C_EC_MASK_REG = UART_In_UART_DEFAULT_INTR_I2C_EC_MASK;
 269:.\Generated_Source\PSoC4/UART_In_UART.c ****         UART_In_INTR_SPI_EC_MASK_REG = UART_In_UART_DEFAULT_INTR_SPI_EC_MASK;
 270:.\Generated_Source\PSoC4/UART_In_UART.c ****         UART_In_INTR_SLAVE_MASK_REG  = UART_In_UART_DEFAULT_INTR_SLAVE_MASK;
 271:.\Generated_Source\PSoC4/UART_In_UART.c ****         UART_In_INTR_MASTER_MASK_REG = UART_In_UART_DEFAULT_INTR_MASTER_MASK;
 272:.\Generated_Source\PSoC4/UART_In_UART.c ****         UART_In_INTR_RX_MASK_REG     = UART_In_UART_DEFAULT_INTR_RX_MASK;
 273:.\Generated_Source\PSoC4/UART_In_UART.c ****         UART_In_INTR_TX_MASK_REG     = UART_In_UART_DEFAULT_INTR_TX_MASK;
 274:.\Generated_Source\PSoC4/UART_In_UART.c **** 
 275:.\Generated_Source\PSoC4/UART_In_UART.c ****     #if(UART_In_INTERNAL_RX_SW_BUFFER_CONST)
 276:.\Generated_Source\PSoC4/UART_In_UART.c ****         UART_In_rxBufferHead     = 0u;
 277:.\Generated_Source\PSoC4/UART_In_UART.c ****         UART_In_rxBufferTail     = 0u;
 278:.\Generated_Source\PSoC4/UART_In_UART.c ****         UART_In_rxBufferOverflow = 0u;
 279:.\Generated_Source\PSoC4/UART_In_UART.c ****     #endif /* (UART_In_INTERNAL_RX_SW_BUFFER_CONST) */
 280:.\Generated_Source\PSoC4/UART_In_UART.c **** 
 281:.\Generated_Source\PSoC4/UART_In_UART.c ****     #if(UART_In_INTERNAL_TX_SW_BUFFER_CONST)
 282:.\Generated_Source\PSoC4/UART_In_UART.c ****         UART_In_txBufferHead = 0u;
 283:.\Generated_Source\PSoC4/UART_In_UART.c ****         UART_In_txBufferTail = 0u;
 284:.\Generated_Source\PSoC4/UART_In_UART.c ****     #endif /* (UART_In_INTERNAL_TX_SW_BUFFER_CONST) */
 285:.\Generated_Source\PSoC4/UART_In_UART.c ****     }
  52              		.loc 1 285 0
ARM GAS  C:\Users\faithc\AppData\Local\Temp\ccjM2v7T.s 			page 7


  53              		@ sp needed
 239:.\Generated_Source\PSoC4/UART_In_UART.c ****         UART_In_RX_CTRL_REG      = UART_In_UART_DEFAULT_RX_CTRL;
  54              		.loc 1 239 0
  55 0016 1160     		str	r1, [r2]
 240:.\Generated_Source\PSoC4/UART_In_UART.c ****         UART_In_RX_FIFO_CTRL_REG = UART_In_UART_DEFAULT_RX_FIFO_CTRL;
  56              		.loc 1 240 0
  57 0018 114A     		ldr	r2, .L2+20
  58 001a 0260     		str	r2, [r0]
 241:.\Generated_Source\PSoC4/UART_In_UART.c ****         UART_In_RX_MATCH_REG     = UART_In_UART_DEFAULT_RX_MATCH_REG;
  59              		.loc 1 241 0
  60 001c 1148     		ldr	r0, .L2+24
  61 001e 0460     		str	r4, [r0]
 242:.\Generated_Source\PSoC4/UART_In_UART.c ****         UART_In_RX_MATCH_REG     = UART_In_UART_DEFAULT_RX_MATCH_REG;
  62              		.loc 1 242 0
  63 0020 1148     		ldr	r0, .L2+28
  64 0022 0360     		str	r3, [r0]
 245:.\Generated_Source\PSoC4/UART_In_UART.c ****         UART_In_TX_CTRL_REG      = UART_In_UART_DEFAULT_TX_CTRL;
  65              		.loc 1 245 0
  66 0024 1148     		ldr	r0, .L2+32
  67 0026 0160     		str	r1, [r0]
 246:.\Generated_Source\PSoC4/UART_In_UART.c ****         UART_In_TX_FIFO_CTRL_REG = UART_In_UART_DEFAULT_TX_FIFO_CTRL;
  68              		.loc 1 246 0
  69 0028 1149     		ldr	r1, .L2+36
  70 002a 0A60     		str	r2, [r1]
 272:.\Generated_Source\PSoC4/UART_In_UART.c ****         UART_In_INTR_TX_MASK_REG     = UART_In_UART_DEFAULT_INTR_TX_MASK;
  71              		.loc 1 272 0
  72 002c 0421     		mov	r1, #4
 247:.\Generated_Source\PSoC4/UART_In_UART.c **** 
  73              		.loc 1 247 0
  74 002e 114A     		ldr	r2, .L2+40
  75 0030 1360     		str	r3, [r2]
 268:.\Generated_Source\PSoC4/UART_In_UART.c ****         UART_In_INTR_SPI_EC_MASK_REG = UART_In_UART_DEFAULT_INTR_SPI_EC_MASK;
  76              		.loc 1 268 0
  77 0032 114A     		ldr	r2, .L2+44
  78 0034 1360     		str	r3, [r2]
 269:.\Generated_Source\PSoC4/UART_In_UART.c ****         UART_In_INTR_SLAVE_MASK_REG  = UART_In_UART_DEFAULT_INTR_SLAVE_MASK;
  79              		.loc 1 269 0
  80 0036 114A     		ldr	r2, .L2+48
  81 0038 1360     		str	r3, [r2]
 270:.\Generated_Source\PSoC4/UART_In_UART.c ****         UART_In_INTR_MASTER_MASK_REG = UART_In_UART_DEFAULT_INTR_MASTER_MASK;
  82              		.loc 1 270 0
  83 003a 114A     		ldr	r2, .L2+52
  84 003c 1360     		str	r3, [r2]
 271:.\Generated_Source\PSoC4/UART_In_UART.c ****         UART_In_INTR_RX_MASK_REG     = UART_In_UART_DEFAULT_INTR_RX_MASK;
  85              		.loc 1 271 0
  86 003e 114A     		ldr	r2, .L2+56
  87 0040 1360     		str	r3, [r2]
 272:.\Generated_Source\PSoC4/UART_In_UART.c ****         UART_In_INTR_TX_MASK_REG     = UART_In_UART_DEFAULT_INTR_TX_MASK;
  88              		.loc 1 272 0
  89 0042 114A     		ldr	r2, .L2+60
  90 0044 1160     		str	r1, [r2]
 273:.\Generated_Source\PSoC4/UART_In_UART.c **** 
  91              		.loc 1 273 0
  92 0046 114A     		ldr	r2, .L2+64
  93 0048 1360     		str	r3, [r2]
  94              		.loc 1 285 0
  95 004a 10BD     		pop	{r4, pc}
ARM GAS  C:\Users\faithc\AppData\Local\Temp\ccjM2v7T.s 			page 8


  96              	.L3:
  97              		.align	2
  98              	.L2:
  99 004c 0B000002 		.word	33554443
 100 0050 00000740 		.word	1074200576
 101 0054 40000740 		.word	1074200640
 102 0058 00030740 		.word	1074201344
 103 005c 48000740 		.word	1074200648
 104 0060 07000080 		.word	-2147483641
 105 0064 04030740 		.word	1074201348
 106 0068 10030740 		.word	1074201360
 107 006c 44000740 		.word	1074200644
 108 0070 00020740 		.word	1074201088
 109 0074 04020740 		.word	1074201092
 110 0078 880E0740 		.word	1074204296
 111 007c C80E0740 		.word	1074204360
 112 0080 480F0740 		.word	1074204488
 113 0084 080F0740 		.word	1074204424
 114 0088 C80F0740 		.word	1074204616
 115 008c 880F0740 		.word	1074204552
 116              		.cfi_endproc
 117              	.LFE0:
 118              		.size	UART_In_UartInit, .-UART_In_UartInit
 119              		.section	.text.UART_In_UartPostEnable,"ax",%progbits
 120              		.align	2
 121              		.global	UART_In_UartPostEnable
 122              		.code	16
 123              		.thumb_func
 124              		.type	UART_In_UartPostEnable, %function
 125              	UART_In_UartPostEnable:
 126              	.LFB1:
 286:.\Generated_Source\PSoC4/UART_In_UART.c **** #endif /* (UART_In_SCB_MODE_UNCONFIG_CONST_CFG) */
 287:.\Generated_Source\PSoC4/UART_In_UART.c **** 
 288:.\Generated_Source\PSoC4/UART_In_UART.c **** 
 289:.\Generated_Source\PSoC4/UART_In_UART.c **** /*******************************************************************************
 290:.\Generated_Source\PSoC4/UART_In_UART.c **** * Function Name: UART_In_UartPostEnable
 291:.\Generated_Source\PSoC4/UART_In_UART.c **** ********************************************************************************
 292:.\Generated_Source\PSoC4/UART_In_UART.c **** *
 293:.\Generated_Source\PSoC4/UART_In_UART.c **** * Summary:
 294:.\Generated_Source\PSoC4/UART_In_UART.c **** *  Restores HSIOM settings for the UART output pins (TX and/or RTS) to be 
 295:.\Generated_Source\PSoC4/UART_In_UART.c **** *  controlled by the SCB UART.
 296:.\Generated_Source\PSoC4/UART_In_UART.c **** *
 297:.\Generated_Source\PSoC4/UART_In_UART.c **** * Parameters:
 298:.\Generated_Source\PSoC4/UART_In_UART.c **** *  None
 299:.\Generated_Source\PSoC4/UART_In_UART.c **** *
 300:.\Generated_Source\PSoC4/UART_In_UART.c **** * Return:
 301:.\Generated_Source\PSoC4/UART_In_UART.c **** *  None
 302:.\Generated_Source\PSoC4/UART_In_UART.c **** *
 303:.\Generated_Source\PSoC4/UART_In_UART.c **** *******************************************************************************/
 304:.\Generated_Source\PSoC4/UART_In_UART.c **** void UART_In_UartPostEnable(void)
 305:.\Generated_Source\PSoC4/UART_In_UART.c **** {
 127              		.loc 1 305 0
 128              		.cfi_startproc
 306:.\Generated_Source\PSoC4/UART_In_UART.c **** #if (UART_In_SCB_MODE_UNCONFIG_CONST_CFG)
 307:.\Generated_Source\PSoC4/UART_In_UART.c **** 
 308:.\Generated_Source\PSoC4/UART_In_UART.c **** #if (UART_In_TX_SDA_MISO_PIN)
 309:.\Generated_Source\PSoC4/UART_In_UART.c ****     if (UART_In_CHECK_TX_SDA_MISO_PIN_USED)
ARM GAS  C:\Users\faithc\AppData\Local\Temp\ccjM2v7T.s 			page 9


 310:.\Generated_Source\PSoC4/UART_In_UART.c ****     {
 311:.\Generated_Source\PSoC4/UART_In_UART.c ****         /* Set SCB UART to drive the output pin */
 312:.\Generated_Source\PSoC4/UART_In_UART.c ****         UART_In_SET_HSIOM_SEL(UART_In_TX_SDA_MISO_HSIOM_REG, UART_In_TX_SDA_MISO_HSIOM_MASK,
 313:.\Generated_Source\PSoC4/UART_In_UART.c ****                                        UART_In_TX_SDA_MISO_HSIOM_POS, UART_In_HSIOM_UART_SEL);
 314:.\Generated_Source\PSoC4/UART_In_UART.c ****     }
 315:.\Generated_Source\PSoC4/UART_In_UART.c **** #endif /* (UART_In_TX_SDA_MISO_PIN_PIN) */
 316:.\Generated_Source\PSoC4/UART_In_UART.c **** 
 317:.\Generated_Source\PSoC4/UART_In_UART.c **** #if (UART_In_SS0_PIN)
 318:.\Generated_Source\PSoC4/UART_In_UART.c ****     if (UART_In_CHECK_SS0_PIN_USED)
 319:.\Generated_Source\PSoC4/UART_In_UART.c ****     {
 320:.\Generated_Source\PSoC4/UART_In_UART.c ****         /* Set SCB UART to drive the output pin */
 321:.\Generated_Source\PSoC4/UART_In_UART.c ****         UART_In_SET_HSIOM_SEL(UART_In_SS0_HSIOM_REG, UART_In_SS0_HSIOM_MASK,
 322:.\Generated_Source\PSoC4/UART_In_UART.c ****                                        UART_In_SS0_HSIOM_POS, UART_In_HSIOM_UART_SEL);
 323:.\Generated_Source\PSoC4/UART_In_UART.c ****     }
 324:.\Generated_Source\PSoC4/UART_In_UART.c **** #endif /* (UART_In_SS0_PIN) */
 325:.\Generated_Source\PSoC4/UART_In_UART.c **** 
 326:.\Generated_Source\PSoC4/UART_In_UART.c **** #else
 327:.\Generated_Source\PSoC4/UART_In_UART.c **** #if (UART_In_UART_TX_PIN)
 328:.\Generated_Source\PSoC4/UART_In_UART.c ****      /* Set SCB UART to drive the output pin */
 329:.\Generated_Source\PSoC4/UART_In_UART.c ****     UART_In_SET_HSIOM_SEL(UART_In_TX_HSIOM_REG, UART_In_TX_HSIOM_MASK,
 129              		.loc 1 329 0
 130 0000 F022     		mov	r2, #240
 131 0002 0349     		ldr	r1, .L5
 330:.\Generated_Source\PSoC4/UART_In_UART.c ****                                    UART_In_TX_HSIOM_POS, UART_In_HSIOM_UART_SEL);
 331:.\Generated_Source\PSoC4/UART_In_UART.c **** #endif /* (UART_In_UART_TX_PIN) */
 332:.\Generated_Source\PSoC4/UART_In_UART.c **** 
 333:.\Generated_Source\PSoC4/UART_In_UART.c **** #if (UART_In_UART_RTS_PIN)
 334:.\Generated_Source\PSoC4/UART_In_UART.c ****     /* Set SCB UART to drive the output pin */
 335:.\Generated_Source\PSoC4/UART_In_UART.c ****     UART_In_SET_HSIOM_SEL(UART_In_RTS_HSIOM_REG, UART_In_RTS_HSIOM_MASK,
 336:.\Generated_Source\PSoC4/UART_In_UART.c ****                                    UART_In_RTS_HSIOM_POS, UART_In_HSIOM_UART_SEL);
 337:.\Generated_Source\PSoC4/UART_In_UART.c **** #endif /* (UART_In_UART_RTS_PIN) */
 338:.\Generated_Source\PSoC4/UART_In_UART.c **** 
 339:.\Generated_Source\PSoC4/UART_In_UART.c **** #endif /* (UART_In_SCB_MODE_UNCONFIG_CONST_CFG) */
 340:.\Generated_Source\PSoC4/UART_In_UART.c **** }
 132              		.loc 1 340 0
 133              		@ sp needed
 329:.\Generated_Source\PSoC4/UART_In_UART.c ****                                    UART_In_TX_HSIOM_POS, UART_In_HSIOM_UART_SEL);
 134              		.loc 1 329 0
 135 0004 0B68     		ldr	r3, [r1]
 136 0006 9343     		bic	r3, r2
 137 0008 603A     		sub	r2, r2, #96
 138 000a 1343     		orr	r3, r2
 139 000c 0B60     		str	r3, [r1]
 140              		.loc 1 340 0
 141 000e 7047     		bx	lr
 142              	.L6:
 143              		.align	2
 144              	.L5:
 145 0010 0C000140 		.word	1073807372
 146              		.cfi_endproc
 147              	.LFE1:
 148              		.size	UART_In_UartPostEnable, .-UART_In_UartPostEnable
 149              		.section	.text.UART_In_UartStop,"ax",%progbits
 150              		.align	2
 151              		.global	UART_In_UartStop
 152              		.code	16
 153              		.thumb_func
ARM GAS  C:\Users\faithc\AppData\Local\Temp\ccjM2v7T.s 			page 10


 154              		.type	UART_In_UartStop, %function
 155              	UART_In_UartStop:
 156              	.LFB2:
 341:.\Generated_Source\PSoC4/UART_In_UART.c **** 
 342:.\Generated_Source\PSoC4/UART_In_UART.c **** 
 343:.\Generated_Source\PSoC4/UART_In_UART.c **** /*******************************************************************************
 344:.\Generated_Source\PSoC4/UART_In_UART.c **** * Function Name: UART_In_UartStop
 345:.\Generated_Source\PSoC4/UART_In_UART.c **** ********************************************************************************
 346:.\Generated_Source\PSoC4/UART_In_UART.c **** *
 347:.\Generated_Source\PSoC4/UART_In_UART.c **** * Summary:
 348:.\Generated_Source\PSoC4/UART_In_UART.c **** *  Changes the HSIOM settings for the UART output pins (TX and/or RTS) to keep
 349:.\Generated_Source\PSoC4/UART_In_UART.c **** *  them inactive after the block is disabled. The output pins are controlled by
 350:.\Generated_Source\PSoC4/UART_In_UART.c **** *  the GPIO data register. Also, the function disables the skip start feature to
 351:.\Generated_Source\PSoC4/UART_In_UART.c **** *  not cause it to trigger after the component is enabled.
 352:.\Generated_Source\PSoC4/UART_In_UART.c **** *
 353:.\Generated_Source\PSoC4/UART_In_UART.c **** * Parameters:
 354:.\Generated_Source\PSoC4/UART_In_UART.c **** *  None
 355:.\Generated_Source\PSoC4/UART_In_UART.c **** *
 356:.\Generated_Source\PSoC4/UART_In_UART.c **** * Return:
 357:.\Generated_Source\PSoC4/UART_In_UART.c **** *  None
 358:.\Generated_Source\PSoC4/UART_In_UART.c **** *
 359:.\Generated_Source\PSoC4/UART_In_UART.c **** *******************************************************************************/
 360:.\Generated_Source\PSoC4/UART_In_UART.c **** void UART_In_UartStop(void)
 361:.\Generated_Source\PSoC4/UART_In_UART.c **** {
 157              		.loc 1 361 0
 158              		.cfi_startproc
 362:.\Generated_Source\PSoC4/UART_In_UART.c **** #if(UART_In_SCB_MODE_UNCONFIG_CONST_CFG)
 363:.\Generated_Source\PSoC4/UART_In_UART.c ****     #if (UART_In_TX_SDA_MISO_PIN)
 364:.\Generated_Source\PSoC4/UART_In_UART.c ****         if (UART_In_CHECK_TX_SDA_MISO_PIN_USED)
 365:.\Generated_Source\PSoC4/UART_In_UART.c ****         {
 366:.\Generated_Source\PSoC4/UART_In_UART.c ****             /* Set GPIO to drive output pin */
 367:.\Generated_Source\PSoC4/UART_In_UART.c ****             UART_In_SET_HSIOM_SEL(UART_In_TX_SDA_MISO_HSIOM_REG, UART_In_TX_SDA_MISO_HSIOM_MASK,
 368:.\Generated_Source\PSoC4/UART_In_UART.c ****                                            UART_In_TX_SDA_MISO_HSIOM_POS, UART_In_HSIOM_GPIO_SEL);
 369:.\Generated_Source\PSoC4/UART_In_UART.c ****         }
 370:.\Generated_Source\PSoC4/UART_In_UART.c ****     #endif /* (UART_In_TX_SDA_MISO_PIN_PIN) */
 371:.\Generated_Source\PSoC4/UART_In_UART.c **** 
 372:.\Generated_Source\PSoC4/UART_In_UART.c ****     #if (UART_In_SS0_PIN)
 373:.\Generated_Source\PSoC4/UART_In_UART.c ****         if (UART_In_CHECK_SS0_PIN_USED)
 374:.\Generated_Source\PSoC4/UART_In_UART.c ****         {
 375:.\Generated_Source\PSoC4/UART_In_UART.c ****             /* Set output pin state after block is disabled */
 376:.\Generated_Source\PSoC4/UART_In_UART.c ****             UART_In_spi_ss0_Write(UART_In_GET_UART_RTS_INACTIVE);
 377:.\Generated_Source\PSoC4/UART_In_UART.c **** 
 378:.\Generated_Source\PSoC4/UART_In_UART.c ****             /* Set GPIO to drive output pin */
 379:.\Generated_Source\PSoC4/UART_In_UART.c ****             UART_In_SET_HSIOM_SEL(UART_In_SS0_HSIOM_REG, UART_In_SS0_HSIOM_MASK,
 380:.\Generated_Source\PSoC4/UART_In_UART.c ****                                            UART_In_SS0_HSIOM_POS, UART_In_HSIOM_GPIO_SEL);
 381:.\Generated_Source\PSoC4/UART_In_UART.c ****         }
 382:.\Generated_Source\PSoC4/UART_In_UART.c ****     #endif /* (UART_In_SS0_PIN) */
 383:.\Generated_Source\PSoC4/UART_In_UART.c **** 
 384:.\Generated_Source\PSoC4/UART_In_UART.c **** #else
 385:.\Generated_Source\PSoC4/UART_In_UART.c ****     #if (UART_In_UART_TX_PIN)
 386:.\Generated_Source\PSoC4/UART_In_UART.c ****         /* Set GPIO to drive output pin */
 387:.\Generated_Source\PSoC4/UART_In_UART.c ****         UART_In_SET_HSIOM_SEL(UART_In_TX_HSIOM_REG, UART_In_TX_HSIOM_MASK,
 159              		.loc 1 387 0
 160 0000 F021     		mov	r1, #240
 161 0002 024A     		ldr	r2, .L8
 388:.\Generated_Source\PSoC4/UART_In_UART.c ****                                        UART_In_TX_HSIOM_POS, UART_In_HSIOM_GPIO_SEL);
 389:.\Generated_Source\PSoC4/UART_In_UART.c ****     #endif /* (UART_In_UART_TX_PIN) */
ARM GAS  C:\Users\faithc\AppData\Local\Temp\ccjM2v7T.s 			page 11


 390:.\Generated_Source\PSoC4/UART_In_UART.c **** 
 391:.\Generated_Source\PSoC4/UART_In_UART.c ****     #if (UART_In_UART_RTS_PIN)
 392:.\Generated_Source\PSoC4/UART_In_UART.c ****         /* Set output pin state after block is disabled */
 393:.\Generated_Source\PSoC4/UART_In_UART.c ****         UART_In_rts_Write(UART_In_GET_UART_RTS_INACTIVE);
 394:.\Generated_Source\PSoC4/UART_In_UART.c **** 
 395:.\Generated_Source\PSoC4/UART_In_UART.c ****         /* Set GPIO to drive output pin */
 396:.\Generated_Source\PSoC4/UART_In_UART.c ****         UART_In_SET_HSIOM_SEL(UART_In_RTS_HSIOM_REG, UART_In_RTS_HSIOM_MASK,
 397:.\Generated_Source\PSoC4/UART_In_UART.c ****                                        UART_In_RTS_HSIOM_POS, UART_In_HSIOM_GPIO_SEL);
 398:.\Generated_Source\PSoC4/UART_In_UART.c ****     #endif /* (UART_In_UART_RTS_PIN) */
 399:.\Generated_Source\PSoC4/UART_In_UART.c **** 
 400:.\Generated_Source\PSoC4/UART_In_UART.c **** #endif /* (UART_In_SCB_MODE_UNCONFIG_CONST_CFG) */
 401:.\Generated_Source\PSoC4/UART_In_UART.c **** 
 402:.\Generated_Source\PSoC4/UART_In_UART.c **** #if (UART_In_UART_WAKE_ENABLE_CONST)
 403:.\Generated_Source\PSoC4/UART_In_UART.c ****     /* Disable skip start feature used for wakeup */
 404:.\Generated_Source\PSoC4/UART_In_UART.c ****     UART_In_UART_RX_CTRL_REG &= (uint32) ~UART_In_UART_RX_CTRL_SKIP_START;
 405:.\Generated_Source\PSoC4/UART_In_UART.c **** #endif /* (UART_In_UART_WAKE_ENABLE_CONST) */
 406:.\Generated_Source\PSoC4/UART_In_UART.c **** }
 162              		.loc 1 406 0
 163              		@ sp needed
 387:.\Generated_Source\PSoC4/UART_In_UART.c ****                                        UART_In_TX_HSIOM_POS, UART_In_HSIOM_GPIO_SEL);
 164              		.loc 1 387 0
 165 0004 1368     		ldr	r3, [r2]
 166 0006 8B43     		bic	r3, r1
 167 0008 1360     		str	r3, [r2]
 168              		.loc 1 406 0
 169 000a 7047     		bx	lr
 170              	.L9:
 171              		.align	2
 172              	.L8:
 173 000c 0C000140 		.word	1073807372
 174              		.cfi_endproc
 175              	.LFE2:
 176              		.size	UART_In_UartStop, .-UART_In_UartStop
 177              		.section	.text.UART_In_UartSetRxAddress,"ax",%progbits
 178              		.align	2
 179              		.global	UART_In_UartSetRxAddress
 180              		.code	16
 181              		.thumb_func
 182              		.type	UART_In_UartSetRxAddress, %function
 183              	UART_In_UartSetRxAddress:
 184              	.LFB3:
 407:.\Generated_Source\PSoC4/UART_In_UART.c **** 
 408:.\Generated_Source\PSoC4/UART_In_UART.c **** 
 409:.\Generated_Source\PSoC4/UART_In_UART.c **** /*******************************************************************************
 410:.\Generated_Source\PSoC4/UART_In_UART.c **** * Function Name: UART_In_UartSetRxAddress
 411:.\Generated_Source\PSoC4/UART_In_UART.c **** ********************************************************************************
 412:.\Generated_Source\PSoC4/UART_In_UART.c **** *
 413:.\Generated_Source\PSoC4/UART_In_UART.c **** * Summary:
 414:.\Generated_Source\PSoC4/UART_In_UART.c **** *  Sets the hardware detectable receiver address for the UART in the
 415:.\Generated_Source\PSoC4/UART_In_UART.c **** *  Multiprocessor mode.
 416:.\Generated_Source\PSoC4/UART_In_UART.c **** *
 417:.\Generated_Source\PSoC4/UART_In_UART.c **** * Parameters:
 418:.\Generated_Source\PSoC4/UART_In_UART.c **** *  address: Address for hardware address detection.
 419:.\Generated_Source\PSoC4/UART_In_UART.c **** *
 420:.\Generated_Source\PSoC4/UART_In_UART.c **** * Return:
 421:.\Generated_Source\PSoC4/UART_In_UART.c **** *  None
 422:.\Generated_Source\PSoC4/UART_In_UART.c **** *
ARM GAS  C:\Users\faithc\AppData\Local\Temp\ccjM2v7T.s 			page 12


 423:.\Generated_Source\PSoC4/UART_In_UART.c **** *******************************************************************************/
 424:.\Generated_Source\PSoC4/UART_In_UART.c **** void UART_In_UartSetRxAddress(uint32 address)
 425:.\Generated_Source\PSoC4/UART_In_UART.c **** {
 185              		.loc 1 425 0
 186              		.cfi_startproc
 187              	.LVL0:
 426:.\Generated_Source\PSoC4/UART_In_UART.c ****      uint32 matchReg;
 427:.\Generated_Source\PSoC4/UART_In_UART.c **** 
 428:.\Generated_Source\PSoC4/UART_In_UART.c ****     matchReg = UART_In_RX_MATCH_REG;
 429:.\Generated_Source\PSoC4/UART_In_UART.c **** 
 430:.\Generated_Source\PSoC4/UART_In_UART.c ****     matchReg &= ((uint32) ~UART_In_RX_MATCH_ADDR_MASK); /* Clear address bits */
 188              		.loc 1 430 0
 189 0000 FF21     		mov	r1, #255
 428:.\Generated_Source\PSoC4/UART_In_UART.c **** 
 190              		.loc 1 428 0
 191 0002 034A     		ldr	r2, .L11
 431:.\Generated_Source\PSoC4/UART_In_UART.c ****     matchReg |= ((uint32)  (address & UART_In_RX_MATCH_ADDR_MASK)); /* Set address  */
 192              		.loc 1 431 0
 193 0004 0840     		and	r0, r1
 194              	.LVL1:
 428:.\Generated_Source\PSoC4/UART_In_UART.c **** 
 195              		.loc 1 428 0
 196 0006 1368     		ldr	r3, [r2]
 197              	.LVL2:
 432:.\Generated_Source\PSoC4/UART_In_UART.c **** 
 433:.\Generated_Source\PSoC4/UART_In_UART.c ****     UART_In_RX_MATCH_REG = matchReg;
 434:.\Generated_Source\PSoC4/UART_In_UART.c **** }
 198              		.loc 1 434 0
 199              		@ sp needed
 430:.\Generated_Source\PSoC4/UART_In_UART.c ****     matchReg |= ((uint32)  (address & UART_In_RX_MATCH_ADDR_MASK)); /* Set address  */
 200              		.loc 1 430 0
 201 0008 8B43     		bic	r3, r1
 202              	.LVL3:
 431:.\Generated_Source\PSoC4/UART_In_UART.c ****     matchReg |= ((uint32)  (address & UART_In_RX_MATCH_ADDR_MASK)); /* Set address  */
 203              		.loc 1 431 0
 204 000a 1843     		orr	r0, r3
 205              	.LVL4:
 433:.\Generated_Source\PSoC4/UART_In_UART.c **** }
 206              		.loc 1 433 0
 207 000c 1060     		str	r0, [r2]
 208              		.loc 1 434 0
 209 000e 7047     		bx	lr
 210              	.L12:
 211              		.align	2
 212              	.L11:
 213 0010 10030740 		.word	1074201360
 214              		.cfi_endproc
 215              	.LFE3:
 216              		.size	UART_In_UartSetRxAddress, .-UART_In_UartSetRxAddress
 217              		.section	.text.UART_In_UartSetRxAddressMask,"ax",%progbits
 218              		.align	2
 219              		.global	UART_In_UartSetRxAddressMask
 220              		.code	16
 221              		.thumb_func
 222              		.type	UART_In_UartSetRxAddressMask, %function
 223              	UART_In_UartSetRxAddressMask:
 224              	.LFB4:
ARM GAS  C:\Users\faithc\AppData\Local\Temp\ccjM2v7T.s 			page 13


 435:.\Generated_Source\PSoC4/UART_In_UART.c **** 
 436:.\Generated_Source\PSoC4/UART_In_UART.c **** 
 437:.\Generated_Source\PSoC4/UART_In_UART.c **** /*******************************************************************************
 438:.\Generated_Source\PSoC4/UART_In_UART.c **** * Function Name: UART_In_UartSetRxAddressMask
 439:.\Generated_Source\PSoC4/UART_In_UART.c **** ********************************************************************************
 440:.\Generated_Source\PSoC4/UART_In_UART.c **** *
 441:.\Generated_Source\PSoC4/UART_In_UART.c **** * Summary:
 442:.\Generated_Source\PSoC4/UART_In_UART.c **** *  Sets the hardware address mask for the UART in the Multiprocessor mode.
 443:.\Generated_Source\PSoC4/UART_In_UART.c **** *
 444:.\Generated_Source\PSoC4/UART_In_UART.c **** * Parameters:
 445:.\Generated_Source\PSoC4/UART_In_UART.c **** *  addressMask: Address mask.
 446:.\Generated_Source\PSoC4/UART_In_UART.c **** *   0 - address bit does not care while comparison.
 447:.\Generated_Source\PSoC4/UART_In_UART.c **** *   1 - address bit is significant while comparison.
 448:.\Generated_Source\PSoC4/UART_In_UART.c **** *
 449:.\Generated_Source\PSoC4/UART_In_UART.c **** * Return:
 450:.\Generated_Source\PSoC4/UART_In_UART.c **** *  None
 451:.\Generated_Source\PSoC4/UART_In_UART.c **** *
 452:.\Generated_Source\PSoC4/UART_In_UART.c **** *******************************************************************************/
 453:.\Generated_Source\PSoC4/UART_In_UART.c **** void UART_In_UartSetRxAddressMask(uint32 addressMask)
 454:.\Generated_Source\PSoC4/UART_In_UART.c **** {
 225              		.loc 1 454 0
 226              		.cfi_startproc
 227              	.LVL5:
 455:.\Generated_Source\PSoC4/UART_In_UART.c ****     uint32 matchReg;
 456:.\Generated_Source\PSoC4/UART_In_UART.c **** 
 457:.\Generated_Source\PSoC4/UART_In_UART.c ****     matchReg = UART_In_RX_MATCH_REG;
 228              		.loc 1 457 0
 229 0000 034A     		ldr	r2, .L14
 458:.\Generated_Source\PSoC4/UART_In_UART.c **** 
 459:.\Generated_Source\PSoC4/UART_In_UART.c ****     matchReg &= ((uint32) ~UART_In_RX_MATCH_MASK_MASK); /* Clear address mask bits */
 230              		.loc 1 459 0
 231 0002 044B     		ldr	r3, .L14+4
 457:.\Generated_Source\PSoC4/UART_In_UART.c **** 
 232              		.loc 1 457 0
 233 0004 1168     		ldr	r1, [r2]
 234              	.LVL6:
 460:.\Generated_Source\PSoC4/UART_In_UART.c ****     matchReg |= ((uint32) (addressMask << UART_In_RX_MATCH_MASK_POS));
 235              		.loc 1 460 0
 236 0006 0004     		lsl	r0, r0, #16
 237              	.LVL7:
 459:.\Generated_Source\PSoC4/UART_In_UART.c ****     matchReg |= ((uint32) (addressMask << UART_In_RX_MATCH_MASK_POS));
 238              		.loc 1 459 0
 239 0008 0B40     		and	r3, r1
 240              	.LVL8:
 241              		.loc 1 460 0
 242 000a 1843     		orr	r0, r3
 243              	.LVL9:
 461:.\Generated_Source\PSoC4/UART_In_UART.c **** 
 462:.\Generated_Source\PSoC4/UART_In_UART.c ****     UART_In_RX_MATCH_REG = matchReg;
 244              		.loc 1 462 0
 245 000c 1060     		str	r0, [r2]
 463:.\Generated_Source\PSoC4/UART_In_UART.c **** }
 246              		.loc 1 463 0
 247              		@ sp needed
 248 000e 7047     		bx	lr
 249              	.L15:
 250              		.align	2
ARM GAS  C:\Users\faithc\AppData\Local\Temp\ccjM2v7T.s 			page 14


 251              	.L14:
 252 0010 10030740 		.word	1074201360
 253 0014 FFFF00FF 		.word	-16711681
 254              		.cfi_endproc
 255              	.LFE4:
 256              		.size	UART_In_UartSetRxAddressMask, .-UART_In_UartSetRxAddressMask
 257              		.section	.text.UART_In_UartGetChar,"ax",%progbits
 258              		.align	2
 259              		.global	UART_In_UartGetChar
 260              		.code	16
 261              		.thumb_func
 262              		.type	UART_In_UartGetChar, %function
 263              	UART_In_UartGetChar:
 264              	.LFB5:
 464:.\Generated_Source\PSoC4/UART_In_UART.c **** 
 465:.\Generated_Source\PSoC4/UART_In_UART.c **** 
 466:.\Generated_Source\PSoC4/UART_In_UART.c **** #if(UART_In_UART_RX_DIRECTION)
 467:.\Generated_Source\PSoC4/UART_In_UART.c ****     /*******************************************************************************
 468:.\Generated_Source\PSoC4/UART_In_UART.c ****     * Function Name: UART_In_UartGetChar
 469:.\Generated_Source\PSoC4/UART_In_UART.c ****     ********************************************************************************
 470:.\Generated_Source\PSoC4/UART_In_UART.c ****     *
 471:.\Generated_Source\PSoC4/UART_In_UART.c ****     * Summary:
 472:.\Generated_Source\PSoC4/UART_In_UART.c ****     *  Retrieves the next data element from the receive buffer.
 473:.\Generated_Source\PSoC4/UART_In_UART.c ****     *  This function is designed for ASCII characters and returns a char
 474:.\Generated_Source\PSoC4/UART_In_UART.c ****     *  where 1 to 255 are valid characters and 0 indicates an error occurred or
 475:.\Generated_Source\PSoC4/UART_In_UART.c ****     *  no data present.
 476:.\Generated_Source\PSoC4/UART_In_UART.c ****     *  - The RX software buffer is disabled: returns the data element
 477:.\Generated_Source\PSoC4/UART_In_UART.c ****     *    retrieved from the RX FIFO.
 478:.\Generated_Source\PSoC4/UART_In_UART.c ****     *    Undefined data will be returned if the RX FIFO is empty.
 479:.\Generated_Source\PSoC4/UART_In_UART.c ****     *  - The RX software buffer is enabled: returns the data element from
 480:.\Generated_Source\PSoC4/UART_In_UART.c ****     *    the software receive buffer.
 481:.\Generated_Source\PSoC4/UART_In_UART.c ****     *
 482:.\Generated_Source\PSoC4/UART_In_UART.c ****     * Parameters:
 483:.\Generated_Source\PSoC4/UART_In_UART.c ****     *  None
 484:.\Generated_Source\PSoC4/UART_In_UART.c ****     *
 485:.\Generated_Source\PSoC4/UART_In_UART.c ****     * Return:
 486:.\Generated_Source\PSoC4/UART_In_UART.c ****     *  The next data element from the receive buffer.
 487:.\Generated_Source\PSoC4/UART_In_UART.c ****     *  ASCII character values from 1 to 255 are valid.
 488:.\Generated_Source\PSoC4/UART_In_UART.c ****     *  A returned zero signifies an error condition or no data available.
 489:.\Generated_Source\PSoC4/UART_In_UART.c ****     *
 490:.\Generated_Source\PSoC4/UART_In_UART.c ****     * Side Effects:
 491:.\Generated_Source\PSoC4/UART_In_UART.c ****     *  The errors bits may not correspond with reading characters due to RX FIFO
 492:.\Generated_Source\PSoC4/UART_In_UART.c ****     *  and software buffer usage.
 493:.\Generated_Source\PSoC4/UART_In_UART.c ****     *  RX software buffer is enabled: The internal software buffer overflow
 494:.\Generated_Source\PSoC4/UART_In_UART.c ****     *  does not treat as an error condition.
 495:.\Generated_Source\PSoC4/UART_In_UART.c ****     *  Check SCB_rxBufferOverflow to capture that error condition.
 496:.\Generated_Source\PSoC4/UART_In_UART.c ****     *
 497:.\Generated_Source\PSoC4/UART_In_UART.c ****     *******************************************************************************/
 498:.\Generated_Source\PSoC4/UART_In_UART.c ****     uint32 UART_In_UartGetChar(void)
 499:.\Generated_Source\PSoC4/UART_In_UART.c ****     {
 265              		.loc 1 499 0
 266              		.cfi_startproc
 267              	.LVL10:
 268 0000 08B5     		push	{r3, lr}
 269              		.cfi_def_cfa_offset 8
 270              		.cfi_offset 3, -8
 271              		.cfi_offset 14, -4
ARM GAS  C:\Users\faithc\AppData\Local\Temp\ccjM2v7T.s 			page 15


 500:.\Generated_Source\PSoC4/UART_In_UART.c ****         uint32 rxData = 0u;
 501:.\Generated_Source\PSoC4/UART_In_UART.c **** 
 502:.\Generated_Source\PSoC4/UART_In_UART.c ****         /* Reads data only if there is data to read */
 503:.\Generated_Source\PSoC4/UART_In_UART.c ****         if (0u != UART_In_SpiUartGetRxBufferSize())
 272              		.loc 1 503 0
 273 0002 FFF7FEFF 		bl	UART_In_SpiUartGetRxBufferSize
 274              	.LVL11:
 275 0006 031C     		mov	r3, r0
 500:.\Generated_Source\PSoC4/UART_In_UART.c ****         uint32 rxData = 0u;
 276              		.loc 1 500 0
 277 0008 0020     		mov	r0, #0
 278              		.loc 1 503 0
 279 000a 002B     		cmp	r3, #0
 280 000c 08D1     		bne	.L25
 281              	.LVL12:
 282              	.L17:
 504:.\Generated_Source\PSoC4/UART_In_UART.c ****         {
 505:.\Generated_Source\PSoC4/UART_In_UART.c ****             rxData = UART_In_SpiUartReadRxData();
 506:.\Generated_Source\PSoC4/UART_In_UART.c ****         }
 507:.\Generated_Source\PSoC4/UART_In_UART.c **** 
 508:.\Generated_Source\PSoC4/UART_In_UART.c ****         if (UART_In_CHECK_INTR_RX(UART_In_INTR_RX_ERR))
 283              		.loc 1 508 0
 284 000e D822     		mov	r2, #216
 285 0010 054B     		ldr	r3, .L26
 286 0012 9200     		lsl	r2, r2, #2
 287 0014 1968     		ldr	r1, [r3]
 288 0016 1142     		tst	r1, r2
 289 0018 01D0     		beq	.L18
 290              	.LVL13:
 509:.\Generated_Source\PSoC4/UART_In_UART.c ****         {
 510:.\Generated_Source\PSoC4/UART_In_UART.c ****             rxData = 0u; /* Error occurred: returns zero */
 291              		.loc 1 510 0
 292 001a 0020     		mov	r0, #0
 511:.\Generated_Source\PSoC4/UART_In_UART.c ****             UART_In_ClearRxInterruptSource(UART_In_INTR_RX_ERR);
 293              		.loc 1 511 0
 294 001c 1A60     		str	r2, [r3]
 295              	.LVL14:
 296              	.L18:
 512:.\Generated_Source\PSoC4/UART_In_UART.c ****         }
 513:.\Generated_Source\PSoC4/UART_In_UART.c **** 
 514:.\Generated_Source\PSoC4/UART_In_UART.c ****         return (rxData);
 515:.\Generated_Source\PSoC4/UART_In_UART.c ****     }
 297              		.loc 1 515 0
 298              		@ sp needed
 299 001e 08BD     		pop	{r3, pc}
 300              	.LVL15:
 301              	.L25:
 505:.\Generated_Source\PSoC4/UART_In_UART.c ****         }
 302              		.loc 1 505 0
 303 0020 FFF7FEFF 		bl	UART_In_SpiUartReadRxData
 304              	.LVL16:
 305 0024 F3E7     		b	.L17
 306              	.L27:
 307 0026 C046     		.align	2
 308              	.L26:
 309 0028 C00F0740 		.word	1074204608
 310              		.cfi_endproc
ARM GAS  C:\Users\faithc\AppData\Local\Temp\ccjM2v7T.s 			page 16


 311              	.LFE5:
 312              		.size	UART_In_UartGetChar, .-UART_In_UartGetChar
 313              		.section	.text.UART_In_UartGetByte,"ax",%progbits
 314              		.align	2
 315              		.global	UART_In_UartGetByte
 316              		.code	16
 317              		.thumb_func
 318              		.type	UART_In_UartGetByte, %function
 319              	UART_In_UartGetByte:
 320              	.LFB6:
 516:.\Generated_Source\PSoC4/UART_In_UART.c **** 
 517:.\Generated_Source\PSoC4/UART_In_UART.c **** 
 518:.\Generated_Source\PSoC4/UART_In_UART.c ****     /*******************************************************************************
 519:.\Generated_Source\PSoC4/UART_In_UART.c ****     * Function Name: UART_In_UartGetByte
 520:.\Generated_Source\PSoC4/UART_In_UART.c ****     ********************************************************************************
 521:.\Generated_Source\PSoC4/UART_In_UART.c ****     *
 522:.\Generated_Source\PSoC4/UART_In_UART.c ****     * Summary:
 523:.\Generated_Source\PSoC4/UART_In_UART.c ****     *  Retrieves the next data element from the receive buffer, returns the
 524:.\Generated_Source\PSoC4/UART_In_UART.c ****     *  received byte and error condition.
 525:.\Generated_Source\PSoC4/UART_In_UART.c ****     *   - The RX software buffer is disabled: returns the data element retrieved
 526:.\Generated_Source\PSoC4/UART_In_UART.c ****     *     from the RX FIFO. Undefined data will be returned if the RX FIFO is
 527:.\Generated_Source\PSoC4/UART_In_UART.c ****     *     empty.
 528:.\Generated_Source\PSoC4/UART_In_UART.c ****     *   - The RX software buffer is enabled: returns data element from the
 529:.\Generated_Source\PSoC4/UART_In_UART.c ****     *     software receive buffer.
 530:.\Generated_Source\PSoC4/UART_In_UART.c ****     *
 531:.\Generated_Source\PSoC4/UART_In_UART.c ****     * Parameters:
 532:.\Generated_Source\PSoC4/UART_In_UART.c ****     *  None
 533:.\Generated_Source\PSoC4/UART_In_UART.c ****     *
 534:.\Generated_Source\PSoC4/UART_In_UART.c ****     * Return:
 535:.\Generated_Source\PSoC4/UART_In_UART.c ****     *  Bits 7-0 contain the next data element from the receive buffer and
 536:.\Generated_Source\PSoC4/UART_In_UART.c ****     *  other bits contain the error condition.
 537:.\Generated_Source\PSoC4/UART_In_UART.c ****     *
 538:.\Generated_Source\PSoC4/UART_In_UART.c ****     * Side Effects:
 539:.\Generated_Source\PSoC4/UART_In_UART.c ****     *  The errors bits may not correspond with reading characters due to RX FIFO
 540:.\Generated_Source\PSoC4/UART_In_UART.c ****     *  and software buffer usage.
 541:.\Generated_Source\PSoC4/UART_In_UART.c ****     *  RX software buffer is disabled: The internal software buffer overflow
 542:.\Generated_Source\PSoC4/UART_In_UART.c ****     *  is not returned as status by this function.
 543:.\Generated_Source\PSoC4/UART_In_UART.c ****     *  Check SCB_rxBufferOverflow to capture that error condition.
 544:.\Generated_Source\PSoC4/UART_In_UART.c ****     *
 545:.\Generated_Source\PSoC4/UART_In_UART.c ****     *******************************************************************************/
 546:.\Generated_Source\PSoC4/UART_In_UART.c ****     uint32 UART_In_UartGetByte(void)
 547:.\Generated_Source\PSoC4/UART_In_UART.c ****     {
 321              		.loc 1 547 0
 322              		.cfi_startproc
 323 0000 08B5     		push	{r3, lr}
 324              		.cfi_def_cfa_offset 8
 325              		.cfi_offset 3, -8
 326              		.cfi_offset 14, -4
 548:.\Generated_Source\PSoC4/UART_In_UART.c ****         uint32 rxData;
 549:.\Generated_Source\PSoC4/UART_In_UART.c ****         uint32 tmpStatus;
 550:.\Generated_Source\PSoC4/UART_In_UART.c **** 
 551:.\Generated_Source\PSoC4/UART_In_UART.c ****         #if (UART_In_CHECK_RX_SW_BUFFER)
 552:.\Generated_Source\PSoC4/UART_In_UART.c ****         {
 553:.\Generated_Source\PSoC4/UART_In_UART.c ****             UART_In_DisableInt();
 554:.\Generated_Source\PSoC4/UART_In_UART.c ****         }
 555:.\Generated_Source\PSoC4/UART_In_UART.c ****         #endif
 556:.\Generated_Source\PSoC4/UART_In_UART.c **** 
ARM GAS  C:\Users\faithc\AppData\Local\Temp\ccjM2v7T.s 			page 17


 557:.\Generated_Source\PSoC4/UART_In_UART.c ****         if (0u != UART_In_SpiUartGetRxBufferSize())
 327              		.loc 1 557 0
 328 0002 FFF7FEFF 		bl	UART_In_SpiUartGetRxBufferSize
 329              	.LVL17:
 330 0006 0028     		cmp	r0, #0
 331 0008 0AD1     		bne	.L31
 558:.\Generated_Source\PSoC4/UART_In_UART.c ****         {
 559:.\Generated_Source\PSoC4/UART_In_UART.c ****             /* Enables interrupt to receive more bytes: at least one byte is in
 560:.\Generated_Source\PSoC4/UART_In_UART.c ****             * buffer.
 561:.\Generated_Source\PSoC4/UART_In_UART.c ****             */
 562:.\Generated_Source\PSoC4/UART_In_UART.c ****             #if (UART_In_CHECK_RX_SW_BUFFER)
 563:.\Generated_Source\PSoC4/UART_In_UART.c ****             {            
 564:.\Generated_Source\PSoC4/UART_In_UART.c ****                 UART_In_EnableInt();
 565:.\Generated_Source\PSoC4/UART_In_UART.c ****             }
 566:.\Generated_Source\PSoC4/UART_In_UART.c ****             #endif
 567:.\Generated_Source\PSoC4/UART_In_UART.c **** 
 568:.\Generated_Source\PSoC4/UART_In_UART.c ****             /* Get received byte */
 569:.\Generated_Source\PSoC4/UART_In_UART.c ****             rxData = UART_In_SpiUartReadRxData();
 570:.\Generated_Source\PSoC4/UART_In_UART.c ****         }
 571:.\Generated_Source\PSoC4/UART_In_UART.c ****         else
 572:.\Generated_Source\PSoC4/UART_In_UART.c ****         {
 573:.\Generated_Source\PSoC4/UART_In_UART.c ****             /* Reads a byte directly from RX FIFO: underflow is raised in the case
 574:.\Generated_Source\PSoC4/UART_In_UART.c ****             * of empty. Otherwise the first received byte will be read.
 575:.\Generated_Source\PSoC4/UART_In_UART.c ****             */
 576:.\Generated_Source\PSoC4/UART_In_UART.c ****             rxData = UART_In_RX_FIFO_RD_REG;
 332              		.loc 1 576 0
 333 000a 074B     		ldr	r3, .L32
 334 000c 1868     		ldr	r0, [r3]
 335              	.LVL18:
 336              	.L30:
 577:.\Generated_Source\PSoC4/UART_In_UART.c **** 
 578:.\Generated_Source\PSoC4/UART_In_UART.c ****             /* Enables interrupt to receive more bytes.
 579:.\Generated_Source\PSoC4/UART_In_UART.c ****             * The RX_NOT_EMPTY interrupt is cleared by the interrupt routine
 580:.\Generated_Source\PSoC4/UART_In_UART.c ****             * in case the byte was received and read by code above.
 581:.\Generated_Source\PSoC4/UART_In_UART.c ****             */
 582:.\Generated_Source\PSoC4/UART_In_UART.c ****             #if (UART_In_CHECK_RX_SW_BUFFER)
 583:.\Generated_Source\PSoC4/UART_In_UART.c ****             {
 584:.\Generated_Source\PSoC4/UART_In_UART.c ****                 UART_In_EnableInt();
 585:.\Generated_Source\PSoC4/UART_In_UART.c ****             }
 586:.\Generated_Source\PSoC4/UART_In_UART.c ****             #endif
 587:.\Generated_Source\PSoC4/UART_In_UART.c ****         }
 588:.\Generated_Source\PSoC4/UART_In_UART.c **** 
 589:.\Generated_Source\PSoC4/UART_In_UART.c ****         /* Get and clear RX error mask */
 590:.\Generated_Source\PSoC4/UART_In_UART.c ****         tmpStatus = (UART_In_GetRxInterruptSource() & UART_In_INTR_RX_ERR);
 591:.\Generated_Source\PSoC4/UART_In_UART.c ****         UART_In_ClearRxInterruptSource(UART_In_INTR_RX_ERR);
 337              		.loc 1 591 0
 338 000e D823     		mov	r3, #216
 590:.\Generated_Source\PSoC4/UART_In_UART.c ****         UART_In_ClearRxInterruptSource(UART_In_INTR_RX_ERR);
 339              		.loc 1 590 0
 340 0010 064A     		ldr	r2, .L32+4
 341              		.loc 1 591 0
 342 0012 9B00     		lsl	r3, r3, #2
 590:.\Generated_Source\PSoC4/UART_In_UART.c ****         UART_In_ClearRxInterruptSource(UART_In_INTR_RX_ERR);
 343              		.loc 1 590 0
 344 0014 1168     		ldr	r1, [r2]
 345              	.LVL19:
 346              		.loc 1 591 0
ARM GAS  C:\Users\faithc\AppData\Local\Temp\ccjM2v7T.s 			page 18


 347 0016 1360     		str	r3, [r2]
 348              	.LVL20:
 590:.\Generated_Source\PSoC4/UART_In_UART.c ****         UART_In_ClearRxInterruptSource(UART_In_INTR_RX_ERR);
 349              		.loc 1 590 0
 350 0018 0B40     		and	r3, r1
 592:.\Generated_Source\PSoC4/UART_In_UART.c **** 
 593:.\Generated_Source\PSoC4/UART_In_UART.c ****         /* Puts together data and error status:
 594:.\Generated_Source\PSoC4/UART_In_UART.c ****         * MP mode and accept address: 9th bit is set to notify mark.
 595:.\Generated_Source\PSoC4/UART_In_UART.c ****         */
 596:.\Generated_Source\PSoC4/UART_In_UART.c ****         rxData |= ((uint32) (tmpStatus << 8u));
 351              		.loc 1 596 0
 352 001a 1B02     		lsl	r3, r3, #8
 353 001c 1843     		orr	r0, r3
 354              	.LVL21:
 597:.\Generated_Source\PSoC4/UART_In_UART.c **** 
 598:.\Generated_Source\PSoC4/UART_In_UART.c ****         return (rxData);
 599:.\Generated_Source\PSoC4/UART_In_UART.c ****     }
 355              		.loc 1 599 0
 356              		@ sp needed
 357 001e 08BD     		pop	{r3, pc}
 358              	.LVL22:
 359              	.L31:
 569:.\Generated_Source\PSoC4/UART_In_UART.c ****         }
 360              		.loc 1 569 0
 361 0020 FFF7FEFF 		bl	UART_In_SpiUartReadRxData
 362              	.LVL23:
 363 0024 F3E7     		b	.L30
 364              	.L33:
 365 0026 C046     		.align	2
 366              	.L32:
 367 0028 40030740 		.word	1074201408
 368 002c C00F0740 		.word	1074204608
 369              		.cfi_endproc
 370              	.LFE6:
 371              		.size	UART_In_UartGetByte, .-UART_In_UartGetByte
 372              		.section	.text.UART_In_UartPutString,"ax",%progbits
 373              		.align	2
 374              		.global	UART_In_UartPutString
 375              		.code	16
 376              		.thumb_func
 377              		.type	UART_In_UartPutString, %function
 378              	UART_In_UartPutString:
 379              	.LFB7:
 600:.\Generated_Source\PSoC4/UART_In_UART.c **** 
 601:.\Generated_Source\PSoC4/UART_In_UART.c **** 
 602:.\Generated_Source\PSoC4/UART_In_UART.c ****     #if !(UART_In_CY_SCBIP_V0 || UART_In_CY_SCBIP_V1)
 603:.\Generated_Source\PSoC4/UART_In_UART.c ****         /*******************************************************************************
 604:.\Generated_Source\PSoC4/UART_In_UART.c ****         * Function Name: UART_In_UartSetRtsPolarity
 605:.\Generated_Source\PSoC4/UART_In_UART.c ****         ********************************************************************************
 606:.\Generated_Source\PSoC4/UART_In_UART.c ****         *
 607:.\Generated_Source\PSoC4/UART_In_UART.c ****         * Summary:
 608:.\Generated_Source\PSoC4/UART_In_UART.c ****         *  Sets active polarity of RTS output signal.
 609:.\Generated_Source\PSoC4/UART_In_UART.c ****         *
 610:.\Generated_Source\PSoC4/UART_In_UART.c ****         * Parameters:
 611:.\Generated_Source\PSoC4/UART_In_UART.c ****         *  polarity: Active polarity of RTS output signal.
 612:.\Generated_Source\PSoC4/UART_In_UART.c ****         *   UART_In_UART_RTS_ACTIVE_LOW  - RTS signal is active low.
 613:.\Generated_Source\PSoC4/UART_In_UART.c ****         *   UART_In_UART_RTS_ACTIVE_HIGH - RTS signal is active high.
ARM GAS  C:\Users\faithc\AppData\Local\Temp\ccjM2v7T.s 			page 19


 614:.\Generated_Source\PSoC4/UART_In_UART.c ****         *
 615:.\Generated_Source\PSoC4/UART_In_UART.c ****         * Return:
 616:.\Generated_Source\PSoC4/UART_In_UART.c ****         *  None
 617:.\Generated_Source\PSoC4/UART_In_UART.c ****         *
 618:.\Generated_Source\PSoC4/UART_In_UART.c ****         *******************************************************************************/
 619:.\Generated_Source\PSoC4/UART_In_UART.c ****         void UART_In_UartSetRtsPolarity(uint32 polarity)
 620:.\Generated_Source\PSoC4/UART_In_UART.c ****         {
 621:.\Generated_Source\PSoC4/UART_In_UART.c ****             if(0u != polarity)
 622:.\Generated_Source\PSoC4/UART_In_UART.c ****             {
 623:.\Generated_Source\PSoC4/UART_In_UART.c ****                 UART_In_UART_FLOW_CTRL_REG |= (uint32)  UART_In_UART_FLOW_CTRL_RTS_POLARITY;
 624:.\Generated_Source\PSoC4/UART_In_UART.c ****             }
 625:.\Generated_Source\PSoC4/UART_In_UART.c ****             else
 626:.\Generated_Source\PSoC4/UART_In_UART.c ****             {
 627:.\Generated_Source\PSoC4/UART_In_UART.c ****                 UART_In_UART_FLOW_CTRL_REG &= (uint32) ~UART_In_UART_FLOW_CTRL_RTS_POLARITY;
 628:.\Generated_Source\PSoC4/UART_In_UART.c ****             }
 629:.\Generated_Source\PSoC4/UART_In_UART.c ****         }
 630:.\Generated_Source\PSoC4/UART_In_UART.c **** 
 631:.\Generated_Source\PSoC4/UART_In_UART.c **** 
 632:.\Generated_Source\PSoC4/UART_In_UART.c ****         /*******************************************************************************
 633:.\Generated_Source\PSoC4/UART_In_UART.c ****         * Function Name: UART_In_UartSetRtsFifoLevel
 634:.\Generated_Source\PSoC4/UART_In_UART.c ****         ********************************************************************************
 635:.\Generated_Source\PSoC4/UART_In_UART.c ****         *
 636:.\Generated_Source\PSoC4/UART_In_UART.c ****         * Summary:
 637:.\Generated_Source\PSoC4/UART_In_UART.c ****         *  Sets level in the RX FIFO for RTS signal activation.
 638:.\Generated_Source\PSoC4/UART_In_UART.c ****         *  While the RX FIFO has fewer entries than the RX FIFO level the RTS signal
 639:.\Generated_Source\PSoC4/UART_In_UART.c ****         *  remains active, otherwise the RTS signal becomes inactive.
 640:.\Generated_Source\PSoC4/UART_In_UART.c ****         *
 641:.\Generated_Source\PSoC4/UART_In_UART.c ****         * Parameters:
 642:.\Generated_Source\PSoC4/UART_In_UART.c ****         *  level: Level in the RX FIFO for RTS signal activation.
 643:.\Generated_Source\PSoC4/UART_In_UART.c ****         *         The range of valid level values is between 0 and RX FIFO depth - 1.
 644:.\Generated_Source\PSoC4/UART_In_UART.c ****         *         Setting level value to 0 disables RTS signal activation.
 645:.\Generated_Source\PSoC4/UART_In_UART.c ****         *
 646:.\Generated_Source\PSoC4/UART_In_UART.c ****         * Return:
 647:.\Generated_Source\PSoC4/UART_In_UART.c ****         *  None
 648:.\Generated_Source\PSoC4/UART_In_UART.c ****         *
 649:.\Generated_Source\PSoC4/UART_In_UART.c ****         *******************************************************************************/
 650:.\Generated_Source\PSoC4/UART_In_UART.c ****         void UART_In_UartSetRtsFifoLevel(uint32 level)
 651:.\Generated_Source\PSoC4/UART_In_UART.c ****         {
 652:.\Generated_Source\PSoC4/UART_In_UART.c ****             uint32 uartFlowCtrl;
 653:.\Generated_Source\PSoC4/UART_In_UART.c **** 
 654:.\Generated_Source\PSoC4/UART_In_UART.c ****             uartFlowCtrl = UART_In_UART_FLOW_CTRL_REG;
 655:.\Generated_Source\PSoC4/UART_In_UART.c **** 
 656:.\Generated_Source\PSoC4/UART_In_UART.c ****             uartFlowCtrl &= ((uint32) ~UART_In_UART_FLOW_CTRL_TRIGGER_LEVEL_MASK); /* Clear level m
 657:.\Generated_Source\PSoC4/UART_In_UART.c ****             uartFlowCtrl |= ((uint32) (UART_In_UART_FLOW_CTRL_TRIGGER_LEVEL_MASK & level));
 658:.\Generated_Source\PSoC4/UART_In_UART.c **** 
 659:.\Generated_Source\PSoC4/UART_In_UART.c ****             UART_In_UART_FLOW_CTRL_REG = uartFlowCtrl;
 660:.\Generated_Source\PSoC4/UART_In_UART.c ****         }
 661:.\Generated_Source\PSoC4/UART_In_UART.c ****     #endif /* !(UART_In_CY_SCBIP_V0 || UART_In_CY_SCBIP_V1) */
 662:.\Generated_Source\PSoC4/UART_In_UART.c **** 
 663:.\Generated_Source\PSoC4/UART_In_UART.c **** #endif /* (UART_In_UART_RX_DIRECTION) */
 664:.\Generated_Source\PSoC4/UART_In_UART.c **** 
 665:.\Generated_Source\PSoC4/UART_In_UART.c **** 
 666:.\Generated_Source\PSoC4/UART_In_UART.c **** #if(UART_In_UART_TX_DIRECTION)
 667:.\Generated_Source\PSoC4/UART_In_UART.c ****     /*******************************************************************************
 668:.\Generated_Source\PSoC4/UART_In_UART.c ****     * Function Name: UART_In_UartPutString
 669:.\Generated_Source\PSoC4/UART_In_UART.c ****     ********************************************************************************
 670:.\Generated_Source\PSoC4/UART_In_UART.c ****     *
ARM GAS  C:\Users\faithc\AppData\Local\Temp\ccjM2v7T.s 			page 20


 671:.\Generated_Source\PSoC4/UART_In_UART.c ****     * Summary:
 672:.\Generated_Source\PSoC4/UART_In_UART.c ****     *  Places a NULL terminated string in the transmit buffer to be sent at the
 673:.\Generated_Source\PSoC4/UART_In_UART.c ****     *  next available bus time.
 674:.\Generated_Source\PSoC4/UART_In_UART.c ****     *  This function is blocking and waits until there is space available to put
 675:.\Generated_Source\PSoC4/UART_In_UART.c ****     *  all the requested data into the  transmit buffer.
 676:.\Generated_Source\PSoC4/UART_In_UART.c ****     *
 677:.\Generated_Source\PSoC4/UART_In_UART.c ****     * Parameters:
 678:.\Generated_Source\PSoC4/UART_In_UART.c ****     *  string: pointer to the null terminated string array to be placed in the
 679:.\Generated_Source\PSoC4/UART_In_UART.c ****     *          transmit buffer.
 680:.\Generated_Source\PSoC4/UART_In_UART.c ****     *
 681:.\Generated_Source\PSoC4/UART_In_UART.c ****     * Return:
 682:.\Generated_Source\PSoC4/UART_In_UART.c ****     *  None
 683:.\Generated_Source\PSoC4/UART_In_UART.c ****     *
 684:.\Generated_Source\PSoC4/UART_In_UART.c ****     *******************************************************************************/
 685:.\Generated_Source\PSoC4/UART_In_UART.c ****     void UART_In_UartPutString(const char8 string[])
 686:.\Generated_Source\PSoC4/UART_In_UART.c ****     {
 380              		.loc 1 686 0
 381              		.cfi_startproc
 382              	.LVL24:
 383 0000 10B5     		push	{r4, lr}
 384              		.cfi_def_cfa_offset 8
 385              		.cfi_offset 4, -8
 386              		.cfi_offset 14, -4
 387              		.loc 1 686 0
 388 0002 041C     		mov	r4, r0
 687:.\Generated_Source\PSoC4/UART_In_UART.c ****         uint32 bufIndex;
 688:.\Generated_Source\PSoC4/UART_In_UART.c **** 
 689:.\Generated_Source\PSoC4/UART_In_UART.c ****         bufIndex = 0u;
 690:.\Generated_Source\PSoC4/UART_In_UART.c **** 
 691:.\Generated_Source\PSoC4/UART_In_UART.c ****         /* Blocks the control flow until all data has been sent */
 692:.\Generated_Source\PSoC4/UART_In_UART.c ****         while(string[bufIndex] != ((char8) 0))
 389              		.loc 1 692 0
 390 0004 0078     		ldrb	r0, [r0]
 391              	.LVL25:
 392 0006 0134     		add	r4, r4, #1
 393              	.LVL26:
 394 0008 0028     		cmp	r0, #0
 395 000a 06D0     		beq	.L34
 396              	.LVL27:
 397              	.L38:
 398 000c 0134     		add	r4, r4, #1
 399              	.LVL28:
 693:.\Generated_Source\PSoC4/UART_In_UART.c ****         {
 694:.\Generated_Source\PSoC4/UART_In_UART.c ****             UART_In_UartPutChar((uint32) string[bufIndex]);
 400              		.loc 1 694 0
 401 000e FFF7FEFF 		bl	UART_In_SpiUartWriteTxData
 402              	.LVL29:
 403 0012 631E     		sub	r3, r4, #1
 692:.\Generated_Source\PSoC4/UART_In_UART.c ****         {
 404              		.loc 1 692 0
 405 0014 1878     		ldrb	r0, [r3]
 406 0016 0028     		cmp	r0, #0
 407 0018 F8D1     		bne	.L38
 408              	.L34:
 695:.\Generated_Source\PSoC4/UART_In_UART.c ****             bufIndex++;
 696:.\Generated_Source\PSoC4/UART_In_UART.c ****         }
 697:.\Generated_Source\PSoC4/UART_In_UART.c ****     }
ARM GAS  C:\Users\faithc\AppData\Local\Temp\ccjM2v7T.s 			page 21


 409              		.loc 1 697 0
 410              		@ sp needed
 411 001a 10BD     		pop	{r4, pc}
 412              		.cfi_endproc
 413              	.LFE7:
 414              		.size	UART_In_UartPutString, .-UART_In_UartPutString
 415              		.section	.text.UART_In_UartPutCRLF,"ax",%progbits
 416              		.align	2
 417              		.global	UART_In_UartPutCRLF
 418              		.code	16
 419              		.thumb_func
 420              		.type	UART_In_UartPutCRLF, %function
 421              	UART_In_UartPutCRLF:
 422              	.LFB8:
 698:.\Generated_Source\PSoC4/UART_In_UART.c **** 
 699:.\Generated_Source\PSoC4/UART_In_UART.c **** 
 700:.\Generated_Source\PSoC4/UART_In_UART.c ****     /*******************************************************************************
 701:.\Generated_Source\PSoC4/UART_In_UART.c ****     * Function Name: UART_In_UartPutCRLF
 702:.\Generated_Source\PSoC4/UART_In_UART.c ****     ********************************************************************************
 703:.\Generated_Source\PSoC4/UART_In_UART.c ****     *
 704:.\Generated_Source\PSoC4/UART_In_UART.c ****     * Summary:
 705:.\Generated_Source\PSoC4/UART_In_UART.c ****     *  Places a byte of data followed by a carriage return (0x0D) and
 706:.\Generated_Source\PSoC4/UART_In_UART.c ****     *  line feed (0x0A) into the transmit buffer.
 707:.\Generated_Source\PSoC4/UART_In_UART.c ****     *  This function is blocking and waits until there is space available to put
 708:.\Generated_Source\PSoC4/UART_In_UART.c ****     *  all the requested data into the  transmit buffer.
 709:.\Generated_Source\PSoC4/UART_In_UART.c ****     *
 710:.\Generated_Source\PSoC4/UART_In_UART.c ****     * Parameters:
 711:.\Generated_Source\PSoC4/UART_In_UART.c ****     *  txDataByte : the data to be transmitted.
 712:.\Generated_Source\PSoC4/UART_In_UART.c ****     *
 713:.\Generated_Source\PSoC4/UART_In_UART.c ****     * Return:
 714:.\Generated_Source\PSoC4/UART_In_UART.c ****     *  None
 715:.\Generated_Source\PSoC4/UART_In_UART.c ****     *
 716:.\Generated_Source\PSoC4/UART_In_UART.c ****     *******************************************************************************/
 717:.\Generated_Source\PSoC4/UART_In_UART.c ****     void UART_In_UartPutCRLF(uint32 txDataByte)
 718:.\Generated_Source\PSoC4/UART_In_UART.c ****     {
 423              		.loc 1 718 0
 424              		.cfi_startproc
 425              	.LVL30:
 426 0000 08B5     		push	{r3, lr}
 427              		.cfi_def_cfa_offset 8
 428              		.cfi_offset 3, -8
 429              		.cfi_offset 14, -4
 719:.\Generated_Source\PSoC4/UART_In_UART.c ****         UART_In_UartPutChar(txDataByte);  /* Blocks control flow until all data has been sent */
 430              		.loc 1 719 0
 431 0002 FFF7FEFF 		bl	UART_In_SpiUartWriteTxData
 432              	.LVL31:
 720:.\Generated_Source\PSoC4/UART_In_UART.c ****         UART_In_UartPutChar(0x0Du);       /* Blocks control flow until all data has been sent */
 433              		.loc 1 720 0
 434 0006 0D20     		mov	r0, #13
 435 0008 FFF7FEFF 		bl	UART_In_SpiUartWriteTxData
 436              	.LVL32:
 721:.\Generated_Source\PSoC4/UART_In_UART.c ****         UART_In_UartPutChar(0x0Au);       /* Blocks control flow until all data has been sent */
 437              		.loc 1 721 0
 438 000c 0A20     		mov	r0, #10
 439 000e FFF7FEFF 		bl	UART_In_SpiUartWriteTxData
 440              	.LVL33:
 722:.\Generated_Source\PSoC4/UART_In_UART.c ****     }
ARM GAS  C:\Users\faithc\AppData\Local\Temp\ccjM2v7T.s 			page 22


 441              		.loc 1 722 0
 442              		@ sp needed
 443 0012 08BD     		pop	{r3, pc}
 444              		.cfi_endproc
 445              	.LFE8:
 446              		.size	UART_In_UartPutCRLF, .-UART_In_UartPutCRLF
 447              		.text
 448              	.Letext0:
 449              		.file 2 "Generated_Source\\PSoC4/cytypes.h"
 450              		.file 3 ".\\Generated_Source\\PSoC4\\UART_In_SPI_UART.h"