ARM GAS  C:\Users\faithc\AppData\Local\Temp\cc2Rvd9a.s 			page 1


   1              		.cpu cortex-m0
   2              		.fpu softvfp
   3              		.eabi_attribute 20, 1
   4              		.eabi_attribute 21, 1
   5              		.eabi_attribute 23, 3
   6              		.eabi_attribute 24, 1
   7              		.eabi_attribute 25, 1
   8              		.eabi_attribute 26, 1
   9              		.eabi_attribute 30, 2
  10              		.eabi_attribute 34, 0
  11              		.eabi_attribute 18, 4
  12              		.code	16
  13              		.file	"UART_In.c"
  14              		.text
  15              	.Ltext0:
  16              		.cfi_sections	.debug_frame
  17              		.section	.text.UART_In_Init,"ax",%progbits
  18              		.align	2
  19              		.global	UART_In_Init
  20              		.code	16
  21              		.thumb_func
  22              		.type	UART_In_Init, %function
  23              	UART_In_Init:
  24              	.LFB0:
  25              		.file 1 ".\\Generated_Source\\PSoC4\\UART_In.c"
   1:.\Generated_Source\PSoC4/UART_In.c **** /*******************************************************************************
   2:.\Generated_Source\PSoC4/UART_In.c **** * File Name: UART_In.c
   3:.\Generated_Source\PSoC4/UART_In.c **** * Version 3.10
   4:.\Generated_Source\PSoC4/UART_In.c **** *
   5:.\Generated_Source\PSoC4/UART_In.c **** * Description:
   6:.\Generated_Source\PSoC4/UART_In.c **** *  This file provides the source code to the API for the SCB Component.
   7:.\Generated_Source\PSoC4/UART_In.c **** *
   8:.\Generated_Source\PSoC4/UART_In.c **** * Note:
   9:.\Generated_Source\PSoC4/UART_In.c **** *
  10:.\Generated_Source\PSoC4/UART_In.c **** *******************************************************************************
  11:.\Generated_Source\PSoC4/UART_In.c **** * Copyright 2013-2015, Cypress Semiconductor Corporation.  All rights reserved.
  12:.\Generated_Source\PSoC4/UART_In.c **** * You may use this file only in accordance with the license, terms, conditions,
  13:.\Generated_Source\PSoC4/UART_In.c **** * disclaimers, and limitations in the end user license agreement accompanying
  14:.\Generated_Source\PSoC4/UART_In.c **** * the software package with which this file was provided.
  15:.\Generated_Source\PSoC4/UART_In.c **** *******************************************************************************/
  16:.\Generated_Source\PSoC4/UART_In.c **** 
  17:.\Generated_Source\PSoC4/UART_In.c **** #include "UART_In_PVT.h"
  18:.\Generated_Source\PSoC4/UART_In.c **** 
  19:.\Generated_Source\PSoC4/UART_In.c **** #if (UART_In_SCB_MODE_I2C_INC)
  20:.\Generated_Source\PSoC4/UART_In.c ****     #include "UART_In_I2C_PVT.h"
  21:.\Generated_Source\PSoC4/UART_In.c **** #endif /* (UART_In_SCB_MODE_I2C_INC) */
  22:.\Generated_Source\PSoC4/UART_In.c **** 
  23:.\Generated_Source\PSoC4/UART_In.c **** #if (UART_In_SCB_MODE_EZI2C_INC)
  24:.\Generated_Source\PSoC4/UART_In.c ****     #include "UART_In_EZI2C_PVT.h"
  25:.\Generated_Source\PSoC4/UART_In.c **** #endif /* (UART_In_SCB_MODE_EZI2C_INC) */
  26:.\Generated_Source\PSoC4/UART_In.c **** 
  27:.\Generated_Source\PSoC4/UART_In.c **** #if (UART_In_SCB_MODE_SPI_INC || UART_In_SCB_MODE_UART_INC)
  28:.\Generated_Source\PSoC4/UART_In.c ****     #include "UART_In_SPI_UART_PVT.h"
  29:.\Generated_Source\PSoC4/UART_In.c **** #endif /* (UART_In_SCB_MODE_SPI_INC || UART_In_SCB_MODE_UART_INC) */
  30:.\Generated_Source\PSoC4/UART_In.c **** 
  31:.\Generated_Source\PSoC4/UART_In.c **** 
  32:.\Generated_Source\PSoC4/UART_In.c **** /***************************************
ARM GAS  C:\Users\faithc\AppData\Local\Temp\cc2Rvd9a.s 			page 2


  33:.\Generated_Source\PSoC4/UART_In.c **** *    Run Time Configuration Vars
  34:.\Generated_Source\PSoC4/UART_In.c **** ***************************************/
  35:.\Generated_Source\PSoC4/UART_In.c **** 
  36:.\Generated_Source\PSoC4/UART_In.c **** /* Stores internal component configuration for Unconfigured mode */
  37:.\Generated_Source\PSoC4/UART_In.c **** #if (UART_In_SCB_MODE_UNCONFIG_CONST_CFG)
  38:.\Generated_Source\PSoC4/UART_In.c ****     /* Common configuration variables */
  39:.\Generated_Source\PSoC4/UART_In.c ****     uint8 UART_In_scbMode = UART_In_SCB_MODE_UNCONFIG;
  40:.\Generated_Source\PSoC4/UART_In.c ****     uint8 UART_In_scbEnableWake;
  41:.\Generated_Source\PSoC4/UART_In.c ****     uint8 UART_In_scbEnableIntr;
  42:.\Generated_Source\PSoC4/UART_In.c **** 
  43:.\Generated_Source\PSoC4/UART_In.c ****     /* I2C configuration variables */
  44:.\Generated_Source\PSoC4/UART_In.c ****     uint8 UART_In_mode;
  45:.\Generated_Source\PSoC4/UART_In.c ****     uint8 UART_In_acceptAddr;
  46:.\Generated_Source\PSoC4/UART_In.c **** 
  47:.\Generated_Source\PSoC4/UART_In.c ****     /* SPI/UART configuration variables */
  48:.\Generated_Source\PSoC4/UART_In.c ****     volatile uint8 * UART_In_rxBuffer;
  49:.\Generated_Source\PSoC4/UART_In.c ****     uint8  UART_In_rxDataBits;
  50:.\Generated_Source\PSoC4/UART_In.c ****     uint32 UART_In_rxBufferSize;
  51:.\Generated_Source\PSoC4/UART_In.c **** 
  52:.\Generated_Source\PSoC4/UART_In.c ****     volatile uint8 * UART_In_txBuffer;
  53:.\Generated_Source\PSoC4/UART_In.c ****     uint8  UART_In_txDataBits;
  54:.\Generated_Source\PSoC4/UART_In.c ****     uint32 UART_In_txBufferSize;
  55:.\Generated_Source\PSoC4/UART_In.c **** 
  56:.\Generated_Source\PSoC4/UART_In.c ****     /* EZI2C configuration variables */
  57:.\Generated_Source\PSoC4/UART_In.c ****     uint8 UART_In_numberOfAddr;
  58:.\Generated_Source\PSoC4/UART_In.c ****     uint8 UART_In_subAddrSize;
  59:.\Generated_Source\PSoC4/UART_In.c **** #endif /* (UART_In_SCB_MODE_UNCONFIG_CONST_CFG) */
  60:.\Generated_Source\PSoC4/UART_In.c **** 
  61:.\Generated_Source\PSoC4/UART_In.c **** 
  62:.\Generated_Source\PSoC4/UART_In.c **** /***************************************
  63:.\Generated_Source\PSoC4/UART_In.c **** *     Common SCB Vars
  64:.\Generated_Source\PSoC4/UART_In.c **** ***************************************/
  65:.\Generated_Source\PSoC4/UART_In.c **** 
  66:.\Generated_Source\PSoC4/UART_In.c **** uint8 UART_In_initVar = 0u;
  67:.\Generated_Source\PSoC4/UART_In.c **** 
  68:.\Generated_Source\PSoC4/UART_In.c **** #if (UART_In_SCB_IRQ_INTERNAL)
  69:.\Generated_Source\PSoC4/UART_In.c **** #if !defined (CY_REMOVE_UART_In_CUSTOM_INTR_HANDLER)
  70:.\Generated_Source\PSoC4/UART_In.c ****     void (*UART_In_customIntrHandler)(void) = NULL;
  71:.\Generated_Source\PSoC4/UART_In.c **** #endif /* !defined (CY_REMOVE_UART_In_CUSTOM_INTR_HANDLER) */
  72:.\Generated_Source\PSoC4/UART_In.c **** #endif /* (UART_In_SCB_IRQ_INTERNAL) */
  73:.\Generated_Source\PSoC4/UART_In.c **** 
  74:.\Generated_Source\PSoC4/UART_In.c **** 
  75:.\Generated_Source\PSoC4/UART_In.c **** /***************************************
  76:.\Generated_Source\PSoC4/UART_In.c **** *    Private Function Prototypes
  77:.\Generated_Source\PSoC4/UART_In.c **** ***************************************/
  78:.\Generated_Source\PSoC4/UART_In.c **** 
  79:.\Generated_Source\PSoC4/UART_In.c **** static void UART_In_ScbEnableIntr(void);
  80:.\Generated_Source\PSoC4/UART_In.c **** static void UART_In_ScbModeStop(void);
  81:.\Generated_Source\PSoC4/UART_In.c **** static void UART_In_ScbModePostEnable(void);
  82:.\Generated_Source\PSoC4/UART_In.c **** 
  83:.\Generated_Source\PSoC4/UART_In.c **** 
  84:.\Generated_Source\PSoC4/UART_In.c **** /*******************************************************************************
  85:.\Generated_Source\PSoC4/UART_In.c **** * Function Name: UART_In_Init
  86:.\Generated_Source\PSoC4/UART_In.c **** ********************************************************************************
  87:.\Generated_Source\PSoC4/UART_In.c **** *
  88:.\Generated_Source\PSoC4/UART_In.c **** * Summary:
  89:.\Generated_Source\PSoC4/UART_In.c **** *  Initializes the SCB component to operate in one of the selected
ARM GAS  C:\Users\faithc\AppData\Local\Temp\cc2Rvd9a.s 			page 3


  90:.\Generated_Source\PSoC4/UART_In.c **** *  configurations: I2C, SPI, UART or EZI2C.
  91:.\Generated_Source\PSoC4/UART_In.c **** *  When the configuration is set to "Unconfigured SCB", this function does
  92:.\Generated_Source\PSoC4/UART_In.c **** *  not do any initialization. Use mode-specific initialization APIs instead:
  93:.\Generated_Source\PSoC4/UART_In.c **** *  SCB_I2CInit, SCB_SpiInit, SCB_UartInit or SCB_EzI2CInit.
  94:.\Generated_Source\PSoC4/UART_In.c **** *
  95:.\Generated_Source\PSoC4/UART_In.c **** * Parameters:
  96:.\Generated_Source\PSoC4/UART_In.c **** *  None
  97:.\Generated_Source\PSoC4/UART_In.c **** *
  98:.\Generated_Source\PSoC4/UART_In.c **** * Return:
  99:.\Generated_Source\PSoC4/UART_In.c **** *  None
 100:.\Generated_Source\PSoC4/UART_In.c **** *
 101:.\Generated_Source\PSoC4/UART_In.c **** *******************************************************************************/
 102:.\Generated_Source\PSoC4/UART_In.c **** void UART_In_Init(void)
 103:.\Generated_Source\PSoC4/UART_In.c **** {
  26              		.loc 1 103 0
  27              		.cfi_startproc
  28 0000 08B5     		push	{r3, lr}
  29              		.cfi_def_cfa_offset 8
  30              		.cfi_offset 3, -8
  31              		.cfi_offset 14, -4
 104:.\Generated_Source\PSoC4/UART_In.c **** #if (UART_In_SCB_MODE_UNCONFIG_CONST_CFG)
 105:.\Generated_Source\PSoC4/UART_In.c ****     if (UART_In_SCB_MODE_UNCONFIG_RUNTM_CFG)
 106:.\Generated_Source\PSoC4/UART_In.c ****     {
 107:.\Generated_Source\PSoC4/UART_In.c ****         UART_In_initVar = 0u;
 108:.\Generated_Source\PSoC4/UART_In.c ****     }
 109:.\Generated_Source\PSoC4/UART_In.c ****     else
 110:.\Generated_Source\PSoC4/UART_In.c ****     {
 111:.\Generated_Source\PSoC4/UART_In.c ****         /* Initialization was done before this function call */
 112:.\Generated_Source\PSoC4/UART_In.c ****     }
 113:.\Generated_Source\PSoC4/UART_In.c **** 
 114:.\Generated_Source\PSoC4/UART_In.c **** #elif (UART_In_SCB_MODE_I2C_CONST_CFG)
 115:.\Generated_Source\PSoC4/UART_In.c ****     UART_In_I2CInit();
 116:.\Generated_Source\PSoC4/UART_In.c **** 
 117:.\Generated_Source\PSoC4/UART_In.c **** #elif (UART_In_SCB_MODE_SPI_CONST_CFG)
 118:.\Generated_Source\PSoC4/UART_In.c ****     UART_In_SpiInit();
 119:.\Generated_Source\PSoC4/UART_In.c **** 
 120:.\Generated_Source\PSoC4/UART_In.c **** #elif (UART_In_SCB_MODE_UART_CONST_CFG)
 121:.\Generated_Source\PSoC4/UART_In.c ****     UART_In_UartInit();
  32              		.loc 1 121 0
  33 0002 FFF7FEFF 		bl	UART_In_UartInit
  34              	.LVL0:
 122:.\Generated_Source\PSoC4/UART_In.c **** 
 123:.\Generated_Source\PSoC4/UART_In.c **** #elif (UART_In_SCB_MODE_EZI2C_CONST_CFG)
 124:.\Generated_Source\PSoC4/UART_In.c ****     UART_In_EzI2CInit();
 125:.\Generated_Source\PSoC4/UART_In.c **** 
 126:.\Generated_Source\PSoC4/UART_In.c **** #endif /* (UART_In_SCB_MODE_UNCONFIG_CONST_CFG) */
 127:.\Generated_Source\PSoC4/UART_In.c **** }
  35              		.loc 1 127 0
  36              		@ sp needed
  37 0006 08BD     		pop	{r3, pc}
  38              		.cfi_endproc
  39              	.LFE0:
  40              		.size	UART_In_Init, .-UART_In_Init
  41              		.section	.text.UART_In_Enable,"ax",%progbits
  42              		.align	2
  43              		.global	UART_In_Enable
  44              		.code	16
ARM GAS  C:\Users\faithc\AppData\Local\Temp\cc2Rvd9a.s 			page 4


  45              		.thumb_func
  46              		.type	UART_In_Enable, %function
  47              	UART_In_Enable:
  48              	.LFB1:
 128:.\Generated_Source\PSoC4/UART_In.c **** 
 129:.\Generated_Source\PSoC4/UART_In.c **** 
 130:.\Generated_Source\PSoC4/UART_In.c **** /*******************************************************************************
 131:.\Generated_Source\PSoC4/UART_In.c **** * Function Name: UART_In_Enable
 132:.\Generated_Source\PSoC4/UART_In.c **** ********************************************************************************
 133:.\Generated_Source\PSoC4/UART_In.c **** *
 134:.\Generated_Source\PSoC4/UART_In.c **** * Summary:
 135:.\Generated_Source\PSoC4/UART_In.c **** *  Enables the SCB component operation.
 136:.\Generated_Source\PSoC4/UART_In.c **** *  The SCB configuration should be not changed when the component is enabled.
 137:.\Generated_Source\PSoC4/UART_In.c **** *  Any configuration changes should be made after disabling the component.
 138:.\Generated_Source\PSoC4/UART_In.c **** *
 139:.\Generated_Source\PSoC4/UART_In.c **** * Parameters:
 140:.\Generated_Source\PSoC4/UART_In.c **** *  None
 141:.\Generated_Source\PSoC4/UART_In.c **** *
 142:.\Generated_Source\PSoC4/UART_In.c **** * Return:
 143:.\Generated_Source\PSoC4/UART_In.c **** *  None
 144:.\Generated_Source\PSoC4/UART_In.c **** *
 145:.\Generated_Source\PSoC4/UART_In.c **** *******************************************************************************/
 146:.\Generated_Source\PSoC4/UART_In.c **** void UART_In_Enable(void)
 147:.\Generated_Source\PSoC4/UART_In.c **** {
  49              		.loc 1 147 0
  50              		.cfi_startproc
 148:.\Generated_Source\PSoC4/UART_In.c **** #if (UART_In_SCB_MODE_UNCONFIG_CONST_CFG)
 149:.\Generated_Source\PSoC4/UART_In.c ****     /* Enable SCB block, only if it is already configured */
 150:.\Generated_Source\PSoC4/UART_In.c ****     if (!UART_In_SCB_MODE_UNCONFIG_RUNTM_CFG)
 151:.\Generated_Source\PSoC4/UART_In.c ****     {
 152:.\Generated_Source\PSoC4/UART_In.c ****         UART_In_CTRL_REG |= UART_In_CTRL_ENABLED;
 153:.\Generated_Source\PSoC4/UART_In.c **** 
 154:.\Generated_Source\PSoC4/UART_In.c ****         UART_In_ScbEnableIntr();
 155:.\Generated_Source\PSoC4/UART_In.c **** 
 156:.\Generated_Source\PSoC4/UART_In.c ****         /* Call PostEnable function specific to current operation mode */
 157:.\Generated_Source\PSoC4/UART_In.c ****         UART_In_ScbModePostEnable();
 158:.\Generated_Source\PSoC4/UART_In.c ****     }
 159:.\Generated_Source\PSoC4/UART_In.c **** #else
 160:.\Generated_Source\PSoC4/UART_In.c ****     UART_In_CTRL_REG |= UART_In_CTRL_ENABLED;
  51              		.loc 1 160 0
  52 0000 8021     		mov	r1, #128
  53 0002 044A     		ldr	r2, .L3
 147:.\Generated_Source\PSoC4/UART_In.c **** #if (UART_In_SCB_MODE_UNCONFIG_CONST_CFG)
  54              		.loc 1 147 0
  55 0004 08B5     		push	{r3, lr}
  56              		.cfi_def_cfa_offset 8
  57              		.cfi_offset 3, -8
  58              		.cfi_offset 14, -4
  59              		.loc 1 160 0
  60 0006 1368     		ldr	r3, [r2]
  61 0008 0906     		lsl	r1, r1, #24
  62 000a 0B43     		orr	r3, r1
  63 000c 1360     		str	r3, [r2]
  64              	.LBB14:
  65              	.LBB15:
 161:.\Generated_Source\PSoC4/UART_In.c **** 
 162:.\Generated_Source\PSoC4/UART_In.c ****     UART_In_ScbEnableIntr();
ARM GAS  C:\Users\faithc\AppData\Local\Temp\cc2Rvd9a.s 			page 5


 163:.\Generated_Source\PSoC4/UART_In.c **** 
 164:.\Generated_Source\PSoC4/UART_In.c ****     /* Call PostEnable function specific to current operation mode */
 165:.\Generated_Source\PSoC4/UART_In.c ****     UART_In_ScbModePostEnable();
 166:.\Generated_Source\PSoC4/UART_In.c **** #endif /* (UART_In_SCB_MODE_UNCONFIG_CONST_CFG) */
 167:.\Generated_Source\PSoC4/UART_In.c **** }
 168:.\Generated_Source\PSoC4/UART_In.c **** 
 169:.\Generated_Source\PSoC4/UART_In.c **** 
 170:.\Generated_Source\PSoC4/UART_In.c **** /*******************************************************************************
 171:.\Generated_Source\PSoC4/UART_In.c **** * Function Name: UART_In_Start
 172:.\Generated_Source\PSoC4/UART_In.c **** ********************************************************************************
 173:.\Generated_Source\PSoC4/UART_In.c **** *
 174:.\Generated_Source\PSoC4/UART_In.c **** * Summary:
 175:.\Generated_Source\PSoC4/UART_In.c **** *  Invokes SCB_Init() and SCB_Enable().
 176:.\Generated_Source\PSoC4/UART_In.c **** *  After this function call, the component is enabled and ready for operation.
 177:.\Generated_Source\PSoC4/UART_In.c **** *  When configuration is set to "Unconfigured SCB", the component must first be
 178:.\Generated_Source\PSoC4/UART_In.c **** *  initialized to operate in one of the following configurations: I2C, SPI, UART
 179:.\Generated_Source\PSoC4/UART_In.c **** *  or EZ I2C. Otherwise this function does not enable the component.
 180:.\Generated_Source\PSoC4/UART_In.c **** *
 181:.\Generated_Source\PSoC4/UART_In.c **** * Parameters:
 182:.\Generated_Source\PSoC4/UART_In.c **** *  None
 183:.\Generated_Source\PSoC4/UART_In.c **** *
 184:.\Generated_Source\PSoC4/UART_In.c **** * Return:
 185:.\Generated_Source\PSoC4/UART_In.c **** *  None
 186:.\Generated_Source\PSoC4/UART_In.c **** *
 187:.\Generated_Source\PSoC4/UART_In.c **** * Global variables:
 188:.\Generated_Source\PSoC4/UART_In.c **** *  UART_In_initVar - used to check initial configuration, modified
 189:.\Generated_Source\PSoC4/UART_In.c **** *  on first function call.
 190:.\Generated_Source\PSoC4/UART_In.c **** *
 191:.\Generated_Source\PSoC4/UART_In.c **** *******************************************************************************/
 192:.\Generated_Source\PSoC4/UART_In.c **** void UART_In_Start(void)
 193:.\Generated_Source\PSoC4/UART_In.c **** {
 194:.\Generated_Source\PSoC4/UART_In.c ****     if (0u == UART_In_initVar)
 195:.\Generated_Source\PSoC4/UART_In.c ****     {
 196:.\Generated_Source\PSoC4/UART_In.c ****         UART_In_Init();
 197:.\Generated_Source\PSoC4/UART_In.c ****         UART_In_initVar = 1u; /* Component was initialized */
 198:.\Generated_Source\PSoC4/UART_In.c ****     }
 199:.\Generated_Source\PSoC4/UART_In.c **** 
 200:.\Generated_Source\PSoC4/UART_In.c ****     UART_In_Enable();
 201:.\Generated_Source\PSoC4/UART_In.c **** }
 202:.\Generated_Source\PSoC4/UART_In.c **** 
 203:.\Generated_Source\PSoC4/UART_In.c **** 
 204:.\Generated_Source\PSoC4/UART_In.c **** /*******************************************************************************
 205:.\Generated_Source\PSoC4/UART_In.c **** * Function Name: UART_In_Stop
 206:.\Generated_Source\PSoC4/UART_In.c **** ********************************************************************************
 207:.\Generated_Source\PSoC4/UART_In.c **** *
 208:.\Generated_Source\PSoC4/UART_In.c **** * Summary:
 209:.\Generated_Source\PSoC4/UART_In.c **** *  Disables the SCB component and its interrupt.
 210:.\Generated_Source\PSoC4/UART_In.c **** *  It also disables all TX interrupt sources so as not to cause an unexpected
 211:.\Generated_Source\PSoC4/UART_In.c **** *  interrupt trigger because after the component is enabled, the TX FIFO 
 212:.\Generated_Source\PSoC4/UART_In.c **** *  is empty.
 213:.\Generated_Source\PSoC4/UART_In.c **** *
 214:.\Generated_Source\PSoC4/UART_In.c **** * Parameters:
 215:.\Generated_Source\PSoC4/UART_In.c **** *  None
 216:.\Generated_Source\PSoC4/UART_In.c **** *
 217:.\Generated_Source\PSoC4/UART_In.c **** * Return:
 218:.\Generated_Source\PSoC4/UART_In.c **** *  None
 219:.\Generated_Source\PSoC4/UART_In.c **** * 
ARM GAS  C:\Users\faithc\AppData\Local\Temp\cc2Rvd9a.s 			page 6


 220:.\Generated_Source\PSoC4/UART_In.c **** *******************************************************************************/
 221:.\Generated_Source\PSoC4/UART_In.c **** void UART_In_Stop(void)
 222:.\Generated_Source\PSoC4/UART_In.c **** {
 223:.\Generated_Source\PSoC4/UART_In.c **** #if (UART_In_SCB_IRQ_INTERNAL)
 224:.\Generated_Source\PSoC4/UART_In.c ****     UART_In_DisableInt();
 225:.\Generated_Source\PSoC4/UART_In.c **** #endif /* (UART_In_SCB_IRQ_INTERNAL) */
 226:.\Generated_Source\PSoC4/UART_In.c **** 
 227:.\Generated_Source\PSoC4/UART_In.c ****     /* Call Stop function specific to current operation mode */
 228:.\Generated_Source\PSoC4/UART_In.c ****     UART_In_ScbModeStop();
 229:.\Generated_Source\PSoC4/UART_In.c **** 
 230:.\Generated_Source\PSoC4/UART_In.c ****     /* Disable SCB IP */
 231:.\Generated_Source\PSoC4/UART_In.c ****     UART_In_CTRL_REG &= (uint32) ~UART_In_CTRL_ENABLED;
 232:.\Generated_Source\PSoC4/UART_In.c **** 
 233:.\Generated_Source\PSoC4/UART_In.c ****     /* Disable all TX interrupt sources so as not to cause an unexpected
 234:.\Generated_Source\PSoC4/UART_In.c ****     * interrupt trigger because after the component is enabled, the TX FIFO
 235:.\Generated_Source\PSoC4/UART_In.c ****     * is empty.
 236:.\Generated_Source\PSoC4/UART_In.c ****     * For SCB IP v0, it is critical as it does not mask-out interrupt
 237:.\Generated_Source\PSoC4/UART_In.c ****     * sources when they are disabled. This can cause a code lock-up in the
 238:.\Generated_Source\PSoC4/UART_In.c ****     * interrupt handler because TX FIFO cannot be loaded after the block
 239:.\Generated_Source\PSoC4/UART_In.c ****     * is disabled.
 240:.\Generated_Source\PSoC4/UART_In.c ****     */
 241:.\Generated_Source\PSoC4/UART_In.c ****     UART_In_SetTxInterruptMode(UART_In_NO_INTR_SOURCES);
 242:.\Generated_Source\PSoC4/UART_In.c **** 
 243:.\Generated_Source\PSoC4/UART_In.c **** #if (UART_In_SCB_IRQ_INTERNAL)
 244:.\Generated_Source\PSoC4/UART_In.c ****     UART_In_ClearPendingInt();
 245:.\Generated_Source\PSoC4/UART_In.c **** #endif /* (UART_In_SCB_IRQ_INTERNAL) */
 246:.\Generated_Source\PSoC4/UART_In.c **** }
 247:.\Generated_Source\PSoC4/UART_In.c **** 
 248:.\Generated_Source\PSoC4/UART_In.c **** 
 249:.\Generated_Source\PSoC4/UART_In.c **** /*******************************************************************************
 250:.\Generated_Source\PSoC4/UART_In.c **** * Function Name: UART_In_SetRxFifoLevel
 251:.\Generated_Source\PSoC4/UART_In.c **** ********************************************************************************
 252:.\Generated_Source\PSoC4/UART_In.c **** *
 253:.\Generated_Source\PSoC4/UART_In.c **** * Summary:
 254:.\Generated_Source\PSoC4/UART_In.c **** *  Sets level in the RX FIFO to generate a RX level interrupt.
 255:.\Generated_Source\PSoC4/UART_In.c **** *  When the RX FIFO has more entries than the RX FIFO level an RX level
 256:.\Generated_Source\PSoC4/UART_In.c **** *  interrupt request is generated.
 257:.\Generated_Source\PSoC4/UART_In.c **** *
 258:.\Generated_Source\PSoC4/UART_In.c **** * Parameters:
 259:.\Generated_Source\PSoC4/UART_In.c **** *  level: Level in the RX FIFO to generate RX level interrupt.
 260:.\Generated_Source\PSoC4/UART_In.c **** *         The range of valid level values is between 0 and RX FIFO depth - 1.
 261:.\Generated_Source\PSoC4/UART_In.c **** *
 262:.\Generated_Source\PSoC4/UART_In.c **** * Return:
 263:.\Generated_Source\PSoC4/UART_In.c **** *  None
 264:.\Generated_Source\PSoC4/UART_In.c **** *
 265:.\Generated_Source\PSoC4/UART_In.c **** *******************************************************************************/
 266:.\Generated_Source\PSoC4/UART_In.c **** void UART_In_SetRxFifoLevel(uint32 level)
 267:.\Generated_Source\PSoC4/UART_In.c **** {
 268:.\Generated_Source\PSoC4/UART_In.c ****     uint32 rxFifoCtrl;
 269:.\Generated_Source\PSoC4/UART_In.c **** 
 270:.\Generated_Source\PSoC4/UART_In.c ****     rxFifoCtrl = UART_In_RX_FIFO_CTRL_REG;
 271:.\Generated_Source\PSoC4/UART_In.c **** 
 272:.\Generated_Source\PSoC4/UART_In.c ****     rxFifoCtrl &= ((uint32) ~UART_In_RX_FIFO_CTRL_TRIGGER_LEVEL_MASK); /* Clear level mask bits */
 273:.\Generated_Source\PSoC4/UART_In.c ****     rxFifoCtrl |= ((uint32) (UART_In_RX_FIFO_CTRL_TRIGGER_LEVEL_MASK & level));
 274:.\Generated_Source\PSoC4/UART_In.c **** 
 275:.\Generated_Source\PSoC4/UART_In.c ****     UART_In_RX_FIFO_CTRL_REG = rxFifoCtrl;
 276:.\Generated_Source\PSoC4/UART_In.c **** }
ARM GAS  C:\Users\faithc\AppData\Local\Temp\cc2Rvd9a.s 			page 7


 277:.\Generated_Source\PSoC4/UART_In.c **** 
 278:.\Generated_Source\PSoC4/UART_In.c **** 
 279:.\Generated_Source\PSoC4/UART_In.c **** /*******************************************************************************
 280:.\Generated_Source\PSoC4/UART_In.c **** * Function Name: UART_In_SetTxFifoLevel
 281:.\Generated_Source\PSoC4/UART_In.c **** ********************************************************************************
 282:.\Generated_Source\PSoC4/UART_In.c **** *
 283:.\Generated_Source\PSoC4/UART_In.c **** * Summary:
 284:.\Generated_Source\PSoC4/UART_In.c **** *  Sets level in the TX FIFO to generate a TX level interrupt.
 285:.\Generated_Source\PSoC4/UART_In.c **** *  When the TX FIFO has more entries than the TX FIFO level an TX level
 286:.\Generated_Source\PSoC4/UART_In.c **** *  interrupt request is generated.
 287:.\Generated_Source\PSoC4/UART_In.c **** *
 288:.\Generated_Source\PSoC4/UART_In.c **** * Parameters:
 289:.\Generated_Source\PSoC4/UART_In.c **** *  level: Level in the TX FIFO to generate TX level interrupt.
 290:.\Generated_Source\PSoC4/UART_In.c **** *         The range of valid level values is between 0 and TX FIFO depth - 1.
 291:.\Generated_Source\PSoC4/UART_In.c **** *
 292:.\Generated_Source\PSoC4/UART_In.c **** * Return:
 293:.\Generated_Source\PSoC4/UART_In.c **** *  None
 294:.\Generated_Source\PSoC4/UART_In.c **** *
 295:.\Generated_Source\PSoC4/UART_In.c **** *******************************************************************************/
 296:.\Generated_Source\PSoC4/UART_In.c **** void UART_In_SetTxFifoLevel(uint32 level)
 297:.\Generated_Source\PSoC4/UART_In.c **** {
 298:.\Generated_Source\PSoC4/UART_In.c ****     uint32 txFifoCtrl;
 299:.\Generated_Source\PSoC4/UART_In.c **** 
 300:.\Generated_Source\PSoC4/UART_In.c ****     txFifoCtrl = UART_In_TX_FIFO_CTRL_REG;
 301:.\Generated_Source\PSoC4/UART_In.c **** 
 302:.\Generated_Source\PSoC4/UART_In.c ****     txFifoCtrl &= ((uint32) ~UART_In_TX_FIFO_CTRL_TRIGGER_LEVEL_MASK); /* Clear level mask bits */
 303:.\Generated_Source\PSoC4/UART_In.c ****     txFifoCtrl |= ((uint32) (UART_In_TX_FIFO_CTRL_TRIGGER_LEVEL_MASK & level));
 304:.\Generated_Source\PSoC4/UART_In.c **** 
 305:.\Generated_Source\PSoC4/UART_In.c ****     UART_In_TX_FIFO_CTRL_REG = txFifoCtrl;
 306:.\Generated_Source\PSoC4/UART_In.c **** }
 307:.\Generated_Source\PSoC4/UART_In.c **** 
 308:.\Generated_Source\PSoC4/UART_In.c **** 
 309:.\Generated_Source\PSoC4/UART_In.c **** #if (UART_In_SCB_IRQ_INTERNAL)
 310:.\Generated_Source\PSoC4/UART_In.c ****     /*******************************************************************************
 311:.\Generated_Source\PSoC4/UART_In.c ****     * Function Name: UART_In_SetCustomInterruptHandler
 312:.\Generated_Source\PSoC4/UART_In.c ****     ********************************************************************************
 313:.\Generated_Source\PSoC4/UART_In.c ****     *
 314:.\Generated_Source\PSoC4/UART_In.c ****     * Summary:
 315:.\Generated_Source\PSoC4/UART_In.c ****     *  Registers a function to be called by the internal interrupt handler.
 316:.\Generated_Source\PSoC4/UART_In.c ****     *  First the function that is registered is called, then the internal interrupt
 317:.\Generated_Source\PSoC4/UART_In.c ****     *  handler performs any operation such as software buffer management functions
 318:.\Generated_Source\PSoC4/UART_In.c ****     *  before the interrupt returns.  It is the user's responsibility not to break
 319:.\Generated_Source\PSoC4/UART_In.c ****     *  the software buffer operations. Only one custom handler is supported, which
 320:.\Generated_Source\PSoC4/UART_In.c ****     *  is the function provided by the most recent call.
 321:.\Generated_Source\PSoC4/UART_In.c ****     *  At the initialization time no custom handler is registered.
 322:.\Generated_Source\PSoC4/UART_In.c ****     *
 323:.\Generated_Source\PSoC4/UART_In.c ****     * Parameters:
 324:.\Generated_Source\PSoC4/UART_In.c ****     *  func: Pointer to the function to register.
 325:.\Generated_Source\PSoC4/UART_In.c ****     *        The value NULL indicates to remove the current custom interrupt
 326:.\Generated_Source\PSoC4/UART_In.c ****     *        handler.
 327:.\Generated_Source\PSoC4/UART_In.c ****     *
 328:.\Generated_Source\PSoC4/UART_In.c ****     * Return:
 329:.\Generated_Source\PSoC4/UART_In.c ****     *  None
 330:.\Generated_Source\PSoC4/UART_In.c ****     *
 331:.\Generated_Source\PSoC4/UART_In.c ****     *******************************************************************************/
 332:.\Generated_Source\PSoC4/UART_In.c ****     void UART_In_SetCustomInterruptHandler(void (*func)(void))
 333:.\Generated_Source\PSoC4/UART_In.c ****     {
ARM GAS  C:\Users\faithc\AppData\Local\Temp\cc2Rvd9a.s 			page 8


 334:.\Generated_Source\PSoC4/UART_In.c ****     #if !defined (CY_REMOVE_UART_In_CUSTOM_INTR_HANDLER)
 335:.\Generated_Source\PSoC4/UART_In.c ****         UART_In_customIntrHandler = func; /* Register interrupt handler */
 336:.\Generated_Source\PSoC4/UART_In.c ****     #else
 337:.\Generated_Source\PSoC4/UART_In.c ****         if (NULL != func)
 338:.\Generated_Source\PSoC4/UART_In.c ****         {
 339:.\Generated_Source\PSoC4/UART_In.c ****             /* Suppress compiler warning */
 340:.\Generated_Source\PSoC4/UART_In.c ****         }
 341:.\Generated_Source\PSoC4/UART_In.c ****     #endif /* !defined (CY_REMOVE_UART_In_CUSTOM_INTR_HANDLER) */
 342:.\Generated_Source\PSoC4/UART_In.c ****     }
 343:.\Generated_Source\PSoC4/UART_In.c **** #endif /* (UART_In_SCB_IRQ_INTERNAL) */
 344:.\Generated_Source\PSoC4/UART_In.c **** 
 345:.\Generated_Source\PSoC4/UART_In.c **** 
 346:.\Generated_Source\PSoC4/UART_In.c **** /*******************************************************************************
 347:.\Generated_Source\PSoC4/UART_In.c **** * Function Name: UART_In_ScbModeEnableIntr
 348:.\Generated_Source\PSoC4/UART_In.c **** ********************************************************************************
 349:.\Generated_Source\PSoC4/UART_In.c **** *
 350:.\Generated_Source\PSoC4/UART_In.c **** * Summary:
 351:.\Generated_Source\PSoC4/UART_In.c **** *  Enables an interrupt for a specific mode.
 352:.\Generated_Source\PSoC4/UART_In.c **** *
 353:.\Generated_Source\PSoC4/UART_In.c **** * Parameters:
 354:.\Generated_Source\PSoC4/UART_In.c **** *  None
 355:.\Generated_Source\PSoC4/UART_In.c **** *
 356:.\Generated_Source\PSoC4/UART_In.c **** * Return:
 357:.\Generated_Source\PSoC4/UART_In.c **** *  None
 358:.\Generated_Source\PSoC4/UART_In.c **** *
 359:.\Generated_Source\PSoC4/UART_In.c **** *******************************************************************************/
 360:.\Generated_Source\PSoC4/UART_In.c **** static void UART_In_ScbEnableIntr(void)
 361:.\Generated_Source\PSoC4/UART_In.c **** {
 362:.\Generated_Source\PSoC4/UART_In.c **** #if (UART_In_SCB_IRQ_INTERNAL)
 363:.\Generated_Source\PSoC4/UART_In.c ****     /* Enable interrupt in NVIC */
 364:.\Generated_Source\PSoC4/UART_In.c ****     #if (UART_In_SCB_MODE_UNCONFIG_CONST_CFG)
 365:.\Generated_Source\PSoC4/UART_In.c ****         if (0u != UART_In_scbEnableIntr)
 366:.\Generated_Source\PSoC4/UART_In.c ****         {
 367:.\Generated_Source\PSoC4/UART_In.c ****             UART_In_EnableInt();
 368:.\Generated_Source\PSoC4/UART_In.c ****         }
 369:.\Generated_Source\PSoC4/UART_In.c **** 
 370:.\Generated_Source\PSoC4/UART_In.c ****     #else
 371:.\Generated_Source\PSoC4/UART_In.c ****         UART_In_EnableInt();
 372:.\Generated_Source\PSoC4/UART_In.c **** 
 373:.\Generated_Source\PSoC4/UART_In.c ****     #endif /* (UART_In_SCB_MODE_UNCONFIG_CONST_CFG) */
 374:.\Generated_Source\PSoC4/UART_In.c **** #endif /* (UART_In_SCB_IRQ_INTERNAL) */
 375:.\Generated_Source\PSoC4/UART_In.c **** }
 376:.\Generated_Source\PSoC4/UART_In.c **** 
 377:.\Generated_Source\PSoC4/UART_In.c **** 
 378:.\Generated_Source\PSoC4/UART_In.c **** /*******************************************************************************
 379:.\Generated_Source\PSoC4/UART_In.c **** * Function Name: UART_In_ScbModePostEnable
 380:.\Generated_Source\PSoC4/UART_In.c **** ********************************************************************************
 381:.\Generated_Source\PSoC4/UART_In.c **** *
 382:.\Generated_Source\PSoC4/UART_In.c **** * Summary:
 383:.\Generated_Source\PSoC4/UART_In.c **** *  Calls the PostEnable function for a specific operation mode.
 384:.\Generated_Source\PSoC4/UART_In.c **** *
 385:.\Generated_Source\PSoC4/UART_In.c **** * Parameters:
 386:.\Generated_Source\PSoC4/UART_In.c **** *  None
 387:.\Generated_Source\PSoC4/UART_In.c **** *
 388:.\Generated_Source\PSoC4/UART_In.c **** * Return:
 389:.\Generated_Source\PSoC4/UART_In.c **** *  None
 390:.\Generated_Source\PSoC4/UART_In.c **** *
ARM GAS  C:\Users\faithc\AppData\Local\Temp\cc2Rvd9a.s 			page 9


 391:.\Generated_Source\PSoC4/UART_In.c **** *******************************************************************************/
 392:.\Generated_Source\PSoC4/UART_In.c **** static void UART_In_ScbModePostEnable(void)
 393:.\Generated_Source\PSoC4/UART_In.c **** {
 394:.\Generated_Source\PSoC4/UART_In.c **** #if (UART_In_SCB_MODE_UNCONFIG_CONST_CFG)
 395:.\Generated_Source\PSoC4/UART_In.c **** #if (!UART_In_CY_SCBIP_V1)
 396:.\Generated_Source\PSoC4/UART_In.c ****     if (UART_In_SCB_MODE_SPI_RUNTM_CFG)
 397:.\Generated_Source\PSoC4/UART_In.c ****     {
 398:.\Generated_Source\PSoC4/UART_In.c ****         UART_In_SpiPostEnable();
 399:.\Generated_Source\PSoC4/UART_In.c ****     }
 400:.\Generated_Source\PSoC4/UART_In.c ****     else if (UART_In_SCB_MODE_UART_RUNTM_CFG)
 401:.\Generated_Source\PSoC4/UART_In.c ****     {
 402:.\Generated_Source\PSoC4/UART_In.c ****         UART_In_UartPostEnable();
 403:.\Generated_Source\PSoC4/UART_In.c ****     }
 404:.\Generated_Source\PSoC4/UART_In.c ****     else
 405:.\Generated_Source\PSoC4/UART_In.c ****     {
 406:.\Generated_Source\PSoC4/UART_In.c ****         /* Unknown mode: do nothing */
 407:.\Generated_Source\PSoC4/UART_In.c ****     }
 408:.\Generated_Source\PSoC4/UART_In.c **** #endif /* (!UART_In_CY_SCBIP_V1) */
 409:.\Generated_Source\PSoC4/UART_In.c **** 
 410:.\Generated_Source\PSoC4/UART_In.c **** #elif (UART_In_SCB_MODE_SPI_CONST_CFG)
 411:.\Generated_Source\PSoC4/UART_In.c ****     UART_In_SpiPostEnable();
 412:.\Generated_Source\PSoC4/UART_In.c **** 
 413:.\Generated_Source\PSoC4/UART_In.c **** #elif (UART_In_SCB_MODE_UART_CONST_CFG)
 414:.\Generated_Source\PSoC4/UART_In.c ****     UART_In_UartPostEnable();
  66              		.loc 1 414 0
  67 000e FFF7FEFF 		bl	UART_In_UartPostEnable
  68              	.LVL1:
  69              	.LBE15:
  70              	.LBE14:
 167:.\Generated_Source\PSoC4/UART_In.c **** 
  71              		.loc 1 167 0
  72              		@ sp needed
  73 0012 08BD     		pop	{r3, pc}
  74              	.L4:
  75              		.align	2
  76              	.L3:
  77 0014 00000740 		.word	1074200576
  78              		.cfi_endproc
  79              	.LFE1:
  80              		.size	UART_In_Enable, .-UART_In_Enable
  81              		.section	.text.UART_In_Start,"ax",%progbits
  82              		.align	2
  83              		.global	UART_In_Start
  84              		.code	16
  85              		.thumb_func
  86              		.type	UART_In_Start, %function
  87              	UART_In_Start:
  88              	.LFB2:
 193:.\Generated_Source\PSoC4/UART_In.c ****     if (0u == UART_In_initVar)
  89              		.loc 1 193 0
  90              		.cfi_startproc
  91 0000 10B5     		push	{r4, lr}
  92              		.cfi_def_cfa_offset 8
  93              		.cfi_offset 4, -8
  94              		.cfi_offset 14, -4
 194:.\Generated_Source\PSoC4/UART_In.c ****     {
  95              		.loc 1 194 0
ARM GAS  C:\Users\faithc\AppData\Local\Temp\cc2Rvd9a.s 			page 10


  96 0002 084C     		ldr	r4, .L8
  97 0004 2378     		ldrb	r3, [r4]
  98 0006 002B     		cmp	r3, #0
  99 0008 03D1     		bne	.L6
 100              	.LBB16:
 101              	.LBB17:
 121:.\Generated_Source\PSoC4/UART_In.c **** 
 102              		.loc 1 121 0
 103 000a FFF7FEFF 		bl	UART_In_UartInit
 104              	.LVL2:
 105              	.LBE17:
 106              	.LBE16:
 197:.\Generated_Source\PSoC4/UART_In.c ****     }
 107              		.loc 1 197 0
 108 000e 0123     		mov	r3, #1
 109 0010 2370     		strb	r3, [r4]
 110              	.L6:
 111              	.LBB18:
 112              	.LBB19:
 160:.\Generated_Source\PSoC4/UART_In.c **** 
 113              		.loc 1 160 0
 114 0012 8021     		mov	r1, #128
 115 0014 044A     		ldr	r2, .L8+4
 116 0016 0906     		lsl	r1, r1, #24
 117 0018 1368     		ldr	r3, [r2]
 118              	.LBE19:
 119              	.LBE18:
 201:.\Generated_Source\PSoC4/UART_In.c **** 
 120              		.loc 1 201 0
 121              		@ sp needed
 122              	.LBB23:
 123              	.LBB22:
 160:.\Generated_Source\PSoC4/UART_In.c **** 
 124              		.loc 1 160 0
 125 001a 0B43     		orr	r3, r1
 126 001c 1360     		str	r3, [r2]
 127              	.LBB20:
 128              	.LBB21:
 129              		.loc 1 414 0
 130 001e FFF7FEFF 		bl	UART_In_UartPostEnable
 131              	.LVL3:
 132              	.LBE21:
 133              	.LBE20:
 134              	.LBE22:
 135              	.LBE23:
 201:.\Generated_Source\PSoC4/UART_In.c **** 
 136              		.loc 1 201 0
 137 0022 10BD     		pop	{r4, pc}
 138              	.L9:
 139              		.align	2
 140              	.L8:
 141 0024 00000000 		.word	.LANCHOR0
 142 0028 00000740 		.word	1074200576
 143              		.cfi_endproc
 144              	.LFE2:
 145              		.size	UART_In_Start, .-UART_In_Start
 146              		.section	.text.UART_In_Stop,"ax",%progbits
ARM GAS  C:\Users\faithc\AppData\Local\Temp\cc2Rvd9a.s 			page 11


 147              		.align	2
 148              		.global	UART_In_Stop
 149              		.code	16
 150              		.thumb_func
 151              		.type	UART_In_Stop, %function
 152              	UART_In_Stop:
 153              	.LFB3:
 222:.\Generated_Source\PSoC4/UART_In.c **** #if (UART_In_SCB_IRQ_INTERNAL)
 154              		.loc 1 222 0
 155              		.cfi_startproc
 156 0000 08B5     		push	{r3, lr}
 157              		.cfi_def_cfa_offset 8
 158              		.cfi_offset 3, -8
 159              		.cfi_offset 14, -4
 160              	.LBB24:
 161              	.LBB25:
 415:.\Generated_Source\PSoC4/UART_In.c **** 
 416:.\Generated_Source\PSoC4/UART_In.c **** #else
 417:.\Generated_Source\PSoC4/UART_In.c ****     /* Unknown mode: do nothing */
 418:.\Generated_Source\PSoC4/UART_In.c **** #endif /* (UART_In_SCB_MODE_UNCONFIG_CONST_CFG) */
 419:.\Generated_Source\PSoC4/UART_In.c **** }
 420:.\Generated_Source\PSoC4/UART_In.c **** 
 421:.\Generated_Source\PSoC4/UART_In.c **** 
 422:.\Generated_Source\PSoC4/UART_In.c **** /*******************************************************************************
 423:.\Generated_Source\PSoC4/UART_In.c **** * Function Name: UART_In_ScbModeStop
 424:.\Generated_Source\PSoC4/UART_In.c **** ********************************************************************************
 425:.\Generated_Source\PSoC4/UART_In.c **** *
 426:.\Generated_Source\PSoC4/UART_In.c **** * Summary:
 427:.\Generated_Source\PSoC4/UART_In.c **** *  Calls the Stop function for a specific operation mode.
 428:.\Generated_Source\PSoC4/UART_In.c **** *
 429:.\Generated_Source\PSoC4/UART_In.c **** * Parameters:
 430:.\Generated_Source\PSoC4/UART_In.c **** *  None
 431:.\Generated_Source\PSoC4/UART_In.c **** *
 432:.\Generated_Source\PSoC4/UART_In.c **** * Return:
 433:.\Generated_Source\PSoC4/UART_In.c **** *  None
 434:.\Generated_Source\PSoC4/UART_In.c **** *
 435:.\Generated_Source\PSoC4/UART_In.c **** *******************************************************************************/
 436:.\Generated_Source\PSoC4/UART_In.c **** static void UART_In_ScbModeStop(void)
 437:.\Generated_Source\PSoC4/UART_In.c **** {
 438:.\Generated_Source\PSoC4/UART_In.c **** #if (UART_In_SCB_MODE_UNCONFIG_CONST_CFG)
 439:.\Generated_Source\PSoC4/UART_In.c ****     if (UART_In_SCB_MODE_I2C_RUNTM_CFG)
 440:.\Generated_Source\PSoC4/UART_In.c ****     {
 441:.\Generated_Source\PSoC4/UART_In.c ****         UART_In_I2CStop();
 442:.\Generated_Source\PSoC4/UART_In.c ****     }
 443:.\Generated_Source\PSoC4/UART_In.c ****     else if (UART_In_SCB_MODE_EZI2C_RUNTM_CFG)
 444:.\Generated_Source\PSoC4/UART_In.c ****     {
 445:.\Generated_Source\PSoC4/UART_In.c ****         UART_In_EzI2CStop();
 446:.\Generated_Source\PSoC4/UART_In.c ****     }
 447:.\Generated_Source\PSoC4/UART_In.c **** #if (!UART_In_CY_SCBIP_V1)
 448:.\Generated_Source\PSoC4/UART_In.c ****     else if (UART_In_SCB_MODE_SPI_RUNTM_CFG)
 449:.\Generated_Source\PSoC4/UART_In.c ****     {
 450:.\Generated_Source\PSoC4/UART_In.c ****         UART_In_SpiStop();
 451:.\Generated_Source\PSoC4/UART_In.c ****     }
 452:.\Generated_Source\PSoC4/UART_In.c ****     else if (UART_In_SCB_MODE_UART_RUNTM_CFG)
 453:.\Generated_Source\PSoC4/UART_In.c ****     {
 454:.\Generated_Source\PSoC4/UART_In.c ****         UART_In_UartStop();
 455:.\Generated_Source\PSoC4/UART_In.c ****     }
ARM GAS  C:\Users\faithc\AppData\Local\Temp\cc2Rvd9a.s 			page 12


 456:.\Generated_Source\PSoC4/UART_In.c **** #endif /* (!UART_In_CY_SCBIP_V1) */
 457:.\Generated_Source\PSoC4/UART_In.c ****     else
 458:.\Generated_Source\PSoC4/UART_In.c ****     {
 459:.\Generated_Source\PSoC4/UART_In.c ****         /* Unknown mode: do nothing */
 460:.\Generated_Source\PSoC4/UART_In.c ****     }
 461:.\Generated_Source\PSoC4/UART_In.c **** #elif (UART_In_SCB_MODE_I2C_CONST_CFG)
 462:.\Generated_Source\PSoC4/UART_In.c ****     UART_In_I2CStop();
 463:.\Generated_Source\PSoC4/UART_In.c **** 
 464:.\Generated_Source\PSoC4/UART_In.c **** #elif (UART_In_SCB_MODE_EZI2C_CONST_CFG)
 465:.\Generated_Source\PSoC4/UART_In.c ****     UART_In_EzI2CStop();
 466:.\Generated_Source\PSoC4/UART_In.c **** 
 467:.\Generated_Source\PSoC4/UART_In.c **** #elif (UART_In_SCB_MODE_SPI_CONST_CFG)
 468:.\Generated_Source\PSoC4/UART_In.c ****     UART_In_SpiStop();
 469:.\Generated_Source\PSoC4/UART_In.c **** 
 470:.\Generated_Source\PSoC4/UART_In.c **** #elif (UART_In_SCB_MODE_UART_CONST_CFG)
 471:.\Generated_Source\PSoC4/UART_In.c ****     UART_In_UartStop();
 162              		.loc 1 471 0
 163 0002 FFF7FEFF 		bl	UART_In_UartStop
 164              	.LVL4:
 165              	.LBE25:
 166              	.LBE24:
 231:.\Generated_Source\PSoC4/UART_In.c **** 
 167              		.loc 1 231 0
 168 0006 044A     		ldr	r2, .L11
 246:.\Generated_Source\PSoC4/UART_In.c **** 
 169              		.loc 1 246 0
 170              		@ sp needed
 231:.\Generated_Source\PSoC4/UART_In.c **** 
 171              		.loc 1 231 0
 172 0008 1368     		ldr	r3, [r2]
 173 000a 5B00     		lsl	r3, r3, #1
 174 000c 5B08     		lsr	r3, r3, #1
 175 000e 1360     		str	r3, [r2]
 241:.\Generated_Source\PSoC4/UART_In.c **** 
 176              		.loc 1 241 0
 177 0010 0022     		mov	r2, #0
 178 0012 024B     		ldr	r3, .L11+4
 179 0014 1A60     		str	r2, [r3]
 246:.\Generated_Source\PSoC4/UART_In.c **** 
 180              		.loc 1 246 0
 181 0016 08BD     		pop	{r3, pc}
 182              	.L12:
 183              		.align	2
 184              	.L11:
 185 0018 00000740 		.word	1074200576
 186 001c 880F0740 		.word	1074204552
 187              		.cfi_endproc
 188              	.LFE3:
 189              		.size	UART_In_Stop, .-UART_In_Stop
 190              		.section	.text.UART_In_SetRxFifoLevel,"ax",%progbits
 191              		.align	2
 192              		.global	UART_In_SetRxFifoLevel
 193              		.code	16
 194              		.thumb_func
 195              		.type	UART_In_SetRxFifoLevel, %function
 196              	UART_In_SetRxFifoLevel:
 197              	.LFB4:
ARM GAS  C:\Users\faithc\AppData\Local\Temp\cc2Rvd9a.s 			page 13


 267:.\Generated_Source\PSoC4/UART_In.c ****     uint32 rxFifoCtrl;
 198              		.loc 1 267 0
 199              		.cfi_startproc
 200              	.LVL5:
 272:.\Generated_Source\PSoC4/UART_In.c ****     rxFifoCtrl |= ((uint32) (UART_In_RX_FIFO_CTRL_TRIGGER_LEVEL_MASK & level));
 201              		.loc 1 272 0
 202 0000 0721     		mov	r1, #7
 270:.\Generated_Source\PSoC4/UART_In.c **** 
 203              		.loc 1 270 0
 204 0002 034A     		ldr	r2, .L14
 273:.\Generated_Source\PSoC4/UART_In.c **** 
 205              		.loc 1 273 0
 206 0004 0840     		and	r0, r1
 207              	.LVL6:
 270:.\Generated_Source\PSoC4/UART_In.c **** 
 208              		.loc 1 270 0
 209 0006 1368     		ldr	r3, [r2]
 210              	.LVL7:
 276:.\Generated_Source\PSoC4/UART_In.c **** 
 211              		.loc 1 276 0
 212              		@ sp needed
 272:.\Generated_Source\PSoC4/UART_In.c ****     rxFifoCtrl |= ((uint32) (UART_In_RX_FIFO_CTRL_TRIGGER_LEVEL_MASK & level));
 213              		.loc 1 272 0
 214 0008 8B43     		bic	r3, r1
 215              	.LVL8:
 273:.\Generated_Source\PSoC4/UART_In.c **** 
 216              		.loc 1 273 0
 217 000a 1843     		orr	r0, r3
 218              	.LVL9:
 275:.\Generated_Source\PSoC4/UART_In.c **** }
 219              		.loc 1 275 0
 220 000c 1060     		str	r0, [r2]
 276:.\Generated_Source\PSoC4/UART_In.c **** 
 221              		.loc 1 276 0
 222 000e 7047     		bx	lr
 223              	.L15:
 224              		.align	2
 225              	.L14:
 226 0010 04030740 		.word	1074201348
 227              		.cfi_endproc
 228              	.LFE4:
 229              		.size	UART_In_SetRxFifoLevel, .-UART_In_SetRxFifoLevel
 230              		.section	.text.UART_In_SetTxFifoLevel,"ax",%progbits
 231              		.align	2
 232              		.global	UART_In_SetTxFifoLevel
 233              		.code	16
 234              		.thumb_func
 235              		.type	UART_In_SetTxFifoLevel, %function
 236              	UART_In_SetTxFifoLevel:
 237              	.LFB5:
 297:.\Generated_Source\PSoC4/UART_In.c ****     uint32 txFifoCtrl;
 238              		.loc 1 297 0
 239              		.cfi_startproc
 240              	.LVL10:
 302:.\Generated_Source\PSoC4/UART_In.c ****     txFifoCtrl |= ((uint32) (UART_In_TX_FIFO_CTRL_TRIGGER_LEVEL_MASK & level));
 241              		.loc 1 302 0
 242 0000 0721     		mov	r1, #7
ARM GAS  C:\Users\faithc\AppData\Local\Temp\cc2Rvd9a.s 			page 14


 300:.\Generated_Source\PSoC4/UART_In.c **** 
 243              		.loc 1 300 0
 244 0002 034A     		ldr	r2, .L17
 303:.\Generated_Source\PSoC4/UART_In.c **** 
 245              		.loc 1 303 0
 246 0004 0840     		and	r0, r1
 247              	.LVL11:
 300:.\Generated_Source\PSoC4/UART_In.c **** 
 248              		.loc 1 300 0
 249 0006 1368     		ldr	r3, [r2]
 250              	.LVL12:
 306:.\Generated_Source\PSoC4/UART_In.c **** 
 251              		.loc 1 306 0
 252              		@ sp needed
 302:.\Generated_Source\PSoC4/UART_In.c ****     txFifoCtrl |= ((uint32) (UART_In_TX_FIFO_CTRL_TRIGGER_LEVEL_MASK & level));
 253              		.loc 1 302 0
 254 0008 8B43     		bic	r3, r1
 255              	.LVL13:
 303:.\Generated_Source\PSoC4/UART_In.c **** 
 256              		.loc 1 303 0
 257 000a 1843     		orr	r0, r3
 258              	.LVL14:
 305:.\Generated_Source\PSoC4/UART_In.c **** }
 259              		.loc 1 305 0
 260 000c 1060     		str	r0, [r2]
 306:.\Generated_Source\PSoC4/UART_In.c **** 
 261              		.loc 1 306 0
 262 000e 7047     		bx	lr
 263              	.L18:
 264              		.align	2
 265              	.L17:
 266 0010 04020740 		.word	1074201092
 267              		.cfi_endproc
 268              	.LFE5:
 269              		.size	UART_In_SetTxFifoLevel, .-UART_In_SetTxFifoLevel
 270              		.section	.text.UART_In_I2CSlaveNackGeneration,"ax",%progbits
 271              		.align	2
 272              		.global	UART_In_I2CSlaveNackGeneration
 273              		.code	16
 274              		.thumb_func
 275              		.type	UART_In_I2CSlaveNackGeneration, %function
 276              	UART_In_I2CSlaveNackGeneration:
 277              	.LFB9:
 472:.\Generated_Source\PSoC4/UART_In.c **** 
 473:.\Generated_Source\PSoC4/UART_In.c **** #else
 474:.\Generated_Source\PSoC4/UART_In.c ****     /* Unknown mode: do nothing */
 475:.\Generated_Source\PSoC4/UART_In.c **** #endif /* (UART_In_SCB_MODE_UNCONFIG_CONST_CFG) */
 476:.\Generated_Source\PSoC4/UART_In.c **** }
 477:.\Generated_Source\PSoC4/UART_In.c **** 
 478:.\Generated_Source\PSoC4/UART_In.c **** 
 479:.\Generated_Source\PSoC4/UART_In.c **** #if (UART_In_SCB_MODE_UNCONFIG_CONST_CFG)
 480:.\Generated_Source\PSoC4/UART_In.c ****     /*******************************************************************************
 481:.\Generated_Source\PSoC4/UART_In.c ****     * Function Name: UART_In_SetPins
 482:.\Generated_Source\PSoC4/UART_In.c ****     ********************************************************************************
 483:.\Generated_Source\PSoC4/UART_In.c ****     *
 484:.\Generated_Source\PSoC4/UART_In.c ****     * Summary:
 485:.\Generated_Source\PSoC4/UART_In.c ****     *  Sets the pins settings accordingly to the selected operation mode.
ARM GAS  C:\Users\faithc\AppData\Local\Temp\cc2Rvd9a.s 			page 15


 486:.\Generated_Source\PSoC4/UART_In.c ****     *  Only available in the Unconfigured operation mode. The mode specific
 487:.\Generated_Source\PSoC4/UART_In.c ****     *  initialization function calls it.
 488:.\Generated_Source\PSoC4/UART_In.c ****     *  Pins configuration is set by PSoC Creator when a specific mode of operation
 489:.\Generated_Source\PSoC4/UART_In.c ****     *  is selected in design time.
 490:.\Generated_Source\PSoC4/UART_In.c ****     *
 491:.\Generated_Source\PSoC4/UART_In.c ****     * Parameters:
 492:.\Generated_Source\PSoC4/UART_In.c ****     *  mode:      Mode of SCB operation.
 493:.\Generated_Source\PSoC4/UART_In.c ****     *  subMode:   Sub-mode of SCB operation. It is only required for SPI and UART
 494:.\Generated_Source\PSoC4/UART_In.c ****     *             modes.
 495:.\Generated_Source\PSoC4/UART_In.c ****     *  uartEnableMask: enables TX or RX direction and RTS and CTS signals.
 496:.\Generated_Source\PSoC4/UART_In.c ****     *
 497:.\Generated_Source\PSoC4/UART_In.c ****     * Return:
 498:.\Generated_Source\PSoC4/UART_In.c ****     *  None
 499:.\Generated_Source\PSoC4/UART_In.c ****     *
 500:.\Generated_Source\PSoC4/UART_In.c ****     *******************************************************************************/
 501:.\Generated_Source\PSoC4/UART_In.c ****     void UART_In_SetPins(uint32 mode, uint32 subMode, uint32 uartEnableMask)
 502:.\Generated_Source\PSoC4/UART_In.c ****     {
 503:.\Generated_Source\PSoC4/UART_In.c ****         uint32 hsiomSel [UART_In_SCB_PINS_NUMBER];
 504:.\Generated_Source\PSoC4/UART_In.c ****         uint32 pinsDm   [UART_In_SCB_PINS_NUMBER];
 505:.\Generated_Source\PSoC4/UART_In.c **** 
 506:.\Generated_Source\PSoC4/UART_In.c ****     #if (!UART_In_CY_SCBIP_V1)
 507:.\Generated_Source\PSoC4/UART_In.c ****         uint32 pinsInBuf = 0u;
 508:.\Generated_Source\PSoC4/UART_In.c ****     #endif /* (!UART_In_CY_SCBIP_V1) */
 509:.\Generated_Source\PSoC4/UART_In.c **** 
 510:.\Generated_Source\PSoC4/UART_In.c ****         uint32 i;
 511:.\Generated_Source\PSoC4/UART_In.c **** 
 512:.\Generated_Source\PSoC4/UART_In.c ****         /* Set default HSIOM to GPIO and Drive Mode to Analog Hi-Z */
 513:.\Generated_Source\PSoC4/UART_In.c ****         for (i = 0u; i < UART_In_SCB_PINS_NUMBER; i++)
 514:.\Generated_Source\PSoC4/UART_In.c ****         {
 515:.\Generated_Source\PSoC4/UART_In.c ****             hsiomSel[i]  = UART_In_HSIOM_DEF_SEL;
 516:.\Generated_Source\PSoC4/UART_In.c ****             pinsDm[i]    = UART_In_PIN_DM_ALG_HIZ;
 517:.\Generated_Source\PSoC4/UART_In.c ****         }
 518:.\Generated_Source\PSoC4/UART_In.c **** 
 519:.\Generated_Source\PSoC4/UART_In.c ****         if ((UART_In_SCB_MODE_I2C   == mode) ||
 520:.\Generated_Source\PSoC4/UART_In.c ****            (UART_In_SCB_MODE_EZI2C == mode))
 521:.\Generated_Source\PSoC4/UART_In.c ****         {
 522:.\Generated_Source\PSoC4/UART_In.c ****             hsiomSel[UART_In_RX_SCL_MOSI_PIN_INDEX] = UART_In_HSIOM_I2C_SEL;
 523:.\Generated_Source\PSoC4/UART_In.c ****             hsiomSel[UART_In_TX_SDA_MISO_PIN_INDEX] = UART_In_HSIOM_I2C_SEL;
 524:.\Generated_Source\PSoC4/UART_In.c **** 
 525:.\Generated_Source\PSoC4/UART_In.c ****             pinsDm[UART_In_RX_SCL_MOSI_PIN_INDEX] = UART_In_PIN_DM_OD_LO;
 526:.\Generated_Source\PSoC4/UART_In.c ****             pinsDm[UART_In_TX_SDA_MISO_PIN_INDEX] = UART_In_PIN_DM_OD_LO;
 527:.\Generated_Source\PSoC4/UART_In.c ****         }
 528:.\Generated_Source\PSoC4/UART_In.c ****     #if (!UART_In_CY_SCBIP_V1)
 529:.\Generated_Source\PSoC4/UART_In.c ****         else if (UART_In_SCB_MODE_SPI == mode)
 530:.\Generated_Source\PSoC4/UART_In.c ****         {
 531:.\Generated_Source\PSoC4/UART_In.c ****             hsiomSel[UART_In_RX_SCL_MOSI_PIN_INDEX] = UART_In_HSIOM_SPI_SEL;
 532:.\Generated_Source\PSoC4/UART_In.c ****             hsiomSel[UART_In_TX_SDA_MISO_PIN_INDEX] = UART_In_HSIOM_SPI_SEL;
 533:.\Generated_Source\PSoC4/UART_In.c ****             hsiomSel[UART_In_SCLK_PIN_INDEX] = UART_In_HSIOM_SPI_SEL;
 534:.\Generated_Source\PSoC4/UART_In.c **** 
 535:.\Generated_Source\PSoC4/UART_In.c ****             if (UART_In_SPI_SLAVE == subMode)
 536:.\Generated_Source\PSoC4/UART_In.c ****             {
 537:.\Generated_Source\PSoC4/UART_In.c ****                 /* Slave */
 538:.\Generated_Source\PSoC4/UART_In.c ****                 pinsDm[UART_In_RX_SCL_MOSI_PIN_INDEX] = UART_In_PIN_DM_DIG_HIZ;
 539:.\Generated_Source\PSoC4/UART_In.c ****                 pinsDm[UART_In_TX_SDA_MISO_PIN_INDEX] = UART_In_PIN_DM_STRONG;
 540:.\Generated_Source\PSoC4/UART_In.c ****                 pinsDm[UART_In_SCLK_PIN_INDEX] = UART_In_PIN_DM_DIG_HIZ;
 541:.\Generated_Source\PSoC4/UART_In.c **** 
 542:.\Generated_Source\PSoC4/UART_In.c ****             #if (UART_In_SS0_PIN)
ARM GAS  C:\Users\faithc\AppData\Local\Temp\cc2Rvd9a.s 			page 16


 543:.\Generated_Source\PSoC4/UART_In.c ****                 /* Only SS0 is valid choice for Slave */
 544:.\Generated_Source\PSoC4/UART_In.c ****                 hsiomSel[UART_In_SS0_PIN_INDEX] = UART_In_HSIOM_SPI_SEL;
 545:.\Generated_Source\PSoC4/UART_In.c ****                 pinsDm  [UART_In_SS0_PIN_INDEX] = UART_In_PIN_DM_DIG_HIZ;
 546:.\Generated_Source\PSoC4/UART_In.c ****             #endif /* (UART_In_SS0_PIN) */
 547:.\Generated_Source\PSoC4/UART_In.c **** 
 548:.\Generated_Source\PSoC4/UART_In.c ****             #if (UART_In_TX_SDA_MISO_PIN)
 549:.\Generated_Source\PSoC4/UART_In.c ****                 /* Disable input buffer */
 550:.\Generated_Source\PSoC4/UART_In.c ****                  pinsInBuf |= UART_In_TX_SDA_MISO_PIN_MASK;
 551:.\Generated_Source\PSoC4/UART_In.c ****             #endif /* (UART_In_TX_SDA_MISO_PIN) */
 552:.\Generated_Source\PSoC4/UART_In.c ****             }
 553:.\Generated_Source\PSoC4/UART_In.c ****             else /* (Master) */
 554:.\Generated_Source\PSoC4/UART_In.c ****             {
 555:.\Generated_Source\PSoC4/UART_In.c ****                 pinsDm[UART_In_RX_SCL_MOSI_PIN_INDEX] = UART_In_PIN_DM_STRONG;
 556:.\Generated_Source\PSoC4/UART_In.c ****                 pinsDm[UART_In_TX_SDA_MISO_PIN_INDEX] = UART_In_PIN_DM_DIG_HIZ;
 557:.\Generated_Source\PSoC4/UART_In.c ****                 pinsDm[UART_In_SCLK_PIN_INDEX] = UART_In_PIN_DM_STRONG;
 558:.\Generated_Source\PSoC4/UART_In.c **** 
 559:.\Generated_Source\PSoC4/UART_In.c ****             #if (UART_In_SS0_PIN)
 560:.\Generated_Source\PSoC4/UART_In.c ****                 hsiomSel [UART_In_SS0_PIN_INDEX] = UART_In_HSIOM_SPI_SEL;
 561:.\Generated_Source\PSoC4/UART_In.c ****                 pinsDm   [UART_In_SS0_PIN_INDEX] = UART_In_PIN_DM_STRONG;
 562:.\Generated_Source\PSoC4/UART_In.c ****                 pinsInBuf |= UART_In_SS0_PIN_MASK;
 563:.\Generated_Source\PSoC4/UART_In.c ****             #endif /* (UART_In_SS0_PIN) */
 564:.\Generated_Source\PSoC4/UART_In.c **** 
 565:.\Generated_Source\PSoC4/UART_In.c ****             #if (UART_In_SS1_PIN)
 566:.\Generated_Source\PSoC4/UART_In.c ****                 hsiomSel [UART_In_SS1_PIN_INDEX] = UART_In_HSIOM_SPI_SEL;
 567:.\Generated_Source\PSoC4/UART_In.c ****                 pinsDm   [UART_In_SS1_PIN_INDEX] = UART_In_PIN_DM_STRONG;
 568:.\Generated_Source\PSoC4/UART_In.c ****                 pinsInBuf |= UART_In_SS1_PIN_MASK;
 569:.\Generated_Source\PSoC4/UART_In.c ****             #endif /* (UART_In_SS1_PIN) */
 570:.\Generated_Source\PSoC4/UART_In.c **** 
 571:.\Generated_Source\PSoC4/UART_In.c ****             #if (UART_In_SS2_PIN)
 572:.\Generated_Source\PSoC4/UART_In.c ****                 hsiomSel [UART_In_SS2_PIN_INDEX] = UART_In_HSIOM_SPI_SEL;
 573:.\Generated_Source\PSoC4/UART_In.c ****                 pinsDm   [UART_In_SS2_PIN_INDEX] = UART_In_PIN_DM_STRONG;
 574:.\Generated_Source\PSoC4/UART_In.c ****                 pinsInBuf |= UART_In_SS2_PIN_MASK;
 575:.\Generated_Source\PSoC4/UART_In.c ****             #endif /* (UART_In_SS2_PIN) */
 576:.\Generated_Source\PSoC4/UART_In.c **** 
 577:.\Generated_Source\PSoC4/UART_In.c ****             #if (UART_In_SS3_PIN)
 578:.\Generated_Source\PSoC4/UART_In.c ****                 hsiomSel [UART_In_SS3_PIN_INDEX] = UART_In_HSIOM_SPI_SEL;
 579:.\Generated_Source\PSoC4/UART_In.c ****                 pinsDm   [UART_In_SS3_PIN_INDEX] = UART_In_PIN_DM_STRONG;
 580:.\Generated_Source\PSoC4/UART_In.c ****                 pinsInBuf |= UART_In_SS3_PIN_MASK;
 581:.\Generated_Source\PSoC4/UART_In.c ****             #endif /* (UART_In_SS3_PIN) */
 582:.\Generated_Source\PSoC4/UART_In.c **** 
 583:.\Generated_Source\PSoC4/UART_In.c ****                 /* Disable input buffers */
 584:.\Generated_Source\PSoC4/UART_In.c ****             #if (UART_In_RX_SCL_MOSI_PIN)
 585:.\Generated_Source\PSoC4/UART_In.c ****                 pinsInBuf |= UART_In_RX_SCL_MOSI_PIN_MASK;
 586:.\Generated_Source\PSoC4/UART_In.c ****             #endif /* (UART_In_RX_SCL_MOSI_PIN) */
 587:.\Generated_Source\PSoC4/UART_In.c **** 
 588:.\Generated_Source\PSoC4/UART_In.c ****              #if (UART_In_RX_WAKE_SCL_MOSI_PIN)
 589:.\Generated_Source\PSoC4/UART_In.c ****                 pinsInBuf |= UART_In_RX_WAKE_SCL_MOSI_PIN_MASK;
 590:.\Generated_Source\PSoC4/UART_In.c ****             #endif /* (UART_In_RX_WAKE_SCL_MOSI_PIN) */
 591:.\Generated_Source\PSoC4/UART_In.c **** 
 592:.\Generated_Source\PSoC4/UART_In.c ****             #if (UART_In_SCLK_PIN)
 593:.\Generated_Source\PSoC4/UART_In.c ****                 pinsInBuf |= UART_In_SCLK_PIN_MASK;
 594:.\Generated_Source\PSoC4/UART_In.c ****             #endif /* (UART_In_SCLK_PIN) */
 595:.\Generated_Source\PSoC4/UART_In.c ****             }
 596:.\Generated_Source\PSoC4/UART_In.c ****         }
 597:.\Generated_Source\PSoC4/UART_In.c ****         else /* UART */
 598:.\Generated_Source\PSoC4/UART_In.c ****         {
 599:.\Generated_Source\PSoC4/UART_In.c ****             if (UART_In_UART_MODE_SMARTCARD == subMode)
ARM GAS  C:\Users\faithc\AppData\Local\Temp\cc2Rvd9a.s 			page 17


 600:.\Generated_Source\PSoC4/UART_In.c ****             {
 601:.\Generated_Source\PSoC4/UART_In.c ****                 /* SmartCard */
 602:.\Generated_Source\PSoC4/UART_In.c ****                 hsiomSel[UART_In_TX_SDA_MISO_PIN_INDEX] = UART_In_HSIOM_UART_SEL;
 603:.\Generated_Source\PSoC4/UART_In.c ****                 pinsDm  [UART_In_TX_SDA_MISO_PIN_INDEX] = UART_In_PIN_DM_OD_LO;
 604:.\Generated_Source\PSoC4/UART_In.c ****             }
 605:.\Generated_Source\PSoC4/UART_In.c ****             else /* Standard or IrDA */
 606:.\Generated_Source\PSoC4/UART_In.c ****             {
 607:.\Generated_Source\PSoC4/UART_In.c ****                 if (0u != (UART_In_UART_RX_PIN_ENABLE & uartEnableMask))
 608:.\Generated_Source\PSoC4/UART_In.c ****                 {
 609:.\Generated_Source\PSoC4/UART_In.c ****                     hsiomSel[UART_In_RX_SCL_MOSI_PIN_INDEX] = UART_In_HSIOM_UART_SEL;
 610:.\Generated_Source\PSoC4/UART_In.c ****                     pinsDm  [UART_In_RX_SCL_MOSI_PIN_INDEX] = UART_In_PIN_DM_DIG_HIZ;
 611:.\Generated_Source\PSoC4/UART_In.c ****                 }
 612:.\Generated_Source\PSoC4/UART_In.c **** 
 613:.\Generated_Source\PSoC4/UART_In.c ****                 if (0u != (UART_In_UART_TX_PIN_ENABLE & uartEnableMask))
 614:.\Generated_Source\PSoC4/UART_In.c ****                 {
 615:.\Generated_Source\PSoC4/UART_In.c ****                     hsiomSel[UART_In_TX_SDA_MISO_PIN_INDEX] = UART_In_HSIOM_UART_SEL;
 616:.\Generated_Source\PSoC4/UART_In.c ****                     pinsDm  [UART_In_TX_SDA_MISO_PIN_INDEX] = UART_In_PIN_DM_STRONG;
 617:.\Generated_Source\PSoC4/UART_In.c **** 
 618:.\Generated_Source\PSoC4/UART_In.c ****                 #if (UART_In_TX_SDA_MISO_PIN)
 619:.\Generated_Source\PSoC4/UART_In.c ****                      pinsInBuf |= UART_In_TX_SDA_MISO_PIN_MASK;
 620:.\Generated_Source\PSoC4/UART_In.c ****                 #endif /* (UART_In_TX_SDA_MISO_PIN) */
 621:.\Generated_Source\PSoC4/UART_In.c ****                 }
 622:.\Generated_Source\PSoC4/UART_In.c **** 
 623:.\Generated_Source\PSoC4/UART_In.c ****             #if !(UART_In_CY_SCBIP_V0 || UART_In_CY_SCBIP_V1)
 624:.\Generated_Source\PSoC4/UART_In.c ****                 if (UART_In_UART_MODE_STD == subMode)
 625:.\Generated_Source\PSoC4/UART_In.c ****                 {
 626:.\Generated_Source\PSoC4/UART_In.c ****                     if (0u != (UART_In_UART_CTS_PIN_ENABLE & uartEnableMask))
 627:.\Generated_Source\PSoC4/UART_In.c ****                     {
 628:.\Generated_Source\PSoC4/UART_In.c ****                         /* CTS input is multiplexed with SCLK */
 629:.\Generated_Source\PSoC4/UART_In.c ****                         hsiomSel[UART_In_SCLK_PIN_INDEX] = UART_In_HSIOM_UART_SEL;
 630:.\Generated_Source\PSoC4/UART_In.c ****                         pinsDm  [UART_In_SCLK_PIN_INDEX] = UART_In_PIN_DM_DIG_HIZ;
 631:.\Generated_Source\PSoC4/UART_In.c ****                     }
 632:.\Generated_Source\PSoC4/UART_In.c **** 
 633:.\Generated_Source\PSoC4/UART_In.c ****                     if (0u != (UART_In_UART_RTS_PIN_ENABLE & uartEnableMask))
 634:.\Generated_Source\PSoC4/UART_In.c ****                     {
 635:.\Generated_Source\PSoC4/UART_In.c ****                         /* RTS output is multiplexed with SS0 */
 636:.\Generated_Source\PSoC4/UART_In.c ****                         hsiomSel[UART_In_SS0_PIN_INDEX] = UART_In_HSIOM_UART_SEL;
 637:.\Generated_Source\PSoC4/UART_In.c ****                         pinsDm  [UART_In_SS0_PIN_INDEX] = UART_In_PIN_DM_STRONG;
 638:.\Generated_Source\PSoC4/UART_In.c **** 
 639:.\Generated_Source\PSoC4/UART_In.c ****                     #if (UART_In_SS0_PIN)
 640:.\Generated_Source\PSoC4/UART_In.c ****                         /* Disable input buffer */
 641:.\Generated_Source\PSoC4/UART_In.c ****                         pinsInBuf |= UART_In_SS0_PIN_MASK;
 642:.\Generated_Source\PSoC4/UART_In.c ****                     #endif /* (UART_In_SS0_PIN) */
 643:.\Generated_Source\PSoC4/UART_In.c ****                     }
 644:.\Generated_Source\PSoC4/UART_In.c ****                 }
 645:.\Generated_Source\PSoC4/UART_In.c ****             #endif /* !(UART_In_CY_SCBIP_V0 || UART_In_CY_SCBIP_V1) */
 646:.\Generated_Source\PSoC4/UART_In.c ****             }
 647:.\Generated_Source\PSoC4/UART_In.c ****         }
 648:.\Generated_Source\PSoC4/UART_In.c ****     #endif /* (!UART_In_CY_SCBIP_V1) */
 649:.\Generated_Source\PSoC4/UART_In.c **** 
 650:.\Generated_Source\PSoC4/UART_In.c ****     /* Configure pins: set HSIOM, DM and InputBufEnable */
 651:.\Generated_Source\PSoC4/UART_In.c ****     /* Note: the DR register settings do not effect the pin output if HSIOM is other than GPIO */
 652:.\Generated_Source\PSoC4/UART_In.c **** 
 653:.\Generated_Source\PSoC4/UART_In.c ****     #if (UART_In_RX_WAKE_SCL_MOSI_PIN)
 654:.\Generated_Source\PSoC4/UART_In.c ****         UART_In_SET_HSIOM_SEL(UART_In_RX_WAKE_SCL_MOSI_HSIOM_REG,
 655:.\Generated_Source\PSoC4/UART_In.c ****                                        UART_In_RX_WAKE_SCL_MOSI_HSIOM_MASK,
 656:.\Generated_Source\PSoC4/UART_In.c ****                                        UART_In_RX_WAKE_SCL_MOSI_HSIOM_POS,
ARM GAS  C:\Users\faithc\AppData\Local\Temp\cc2Rvd9a.s 			page 18


 657:.\Generated_Source\PSoC4/UART_In.c ****                                        hsiomSel[UART_In_RX_WAKE_SCL_MOSI_PIN_INDEX]);
 658:.\Generated_Source\PSoC4/UART_In.c **** 
 659:.\Generated_Source\PSoC4/UART_In.c ****         UART_In_uart_rx_wake_i2c_scl_spi_mosi_SetDriveMode((uint8)
 660:.\Generated_Source\PSoC4/UART_In.c ****                                                                pinsDm[UART_In_RX_WAKE_SCL_MOSI_PIN_
 661:.\Generated_Source\PSoC4/UART_In.c **** 
 662:.\Generated_Source\PSoC4/UART_In.c ****         UART_In_SET_INP_DIS(UART_In_uart_rx_wake_i2c_scl_spi_mosi_INP_DIS,
 663:.\Generated_Source\PSoC4/UART_In.c ****                                      UART_In_uart_rx_wake_i2c_scl_spi_mosi_MASK,
 664:.\Generated_Source\PSoC4/UART_In.c ****                                      (0u != (pinsInBuf & UART_In_RX_WAKE_SCL_MOSI_PIN_MASK)));
 665:.\Generated_Source\PSoC4/UART_In.c **** 
 666:.\Generated_Source\PSoC4/UART_In.c ****          /* Set interrupt on falling edge */
 667:.\Generated_Source\PSoC4/UART_In.c ****         UART_In_SET_INCFG_TYPE(UART_In_RX_WAKE_SCL_MOSI_INTCFG_REG,
 668:.\Generated_Source\PSoC4/UART_In.c ****                                         UART_In_RX_WAKE_SCL_MOSI_INTCFG_TYPE_MASK,
 669:.\Generated_Source\PSoC4/UART_In.c ****                                         UART_In_RX_WAKE_SCL_MOSI_INTCFG_TYPE_POS,
 670:.\Generated_Source\PSoC4/UART_In.c ****                                         UART_In_INTCFG_TYPE_FALLING_EDGE);
 671:.\Generated_Source\PSoC4/UART_In.c ****     #endif /* (UART_In_RX_WAKE_SCL_MOSI_PIN) */
 672:.\Generated_Source\PSoC4/UART_In.c **** 
 673:.\Generated_Source\PSoC4/UART_In.c ****     #if (UART_In_RX_SCL_MOSI_PIN)
 674:.\Generated_Source\PSoC4/UART_In.c ****         UART_In_SET_HSIOM_SEL(UART_In_RX_SCL_MOSI_HSIOM_REG,
 675:.\Generated_Source\PSoC4/UART_In.c ****                                        UART_In_RX_SCL_MOSI_HSIOM_MASK,
 676:.\Generated_Source\PSoC4/UART_In.c ****                                        UART_In_RX_SCL_MOSI_HSIOM_POS,
 677:.\Generated_Source\PSoC4/UART_In.c ****                                         hsiomSel[UART_In_RX_SCL_MOSI_PIN_INDEX]);
 678:.\Generated_Source\PSoC4/UART_In.c **** 
 679:.\Generated_Source\PSoC4/UART_In.c ****         UART_In_uart_rx_i2c_scl_spi_mosi_SetDriveMode((uint8) pinsDm[UART_In_RX_SCL_MOSI_PIN_INDEX]
 680:.\Generated_Source\PSoC4/UART_In.c **** 
 681:.\Generated_Source\PSoC4/UART_In.c ****     #if (!UART_In_CY_SCBIP_V1)
 682:.\Generated_Source\PSoC4/UART_In.c ****         UART_In_SET_INP_DIS(UART_In_uart_rx_i2c_scl_spi_mosi_INP_DIS,
 683:.\Generated_Source\PSoC4/UART_In.c ****                                      UART_In_uart_rx_i2c_scl_spi_mosi_MASK,
 684:.\Generated_Source\PSoC4/UART_In.c ****                                      (0u != (pinsInBuf & UART_In_RX_SCL_MOSI_PIN_MASK)));
 685:.\Generated_Source\PSoC4/UART_In.c ****     #endif /* (!UART_In_CY_SCBIP_V1) */
 686:.\Generated_Source\PSoC4/UART_In.c ****     #endif /* (UART_In_RX_SCL_MOSI_PIN) */
 687:.\Generated_Source\PSoC4/UART_In.c **** 
 688:.\Generated_Source\PSoC4/UART_In.c ****     #if (UART_In_TX_SDA_MISO_PIN)
 689:.\Generated_Source\PSoC4/UART_In.c ****         UART_In_SET_HSIOM_SEL(UART_In_TX_SDA_MISO_HSIOM_REG,
 690:.\Generated_Source\PSoC4/UART_In.c ****                                        UART_In_TX_SDA_MISO_HSIOM_MASK,
 691:.\Generated_Source\PSoC4/UART_In.c ****                                        UART_In_TX_SDA_MISO_HSIOM_POS,
 692:.\Generated_Source\PSoC4/UART_In.c ****                                         hsiomSel[UART_In_TX_SDA_MISO_PIN_INDEX]);
 693:.\Generated_Source\PSoC4/UART_In.c **** 
 694:.\Generated_Source\PSoC4/UART_In.c ****         UART_In_uart_tx_i2c_sda_spi_miso_SetDriveMode((uint8) pinsDm[UART_In_TX_SDA_MISO_PIN_INDEX]
 695:.\Generated_Source\PSoC4/UART_In.c **** 
 696:.\Generated_Source\PSoC4/UART_In.c ****     #if (!UART_In_CY_SCBIP_V1)
 697:.\Generated_Source\PSoC4/UART_In.c ****         UART_In_SET_INP_DIS(UART_In_uart_tx_i2c_sda_spi_miso_INP_DIS,
 698:.\Generated_Source\PSoC4/UART_In.c ****                                      UART_In_uart_tx_i2c_sda_spi_miso_MASK,
 699:.\Generated_Source\PSoC4/UART_In.c ****                                     (0u != (pinsInBuf & UART_In_TX_SDA_MISO_PIN_MASK)));
 700:.\Generated_Source\PSoC4/UART_In.c ****     #endif /* (!UART_In_CY_SCBIP_V1) */
 701:.\Generated_Source\PSoC4/UART_In.c ****     #endif /* (UART_In_RX_SCL_MOSI_PIN) */
 702:.\Generated_Source\PSoC4/UART_In.c **** 
 703:.\Generated_Source\PSoC4/UART_In.c ****     #if (UART_In_SCLK_PIN)
 704:.\Generated_Source\PSoC4/UART_In.c ****         UART_In_SET_HSIOM_SEL(UART_In_SCLK_HSIOM_REG,
 705:.\Generated_Source\PSoC4/UART_In.c ****                                        UART_In_SCLK_HSIOM_MASK,
 706:.\Generated_Source\PSoC4/UART_In.c ****                                        UART_In_SCLK_HSIOM_POS,
 707:.\Generated_Source\PSoC4/UART_In.c ****                                        hsiomSel[UART_In_SCLK_PIN_INDEX]);
 708:.\Generated_Source\PSoC4/UART_In.c **** 
 709:.\Generated_Source\PSoC4/UART_In.c ****         UART_In_spi_sclk_SetDriveMode((uint8) pinsDm[UART_In_SCLK_PIN_INDEX]);
 710:.\Generated_Source\PSoC4/UART_In.c **** 
 711:.\Generated_Source\PSoC4/UART_In.c ****         UART_In_SET_INP_DIS(UART_In_spi_sclk_INP_DIS,
 712:.\Generated_Source\PSoC4/UART_In.c ****                                      UART_In_spi_sclk_MASK,
 713:.\Generated_Source\PSoC4/UART_In.c ****                                      (0u != (pinsInBuf & UART_In_SCLK_PIN_MASK)));
ARM GAS  C:\Users\faithc\AppData\Local\Temp\cc2Rvd9a.s 			page 19


 714:.\Generated_Source\PSoC4/UART_In.c ****     #endif /* (UART_In_SCLK_PIN) */
 715:.\Generated_Source\PSoC4/UART_In.c **** 
 716:.\Generated_Source\PSoC4/UART_In.c ****     #if (UART_In_SS0_PIN)
 717:.\Generated_Source\PSoC4/UART_In.c ****         UART_In_SET_HSIOM_SEL(UART_In_SS0_HSIOM_REG,
 718:.\Generated_Source\PSoC4/UART_In.c ****                                        UART_In_SS0_HSIOM_MASK,
 719:.\Generated_Source\PSoC4/UART_In.c ****                                        UART_In_SS0_HSIOM_POS,
 720:.\Generated_Source\PSoC4/UART_In.c ****                                        hsiomSel[UART_In_SS0_PIN_INDEX]);
 721:.\Generated_Source\PSoC4/UART_In.c **** 
 722:.\Generated_Source\PSoC4/UART_In.c ****         UART_In_spi_ss0_SetDriveMode((uint8) pinsDm[UART_In_SS0_PIN_INDEX]);
 723:.\Generated_Source\PSoC4/UART_In.c **** 
 724:.\Generated_Source\PSoC4/UART_In.c ****         UART_In_SET_INP_DIS(UART_In_spi_ss0_INP_DIS,
 725:.\Generated_Source\PSoC4/UART_In.c ****                                      UART_In_spi_ss0_MASK,
 726:.\Generated_Source\PSoC4/UART_In.c ****                                      (0u != (pinsInBuf & UART_In_SS0_PIN_MASK)));
 727:.\Generated_Source\PSoC4/UART_In.c ****     #endif /* (UART_In_SS0_PIN) */
 728:.\Generated_Source\PSoC4/UART_In.c **** 
 729:.\Generated_Source\PSoC4/UART_In.c ****     #if (UART_In_SS1_PIN)
 730:.\Generated_Source\PSoC4/UART_In.c ****         UART_In_SET_HSIOM_SEL(UART_In_SS1_HSIOM_REG,
 731:.\Generated_Source\PSoC4/UART_In.c ****                                        UART_In_SS1_HSIOM_MASK,
 732:.\Generated_Source\PSoC4/UART_In.c ****                                        UART_In_SS1_HSIOM_POS,
 733:.\Generated_Source\PSoC4/UART_In.c ****                                        hsiomSel[UART_In_SS1_PIN_INDEX]);
 734:.\Generated_Source\PSoC4/UART_In.c **** 
 735:.\Generated_Source\PSoC4/UART_In.c ****         UART_In_spi_ss1_SetDriveMode((uint8) pinsDm[UART_In_SS1_PIN_INDEX]);
 736:.\Generated_Source\PSoC4/UART_In.c **** 
 737:.\Generated_Source\PSoC4/UART_In.c ****         UART_In_SET_INP_DIS(UART_In_spi_ss1_INP_DIS,
 738:.\Generated_Source\PSoC4/UART_In.c ****                                      UART_In_spi_ss1_MASK,
 739:.\Generated_Source\PSoC4/UART_In.c ****                                      (0u != (pinsInBuf & UART_In_SS1_PIN_MASK)));
 740:.\Generated_Source\PSoC4/UART_In.c ****     #endif /* (UART_In_SS1_PIN) */
 741:.\Generated_Source\PSoC4/UART_In.c **** 
 742:.\Generated_Source\PSoC4/UART_In.c ****     #if (UART_In_SS2_PIN)
 743:.\Generated_Source\PSoC4/UART_In.c ****         UART_In_SET_HSIOM_SEL(UART_In_SS2_HSIOM_REG,
 744:.\Generated_Source\PSoC4/UART_In.c ****                                        UART_In_SS2_HSIOM_MASK,
 745:.\Generated_Source\PSoC4/UART_In.c ****                                        UART_In_SS2_HSIOM_POS,
 746:.\Generated_Source\PSoC4/UART_In.c ****                                        hsiomSel[UART_In_SS2_PIN_INDEX]);
 747:.\Generated_Source\PSoC4/UART_In.c **** 
 748:.\Generated_Source\PSoC4/UART_In.c ****         UART_In_spi_ss2_SetDriveMode((uint8) pinsDm[UART_In_SS2_PIN_INDEX]);
 749:.\Generated_Source\PSoC4/UART_In.c **** 
 750:.\Generated_Source\PSoC4/UART_In.c ****         UART_In_SET_INP_DIS(UART_In_spi_ss2_INP_DIS,
 751:.\Generated_Source\PSoC4/UART_In.c ****                                      UART_In_spi_ss2_MASK,
 752:.\Generated_Source\PSoC4/UART_In.c ****                                      (0u != (pinsInBuf & UART_In_SS2_PIN_MASK)));
 753:.\Generated_Source\PSoC4/UART_In.c ****     #endif /* (UART_In_SS2_PIN) */
 754:.\Generated_Source\PSoC4/UART_In.c **** 
 755:.\Generated_Source\PSoC4/UART_In.c ****     #if (UART_In_SS3_PIN)
 756:.\Generated_Source\PSoC4/UART_In.c ****         UART_In_SET_HSIOM_SEL(UART_In_SS3_HSIOM_REG,
 757:.\Generated_Source\PSoC4/UART_In.c ****                                        UART_In_SS3_HSIOM_MASK,
 758:.\Generated_Source\PSoC4/UART_In.c ****                                        UART_In_SS3_HSIOM_POS,
 759:.\Generated_Source\PSoC4/UART_In.c ****                                        hsiomSel[UART_In_SS3_PIN_INDEX]);
 760:.\Generated_Source\PSoC4/UART_In.c **** 
 761:.\Generated_Source\PSoC4/UART_In.c ****         UART_In_spi_ss3_SetDriveMode((uint8) pinsDm[UART_In_SS3_PIN_INDEX]);
 762:.\Generated_Source\PSoC4/UART_In.c **** 
 763:.\Generated_Source\PSoC4/UART_In.c ****         UART_In_SET_INP_DIS(UART_In_spi_ss3_INP_DIS,
 764:.\Generated_Source\PSoC4/UART_In.c ****                                      UART_In_spi_ss3_MASK,
 765:.\Generated_Source\PSoC4/UART_In.c ****                                      (0u != (pinsInBuf & UART_In_SS3_PIN_MASK)));
 766:.\Generated_Source\PSoC4/UART_In.c ****     #endif /* (UART_In_SS3_PIN) */
 767:.\Generated_Source\PSoC4/UART_In.c ****     }
 768:.\Generated_Source\PSoC4/UART_In.c **** 
 769:.\Generated_Source\PSoC4/UART_In.c **** #endif /* (UART_In_SCB_MODE_UNCONFIG_CONST_CFG) */
 770:.\Generated_Source\PSoC4/UART_In.c **** 
ARM GAS  C:\Users\faithc\AppData\Local\Temp\cc2Rvd9a.s 			page 20


 771:.\Generated_Source\PSoC4/UART_In.c **** 
 772:.\Generated_Source\PSoC4/UART_In.c **** #if (UART_In_CY_SCBIP_V0 || UART_In_CY_SCBIP_V1)
 773:.\Generated_Source\PSoC4/UART_In.c ****     /*******************************************************************************
 774:.\Generated_Source\PSoC4/UART_In.c ****     * Function Name: UART_In_I2CSlaveNackGeneration
 775:.\Generated_Source\PSoC4/UART_In.c ****     ********************************************************************************
 776:.\Generated_Source\PSoC4/UART_In.c ****     *
 777:.\Generated_Source\PSoC4/UART_In.c ****     * Summary:
 778:.\Generated_Source\PSoC4/UART_In.c ****     *  Sets command to generate NACK to the address or data.
 779:.\Generated_Source\PSoC4/UART_In.c ****     *
 780:.\Generated_Source\PSoC4/UART_In.c ****     * Parameters:
 781:.\Generated_Source\PSoC4/UART_In.c ****     *  None
 782:.\Generated_Source\PSoC4/UART_In.c ****     *
 783:.\Generated_Source\PSoC4/UART_In.c ****     * Return:
 784:.\Generated_Source\PSoC4/UART_In.c ****     *  None
 785:.\Generated_Source\PSoC4/UART_In.c ****     *
 786:.\Generated_Source\PSoC4/UART_In.c ****     *******************************************************************************/
 787:.\Generated_Source\PSoC4/UART_In.c ****     void UART_In_I2CSlaveNackGeneration(void)
 788:.\Generated_Source\PSoC4/UART_In.c ****     {
 278              		.loc 1 788 0
 279              		.cfi_startproc
 789:.\Generated_Source\PSoC4/UART_In.c ****         /* Check for EC_AM toggle condition: EC_AM and clock stretching for address are enabled */
 790:.\Generated_Source\PSoC4/UART_In.c ****         if ((0u != (UART_In_CTRL_REG & UART_In_CTRL_EC_AM_MODE)) &&
 280              		.loc 1 790 0
 281 0000 8022     		mov	r2, #128
 282 0002 0A4B     		ldr	r3, .L24
 283 0004 5200     		lsl	r2, r2, #1
 284 0006 1968     		ldr	r1, [r3]
 285 0008 1142     		tst	r1, r2
 286 000a 0AD0     		beq	.L20
 791:.\Generated_Source\PSoC4/UART_In.c ****             (0u == (UART_In_I2C_CTRL_REG & UART_In_I2C_CTRL_S_NOT_READY_ADDR_NACK)))
 287              		.loc 1 791 0 discriminator 1
 288 000c 0849     		ldr	r1, .L24+4
 289 000e 0968     		ldr	r1, [r1]
 790:.\Generated_Source\PSoC4/UART_In.c ****             (0u == (UART_In_I2C_CTRL_REG & UART_In_I2C_CTRL_S_NOT_READY_ADDR_NACK)))
 290              		.loc 1 790 0 discriminator 1
 291 0010 4904     		lsl	r1, r1, #17
 292 0012 06D4     		bmi	.L20
 792:.\Generated_Source\PSoC4/UART_In.c ****         {
 793:.\Generated_Source\PSoC4/UART_In.c ****             /* Toggle EC_AM before NACK generation */
 794:.\Generated_Source\PSoC4/UART_In.c ****             UART_In_CTRL_REG &= ~UART_In_CTRL_EC_AM_MODE;
 293              		.loc 1 794 0
 294 0014 1868     		ldr	r0, [r3]
 295 0016 0749     		ldr	r1, .L24+8
 296 0018 0140     		and	r1, r0
 297 001a 1960     		str	r1, [r3]
 795:.\Generated_Source\PSoC4/UART_In.c ****             UART_In_CTRL_REG |=  UART_In_CTRL_EC_AM_MODE;
 298              		.loc 1 795 0
 299 001c 1968     		ldr	r1, [r3]
 300 001e 0A43     		orr	r2, r1
 301 0020 1A60     		str	r2, [r3]
 302              	.L20:
 796:.\Generated_Source\PSoC4/UART_In.c ****         }
 797:.\Generated_Source\PSoC4/UART_In.c **** 
 798:.\Generated_Source\PSoC4/UART_In.c ****         UART_In_I2C_SLAVE_CMD_REG = UART_In_I2C_SLAVE_CMD_S_NACK;
 303              		.loc 1 798 0
 304 0022 0222     		mov	r2, #2
 305 0024 044B     		ldr	r3, .L24+12
ARM GAS  C:\Users\faithc\AppData\Local\Temp\cc2Rvd9a.s 			page 21


 799:.\Generated_Source\PSoC4/UART_In.c ****     }
 306              		.loc 1 799 0
 307              		@ sp needed
 798:.\Generated_Source\PSoC4/UART_In.c ****     }
 308              		.loc 1 798 0
 309 0026 1A60     		str	r2, [r3]
 310              		.loc 1 799 0
 311 0028 7047     		bx	lr
 312              	.L25:
 313 002a C046     		.align	2
 314              	.L24:
 315 002c 00000740 		.word	1074200576
 316 0030 60000740 		.word	1074200672
 317 0034 FFFEFFFF 		.word	-257
 318 0038 6C000740 		.word	1074200684
 319              		.cfi_endproc
 320              	.LFE9:
 321              		.size	UART_In_I2CSlaveNackGeneration, .-UART_In_I2CSlaveNackGeneration
 322              		.global	UART_In_initVar
 323              		.bss
 324              		.set	.LANCHOR0,. + 0
 325              		.type	UART_In_initVar, %object
 326              		.size	UART_In_initVar, 1
 327              	UART_In_initVar:
 328 0000 00       		.space	1
 329              		.text
 330              	.Letext0:
 331              		.file 2 "Generated_Source\\PSoC4/cytypes.h"
 332              		.file 3 ".\\Generated_Source\\PSoC4\\UART_In_SPI_UART_PVT.h"