ARM GAS  C:\Users\faithc\AppData\Local\Temp\cc7SiXXB.s 			page 1


   1              		.cpu cortex-m0
   2              		.fpu softvfp
   3              		.eabi_attribute 20, 1
   4              		.eabi_attribute 21, 1
   5              		.eabi_attribute 23, 3
   6              		.eabi_attribute 24, 1
   7              		.eabi_attribute 25, 1
   8              		.eabi_attribute 26, 1
   9              		.eabi_attribute 30, 2
  10              		.eabi_attribute 34, 0
  11              		.eabi_attribute 18, 4
  12              		.code	16
  13              		.file	"UART_In_ISR.c"
  14              		.text
  15              	.Ltext0:
  16              		.cfi_sections	.debug_frame
  17              		.section	.text.UART_In_ISR_Interrupt,"ax",%progbits
  18              		.align	2
  19              		.global	UART_In_ISR_Interrupt
  20              		.code	16
  21              		.thumb_func
  22              		.type	UART_In_ISR_Interrupt, %function
  23              	UART_In_ISR_Interrupt:
  24              	.LFB37:
  25              		.file 1 ".\\Generated_Source\\PSoC4\\UART_In_ISR.c"
   1:.\Generated_Source\PSoC4/UART_In_ISR.c **** /*******************************************************************************
   2:.\Generated_Source\PSoC4/UART_In_ISR.c **** * File Name: UART_In_ISR.c  
   3:.\Generated_Source\PSoC4/UART_In_ISR.c **** * Version 1.70
   4:.\Generated_Source\PSoC4/UART_In_ISR.c **** *
   5:.\Generated_Source\PSoC4/UART_In_ISR.c **** *  Description:
   6:.\Generated_Source\PSoC4/UART_In_ISR.c **** *   API for controlling the state of an interrupt.
   7:.\Generated_Source\PSoC4/UART_In_ISR.c **** *
   8:.\Generated_Source\PSoC4/UART_In_ISR.c **** *
   9:.\Generated_Source\PSoC4/UART_In_ISR.c **** *  Note:
  10:.\Generated_Source\PSoC4/UART_In_ISR.c **** *
  11:.\Generated_Source\PSoC4/UART_In_ISR.c **** ********************************************************************************
  12:.\Generated_Source\PSoC4/UART_In_ISR.c **** * Copyright 2008-2015, Cypress Semiconductor Corporation.  All rights reserved.
  13:.\Generated_Source\PSoC4/UART_In_ISR.c **** * You may use this file only in accordance with the license, terms, conditions, 
  14:.\Generated_Source\PSoC4/UART_In_ISR.c **** * disclaimers, and limitations in the end user license agreement accompanying 
  15:.\Generated_Source\PSoC4/UART_In_ISR.c **** * the software package with which this file was provided.
  16:.\Generated_Source\PSoC4/UART_In_ISR.c **** *******************************************************************************/
  17:.\Generated_Source\PSoC4/UART_In_ISR.c **** 
  18:.\Generated_Source\PSoC4/UART_In_ISR.c **** 
  19:.\Generated_Source\PSoC4/UART_In_ISR.c **** #include <cydevice_trm.h>
  20:.\Generated_Source\PSoC4/UART_In_ISR.c **** #include <CyLib.h>
  21:.\Generated_Source\PSoC4/UART_In_ISR.c **** #include <UART_In_ISR.h>
  22:.\Generated_Source\PSoC4/UART_In_ISR.c **** 
  23:.\Generated_Source\PSoC4/UART_In_ISR.c **** 
  24:.\Generated_Source\PSoC4/UART_In_ISR.c **** #if !defined(UART_In_ISR__REMOVED) /* Check for removal by optimization */
  25:.\Generated_Source\PSoC4/UART_In_ISR.c **** 
  26:.\Generated_Source\PSoC4/UART_In_ISR.c **** /*******************************************************************************
  27:.\Generated_Source\PSoC4/UART_In_ISR.c **** *  Place your includes, defines and code here 
  28:.\Generated_Source\PSoC4/UART_In_ISR.c **** ********************************************************************************/
  29:.\Generated_Source\PSoC4/UART_In_ISR.c **** /* `#START UART_In_ISR_intc` */
  30:.\Generated_Source\PSoC4/UART_In_ISR.c **** 
  31:.\Generated_Source\PSoC4/UART_In_ISR.c **** #include "TemperatureCommManager.h"
  32:.\Generated_Source\PSoC4/UART_In_ISR.c ****     
ARM GAS  C:\Users\faithc\AppData\Local\Temp\cc7SiXXB.s 			page 2


  33:.\Generated_Source\PSoC4/UART_In_ISR.c **** /* `#END` */
  34:.\Generated_Source\PSoC4/UART_In_ISR.c **** 
  35:.\Generated_Source\PSoC4/UART_In_ISR.c **** extern cyisraddress CyRamVectors[CYINT_IRQ_BASE + CY_NUM_INTERRUPTS];
  36:.\Generated_Source\PSoC4/UART_In_ISR.c **** 
  37:.\Generated_Source\PSoC4/UART_In_ISR.c **** /* Declared in startup, used to set unused interrupts to. */
  38:.\Generated_Source\PSoC4/UART_In_ISR.c **** CY_ISR_PROTO(IntDefaultHandler);
  39:.\Generated_Source\PSoC4/UART_In_ISR.c **** 
  40:.\Generated_Source\PSoC4/UART_In_ISR.c **** 
  41:.\Generated_Source\PSoC4/UART_In_ISR.c **** /*******************************************************************************
  42:.\Generated_Source\PSoC4/UART_In_ISR.c **** * Function Name: UART_In_ISR_Start
  43:.\Generated_Source\PSoC4/UART_In_ISR.c **** ********************************************************************************
  44:.\Generated_Source\PSoC4/UART_In_ISR.c **** *
  45:.\Generated_Source\PSoC4/UART_In_ISR.c **** * Summary:
  46:.\Generated_Source\PSoC4/UART_In_ISR.c **** *  Set up the interrupt and enable it. This function disables the interrupt, 
  47:.\Generated_Source\PSoC4/UART_In_ISR.c **** *  sets the default interrupt vector, sets the priority from the value in the
  48:.\Generated_Source\PSoC4/UART_In_ISR.c **** *  Design Wide Resources Interrupt Editor, then enables the interrupt to the 
  49:.\Generated_Source\PSoC4/UART_In_ISR.c **** *  interrupt controller.
  50:.\Generated_Source\PSoC4/UART_In_ISR.c **** *
  51:.\Generated_Source\PSoC4/UART_In_ISR.c **** * Parameters:  
  52:.\Generated_Source\PSoC4/UART_In_ISR.c **** *   None
  53:.\Generated_Source\PSoC4/UART_In_ISR.c **** *
  54:.\Generated_Source\PSoC4/UART_In_ISR.c **** * Return:
  55:.\Generated_Source\PSoC4/UART_In_ISR.c **** *   None
  56:.\Generated_Source\PSoC4/UART_In_ISR.c **** *
  57:.\Generated_Source\PSoC4/UART_In_ISR.c **** *******************************************************************************/
  58:.\Generated_Source\PSoC4/UART_In_ISR.c **** void UART_In_ISR_Start(void)
  59:.\Generated_Source\PSoC4/UART_In_ISR.c **** {
  60:.\Generated_Source\PSoC4/UART_In_ISR.c ****     /* For all we know the interrupt is active. */
  61:.\Generated_Source\PSoC4/UART_In_ISR.c ****     UART_In_ISR_Disable();
  62:.\Generated_Source\PSoC4/UART_In_ISR.c **** 
  63:.\Generated_Source\PSoC4/UART_In_ISR.c ****     /* Set the ISR to point to the UART_In_ISR Interrupt. */
  64:.\Generated_Source\PSoC4/UART_In_ISR.c ****     UART_In_ISR_SetVector(&UART_In_ISR_Interrupt);
  65:.\Generated_Source\PSoC4/UART_In_ISR.c **** 
  66:.\Generated_Source\PSoC4/UART_In_ISR.c ****     /* Set the priority. */
  67:.\Generated_Source\PSoC4/UART_In_ISR.c ****     UART_In_ISR_SetPriority((uint8)UART_In_ISR_INTC_PRIOR_NUMBER);
  68:.\Generated_Source\PSoC4/UART_In_ISR.c **** 
  69:.\Generated_Source\PSoC4/UART_In_ISR.c ****     /* Enable it. */
  70:.\Generated_Source\PSoC4/UART_In_ISR.c ****     UART_In_ISR_Enable();
  71:.\Generated_Source\PSoC4/UART_In_ISR.c **** }
  72:.\Generated_Source\PSoC4/UART_In_ISR.c **** 
  73:.\Generated_Source\PSoC4/UART_In_ISR.c **** 
  74:.\Generated_Source\PSoC4/UART_In_ISR.c **** /*******************************************************************************
  75:.\Generated_Source\PSoC4/UART_In_ISR.c **** * Function Name: UART_In_ISR_StartEx
  76:.\Generated_Source\PSoC4/UART_In_ISR.c **** ********************************************************************************
  77:.\Generated_Source\PSoC4/UART_In_ISR.c **** *
  78:.\Generated_Source\PSoC4/UART_In_ISR.c **** * Summary:
  79:.\Generated_Source\PSoC4/UART_In_ISR.c **** *  Sets up the interrupt and enables it. This function disables the interrupt,
  80:.\Generated_Source\PSoC4/UART_In_ISR.c **** *  sets the interrupt vector based on the address passed in, sets the priority 
  81:.\Generated_Source\PSoC4/UART_In_ISR.c **** *  from the value in the Design Wide Resources Interrupt Editor, then enables 
  82:.\Generated_Source\PSoC4/UART_In_ISR.c **** *  the interrupt to the interrupt controller.
  83:.\Generated_Source\PSoC4/UART_In_ISR.c **** *  
  84:.\Generated_Source\PSoC4/UART_In_ISR.c **** *  When defining ISR functions, the CY_ISR and CY_ISR_PROTO macros should be 
  85:.\Generated_Source\PSoC4/UART_In_ISR.c **** *  used to provide consistent definition across compilers:
  86:.\Generated_Source\PSoC4/UART_In_ISR.c **** *  
  87:.\Generated_Source\PSoC4/UART_In_ISR.c **** *  Function definition example:
  88:.\Generated_Source\PSoC4/UART_In_ISR.c **** *   CY_ISR(MyISR)
  89:.\Generated_Source\PSoC4/UART_In_ISR.c **** *   {
ARM GAS  C:\Users\faithc\AppData\Local\Temp\cc7SiXXB.s 			page 3


  90:.\Generated_Source\PSoC4/UART_In_ISR.c **** *   }
  91:.\Generated_Source\PSoC4/UART_In_ISR.c **** *   Function prototype example:
  92:.\Generated_Source\PSoC4/UART_In_ISR.c **** *   CY_ISR_PROTO(MyISR);
  93:.\Generated_Source\PSoC4/UART_In_ISR.c **** *
  94:.\Generated_Source\PSoC4/UART_In_ISR.c **** * Parameters:  
  95:.\Generated_Source\PSoC4/UART_In_ISR.c **** *   address: Address of the ISR to set in the interrupt vector table.
  96:.\Generated_Source\PSoC4/UART_In_ISR.c **** *
  97:.\Generated_Source\PSoC4/UART_In_ISR.c **** * Return:
  98:.\Generated_Source\PSoC4/UART_In_ISR.c **** *   None
  99:.\Generated_Source\PSoC4/UART_In_ISR.c **** *
 100:.\Generated_Source\PSoC4/UART_In_ISR.c **** *******************************************************************************/
 101:.\Generated_Source\PSoC4/UART_In_ISR.c **** void UART_In_ISR_StartEx(cyisraddress address)
 102:.\Generated_Source\PSoC4/UART_In_ISR.c **** {
 103:.\Generated_Source\PSoC4/UART_In_ISR.c ****     /* For all we know the interrupt is active. */
 104:.\Generated_Source\PSoC4/UART_In_ISR.c ****     UART_In_ISR_Disable();
 105:.\Generated_Source\PSoC4/UART_In_ISR.c **** 
 106:.\Generated_Source\PSoC4/UART_In_ISR.c ****     /* Set the ISR to point to the UART_In_ISR Interrupt. */
 107:.\Generated_Source\PSoC4/UART_In_ISR.c ****     UART_In_ISR_SetVector(address);
 108:.\Generated_Source\PSoC4/UART_In_ISR.c **** 
 109:.\Generated_Source\PSoC4/UART_In_ISR.c ****     /* Set the priority. */
 110:.\Generated_Source\PSoC4/UART_In_ISR.c ****     UART_In_ISR_SetPriority((uint8)UART_In_ISR_INTC_PRIOR_NUMBER);
 111:.\Generated_Source\PSoC4/UART_In_ISR.c **** 
 112:.\Generated_Source\PSoC4/UART_In_ISR.c ****     /* Enable it. */
 113:.\Generated_Source\PSoC4/UART_In_ISR.c ****     UART_In_ISR_Enable();
 114:.\Generated_Source\PSoC4/UART_In_ISR.c **** }
 115:.\Generated_Source\PSoC4/UART_In_ISR.c **** 
 116:.\Generated_Source\PSoC4/UART_In_ISR.c **** 
 117:.\Generated_Source\PSoC4/UART_In_ISR.c **** /*******************************************************************************
 118:.\Generated_Source\PSoC4/UART_In_ISR.c **** * Function Name: UART_In_ISR_Stop
 119:.\Generated_Source\PSoC4/UART_In_ISR.c **** ********************************************************************************
 120:.\Generated_Source\PSoC4/UART_In_ISR.c **** *
 121:.\Generated_Source\PSoC4/UART_In_ISR.c **** * Summary:
 122:.\Generated_Source\PSoC4/UART_In_ISR.c **** *   Disables and removes the interrupt.
 123:.\Generated_Source\PSoC4/UART_In_ISR.c **** *
 124:.\Generated_Source\PSoC4/UART_In_ISR.c **** * Parameters:  
 125:.\Generated_Source\PSoC4/UART_In_ISR.c **** *   None
 126:.\Generated_Source\PSoC4/UART_In_ISR.c **** *
 127:.\Generated_Source\PSoC4/UART_In_ISR.c **** * Return:
 128:.\Generated_Source\PSoC4/UART_In_ISR.c **** *   None
 129:.\Generated_Source\PSoC4/UART_In_ISR.c **** *
 130:.\Generated_Source\PSoC4/UART_In_ISR.c **** *******************************************************************************/
 131:.\Generated_Source\PSoC4/UART_In_ISR.c **** void UART_In_ISR_Stop(void)
 132:.\Generated_Source\PSoC4/UART_In_ISR.c **** {
 133:.\Generated_Source\PSoC4/UART_In_ISR.c ****     /* Disable this interrupt. */
 134:.\Generated_Source\PSoC4/UART_In_ISR.c ****     UART_In_ISR_Disable();
 135:.\Generated_Source\PSoC4/UART_In_ISR.c **** 
 136:.\Generated_Source\PSoC4/UART_In_ISR.c ****     /* Set the ISR to point to the passive one. */
 137:.\Generated_Source\PSoC4/UART_In_ISR.c ****     UART_In_ISR_SetVector(&IntDefaultHandler);
 138:.\Generated_Source\PSoC4/UART_In_ISR.c **** }
 139:.\Generated_Source\PSoC4/UART_In_ISR.c **** 
 140:.\Generated_Source\PSoC4/UART_In_ISR.c **** 
 141:.\Generated_Source\PSoC4/UART_In_ISR.c **** /*******************************************************************************
 142:.\Generated_Source\PSoC4/UART_In_ISR.c **** * Function Name: UART_In_ISR_Interrupt
 143:.\Generated_Source\PSoC4/UART_In_ISR.c **** ********************************************************************************
 144:.\Generated_Source\PSoC4/UART_In_ISR.c **** *
 145:.\Generated_Source\PSoC4/UART_In_ISR.c **** * Summary:
 146:.\Generated_Source\PSoC4/UART_In_ISR.c **** *   The default Interrupt Service Routine for UART_In_ISR.
ARM GAS  C:\Users\faithc\AppData\Local\Temp\cc7SiXXB.s 			page 4


 147:.\Generated_Source\PSoC4/UART_In_ISR.c **** *
 148:.\Generated_Source\PSoC4/UART_In_ISR.c **** *   Add custom code between the START and END comments to keep the next version
 149:.\Generated_Source\PSoC4/UART_In_ISR.c **** *   of this file from over-writing your code.
 150:.\Generated_Source\PSoC4/UART_In_ISR.c **** *
 151:.\Generated_Source\PSoC4/UART_In_ISR.c **** *   Note You may use either the default ISR by using this API, or you may define
 152:.\Generated_Source\PSoC4/UART_In_ISR.c **** *   your own separate ISR through ISR_StartEx().
 153:.\Generated_Source\PSoC4/UART_In_ISR.c **** *
 154:.\Generated_Source\PSoC4/UART_In_ISR.c **** * Parameters:  
 155:.\Generated_Source\PSoC4/UART_In_ISR.c **** *   None
 156:.\Generated_Source\PSoC4/UART_In_ISR.c **** *
 157:.\Generated_Source\PSoC4/UART_In_ISR.c **** * Return:
 158:.\Generated_Source\PSoC4/UART_In_ISR.c **** *   None
 159:.\Generated_Source\PSoC4/UART_In_ISR.c **** *
 160:.\Generated_Source\PSoC4/UART_In_ISR.c **** *******************************************************************************/
 161:.\Generated_Source\PSoC4/UART_In_ISR.c **** CY_ISR(UART_In_ISR_Interrupt)
 162:.\Generated_Source\PSoC4/UART_In_ISR.c **** {
  26              		.loc 1 162 0
  27              		.cfi_startproc
  28 0000 08B5     		push	{r3, lr}
  29              		.cfi_def_cfa_offset 8
  30              		.cfi_offset 3, -8
  31              		.cfi_offset 14, -4
 163:.\Generated_Source\PSoC4/UART_In_ISR.c ****     #ifdef UART_In_ISR_INTERRUPT_INTERRUPT_CALLBACK
 164:.\Generated_Source\PSoC4/UART_In_ISR.c ****         UART_In_ISR_Interrupt_InterruptCallback();
 165:.\Generated_Source\PSoC4/UART_In_ISR.c ****     #endif /* UART_In_ISR_INTERRUPT_INTERRUPT_CALLBACK */ 
 166:.\Generated_Source\PSoC4/UART_In_ISR.c **** 
 167:.\Generated_Source\PSoC4/UART_In_ISR.c ****     /*  Place your Interrupt code here. */
 168:.\Generated_Source\PSoC4/UART_In_ISR.c ****     /* `#START UART_In_ISR_Interrupt` */
 169:.\Generated_Source\PSoC4/UART_In_ISR.c **** 
 170:.\Generated_Source\PSoC4/UART_In_ISR.c ****     processTemperatureByteReceivedHandler();
  32              		.loc 1 170 0
  33 0002 FFF7FEFF 		bl	processTemperatureByteReceivedHandler
  34              	.LVL0:
 171:.\Generated_Source\PSoC4/UART_In_ISR.c ****     
 172:.\Generated_Source\PSoC4/UART_In_ISR.c ****     /* `#END` */
 173:.\Generated_Source\PSoC4/UART_In_ISR.c **** }
  35              		.loc 1 173 0
  36              		@ sp needed
  37 0006 08BD     		pop	{r3, pc}
  38              		.cfi_endproc
  39              	.LFE37:
  40              		.size	UART_In_ISR_Interrupt, .-UART_In_ISR_Interrupt
  41              		.section	.text.UART_In_ISR_Start,"ax",%progbits
  42              		.align	2
  43              		.global	UART_In_ISR_Start
  44              		.code	16
  45              		.thumb_func
  46              		.type	UART_In_ISR_Start, %function
  47              	UART_In_ISR_Start:
  48              	.LFB34:
  59:.\Generated_Source\PSoC4/UART_In_ISR.c ****     /* For all we know the interrupt is active. */
  49              		.loc 1 59 0
  50              		.cfi_startproc
  51 0000 10B5     		push	{r4, lr}
  52              		.cfi_def_cfa_offset 8
  53              		.cfi_offset 4, -8
  54              		.cfi_offset 14, -4
ARM GAS  C:\Users\faithc\AppData\Local\Temp\cc7SiXXB.s 			page 5


  55              	.LBB26:
  56              	.LBB27:
 174:.\Generated_Source\PSoC4/UART_In_ISR.c **** 
 175:.\Generated_Source\PSoC4/UART_In_ISR.c **** 
 176:.\Generated_Source\PSoC4/UART_In_ISR.c **** /*******************************************************************************
 177:.\Generated_Source\PSoC4/UART_In_ISR.c **** * Function Name: UART_In_ISR_SetVector
 178:.\Generated_Source\PSoC4/UART_In_ISR.c **** ********************************************************************************
 179:.\Generated_Source\PSoC4/UART_In_ISR.c **** *
 180:.\Generated_Source\PSoC4/UART_In_ISR.c **** * Summary:
 181:.\Generated_Source\PSoC4/UART_In_ISR.c **** *   Change the ISR vector for the Interrupt. Note calling UART_In_ISR_Start
 182:.\Generated_Source\PSoC4/UART_In_ISR.c **** *   will override any effect this method would have had. To set the vector 
 183:.\Generated_Source\PSoC4/UART_In_ISR.c **** *   before the component has been started use UART_In_ISR_StartEx instead.
 184:.\Generated_Source\PSoC4/UART_In_ISR.c **** * 
 185:.\Generated_Source\PSoC4/UART_In_ISR.c **** *   When defining ISR functions, the CY_ISR and CY_ISR_PROTO macros should be 
 186:.\Generated_Source\PSoC4/UART_In_ISR.c **** *   used to provide consistent definition across compilers:
 187:.\Generated_Source\PSoC4/UART_In_ISR.c **** *
 188:.\Generated_Source\PSoC4/UART_In_ISR.c **** *   Function definition example:
 189:.\Generated_Source\PSoC4/UART_In_ISR.c **** *   CY_ISR(MyISR)
 190:.\Generated_Source\PSoC4/UART_In_ISR.c **** *   {
 191:.\Generated_Source\PSoC4/UART_In_ISR.c **** *   }
 192:.\Generated_Source\PSoC4/UART_In_ISR.c **** *
 193:.\Generated_Source\PSoC4/UART_In_ISR.c **** *   Function prototype example:
 194:.\Generated_Source\PSoC4/UART_In_ISR.c **** *     CY_ISR_PROTO(MyISR);
 195:.\Generated_Source\PSoC4/UART_In_ISR.c **** *
 196:.\Generated_Source\PSoC4/UART_In_ISR.c **** * Parameters:
 197:.\Generated_Source\PSoC4/UART_In_ISR.c **** *   address: Address of the ISR to set in the interrupt vector table.
 198:.\Generated_Source\PSoC4/UART_In_ISR.c **** *
 199:.\Generated_Source\PSoC4/UART_In_ISR.c **** * Return:
 200:.\Generated_Source\PSoC4/UART_In_ISR.c **** *   None
 201:.\Generated_Source\PSoC4/UART_In_ISR.c **** *
 202:.\Generated_Source\PSoC4/UART_In_ISR.c **** *******************************************************************************/
 203:.\Generated_Source\PSoC4/UART_In_ISR.c **** void UART_In_ISR_SetVector(cyisraddress address)
 204:.\Generated_Source\PSoC4/UART_In_ISR.c **** {
 205:.\Generated_Source\PSoC4/UART_In_ISR.c ****     CyRamVectors[CYINT_IRQ_BASE + UART_In_ISR__INTC_NUMBER] = address;
 206:.\Generated_Source\PSoC4/UART_In_ISR.c **** }
 207:.\Generated_Source\PSoC4/UART_In_ISR.c **** 
 208:.\Generated_Source\PSoC4/UART_In_ISR.c **** 
 209:.\Generated_Source\PSoC4/UART_In_ISR.c **** /*******************************************************************************
 210:.\Generated_Source\PSoC4/UART_In_ISR.c **** * Function Name: UART_In_ISR_GetVector
 211:.\Generated_Source\PSoC4/UART_In_ISR.c **** ********************************************************************************
 212:.\Generated_Source\PSoC4/UART_In_ISR.c **** *
 213:.\Generated_Source\PSoC4/UART_In_ISR.c **** * Summary:
 214:.\Generated_Source\PSoC4/UART_In_ISR.c **** *   Gets the "address" of the current ISR vector for the Interrupt.
 215:.\Generated_Source\PSoC4/UART_In_ISR.c **** *
 216:.\Generated_Source\PSoC4/UART_In_ISR.c **** * Parameters:
 217:.\Generated_Source\PSoC4/UART_In_ISR.c **** *   None
 218:.\Generated_Source\PSoC4/UART_In_ISR.c **** *
 219:.\Generated_Source\PSoC4/UART_In_ISR.c **** * Return:
 220:.\Generated_Source\PSoC4/UART_In_ISR.c **** *   Address of the ISR in the interrupt vector table.
 221:.\Generated_Source\PSoC4/UART_In_ISR.c **** *
 222:.\Generated_Source\PSoC4/UART_In_ISR.c **** *******************************************************************************/
 223:.\Generated_Source\PSoC4/UART_In_ISR.c **** cyisraddress UART_In_ISR_GetVector(void)
 224:.\Generated_Source\PSoC4/UART_In_ISR.c **** {
 225:.\Generated_Source\PSoC4/UART_In_ISR.c ****     return CyRamVectors[CYINT_IRQ_BASE + UART_In_ISR__INTC_NUMBER];
 226:.\Generated_Source\PSoC4/UART_In_ISR.c **** }
 227:.\Generated_Source\PSoC4/UART_In_ISR.c **** 
 228:.\Generated_Source\PSoC4/UART_In_ISR.c **** 
ARM GAS  C:\Users\faithc\AppData\Local\Temp\cc7SiXXB.s 			page 6


 229:.\Generated_Source\PSoC4/UART_In_ISR.c **** /*******************************************************************************
 230:.\Generated_Source\PSoC4/UART_In_ISR.c **** * Function Name: UART_In_ISR_SetPriority
 231:.\Generated_Source\PSoC4/UART_In_ISR.c **** ********************************************************************************
 232:.\Generated_Source\PSoC4/UART_In_ISR.c **** *
 233:.\Generated_Source\PSoC4/UART_In_ISR.c **** * Summary:
 234:.\Generated_Source\PSoC4/UART_In_ISR.c **** *   Sets the Priority of the Interrupt. 
 235:.\Generated_Source\PSoC4/UART_In_ISR.c **** *
 236:.\Generated_Source\PSoC4/UART_In_ISR.c **** *   Note calling UART_In_ISR_Start or UART_In_ISR_StartEx will 
 237:.\Generated_Source\PSoC4/UART_In_ISR.c **** *   override any effect this API would have had. This API should only be called
 238:.\Generated_Source\PSoC4/UART_In_ISR.c **** *   after UART_In_ISR_Start or UART_In_ISR_StartEx has been called. 
 239:.\Generated_Source\PSoC4/UART_In_ISR.c **** *   To set the initial priority for the component, use the Design-Wide Resources
 240:.\Generated_Source\PSoC4/UART_In_ISR.c **** *   Interrupt Editor.
 241:.\Generated_Source\PSoC4/UART_In_ISR.c **** *
 242:.\Generated_Source\PSoC4/UART_In_ISR.c **** *   Note This API has no effect on Non-maskable interrupt NMI).
 243:.\Generated_Source\PSoC4/UART_In_ISR.c **** *
 244:.\Generated_Source\PSoC4/UART_In_ISR.c **** * Parameters:
 245:.\Generated_Source\PSoC4/UART_In_ISR.c **** *   priority: Priority of the interrupt, 0 being the highest priority
 246:.\Generated_Source\PSoC4/UART_In_ISR.c **** *             PSoC 3 and PSoC 5LP: Priority is from 0 to 7.
 247:.\Generated_Source\PSoC4/UART_In_ISR.c **** *             PSoC 4: Priority is from 0 to 3.
 248:.\Generated_Source\PSoC4/UART_In_ISR.c **** *
 249:.\Generated_Source\PSoC4/UART_In_ISR.c **** * Return:
 250:.\Generated_Source\PSoC4/UART_In_ISR.c **** *   None
 251:.\Generated_Source\PSoC4/UART_In_ISR.c **** *
 252:.\Generated_Source\PSoC4/UART_In_ISR.c **** *******************************************************************************/
 253:.\Generated_Source\PSoC4/UART_In_ISR.c **** void UART_In_ISR_SetPriority(uint8 priority)
 254:.\Generated_Source\PSoC4/UART_In_ISR.c **** {
 255:.\Generated_Source\PSoC4/UART_In_ISR.c **** 	uint8 interruptState;
 256:.\Generated_Source\PSoC4/UART_In_ISR.c ****     uint32 priorityOffset = ((UART_In_ISR__INTC_NUMBER % 4u) * 8u) + 6u;
 257:.\Generated_Source\PSoC4/UART_In_ISR.c ****     
 258:.\Generated_Source\PSoC4/UART_In_ISR.c **** 	interruptState = CyEnterCriticalSection();
 259:.\Generated_Source\PSoC4/UART_In_ISR.c ****     *UART_In_ISR_INTC_PRIOR = (*UART_In_ISR_INTC_PRIOR & (uint32)(~UART_In_ISR__INTC_PRIOR_MASK)) |
 260:.\Generated_Source\PSoC4/UART_In_ISR.c ****                                     ((uint32)priority << priorityOffset);
 261:.\Generated_Source\PSoC4/UART_In_ISR.c **** 	CyExitCriticalSection(interruptState);
 262:.\Generated_Source\PSoC4/UART_In_ISR.c **** }
 263:.\Generated_Source\PSoC4/UART_In_ISR.c **** 
 264:.\Generated_Source\PSoC4/UART_In_ISR.c **** 
 265:.\Generated_Source\PSoC4/UART_In_ISR.c **** /*******************************************************************************
 266:.\Generated_Source\PSoC4/UART_In_ISR.c **** * Function Name: UART_In_ISR_GetPriority
 267:.\Generated_Source\PSoC4/UART_In_ISR.c **** ********************************************************************************
 268:.\Generated_Source\PSoC4/UART_In_ISR.c **** *
 269:.\Generated_Source\PSoC4/UART_In_ISR.c **** * Summary:
 270:.\Generated_Source\PSoC4/UART_In_ISR.c **** *   Gets the Priority of the Interrupt.
 271:.\Generated_Source\PSoC4/UART_In_ISR.c **** *
 272:.\Generated_Source\PSoC4/UART_In_ISR.c **** * Parameters:
 273:.\Generated_Source\PSoC4/UART_In_ISR.c **** *   None
 274:.\Generated_Source\PSoC4/UART_In_ISR.c **** *
 275:.\Generated_Source\PSoC4/UART_In_ISR.c **** * Return:
 276:.\Generated_Source\PSoC4/UART_In_ISR.c **** *   Priority of the interrupt, 0 being the highest priority
 277:.\Generated_Source\PSoC4/UART_In_ISR.c **** *    PSoC 3 and PSoC 5LP: Priority is from 0 to 7.
 278:.\Generated_Source\PSoC4/UART_In_ISR.c **** *    PSoC 4: Priority is from 0 to 3.
 279:.\Generated_Source\PSoC4/UART_In_ISR.c **** *
 280:.\Generated_Source\PSoC4/UART_In_ISR.c **** *******************************************************************************/
 281:.\Generated_Source\PSoC4/UART_In_ISR.c **** uint8 UART_In_ISR_GetPriority(void)
 282:.\Generated_Source\PSoC4/UART_In_ISR.c **** {
 283:.\Generated_Source\PSoC4/UART_In_ISR.c ****     uint32 priority;
 284:.\Generated_Source\PSoC4/UART_In_ISR.c **** 	uint32 priorityOffset = ((UART_In_ISR__INTC_NUMBER % 4u) * 8u) + 6u;
 285:.\Generated_Source\PSoC4/UART_In_ISR.c **** 
ARM GAS  C:\Users\faithc\AppData\Local\Temp\cc7SiXXB.s 			page 7


 286:.\Generated_Source\PSoC4/UART_In_ISR.c ****     priority = (*UART_In_ISR_INTC_PRIOR & UART_In_ISR__INTC_PRIOR_MASK) >> priorityOffset;
 287:.\Generated_Source\PSoC4/UART_In_ISR.c **** 
 288:.\Generated_Source\PSoC4/UART_In_ISR.c ****     return (uint8)priority;
 289:.\Generated_Source\PSoC4/UART_In_ISR.c **** }
 290:.\Generated_Source\PSoC4/UART_In_ISR.c **** 
 291:.\Generated_Source\PSoC4/UART_In_ISR.c **** 
 292:.\Generated_Source\PSoC4/UART_In_ISR.c **** /*******************************************************************************
 293:.\Generated_Source\PSoC4/UART_In_ISR.c **** * Function Name: UART_In_ISR_Enable
 294:.\Generated_Source\PSoC4/UART_In_ISR.c **** ********************************************************************************
 295:.\Generated_Source\PSoC4/UART_In_ISR.c **** *
 296:.\Generated_Source\PSoC4/UART_In_ISR.c **** * Summary:
 297:.\Generated_Source\PSoC4/UART_In_ISR.c **** *   Enables the interrupt to the interrupt controller. Do not call this function
 298:.\Generated_Source\PSoC4/UART_In_ISR.c **** *   unless ISR_Start() has been called or the functionality of the ISR_Start() 
 299:.\Generated_Source\PSoC4/UART_In_ISR.c **** *   function, which sets the vector and the priority, has been called.
 300:.\Generated_Source\PSoC4/UART_In_ISR.c **** *
 301:.\Generated_Source\PSoC4/UART_In_ISR.c **** * Parameters:
 302:.\Generated_Source\PSoC4/UART_In_ISR.c **** *   None
 303:.\Generated_Source\PSoC4/UART_In_ISR.c **** *
 304:.\Generated_Source\PSoC4/UART_In_ISR.c **** * Return:
 305:.\Generated_Source\PSoC4/UART_In_ISR.c **** *   None
 306:.\Generated_Source\PSoC4/UART_In_ISR.c **** *
 307:.\Generated_Source\PSoC4/UART_In_ISR.c **** *******************************************************************************/
 308:.\Generated_Source\PSoC4/UART_In_ISR.c **** void UART_In_ISR_Enable(void)
 309:.\Generated_Source\PSoC4/UART_In_ISR.c **** {
 310:.\Generated_Source\PSoC4/UART_In_ISR.c ****     /* Enable the general interrupt. */
 311:.\Generated_Source\PSoC4/UART_In_ISR.c ****     *UART_In_ISR_INTC_SET_EN = UART_In_ISR__INTC_MASK;
 312:.\Generated_Source\PSoC4/UART_In_ISR.c **** }
 313:.\Generated_Source\PSoC4/UART_In_ISR.c **** 
 314:.\Generated_Source\PSoC4/UART_In_ISR.c **** 
 315:.\Generated_Source\PSoC4/UART_In_ISR.c **** /*******************************************************************************
 316:.\Generated_Source\PSoC4/UART_In_ISR.c **** * Function Name: UART_In_ISR_GetState
 317:.\Generated_Source\PSoC4/UART_In_ISR.c **** ********************************************************************************
 318:.\Generated_Source\PSoC4/UART_In_ISR.c **** *
 319:.\Generated_Source\PSoC4/UART_In_ISR.c **** * Summary:
 320:.\Generated_Source\PSoC4/UART_In_ISR.c **** *   Gets the state (enabled, disabled) of the Interrupt.
 321:.\Generated_Source\PSoC4/UART_In_ISR.c **** *
 322:.\Generated_Source\PSoC4/UART_In_ISR.c **** * Parameters:
 323:.\Generated_Source\PSoC4/UART_In_ISR.c **** *   None
 324:.\Generated_Source\PSoC4/UART_In_ISR.c **** *
 325:.\Generated_Source\PSoC4/UART_In_ISR.c **** * Return:
 326:.\Generated_Source\PSoC4/UART_In_ISR.c **** *   1 if enabled, 0 if disabled.
 327:.\Generated_Source\PSoC4/UART_In_ISR.c **** *
 328:.\Generated_Source\PSoC4/UART_In_ISR.c **** *******************************************************************************/
 329:.\Generated_Source\PSoC4/UART_In_ISR.c **** uint8 UART_In_ISR_GetState(void)
 330:.\Generated_Source\PSoC4/UART_In_ISR.c **** {
 331:.\Generated_Source\PSoC4/UART_In_ISR.c ****     /* Get the state of the general interrupt. */
 332:.\Generated_Source\PSoC4/UART_In_ISR.c ****     return ((*UART_In_ISR_INTC_SET_EN & (uint32)UART_In_ISR__INTC_MASK) != 0u) ? 1u:0u;
 333:.\Generated_Source\PSoC4/UART_In_ISR.c **** }
 334:.\Generated_Source\PSoC4/UART_In_ISR.c **** 
 335:.\Generated_Source\PSoC4/UART_In_ISR.c **** 
 336:.\Generated_Source\PSoC4/UART_In_ISR.c **** /*******************************************************************************
 337:.\Generated_Source\PSoC4/UART_In_ISR.c **** * Function Name: UART_In_ISR_Disable
 338:.\Generated_Source\PSoC4/UART_In_ISR.c **** ********************************************************************************
 339:.\Generated_Source\PSoC4/UART_In_ISR.c **** *
 340:.\Generated_Source\PSoC4/UART_In_ISR.c **** * Summary:
 341:.\Generated_Source\PSoC4/UART_In_ISR.c **** *   Disables the Interrupt in the interrupt controller.
 342:.\Generated_Source\PSoC4/UART_In_ISR.c **** *
ARM GAS  C:\Users\faithc\AppData\Local\Temp\cc7SiXXB.s 			page 8


 343:.\Generated_Source\PSoC4/UART_In_ISR.c **** * Parameters:
 344:.\Generated_Source\PSoC4/UART_In_ISR.c **** *   None
 345:.\Generated_Source\PSoC4/UART_In_ISR.c **** *
 346:.\Generated_Source\PSoC4/UART_In_ISR.c **** * Return:
 347:.\Generated_Source\PSoC4/UART_In_ISR.c **** *   None
 348:.\Generated_Source\PSoC4/UART_In_ISR.c **** *
 349:.\Generated_Source\PSoC4/UART_In_ISR.c **** *******************************************************************************/
 350:.\Generated_Source\PSoC4/UART_In_ISR.c **** void UART_In_ISR_Disable(void)
 351:.\Generated_Source\PSoC4/UART_In_ISR.c **** {
 352:.\Generated_Source\PSoC4/UART_In_ISR.c ****     /* Disable the general interrupt. */
 353:.\Generated_Source\PSoC4/UART_In_ISR.c ****     *UART_In_ISR_INTC_CLR_EN = UART_In_ISR__INTC_MASK;
  57              		.loc 1 353 0
  58 0002 8024     		mov	r4, #128
  59 0004 094B     		ldr	r3, .L3
  60 0006 2401     		lsl	r4, r4, #4
  61 0008 1C60     		str	r4, [r3]
  62              	.LVL1:
  63              	.LBE27:
  64              	.LBE26:
  65              	.LBB28:
  66              	.LBB29:
 205:.\Generated_Source\PSoC4/UART_In_ISR.c **** }
  67              		.loc 1 205 0
  68 000a 094A     		ldr	r2, .L3+4
  69 000c 094B     		ldr	r3, .L3+8
  70              	.LBE29:
  71              	.LBE28:
  71:.\Generated_Source\PSoC4/UART_In_ISR.c **** 
  72              		.loc 1 71 0
  73              		@ sp needed
  74              	.LBB31:
  75              	.LBB30:
 205:.\Generated_Source\PSoC4/UART_In_ISR.c **** }
  76              		.loc 1 205 0
  77 000e DA66     		str	r2, [r3, #108]
  78              	.LVL2:
  79              	.LBE30:
  80              	.LBE31:
  81              	.LBB32:
  82              	.LBB33:
 258:.\Generated_Source\PSoC4/UART_In_ISR.c ****     *UART_In_ISR_INTC_PRIOR = (*UART_In_ISR_INTC_PRIOR & (uint32)(~UART_In_ISR__INTC_PRIOR_MASK)) |
  83              		.loc 1 258 0
  84 0010 FFF7FEFF 		bl	CyEnterCriticalSection
  85              	.LVL3:
 259:.\Generated_Source\PSoC4/UART_In_ISR.c ****                                     ((uint32)priority << priorityOffset);
  86              		.loc 1 259 0
  87 0014 C023     		mov	r3, #192
  88 0016 084A     		ldr	r2, .L3+12
  89 0018 1B06     		lsl	r3, r3, #24
  90 001a 1168     		ldr	r1, [r2]
  91 001c 0B43     		orr	r3, r1
  92 001e 1360     		str	r3, [r2]
 261:.\Generated_Source\PSoC4/UART_In_ISR.c **** }
  93              		.loc 1 261 0
  94 0020 FFF7FEFF 		bl	CyExitCriticalSection
  95              	.LVL4:
  96              	.LBE33:
ARM GAS  C:\Users\faithc\AppData\Local\Temp\cc7SiXXB.s 			page 9


  97              	.LBE32:
  98              	.LBB34:
  99              	.LBB35:
 311:.\Generated_Source\PSoC4/UART_In_ISR.c **** }
 100              		.loc 1 311 0
 101 0024 054B     		ldr	r3, .L3+16
 102 0026 1C60     		str	r4, [r3]
 103              	.LBE35:
 104              	.LBE34:
  71:.\Generated_Source\PSoC4/UART_In_ISR.c **** 
 105              		.loc 1 71 0
 106 0028 10BD     		pop	{r4, pc}
 107              	.L4:
 108 002a C046     		.align	2
 109              	.L3:
 110 002c 80E100E0 		.word	-536813184
 111 0030 00000000 		.word	UART_In_ISR_Interrupt
 112 0034 00000000 		.word	CyRamVectors
 113 0038 08E400E0 		.word	-536812536
 114 003c 00E100E0 		.word	-536813312
 115              		.cfi_endproc
 116              	.LFE34:
 117              		.size	UART_In_ISR_Start, .-UART_In_ISR_Start
 118              		.section	.text.UART_In_ISR_StartEx,"ax",%progbits
 119              		.align	2
 120              		.global	UART_In_ISR_StartEx
 121              		.code	16
 122              		.thumb_func
 123              		.type	UART_In_ISR_StartEx, %function
 124              	UART_In_ISR_StartEx:
 125              	.LFB35:
 102:.\Generated_Source\PSoC4/UART_In_ISR.c ****     /* For all we know the interrupt is active. */
 126              		.loc 1 102 0
 127              		.cfi_startproc
 128              	.LVL5:
 129 0000 10B5     		push	{r4, lr}
 130              		.cfi_def_cfa_offset 8
 131              		.cfi_offset 4, -8
 132              		.cfi_offset 14, -4
 133              	.LBB44:
 134              	.LBB45:
 135              		.loc 1 353 0
 136 0002 8024     		mov	r4, #128
 137 0004 084B     		ldr	r3, .L6
 138 0006 2401     		lsl	r4, r4, #4
 139 0008 1C60     		str	r4, [r3]
 140              	.LVL6:
 141              	.LBE45:
 142              	.LBE44:
 143              	.LBB46:
 144              	.LBB47:
 205:.\Generated_Source\PSoC4/UART_In_ISR.c **** }
 145              		.loc 1 205 0
 146 000a 084B     		ldr	r3, .L6+4
 147              	.LBE47:
 148              	.LBE46:
 114:.\Generated_Source\PSoC4/UART_In_ISR.c **** 
ARM GAS  C:\Users\faithc\AppData\Local\Temp\cc7SiXXB.s 			page 10


 149              		.loc 1 114 0
 150              		@ sp needed
 151              	.LBB49:
 152              	.LBB48:
 205:.\Generated_Source\PSoC4/UART_In_ISR.c **** }
 153              		.loc 1 205 0
 154 000c D866     		str	r0, [r3, #108]
 155              	.LVL7:
 156              	.LBE48:
 157              	.LBE49:
 158              	.LBB50:
 159              	.LBB51:
 258:.\Generated_Source\PSoC4/UART_In_ISR.c ****     *UART_In_ISR_INTC_PRIOR = (*UART_In_ISR_INTC_PRIOR & (uint32)(~UART_In_ISR__INTC_PRIOR_MASK)) |
 160              		.loc 1 258 0
 161 000e FFF7FEFF 		bl	CyEnterCriticalSection
 162              	.LVL8:
 259:.\Generated_Source\PSoC4/UART_In_ISR.c ****                                     ((uint32)priority << priorityOffset);
 163              		.loc 1 259 0
 164 0012 C023     		mov	r3, #192
 165 0014 064A     		ldr	r2, .L6+8
 166 0016 1B06     		lsl	r3, r3, #24
 167 0018 1168     		ldr	r1, [r2]
 168 001a 0B43     		orr	r3, r1
 169 001c 1360     		str	r3, [r2]
 261:.\Generated_Source\PSoC4/UART_In_ISR.c **** }
 170              		.loc 1 261 0
 171 001e FFF7FEFF 		bl	CyExitCriticalSection
 172              	.LVL9:
 173              	.LBE51:
 174              	.LBE50:
 175              	.LBB52:
 176              	.LBB53:
 311:.\Generated_Source\PSoC4/UART_In_ISR.c **** }
 177              		.loc 1 311 0
 178 0022 044B     		ldr	r3, .L6+12
 179 0024 1C60     		str	r4, [r3]
 180              	.LBE53:
 181              	.LBE52:
 114:.\Generated_Source\PSoC4/UART_In_ISR.c **** 
 182              		.loc 1 114 0
 183 0026 10BD     		pop	{r4, pc}
 184              	.L7:
 185              		.align	2
 186              	.L6:
 187 0028 80E100E0 		.word	-536813184
 188 002c 00000000 		.word	CyRamVectors
 189 0030 08E400E0 		.word	-536812536
 190 0034 00E100E0 		.word	-536813312
 191              		.cfi_endproc
 192              	.LFE35:
 193              		.size	UART_In_ISR_StartEx, .-UART_In_ISR_StartEx
 194              		.section	.text.UART_In_ISR_Stop,"ax",%progbits
 195              		.align	2
 196              		.global	UART_In_ISR_Stop
 197              		.code	16
 198              		.thumb_func
 199              		.type	UART_In_ISR_Stop, %function
ARM GAS  C:\Users\faithc\AppData\Local\Temp\cc7SiXXB.s 			page 11


 200              	UART_In_ISR_Stop:
 201              	.LFB36:
 132:.\Generated_Source\PSoC4/UART_In_ISR.c ****     /* Disable this interrupt. */
 202              		.loc 1 132 0
 203              		.cfi_startproc
 204              	.LBB54:
 205              	.LBB55:
 206              		.loc 1 353 0
 207 0000 8022     		mov	r2, #128
 208 0002 034B     		ldr	r3, .L9
 209 0004 1201     		lsl	r2, r2, #4
 210 0006 1A60     		str	r2, [r3]
 211              	.LVL10:
 212              	.LBE55:
 213              	.LBE54:
 214              	.LBB56:
 215              	.LBB57:
 205:.\Generated_Source\PSoC4/UART_In_ISR.c **** }
 216              		.loc 1 205 0
 217 0008 024A     		ldr	r2, .L9+4
 218 000a 034B     		ldr	r3, .L9+8
 219              	.LBE57:
 220              	.LBE56:
 138:.\Generated_Source\PSoC4/UART_In_ISR.c **** 
 221              		.loc 1 138 0
 222              		@ sp needed
 223              	.LBB59:
 224              	.LBB58:
 205:.\Generated_Source\PSoC4/UART_In_ISR.c **** }
 225              		.loc 1 205 0
 226 000c DA66     		str	r2, [r3, #108]
 227              	.LBE58:
 228              	.LBE59:
 138:.\Generated_Source\PSoC4/UART_In_ISR.c **** 
 229              		.loc 1 138 0
 230 000e 7047     		bx	lr
 231              	.L10:
 232              		.align	2
 233              	.L9:
 234 0010 80E100E0 		.word	-536813184
 235 0014 00000000 		.word	IntDefaultHandler
 236 0018 00000000 		.word	CyRamVectors
 237              		.cfi_endproc
 238              	.LFE36:
 239              		.size	UART_In_ISR_Stop, .-UART_In_ISR_Stop
 240              		.section	.text.UART_In_ISR_SetVector,"ax",%progbits
 241              		.align	2
 242              		.global	UART_In_ISR_SetVector
 243              		.code	16
 244              		.thumb_func
 245              		.type	UART_In_ISR_SetVector, %function
 246              	UART_In_ISR_SetVector:
 247              	.LFB38:
 204:.\Generated_Source\PSoC4/UART_In_ISR.c ****     CyRamVectors[CYINT_IRQ_BASE + UART_In_ISR__INTC_NUMBER] = address;
 248              		.loc 1 204 0
 249              		.cfi_startproc
 250              	.LVL11:
ARM GAS  C:\Users\faithc\AppData\Local\Temp\cc7SiXXB.s 			page 12


 205:.\Generated_Source\PSoC4/UART_In_ISR.c **** }
 251              		.loc 1 205 0
 252 0000 014B     		ldr	r3, .L12
 206:.\Generated_Source\PSoC4/UART_In_ISR.c **** 
 253              		.loc 1 206 0
 254              		@ sp needed
 205:.\Generated_Source\PSoC4/UART_In_ISR.c **** }
 255              		.loc 1 205 0
 256 0002 D866     		str	r0, [r3, #108]
 206:.\Generated_Source\PSoC4/UART_In_ISR.c **** 
 257              		.loc 1 206 0
 258 0004 7047     		bx	lr
 259              	.L13:
 260 0006 C046     		.align	2
 261              	.L12:
 262 0008 00000000 		.word	CyRamVectors
 263              		.cfi_endproc
 264              	.LFE38:
 265              		.size	UART_In_ISR_SetVector, .-UART_In_ISR_SetVector
 266              		.section	.text.UART_In_ISR_GetVector,"ax",%progbits
 267              		.align	2
 268              		.global	UART_In_ISR_GetVector
 269              		.code	16
 270              		.thumb_func
 271              		.type	UART_In_ISR_GetVector, %function
 272              	UART_In_ISR_GetVector:
 273              	.LFB39:
 224:.\Generated_Source\PSoC4/UART_In_ISR.c ****     return CyRamVectors[CYINT_IRQ_BASE + UART_In_ISR__INTC_NUMBER];
 274              		.loc 1 224 0
 275              		.cfi_startproc
 225:.\Generated_Source\PSoC4/UART_In_ISR.c **** }
 276              		.loc 1 225 0
 277 0000 014B     		ldr	r3, .L15
 226:.\Generated_Source\PSoC4/UART_In_ISR.c **** 
 278              		.loc 1 226 0
 279              		@ sp needed
 225:.\Generated_Source\PSoC4/UART_In_ISR.c **** }
 280              		.loc 1 225 0
 281 0002 D86E     		ldr	r0, [r3, #108]
 226:.\Generated_Source\PSoC4/UART_In_ISR.c **** 
 282              		.loc 1 226 0
 283 0004 7047     		bx	lr
 284              	.L16:
 285 0006 C046     		.align	2
 286              	.L15:
 287 0008 00000000 		.word	CyRamVectors
 288              		.cfi_endproc
 289              	.LFE39:
 290              		.size	UART_In_ISR_GetVector, .-UART_In_ISR_GetVector
 291              		.section	.text.UART_In_ISR_SetPriority,"ax",%progbits
 292              		.align	2
 293              		.global	UART_In_ISR_SetPriority
 294              		.code	16
 295              		.thumb_func
 296              		.type	UART_In_ISR_SetPriority, %function
 297              	UART_In_ISR_SetPriority:
 298              	.LFB40:
ARM GAS  C:\Users\faithc\AppData\Local\Temp\cc7SiXXB.s 			page 13


 254:.\Generated_Source\PSoC4/UART_In_ISR.c **** 	uint8 interruptState;
 299              		.loc 1 254 0
 300              		.cfi_startproc
 301              	.LVL12:
 302 0000 10B5     		push	{r4, lr}
 303              		.cfi_def_cfa_offset 8
 304              		.cfi_offset 4, -8
 305              		.cfi_offset 14, -4
 254:.\Generated_Source\PSoC4/UART_In_ISR.c **** 	uint8 interruptState;
 306              		.loc 1 254 0
 307 0002 041C     		mov	r4, r0
 258:.\Generated_Source\PSoC4/UART_In_ISR.c ****     *UART_In_ISR_INTC_PRIOR = (*UART_In_ISR_INTC_PRIOR & (uint32)(~UART_In_ISR__INTC_PRIOR_MASK)) |
 308              		.loc 1 258 0
 309 0004 FFF7FEFF 		bl	CyEnterCriticalSection
 310              	.LVL13:
 259:.\Generated_Source\PSoC4/UART_In_ISR.c ****                                     ((uint32)priority << priorityOffset);
 311              		.loc 1 259 0
 312 0008 044A     		ldr	r2, .L18
 260:.\Generated_Source\PSoC4/UART_In_ISR.c **** 	CyExitCriticalSection(interruptState);
 313              		.loc 1 260 0
 314 000a A407     		lsl	r4, r4, #30
 259:.\Generated_Source\PSoC4/UART_In_ISR.c ****                                     ((uint32)priority << priorityOffset);
 315              		.loc 1 259 0
 316 000c 1368     		ldr	r3, [r2]
 262:.\Generated_Source\PSoC4/UART_In_ISR.c **** 
 317              		.loc 1 262 0
 318              		@ sp needed
 259:.\Generated_Source\PSoC4/UART_In_ISR.c ****                                     ((uint32)priority << priorityOffset);
 319              		.loc 1 259 0
 320 000e 9B00     		lsl	r3, r3, #2
 321 0010 9B08     		lsr	r3, r3, #2
 322 0012 2343     		orr	r3, r4
 323 0014 1360     		str	r3, [r2]
 261:.\Generated_Source\PSoC4/UART_In_ISR.c **** }
 324              		.loc 1 261 0
 325 0016 FFF7FEFF 		bl	CyExitCriticalSection
 326              	.LVL14:
 262:.\Generated_Source\PSoC4/UART_In_ISR.c **** 
 327              		.loc 1 262 0
 328 001a 10BD     		pop	{r4, pc}
 329              	.L19:
 330              		.align	2
 331              	.L18:
 332 001c 08E400E0 		.word	-536812536
 333              		.cfi_endproc
 334              	.LFE40:
 335              		.size	UART_In_ISR_SetPriority, .-UART_In_ISR_SetPriority
 336              		.section	.text.UART_In_ISR_GetPriority,"ax",%progbits
 337              		.align	2
 338              		.global	UART_In_ISR_GetPriority
 339              		.code	16
 340              		.thumb_func
 341              		.type	UART_In_ISR_GetPriority, %function
 342              	UART_In_ISR_GetPriority:
 343              	.LFB41:
 282:.\Generated_Source\PSoC4/UART_In_ISR.c ****     uint32 priority;
 344              		.loc 1 282 0
ARM GAS  C:\Users\faithc\AppData\Local\Temp\cc7SiXXB.s 			page 14


 345              		.cfi_startproc
 346              	.LVL15:
 286:.\Generated_Source\PSoC4/UART_In_ISR.c **** 
 347              		.loc 1 286 0
 348 0000 014B     		ldr	r3, .L21
 289:.\Generated_Source\PSoC4/UART_In_ISR.c **** 
 349              		.loc 1 289 0
 350              		@ sp needed
 286:.\Generated_Source\PSoC4/UART_In_ISR.c **** 
 351              		.loc 1 286 0
 352 0002 1868     		ldr	r0, [r3]
 353              	.LVL16:
 288:.\Generated_Source\PSoC4/UART_In_ISR.c **** }
 354              		.loc 1 288 0
 355 0004 800F     		lsr	r0, r0, #30
 356              	.LVL17:
 289:.\Generated_Source\PSoC4/UART_In_ISR.c **** 
 357              		.loc 1 289 0
 358 0006 7047     		bx	lr
 359              	.L22:
 360              		.align	2
 361              	.L21:
 362 0008 08E400E0 		.word	-536812536
 363              		.cfi_endproc
 364              	.LFE41:
 365              		.size	UART_In_ISR_GetPriority, .-UART_In_ISR_GetPriority
 366              		.section	.text.UART_In_ISR_Enable,"ax",%progbits
 367              		.align	2
 368              		.global	UART_In_ISR_Enable
 369              		.code	16
 370              		.thumb_func
 371              		.type	UART_In_ISR_Enable, %function
 372              	UART_In_ISR_Enable:
 373              	.LFB42:
 309:.\Generated_Source\PSoC4/UART_In_ISR.c ****     /* Enable the general interrupt. */
 374              		.loc 1 309 0
 375              		.cfi_startproc
 311:.\Generated_Source\PSoC4/UART_In_ISR.c **** }
 376              		.loc 1 311 0
 377 0000 8022     		mov	r2, #128
 378 0002 024B     		ldr	r3, .L24
 379 0004 1201     		lsl	r2, r2, #4
 380 0006 1A60     		str	r2, [r3]
 312:.\Generated_Source\PSoC4/UART_In_ISR.c **** 
 381              		.loc 1 312 0
 382              		@ sp needed
 383 0008 7047     		bx	lr
 384              	.L25:
 385 000a C046     		.align	2
 386              	.L24:
 387 000c 00E100E0 		.word	-536813312
 388              		.cfi_endproc
 389              	.LFE42:
 390              		.size	UART_In_ISR_Enable, .-UART_In_ISR_Enable
 391              		.section	.text.UART_In_ISR_GetState,"ax",%progbits
 392              		.align	2
 393              		.global	UART_In_ISR_GetState
ARM GAS  C:\Users\faithc\AppData\Local\Temp\cc7SiXXB.s 			page 15


 394              		.code	16
 395              		.thumb_func
 396              		.type	UART_In_ISR_GetState, %function
 397              	UART_In_ISR_GetState:
 398              	.LFB43:
 330:.\Generated_Source\PSoC4/UART_In_ISR.c ****     /* Get the state of the general interrupt. */
 399              		.loc 1 330 0
 400              		.cfi_startproc
 332:.\Generated_Source\PSoC4/UART_In_ISR.c **** }
 401              		.loc 1 332 0
 402 0000 024B     		ldr	r3, .L27
 333:.\Generated_Source\PSoC4/UART_In_ISR.c **** 
 403              		.loc 1 333 0
 404              		@ sp needed
 332:.\Generated_Source\PSoC4/UART_In_ISR.c **** }
 405              		.loc 1 332 0
 406 0002 1868     		ldr	r0, [r3]
 407 0004 0005     		lsl	r0, r0, #20
 408 0006 C00F     		lsr	r0, r0, #31
 333:.\Generated_Source\PSoC4/UART_In_ISR.c **** 
 409              		.loc 1 333 0
 410 0008 7047     		bx	lr
 411              	.L28:
 412 000a C046     		.align	2
 413              	.L27:
 414 000c 00E100E0 		.word	-536813312
 415              		.cfi_endproc
 416              	.LFE43:
 417              		.size	UART_In_ISR_GetState, .-UART_In_ISR_GetState
 418              		.section	.text.UART_In_ISR_Disable,"ax",%progbits
 419              		.align	2
 420              		.global	UART_In_ISR_Disable
 421              		.code	16
 422              		.thumb_func
 423              		.type	UART_In_ISR_Disable, %function
 424              	UART_In_ISR_Disable:
 425              	.LFB44:
 351:.\Generated_Source\PSoC4/UART_In_ISR.c ****     /* Disable the general interrupt. */
 426              		.loc 1 351 0
 427              		.cfi_startproc
 428              		.loc 1 353 0
 429 0000 8022     		mov	r2, #128
 430 0002 024B     		ldr	r3, .L30
 431 0004 1201     		lsl	r2, r2, #4
 432 0006 1A60     		str	r2, [r3]
 354:.\Generated_Source\PSoC4/UART_In_ISR.c **** }
 433              		.loc 1 354 0
 434              		@ sp needed
 435 0008 7047     		bx	lr
 436              	.L31:
 437 000a C046     		.align	2
 438              	.L30:
 439 000c 80E100E0 		.word	-536813184
 440              		.cfi_endproc
 441              	.LFE44:
 442              		.size	UART_In_ISR_Disable, .-UART_In_ISR_Disable
 443              		.section	.text.UART_In_ISR_SetPending,"ax",%progbits
ARM GAS  C:\Users\faithc\AppData\Local\Temp\cc7SiXXB.s 			page 16


 444              		.align	2
 445              		.global	UART_In_ISR_SetPending
 446              		.code	16
 447              		.thumb_func
 448              		.type	UART_In_ISR_SetPending, %function
 449              	UART_In_ISR_SetPending:
 450              	.LFB45:
 355:.\Generated_Source\PSoC4/UART_In_ISR.c **** 
 356:.\Generated_Source\PSoC4/UART_In_ISR.c **** 
 357:.\Generated_Source\PSoC4/UART_In_ISR.c **** /*******************************************************************************
 358:.\Generated_Source\PSoC4/UART_In_ISR.c **** * Function Name: UART_In_ISR_SetPending
 359:.\Generated_Source\PSoC4/UART_In_ISR.c **** ********************************************************************************
 360:.\Generated_Source\PSoC4/UART_In_ISR.c **** *
 361:.\Generated_Source\PSoC4/UART_In_ISR.c **** * Summary:
 362:.\Generated_Source\PSoC4/UART_In_ISR.c **** *   Causes the Interrupt to enter the pending state, a software method of
 363:.\Generated_Source\PSoC4/UART_In_ISR.c **** *   generating the interrupt.
 364:.\Generated_Source\PSoC4/UART_In_ISR.c **** *
 365:.\Generated_Source\PSoC4/UART_In_ISR.c **** * Parameters:
 366:.\Generated_Source\PSoC4/UART_In_ISR.c **** *   None
 367:.\Generated_Source\PSoC4/UART_In_ISR.c **** *
 368:.\Generated_Source\PSoC4/UART_In_ISR.c **** * Return:
 369:.\Generated_Source\PSoC4/UART_In_ISR.c **** *   None
 370:.\Generated_Source\PSoC4/UART_In_ISR.c **** *
 371:.\Generated_Source\PSoC4/UART_In_ISR.c **** * Side Effects:
 372:.\Generated_Source\PSoC4/UART_In_ISR.c **** *   If interrupts are enabled and the interrupt is set up properly, the ISR is
 373:.\Generated_Source\PSoC4/UART_In_ISR.c **** *   entered (depending on the priority of this interrupt and other pending 
 374:.\Generated_Source\PSoC4/UART_In_ISR.c **** *   interrupts).
 375:.\Generated_Source\PSoC4/UART_In_ISR.c **** *
 376:.\Generated_Source\PSoC4/UART_In_ISR.c **** *******************************************************************************/
 377:.\Generated_Source\PSoC4/UART_In_ISR.c **** void UART_In_ISR_SetPending(void)
 378:.\Generated_Source\PSoC4/UART_In_ISR.c **** {
 451              		.loc 1 378 0
 452              		.cfi_startproc
 379:.\Generated_Source\PSoC4/UART_In_ISR.c ****     *UART_In_ISR_INTC_SET_PD = UART_In_ISR__INTC_MASK;
 453              		.loc 1 379 0
 454 0000 8022     		mov	r2, #128
 455 0002 024B     		ldr	r3, .L33
 456 0004 1201     		lsl	r2, r2, #4
 457 0006 1A60     		str	r2, [r3]
 380:.\Generated_Source\PSoC4/UART_In_ISR.c **** }
 458              		.loc 1 380 0
 459              		@ sp needed
 460 0008 7047     		bx	lr
 461              	.L34:
 462 000a C046     		.align	2
 463              	.L33:
 464 000c 00E200E0 		.word	-536813056
 465              		.cfi_endproc
 466              	.LFE45:
 467              		.size	UART_In_ISR_SetPending, .-UART_In_ISR_SetPending
 468              		.section	.text.UART_In_ISR_ClearPending,"ax",%progbits
 469              		.align	2
 470              		.global	UART_In_ISR_ClearPending
 471              		.code	16
 472              		.thumb_func
 473              		.type	UART_In_ISR_ClearPending, %function
 474              	UART_In_ISR_ClearPending:
ARM GAS  C:\Users\faithc\AppData\Local\Temp\cc7SiXXB.s 			page 17


 475              	.LFB46:
 381:.\Generated_Source\PSoC4/UART_In_ISR.c **** 
 382:.\Generated_Source\PSoC4/UART_In_ISR.c **** 
 383:.\Generated_Source\PSoC4/UART_In_ISR.c **** /*******************************************************************************
 384:.\Generated_Source\PSoC4/UART_In_ISR.c **** * Function Name: UART_In_ISR_ClearPending
 385:.\Generated_Source\PSoC4/UART_In_ISR.c **** ********************************************************************************
 386:.\Generated_Source\PSoC4/UART_In_ISR.c **** *
 387:.\Generated_Source\PSoC4/UART_In_ISR.c **** * Summary:
 388:.\Generated_Source\PSoC4/UART_In_ISR.c **** *   Clears a pending interrupt in the interrupt controller.
 389:.\Generated_Source\PSoC4/UART_In_ISR.c **** *
 390:.\Generated_Source\PSoC4/UART_In_ISR.c **** *   Note Some interrupt sources are clear-on-read and require the block 
 391:.\Generated_Source\PSoC4/UART_In_ISR.c **** *   interrupt/status register to be read/cleared with the appropriate block API 
 392:.\Generated_Source\PSoC4/UART_In_ISR.c **** *   (GPIO, UART, and so on). Otherwise the ISR will continue to remain in 
 393:.\Generated_Source\PSoC4/UART_In_ISR.c **** *   pending state even though the interrupt itself is cleared using this API.
 394:.\Generated_Source\PSoC4/UART_In_ISR.c **** *
 395:.\Generated_Source\PSoC4/UART_In_ISR.c **** * Parameters:
 396:.\Generated_Source\PSoC4/UART_In_ISR.c **** *   None
 397:.\Generated_Source\PSoC4/UART_In_ISR.c **** *
 398:.\Generated_Source\PSoC4/UART_In_ISR.c **** * Return:
 399:.\Generated_Source\PSoC4/UART_In_ISR.c **** *   None
 400:.\Generated_Source\PSoC4/UART_In_ISR.c **** *
 401:.\Generated_Source\PSoC4/UART_In_ISR.c **** *******************************************************************************/
 402:.\Generated_Source\PSoC4/UART_In_ISR.c **** void UART_In_ISR_ClearPending(void)
 403:.\Generated_Source\PSoC4/UART_In_ISR.c **** {
 476              		.loc 1 403 0
 477              		.cfi_startproc
 404:.\Generated_Source\PSoC4/UART_In_ISR.c ****     *UART_In_ISR_INTC_CLR_PD = UART_In_ISR__INTC_MASK;
 478              		.loc 1 404 0
 479 0000 8022     		mov	r2, #128
 480 0002 024B     		ldr	r3, .L36
 481 0004 1201     		lsl	r2, r2, #4
 482 0006 1A60     		str	r2, [r3]
 405:.\Generated_Source\PSoC4/UART_In_ISR.c **** }
 483              		.loc 1 405 0
 484              		@ sp needed
 485 0008 7047     		bx	lr
 486              	.L37:
 487 000a C046     		.align	2
 488              	.L36:
 489 000c 80E200E0 		.word	-536812928
 490              		.cfi_endproc
 491              	.LFE46:
 492              		.size	UART_In_ISR_ClearPending, .-UART_In_ISR_ClearPending
 493              		.text
 494              	.Letext0:
 495              		.file 2 "Generated_Source\\PSoC4/cytypes.h"
 496              		.file 3 "./TemperatureCommManager.h"
 497              		.file 4 "Generated_Source\\PSoC4/CyLib.h"