ARM GAS  C:\Users\faithc\AppData\Local\Temp\cctvfA37.s 			page 1


   1              		.cpu cortex-m0
   2              		.fpu softvfp
   3              		.eabi_attribute 20, 1
   4              		.eabi_attribute 21, 1
   5              		.eabi_attribute 23, 3
   6              		.eabi_attribute 24, 1
   7              		.eabi_attribute 25, 1
   8              		.eabi_attribute 26, 1
   9              		.eabi_attribute 30, 6
  10              		.eabi_attribute 34, 0
  11              		.eabi_attribute 18, 4
  12              		.code	16
  13              		.file	"UpdateISR.c"
  14              		.text
  15              	.Ltext0:
  16              		.cfi_sections	.debug_frame
  17              		.section	.text.UpdateISR_Start,"ax",%progbits
  18              		.align	2
  19              		.global	UpdateISR_Start
  20              		.code	16
  21              		.thumb_func
  22              		.type	UpdateISR_Start, %function
  23              	UpdateISR_Start:
  24              	.LFB34:
  25              		.file 1 ".\\Generated_Source\\PSoC4\\UpdateISR.c"
   1:.\Generated_Source\PSoC4/UpdateISR.c **** /*******************************************************************************
   2:.\Generated_Source\PSoC4/UpdateISR.c **** * File Name: UpdateISR.c  
   3:.\Generated_Source\PSoC4/UpdateISR.c **** * Version 1.70
   4:.\Generated_Source\PSoC4/UpdateISR.c **** *
   5:.\Generated_Source\PSoC4/UpdateISR.c **** *  Description:
   6:.\Generated_Source\PSoC4/UpdateISR.c **** *   API for controlling the state of an interrupt.
   7:.\Generated_Source\PSoC4/UpdateISR.c **** *
   8:.\Generated_Source\PSoC4/UpdateISR.c **** *
   9:.\Generated_Source\PSoC4/UpdateISR.c **** *  Note:
  10:.\Generated_Source\PSoC4/UpdateISR.c **** *
  11:.\Generated_Source\PSoC4/UpdateISR.c **** ********************************************************************************
  12:.\Generated_Source\PSoC4/UpdateISR.c **** * Copyright 2008-2015, Cypress Semiconductor Corporation.  All rights reserved.
  13:.\Generated_Source\PSoC4/UpdateISR.c **** * You may use this file only in accordance with the license, terms, conditions, 
  14:.\Generated_Source\PSoC4/UpdateISR.c **** * disclaimers, and limitations in the end user license agreement accompanying 
  15:.\Generated_Source\PSoC4/UpdateISR.c **** * the software package with which this file was provided.
  16:.\Generated_Source\PSoC4/UpdateISR.c **** *******************************************************************************/
  17:.\Generated_Source\PSoC4/UpdateISR.c **** 
  18:.\Generated_Source\PSoC4/UpdateISR.c **** 
  19:.\Generated_Source\PSoC4/UpdateISR.c **** #include <cydevice_trm.h>
  20:.\Generated_Source\PSoC4/UpdateISR.c **** #include <CyLib.h>
  21:.\Generated_Source\PSoC4/UpdateISR.c **** #include <UpdateISR.h>
  22:.\Generated_Source\PSoC4/UpdateISR.c **** 
  23:.\Generated_Source\PSoC4/UpdateISR.c **** 
  24:.\Generated_Source\PSoC4/UpdateISR.c **** #if !defined(UpdateISR__REMOVED) /* Check for removal by optimization */
  25:.\Generated_Source\PSoC4/UpdateISR.c **** 
  26:.\Generated_Source\PSoC4/UpdateISR.c **** /*******************************************************************************
  27:.\Generated_Source\PSoC4/UpdateISR.c **** *  Place your includes, defines and code here 
  28:.\Generated_Source\PSoC4/UpdateISR.c **** ********************************************************************************/
  29:.\Generated_Source\PSoC4/UpdateISR.c **** /* `#START UpdateISR_intc` */
  30:.\Generated_Source\PSoC4/UpdateISR.c **** 
  31:.\Generated_Source\PSoC4/UpdateISR.c **** #include "BrightnessCommManager.h"
  32:.\Generated_Source\PSoC4/UpdateISR.c ****     
ARM GAS  C:\Users\faithc\AppData\Local\Temp\cctvfA37.s 			page 2


  33:.\Generated_Source\PSoC4/UpdateISR.c **** /* `#END` */
  34:.\Generated_Source\PSoC4/UpdateISR.c **** 
  35:.\Generated_Source\PSoC4/UpdateISR.c **** extern cyisraddress CyRamVectors[CYINT_IRQ_BASE + CY_NUM_INTERRUPTS];
  36:.\Generated_Source\PSoC4/UpdateISR.c **** 
  37:.\Generated_Source\PSoC4/UpdateISR.c **** /* Declared in startup, used to set unused interrupts to. */
  38:.\Generated_Source\PSoC4/UpdateISR.c **** CY_ISR_PROTO(IntDefaultHandler);
  39:.\Generated_Source\PSoC4/UpdateISR.c **** 
  40:.\Generated_Source\PSoC4/UpdateISR.c **** 
  41:.\Generated_Source\PSoC4/UpdateISR.c **** /*******************************************************************************
  42:.\Generated_Source\PSoC4/UpdateISR.c **** * Function Name: UpdateISR_Start
  43:.\Generated_Source\PSoC4/UpdateISR.c **** ********************************************************************************
  44:.\Generated_Source\PSoC4/UpdateISR.c **** *
  45:.\Generated_Source\PSoC4/UpdateISR.c **** * Summary:
  46:.\Generated_Source\PSoC4/UpdateISR.c **** *  Set up the interrupt and enable it. This function disables the interrupt, 
  47:.\Generated_Source\PSoC4/UpdateISR.c **** *  sets the default interrupt vector, sets the priority from the value in the
  48:.\Generated_Source\PSoC4/UpdateISR.c **** *  Design Wide Resources Interrupt Editor, then enables the interrupt to the 
  49:.\Generated_Source\PSoC4/UpdateISR.c **** *  interrupt controller.
  50:.\Generated_Source\PSoC4/UpdateISR.c **** *
  51:.\Generated_Source\PSoC4/UpdateISR.c **** * Parameters:  
  52:.\Generated_Source\PSoC4/UpdateISR.c **** *   None
  53:.\Generated_Source\PSoC4/UpdateISR.c **** *
  54:.\Generated_Source\PSoC4/UpdateISR.c **** * Return:
  55:.\Generated_Source\PSoC4/UpdateISR.c **** *   None
  56:.\Generated_Source\PSoC4/UpdateISR.c **** *
  57:.\Generated_Source\PSoC4/UpdateISR.c **** *******************************************************************************/
  58:.\Generated_Source\PSoC4/UpdateISR.c **** void UpdateISR_Start(void)
  59:.\Generated_Source\PSoC4/UpdateISR.c **** {
  26              		.loc 1 59 0
  27              		.cfi_startproc
  28 0000 80B5     		push	{r7, lr}
  29              		.cfi_def_cfa_offset 8
  30              		.cfi_offset 7, -8
  31              		.cfi_offset 14, -4
  32 0002 00AF     		add	r7, sp, #0
  33              		.cfi_def_cfa_register 7
  60:.\Generated_Source\PSoC4/UpdateISR.c ****     /* For all we know the interrupt is active. */
  61:.\Generated_Source\PSoC4/UpdateISR.c ****     UpdateISR_Disable();
  34              		.loc 1 61 0
  35 0004 FFF7FEFF 		bl	UpdateISR_Disable
  62:.\Generated_Source\PSoC4/UpdateISR.c **** 
  63:.\Generated_Source\PSoC4/UpdateISR.c ****     /* Set the ISR to point to the UpdateISR Interrupt. */
  64:.\Generated_Source\PSoC4/UpdateISR.c ****     UpdateISR_SetVector(&UpdateISR_Interrupt);
  36              		.loc 1 64 0
  37 0008 054B     		ldr	r3, .L2
  38 000a 181C     		mov	r0, r3
  39 000c FFF7FEFF 		bl	UpdateISR_SetVector
  65:.\Generated_Source\PSoC4/UpdateISR.c **** 
  66:.\Generated_Source\PSoC4/UpdateISR.c ****     /* Set the priority. */
  67:.\Generated_Source\PSoC4/UpdateISR.c ****     UpdateISR_SetPriority((uint8)UpdateISR_INTC_PRIOR_NUMBER);
  40              		.loc 1 67 0
  41 0010 0320     		mov	r0, #3
  42 0012 FFF7FEFF 		bl	UpdateISR_SetPriority
  68:.\Generated_Source\PSoC4/UpdateISR.c **** 
  69:.\Generated_Source\PSoC4/UpdateISR.c ****     /* Enable it. */
  70:.\Generated_Source\PSoC4/UpdateISR.c ****     UpdateISR_Enable();
  43              		.loc 1 70 0
  44 0016 FFF7FEFF 		bl	UpdateISR_Enable
ARM GAS  C:\Users\faithc\AppData\Local\Temp\cctvfA37.s 			page 3


  71:.\Generated_Source\PSoC4/UpdateISR.c **** }
  45              		.loc 1 71 0
  46 001a BD46     		mov	sp, r7
  47              		@ sp needed
  48 001c 80BD     		pop	{r7, pc}
  49              	.L3:
  50 001e C046     		.align	2
  51              	.L2:
  52 0020 00000000 		.word	UpdateISR_Interrupt
  53              		.cfi_endproc
  54              	.LFE34:
  55              		.size	UpdateISR_Start, .-UpdateISR_Start
  56              		.section	.text.UpdateISR_StartEx,"ax",%progbits
  57              		.align	2
  58              		.global	UpdateISR_StartEx
  59              		.code	16
  60              		.thumb_func
  61              		.type	UpdateISR_StartEx, %function
  62              	UpdateISR_StartEx:
  63              	.LFB35:
  72:.\Generated_Source\PSoC4/UpdateISR.c **** 
  73:.\Generated_Source\PSoC4/UpdateISR.c **** 
  74:.\Generated_Source\PSoC4/UpdateISR.c **** /*******************************************************************************
  75:.\Generated_Source\PSoC4/UpdateISR.c **** * Function Name: UpdateISR_StartEx
  76:.\Generated_Source\PSoC4/UpdateISR.c **** ********************************************************************************
  77:.\Generated_Source\PSoC4/UpdateISR.c **** *
  78:.\Generated_Source\PSoC4/UpdateISR.c **** * Summary:
  79:.\Generated_Source\PSoC4/UpdateISR.c **** *  Sets up the interrupt and enables it. This function disables the interrupt,
  80:.\Generated_Source\PSoC4/UpdateISR.c **** *  sets the interrupt vector based on the address passed in, sets the priority 
  81:.\Generated_Source\PSoC4/UpdateISR.c **** *  from the value in the Design Wide Resources Interrupt Editor, then enables 
  82:.\Generated_Source\PSoC4/UpdateISR.c **** *  the interrupt to the interrupt controller.
  83:.\Generated_Source\PSoC4/UpdateISR.c **** *  
  84:.\Generated_Source\PSoC4/UpdateISR.c **** *  When defining ISR functions, the CY_ISR and CY_ISR_PROTO macros should be 
  85:.\Generated_Source\PSoC4/UpdateISR.c **** *  used to provide consistent definition across compilers:
  86:.\Generated_Source\PSoC4/UpdateISR.c **** *  
  87:.\Generated_Source\PSoC4/UpdateISR.c **** *  Function definition example:
  88:.\Generated_Source\PSoC4/UpdateISR.c **** *   CY_ISR(MyISR)
  89:.\Generated_Source\PSoC4/UpdateISR.c **** *   {
  90:.\Generated_Source\PSoC4/UpdateISR.c **** *   }
  91:.\Generated_Source\PSoC4/UpdateISR.c **** *   Function prototype example:
  92:.\Generated_Source\PSoC4/UpdateISR.c **** *   CY_ISR_PROTO(MyISR);
  93:.\Generated_Source\PSoC4/UpdateISR.c **** *
  94:.\Generated_Source\PSoC4/UpdateISR.c **** * Parameters:  
  95:.\Generated_Source\PSoC4/UpdateISR.c **** *   address: Address of the ISR to set in the interrupt vector table.
  96:.\Generated_Source\PSoC4/UpdateISR.c **** *
  97:.\Generated_Source\PSoC4/UpdateISR.c **** * Return:
  98:.\Generated_Source\PSoC4/UpdateISR.c **** *   None
  99:.\Generated_Source\PSoC4/UpdateISR.c **** *
 100:.\Generated_Source\PSoC4/UpdateISR.c **** *******************************************************************************/
 101:.\Generated_Source\PSoC4/UpdateISR.c **** void UpdateISR_StartEx(cyisraddress address)
 102:.\Generated_Source\PSoC4/UpdateISR.c **** {
  64              		.loc 1 102 0
  65              		.cfi_startproc
  66 0000 80B5     		push	{r7, lr}
  67              		.cfi_def_cfa_offset 8
  68              		.cfi_offset 7, -8
  69              		.cfi_offset 14, -4
ARM GAS  C:\Users\faithc\AppData\Local\Temp\cctvfA37.s 			page 4


  70 0002 82B0     		sub	sp, sp, #8
  71              		.cfi_def_cfa_offset 16
  72 0004 00AF     		add	r7, sp, #0
  73              		.cfi_def_cfa_register 7
  74 0006 7860     		str	r0, [r7, #4]
 103:.\Generated_Source\PSoC4/UpdateISR.c ****     /* For all we know the interrupt is active. */
 104:.\Generated_Source\PSoC4/UpdateISR.c ****     UpdateISR_Disable();
  75              		.loc 1 104 0
  76 0008 FFF7FEFF 		bl	UpdateISR_Disable
 105:.\Generated_Source\PSoC4/UpdateISR.c **** 
 106:.\Generated_Source\PSoC4/UpdateISR.c ****     /* Set the ISR to point to the UpdateISR Interrupt. */
 107:.\Generated_Source\PSoC4/UpdateISR.c ****     UpdateISR_SetVector(address);
  77              		.loc 1 107 0
  78 000c 7B68     		ldr	r3, [r7, #4]
  79 000e 181C     		mov	r0, r3
  80 0010 FFF7FEFF 		bl	UpdateISR_SetVector
 108:.\Generated_Source\PSoC4/UpdateISR.c **** 
 109:.\Generated_Source\PSoC4/UpdateISR.c ****     /* Set the priority. */
 110:.\Generated_Source\PSoC4/UpdateISR.c ****     UpdateISR_SetPriority((uint8)UpdateISR_INTC_PRIOR_NUMBER);
  81              		.loc 1 110 0
  82 0014 0320     		mov	r0, #3
  83 0016 FFF7FEFF 		bl	UpdateISR_SetPriority
 111:.\Generated_Source\PSoC4/UpdateISR.c **** 
 112:.\Generated_Source\PSoC4/UpdateISR.c ****     /* Enable it. */
 113:.\Generated_Source\PSoC4/UpdateISR.c ****     UpdateISR_Enable();
  84              		.loc 1 113 0
  85 001a FFF7FEFF 		bl	UpdateISR_Enable
 114:.\Generated_Source\PSoC4/UpdateISR.c **** }
  86              		.loc 1 114 0
  87 001e BD46     		mov	sp, r7
  88 0020 02B0     		add	sp, sp, #8
  89              		@ sp needed
  90 0022 80BD     		pop	{r7, pc}
  91              		.cfi_endproc
  92              	.LFE35:
  93              		.size	UpdateISR_StartEx, .-UpdateISR_StartEx
  94              		.section	.text.UpdateISR_Stop,"ax",%progbits
  95              		.align	2
  96              		.global	UpdateISR_Stop
  97              		.code	16
  98              		.thumb_func
  99              		.type	UpdateISR_Stop, %function
 100              	UpdateISR_Stop:
 101              	.LFB36:
 115:.\Generated_Source\PSoC4/UpdateISR.c **** 
 116:.\Generated_Source\PSoC4/UpdateISR.c **** 
 117:.\Generated_Source\PSoC4/UpdateISR.c **** /*******************************************************************************
 118:.\Generated_Source\PSoC4/UpdateISR.c **** * Function Name: UpdateISR_Stop
 119:.\Generated_Source\PSoC4/UpdateISR.c **** ********************************************************************************
 120:.\Generated_Source\PSoC4/UpdateISR.c **** *
 121:.\Generated_Source\PSoC4/UpdateISR.c **** * Summary:
 122:.\Generated_Source\PSoC4/UpdateISR.c **** *   Disables and removes the interrupt.
 123:.\Generated_Source\PSoC4/UpdateISR.c **** *
 124:.\Generated_Source\PSoC4/UpdateISR.c **** * Parameters:  
 125:.\Generated_Source\PSoC4/UpdateISR.c **** *   None
 126:.\Generated_Source\PSoC4/UpdateISR.c **** *
 127:.\Generated_Source\PSoC4/UpdateISR.c **** * Return:
ARM GAS  C:\Users\faithc\AppData\Local\Temp\cctvfA37.s 			page 5


 128:.\Generated_Source\PSoC4/UpdateISR.c **** *   None
 129:.\Generated_Source\PSoC4/UpdateISR.c **** *
 130:.\Generated_Source\PSoC4/UpdateISR.c **** *******************************************************************************/
 131:.\Generated_Source\PSoC4/UpdateISR.c **** void UpdateISR_Stop(void)
 132:.\Generated_Source\PSoC4/UpdateISR.c **** {
 102              		.loc 1 132 0
 103              		.cfi_startproc
 104 0000 80B5     		push	{r7, lr}
 105              		.cfi_def_cfa_offset 8
 106              		.cfi_offset 7, -8
 107              		.cfi_offset 14, -4
 108 0002 00AF     		add	r7, sp, #0
 109              		.cfi_def_cfa_register 7
 133:.\Generated_Source\PSoC4/UpdateISR.c ****     /* Disable this interrupt. */
 134:.\Generated_Source\PSoC4/UpdateISR.c ****     UpdateISR_Disable();
 110              		.loc 1 134 0
 111 0004 FFF7FEFF 		bl	UpdateISR_Disable
 135:.\Generated_Source\PSoC4/UpdateISR.c **** 
 136:.\Generated_Source\PSoC4/UpdateISR.c ****     /* Set the ISR to point to the passive one. */
 137:.\Generated_Source\PSoC4/UpdateISR.c ****     UpdateISR_SetVector(&IntDefaultHandler);
 112              		.loc 1 137 0
 113 0008 024B     		ldr	r3, .L6
 114 000a 181C     		mov	r0, r3
 115 000c FFF7FEFF 		bl	UpdateISR_SetVector
 138:.\Generated_Source\PSoC4/UpdateISR.c **** }
 116              		.loc 1 138 0
 117 0010 BD46     		mov	sp, r7
 118              		@ sp needed
 119 0012 80BD     		pop	{r7, pc}
 120              	.L7:
 121              		.align	2
 122              	.L6:
 123 0014 00000000 		.word	IntDefaultHandler
 124              		.cfi_endproc
 125              	.LFE36:
 126              		.size	UpdateISR_Stop, .-UpdateISR_Stop
 127              		.section	.text.UpdateISR_Interrupt,"ax",%progbits
 128              		.align	2
 129              		.global	UpdateISR_Interrupt
 130              		.code	16
 131              		.thumb_func
 132              		.type	UpdateISR_Interrupt, %function
 133              	UpdateISR_Interrupt:
 134              	.LFB37:
 139:.\Generated_Source\PSoC4/UpdateISR.c **** 
 140:.\Generated_Source\PSoC4/UpdateISR.c **** 
 141:.\Generated_Source\PSoC4/UpdateISR.c **** /*******************************************************************************
 142:.\Generated_Source\PSoC4/UpdateISR.c **** * Function Name: UpdateISR_Interrupt
 143:.\Generated_Source\PSoC4/UpdateISR.c **** ********************************************************************************
 144:.\Generated_Source\PSoC4/UpdateISR.c **** *
 145:.\Generated_Source\PSoC4/UpdateISR.c **** * Summary:
 146:.\Generated_Source\PSoC4/UpdateISR.c **** *   The default Interrupt Service Routine for UpdateISR.
 147:.\Generated_Source\PSoC4/UpdateISR.c **** *
 148:.\Generated_Source\PSoC4/UpdateISR.c **** *   Add custom code between the START and END comments to keep the next version
 149:.\Generated_Source\PSoC4/UpdateISR.c **** *   of this file from over-writing your code.
 150:.\Generated_Source\PSoC4/UpdateISR.c **** *
 151:.\Generated_Source\PSoC4/UpdateISR.c **** *   Note You may use either the default ISR by using this API, or you may define
ARM GAS  C:\Users\faithc\AppData\Local\Temp\cctvfA37.s 			page 6


 152:.\Generated_Source\PSoC4/UpdateISR.c **** *   your own separate ISR through ISR_StartEx().
 153:.\Generated_Source\PSoC4/UpdateISR.c **** *
 154:.\Generated_Source\PSoC4/UpdateISR.c **** * Parameters:  
 155:.\Generated_Source\PSoC4/UpdateISR.c **** *   None
 156:.\Generated_Source\PSoC4/UpdateISR.c **** *
 157:.\Generated_Source\PSoC4/UpdateISR.c **** * Return:
 158:.\Generated_Source\PSoC4/UpdateISR.c **** *   None
 159:.\Generated_Source\PSoC4/UpdateISR.c **** *
 160:.\Generated_Source\PSoC4/UpdateISR.c **** *******************************************************************************/
 161:.\Generated_Source\PSoC4/UpdateISR.c **** CY_ISR(UpdateISR_Interrupt)
 162:.\Generated_Source\PSoC4/UpdateISR.c **** {
 135              		.loc 1 162 0
 136              		.cfi_startproc
 137 0000 80B5     		push	{r7, lr}
 138              		.cfi_def_cfa_offset 8
 139              		.cfi_offset 7, -8
 140              		.cfi_offset 14, -4
 141 0002 00AF     		add	r7, sp, #0
 142              		.cfi_def_cfa_register 7
 163:.\Generated_Source\PSoC4/UpdateISR.c ****     #ifdef UpdateISR_INTERRUPT_INTERRUPT_CALLBACK
 164:.\Generated_Source\PSoC4/UpdateISR.c ****         UpdateISR_Interrupt_InterruptCallback();
 165:.\Generated_Source\PSoC4/UpdateISR.c ****     #endif /* UpdateISR_INTERRUPT_INTERRUPT_CALLBACK */ 
 166:.\Generated_Source\PSoC4/UpdateISR.c **** 
 167:.\Generated_Source\PSoC4/UpdateISR.c ****     /*  Place your Interrupt code here. */
 168:.\Generated_Source\PSoC4/UpdateISR.c ****     /* `#START UpdateISR_Interrupt` */
 169:.\Generated_Source\PSoC4/UpdateISR.c **** 
 170:.\Generated_Source\PSoC4/UpdateISR.c ****     processUpdateTimerRoutine();
 143              		.loc 1 170 0
 144 0004 FFF7FEFF 		bl	processUpdateTimerRoutine
 171:.\Generated_Source\PSoC4/UpdateISR.c ****     
 172:.\Generated_Source\PSoC4/UpdateISR.c ****     /* `#END` */
 173:.\Generated_Source\PSoC4/UpdateISR.c **** }
 145              		.loc 1 173 0
 146 0008 BD46     		mov	sp, r7
 147              		@ sp needed
 148 000a 80BD     		pop	{r7, pc}
 149              		.cfi_endproc
 150              	.LFE37:
 151              		.size	UpdateISR_Interrupt, .-UpdateISR_Interrupt
 152              		.section	.text.UpdateISR_SetVector,"ax",%progbits
 153              		.align	2
 154              		.global	UpdateISR_SetVector
 155              		.code	16
 156              		.thumb_func
 157              		.type	UpdateISR_SetVector, %function
 158              	UpdateISR_SetVector:
 159              	.LFB38:
 174:.\Generated_Source\PSoC4/UpdateISR.c **** 
 175:.\Generated_Source\PSoC4/UpdateISR.c **** 
 176:.\Generated_Source\PSoC4/UpdateISR.c **** /*******************************************************************************
 177:.\Generated_Source\PSoC4/UpdateISR.c **** * Function Name: UpdateISR_SetVector
 178:.\Generated_Source\PSoC4/UpdateISR.c **** ********************************************************************************
 179:.\Generated_Source\PSoC4/UpdateISR.c **** *
 180:.\Generated_Source\PSoC4/UpdateISR.c **** * Summary:
 181:.\Generated_Source\PSoC4/UpdateISR.c **** *   Change the ISR vector for the Interrupt. Note calling UpdateISR_Start
 182:.\Generated_Source\PSoC4/UpdateISR.c **** *   will override any effect this method would have had. To set the vector 
 183:.\Generated_Source\PSoC4/UpdateISR.c **** *   before the component has been started use UpdateISR_StartEx instead.
ARM GAS  C:\Users\faithc\AppData\Local\Temp\cctvfA37.s 			page 7


 184:.\Generated_Source\PSoC4/UpdateISR.c **** * 
 185:.\Generated_Source\PSoC4/UpdateISR.c **** *   When defining ISR functions, the CY_ISR and CY_ISR_PROTO macros should be 
 186:.\Generated_Source\PSoC4/UpdateISR.c **** *   used to provide consistent definition across compilers:
 187:.\Generated_Source\PSoC4/UpdateISR.c **** *
 188:.\Generated_Source\PSoC4/UpdateISR.c **** *   Function definition example:
 189:.\Generated_Source\PSoC4/UpdateISR.c **** *   CY_ISR(MyISR)
 190:.\Generated_Source\PSoC4/UpdateISR.c **** *   {
 191:.\Generated_Source\PSoC4/UpdateISR.c **** *   }
 192:.\Generated_Source\PSoC4/UpdateISR.c **** *
 193:.\Generated_Source\PSoC4/UpdateISR.c **** *   Function prototype example:
 194:.\Generated_Source\PSoC4/UpdateISR.c **** *     CY_ISR_PROTO(MyISR);
 195:.\Generated_Source\PSoC4/UpdateISR.c **** *
 196:.\Generated_Source\PSoC4/UpdateISR.c **** * Parameters:
 197:.\Generated_Source\PSoC4/UpdateISR.c **** *   address: Address of the ISR to set in the interrupt vector table.
 198:.\Generated_Source\PSoC4/UpdateISR.c **** *
 199:.\Generated_Source\PSoC4/UpdateISR.c **** * Return:
 200:.\Generated_Source\PSoC4/UpdateISR.c **** *   None
 201:.\Generated_Source\PSoC4/UpdateISR.c **** *
 202:.\Generated_Source\PSoC4/UpdateISR.c **** *******************************************************************************/
 203:.\Generated_Source\PSoC4/UpdateISR.c **** void UpdateISR_SetVector(cyisraddress address)
 204:.\Generated_Source\PSoC4/UpdateISR.c **** {
 160              		.loc 1 204 0
 161              		.cfi_startproc
 162 0000 80B5     		push	{r7, lr}
 163              		.cfi_def_cfa_offset 8
 164              		.cfi_offset 7, -8
 165              		.cfi_offset 14, -4
 166 0002 82B0     		sub	sp, sp, #8
 167              		.cfi_def_cfa_offset 16
 168 0004 00AF     		add	r7, sp, #0
 169              		.cfi_def_cfa_register 7
 170 0006 7860     		str	r0, [r7, #4]
 205:.\Generated_Source\PSoC4/UpdateISR.c ****     CyRamVectors[CYINT_IRQ_BASE + UpdateISR__INTC_NUMBER] = address;
 171              		.loc 1 205 0
 172 0008 024B     		ldr	r3, .L10
 173 000a 7A68     		ldr	r2, [r7, #4]
 174 000c 5A65     		str	r2, [r3, #84]
 206:.\Generated_Source\PSoC4/UpdateISR.c **** }
 175              		.loc 1 206 0
 176 000e BD46     		mov	sp, r7
 177 0010 02B0     		add	sp, sp, #8
 178              		@ sp needed
 179 0012 80BD     		pop	{r7, pc}
 180              	.L11:
 181              		.align	2
 182              	.L10:
 183 0014 00000000 		.word	CyRamVectors
 184              		.cfi_endproc
 185              	.LFE38:
 186              		.size	UpdateISR_SetVector, .-UpdateISR_SetVector
 187              		.section	.text.UpdateISR_GetVector,"ax",%progbits
 188              		.align	2
 189              		.global	UpdateISR_GetVector
 190              		.code	16
 191              		.thumb_func
 192              		.type	UpdateISR_GetVector, %function
 193              	UpdateISR_GetVector:
ARM GAS  C:\Users\faithc\AppData\Local\Temp\cctvfA37.s 			page 8


 194              	.LFB39:
 207:.\Generated_Source\PSoC4/UpdateISR.c **** 
 208:.\Generated_Source\PSoC4/UpdateISR.c **** 
 209:.\Generated_Source\PSoC4/UpdateISR.c **** /*******************************************************************************
 210:.\Generated_Source\PSoC4/UpdateISR.c **** * Function Name: UpdateISR_GetVector
 211:.\Generated_Source\PSoC4/UpdateISR.c **** ********************************************************************************
 212:.\Generated_Source\PSoC4/UpdateISR.c **** *
 213:.\Generated_Source\PSoC4/UpdateISR.c **** * Summary:
 214:.\Generated_Source\PSoC4/UpdateISR.c **** *   Gets the "address" of the current ISR vector for the Interrupt.
 215:.\Generated_Source\PSoC4/UpdateISR.c **** *
 216:.\Generated_Source\PSoC4/UpdateISR.c **** * Parameters:
 217:.\Generated_Source\PSoC4/UpdateISR.c **** *   None
 218:.\Generated_Source\PSoC4/UpdateISR.c **** *
 219:.\Generated_Source\PSoC4/UpdateISR.c **** * Return:
 220:.\Generated_Source\PSoC4/UpdateISR.c **** *   Address of the ISR in the interrupt vector table.
 221:.\Generated_Source\PSoC4/UpdateISR.c **** *
 222:.\Generated_Source\PSoC4/UpdateISR.c **** *******************************************************************************/
 223:.\Generated_Source\PSoC4/UpdateISR.c **** cyisraddress UpdateISR_GetVector(void)
 224:.\Generated_Source\PSoC4/UpdateISR.c **** {
 195              		.loc 1 224 0
 196              		.cfi_startproc
 197 0000 80B5     		push	{r7, lr}
 198              		.cfi_def_cfa_offset 8
 199              		.cfi_offset 7, -8
 200              		.cfi_offset 14, -4
 201 0002 00AF     		add	r7, sp, #0
 202              		.cfi_def_cfa_register 7
 225:.\Generated_Source\PSoC4/UpdateISR.c ****     return CyRamVectors[CYINT_IRQ_BASE + UpdateISR__INTC_NUMBER];
 203              		.loc 1 225 0
 204 0004 024B     		ldr	r3, .L14
 205 0006 5B6D     		ldr	r3, [r3, #84]
 226:.\Generated_Source\PSoC4/UpdateISR.c **** }
 206              		.loc 1 226 0
 207 0008 181C     		mov	r0, r3
 208 000a BD46     		mov	sp, r7
 209              		@ sp needed
 210 000c 80BD     		pop	{r7, pc}
 211              	.L15:
 212 000e C046     		.align	2
 213              	.L14:
 214 0010 00000000 		.word	CyRamVectors
 215              		.cfi_endproc
 216              	.LFE39:
 217              		.size	UpdateISR_GetVector, .-UpdateISR_GetVector
 218              		.section	.text.UpdateISR_SetPriority,"ax",%progbits
 219              		.align	2
 220              		.global	UpdateISR_SetPriority
 221              		.code	16
 222              		.thumb_func
 223              		.type	UpdateISR_SetPriority, %function
 224              	UpdateISR_SetPriority:
 225              	.LFB40:
 227:.\Generated_Source\PSoC4/UpdateISR.c **** 
 228:.\Generated_Source\PSoC4/UpdateISR.c **** 
 229:.\Generated_Source\PSoC4/UpdateISR.c **** /*******************************************************************************
 230:.\Generated_Source\PSoC4/UpdateISR.c **** * Function Name: UpdateISR_SetPriority
 231:.\Generated_Source\PSoC4/UpdateISR.c **** ********************************************************************************
ARM GAS  C:\Users\faithc\AppData\Local\Temp\cctvfA37.s 			page 9


 232:.\Generated_Source\PSoC4/UpdateISR.c **** *
 233:.\Generated_Source\PSoC4/UpdateISR.c **** * Summary:
 234:.\Generated_Source\PSoC4/UpdateISR.c **** *   Sets the Priority of the Interrupt. 
 235:.\Generated_Source\PSoC4/UpdateISR.c **** *
 236:.\Generated_Source\PSoC4/UpdateISR.c **** *   Note calling UpdateISR_Start or UpdateISR_StartEx will 
 237:.\Generated_Source\PSoC4/UpdateISR.c **** *   override any effect this API would have had. This API should only be called
 238:.\Generated_Source\PSoC4/UpdateISR.c **** *   after UpdateISR_Start or UpdateISR_StartEx has been called. 
 239:.\Generated_Source\PSoC4/UpdateISR.c **** *   To set the initial priority for the component, use the Design-Wide Resources
 240:.\Generated_Source\PSoC4/UpdateISR.c **** *   Interrupt Editor.
 241:.\Generated_Source\PSoC4/UpdateISR.c **** *
 242:.\Generated_Source\PSoC4/UpdateISR.c **** *   Note This API has no effect on Non-maskable interrupt NMI).
 243:.\Generated_Source\PSoC4/UpdateISR.c **** *
 244:.\Generated_Source\PSoC4/UpdateISR.c **** * Parameters:
 245:.\Generated_Source\PSoC4/UpdateISR.c **** *   priority: Priority of the interrupt, 0 being the highest priority
 246:.\Generated_Source\PSoC4/UpdateISR.c **** *             PSoC 3 and PSoC 5LP: Priority is from 0 to 7.
 247:.\Generated_Source\PSoC4/UpdateISR.c **** *             PSoC 4: Priority is from 0 to 3.
 248:.\Generated_Source\PSoC4/UpdateISR.c **** *
 249:.\Generated_Source\PSoC4/UpdateISR.c **** * Return:
 250:.\Generated_Source\PSoC4/UpdateISR.c **** *   None
 251:.\Generated_Source\PSoC4/UpdateISR.c **** *
 252:.\Generated_Source\PSoC4/UpdateISR.c **** *******************************************************************************/
 253:.\Generated_Source\PSoC4/UpdateISR.c **** void UpdateISR_SetPriority(uint8 priority)
 254:.\Generated_Source\PSoC4/UpdateISR.c **** {
 226              		.loc 1 254 0
 227              		.cfi_startproc
 228 0000 90B5     		push	{r4, r7, lr}
 229              		.cfi_def_cfa_offset 12
 230              		.cfi_offset 4, -12
 231              		.cfi_offset 7, -8
 232              		.cfi_offset 14, -4
 233 0002 85B0     		sub	sp, sp, #20
 234              		.cfi_def_cfa_offset 32
 235 0004 00AF     		add	r7, sp, #0
 236              		.cfi_def_cfa_register 7
 237 0006 021C     		mov	r2, r0
 238 0008 FB1D     		add	r3, r7, #7
 239 000a 1A70     		strb	r2, [r3]
 255:.\Generated_Source\PSoC4/UpdateISR.c **** 	uint8 interruptState;
 256:.\Generated_Source\PSoC4/UpdateISR.c ****     uint32 priorityOffset = ((UpdateISR__INTC_NUMBER % 4u) * 8u) + 6u;
 240              		.loc 1 256 0
 241 000c 0E23     		mov	r3, #14
 242 000e FB60     		str	r3, [r7, #12]
 257:.\Generated_Source\PSoC4/UpdateISR.c ****     
 258:.\Generated_Source\PSoC4/UpdateISR.c **** 	interruptState = CyEnterCriticalSection();
 243              		.loc 1 258 0
 244 0010 0B23     		mov	r3, #11
 245 0012 FC18     		add	r4, r7, r3
 246 0014 FFF7FEFF 		bl	CyEnterCriticalSection
 247 0018 031C     		mov	r3, r0
 248 001a 2370     		strb	r3, [r4]
 259:.\Generated_Source\PSoC4/UpdateISR.c ****     *UpdateISR_INTC_PRIOR = (*UpdateISR_INTC_PRIOR & (uint32)(~UpdateISR__INTC_PRIOR_MASK)) |
 249              		.loc 1 259 0
 250 001c 0A4B     		ldr	r3, .L17
 251 001e 0A4A     		ldr	r2, .L17
 252 0020 1268     		ldr	r2, [r2]
 253 0022 0A49     		ldr	r1, .L17+4
 254 0024 1140     		and	r1, r2
ARM GAS  C:\Users\faithc\AppData\Local\Temp\cctvfA37.s 			page 10


 260:.\Generated_Source\PSoC4/UpdateISR.c ****                                     ((uint32)priority << priorityOffset);
 255              		.loc 1 260 0
 256 0026 FA1D     		add	r2, r7, #7
 257 0028 1078     		ldrb	r0, [r2]
 258 002a FA68     		ldr	r2, [r7, #12]
 259 002c 9040     		lsl	r0, r0, r2
 260 002e 021C     		mov	r2, r0
 259:.\Generated_Source\PSoC4/UpdateISR.c ****     *UpdateISR_INTC_PRIOR = (*UpdateISR_INTC_PRIOR & (uint32)(~UpdateISR__INTC_PRIOR_MASK)) |
 261              		.loc 1 259 0
 262 0030 0A43     		orr	r2, r1
 263 0032 1A60     		str	r2, [r3]
 261:.\Generated_Source\PSoC4/UpdateISR.c **** 	CyExitCriticalSection(interruptState);
 264              		.loc 1 261 0
 265 0034 0B23     		mov	r3, #11
 266 0036 FB18     		add	r3, r7, r3
 267 0038 1B78     		ldrb	r3, [r3]
 268 003a 181C     		mov	r0, r3
 269 003c FFF7FEFF 		bl	CyExitCriticalSection
 262:.\Generated_Source\PSoC4/UpdateISR.c **** }
 270              		.loc 1 262 0
 271 0040 BD46     		mov	sp, r7
 272 0042 05B0     		add	sp, sp, #20
 273              		@ sp needed
 274 0044 90BD     		pop	{r4, r7, pc}
 275              	.L18:
 276 0046 C046     		.align	2
 277              	.L17:
 278 0048 04E400E0 		.word	-536812540
 279 004c FF3FFFFF 		.word	-49153
 280              		.cfi_endproc
 281              	.LFE40:
 282              		.size	UpdateISR_SetPriority, .-UpdateISR_SetPriority
 283              		.section	.text.UpdateISR_GetPriority,"ax",%progbits
 284              		.align	2
 285              		.global	UpdateISR_GetPriority
 286              		.code	16
 287              		.thumb_func
 288              		.type	UpdateISR_GetPriority, %function
 289              	UpdateISR_GetPriority:
 290              	.LFB41:
 263:.\Generated_Source\PSoC4/UpdateISR.c **** 
 264:.\Generated_Source\PSoC4/UpdateISR.c **** 
 265:.\Generated_Source\PSoC4/UpdateISR.c **** /*******************************************************************************
 266:.\Generated_Source\PSoC4/UpdateISR.c **** * Function Name: UpdateISR_GetPriority
 267:.\Generated_Source\PSoC4/UpdateISR.c **** ********************************************************************************
 268:.\Generated_Source\PSoC4/UpdateISR.c **** *
 269:.\Generated_Source\PSoC4/UpdateISR.c **** * Summary:
 270:.\Generated_Source\PSoC4/UpdateISR.c **** *   Gets the Priority of the Interrupt.
 271:.\Generated_Source\PSoC4/UpdateISR.c **** *
 272:.\Generated_Source\PSoC4/UpdateISR.c **** * Parameters:
 273:.\Generated_Source\PSoC4/UpdateISR.c **** *   None
 274:.\Generated_Source\PSoC4/UpdateISR.c **** *
 275:.\Generated_Source\PSoC4/UpdateISR.c **** * Return:
 276:.\Generated_Source\PSoC4/UpdateISR.c **** *   Priority of the interrupt, 0 being the highest priority
 277:.\Generated_Source\PSoC4/UpdateISR.c **** *    PSoC 3 and PSoC 5LP: Priority is from 0 to 7.
 278:.\Generated_Source\PSoC4/UpdateISR.c **** *    PSoC 4: Priority is from 0 to 3.
 279:.\Generated_Source\PSoC4/UpdateISR.c **** *
ARM GAS  C:\Users\faithc\AppData\Local\Temp\cctvfA37.s 			page 11


 280:.\Generated_Source\PSoC4/UpdateISR.c **** *******************************************************************************/
 281:.\Generated_Source\PSoC4/UpdateISR.c **** uint8 UpdateISR_GetPriority(void)
 282:.\Generated_Source\PSoC4/UpdateISR.c **** {
 291              		.loc 1 282 0
 292              		.cfi_startproc
 293 0000 80B5     		push	{r7, lr}
 294              		.cfi_def_cfa_offset 8
 295              		.cfi_offset 7, -8
 296              		.cfi_offset 14, -4
 297 0002 82B0     		sub	sp, sp, #8
 298              		.cfi_def_cfa_offset 16
 299 0004 00AF     		add	r7, sp, #0
 300              		.cfi_def_cfa_register 7
 283:.\Generated_Source\PSoC4/UpdateISR.c ****     uint32 priority;
 284:.\Generated_Source\PSoC4/UpdateISR.c **** 	uint32 priorityOffset = ((UpdateISR__INTC_NUMBER % 4u) * 8u) + 6u;
 301              		.loc 1 284 0
 302 0006 0E23     		mov	r3, #14
 303 0008 7B60     		str	r3, [r7, #4]
 285:.\Generated_Source\PSoC4/UpdateISR.c **** 
 286:.\Generated_Source\PSoC4/UpdateISR.c ****     priority = (*UpdateISR_INTC_PRIOR & UpdateISR__INTC_PRIOR_MASK) >> priorityOffset;
 304              		.loc 1 286 0
 305 000a 074B     		ldr	r3, .L21
 306 000c 1A68     		ldr	r2, [r3]
 307 000e C023     		mov	r3, #192
 308 0010 1B02     		lsl	r3, r3, #8
 309 0012 1A40     		and	r2, r3
 310 0014 7B68     		ldr	r3, [r7, #4]
 311 0016 DA40     		lsr	r2, r2, r3
 312 0018 131C     		mov	r3, r2
 313 001a 3B60     		str	r3, [r7]
 287:.\Generated_Source\PSoC4/UpdateISR.c **** 
 288:.\Generated_Source\PSoC4/UpdateISR.c ****     return (uint8)priority;
 314              		.loc 1 288 0
 315 001c 3B68     		ldr	r3, [r7]
 316 001e DBB2     		uxtb	r3, r3
 289:.\Generated_Source\PSoC4/UpdateISR.c **** }
 317              		.loc 1 289 0
 318 0020 181C     		mov	r0, r3
 319 0022 BD46     		mov	sp, r7
 320 0024 02B0     		add	sp, sp, #8
 321              		@ sp needed
 322 0026 80BD     		pop	{r7, pc}
 323              	.L22:
 324              		.align	2
 325              	.L21:
 326 0028 04E400E0 		.word	-536812540
 327              		.cfi_endproc
 328              	.LFE41:
 329              		.size	UpdateISR_GetPriority, .-UpdateISR_GetPriority
 330              		.section	.text.UpdateISR_Enable,"ax",%progbits
 331              		.align	2
 332              		.global	UpdateISR_Enable
 333              		.code	16
 334              		.thumb_func
 335              		.type	UpdateISR_Enable, %function
 336              	UpdateISR_Enable:
 337              	.LFB42:
ARM GAS  C:\Users\faithc\AppData\Local\Temp\cctvfA37.s 			page 12


 290:.\Generated_Source\PSoC4/UpdateISR.c **** 
 291:.\Generated_Source\PSoC4/UpdateISR.c **** 
 292:.\Generated_Source\PSoC4/UpdateISR.c **** /*******************************************************************************
 293:.\Generated_Source\PSoC4/UpdateISR.c **** * Function Name: UpdateISR_Enable
 294:.\Generated_Source\PSoC4/UpdateISR.c **** ********************************************************************************
 295:.\Generated_Source\PSoC4/UpdateISR.c **** *
 296:.\Generated_Source\PSoC4/UpdateISR.c **** * Summary:
 297:.\Generated_Source\PSoC4/UpdateISR.c **** *   Enables the interrupt to the interrupt controller. Do not call this function
 298:.\Generated_Source\PSoC4/UpdateISR.c **** *   unless ISR_Start() has been called or the functionality of the ISR_Start() 
 299:.\Generated_Source\PSoC4/UpdateISR.c **** *   function, which sets the vector and the priority, has been called.
 300:.\Generated_Source\PSoC4/UpdateISR.c **** *
 301:.\Generated_Source\PSoC4/UpdateISR.c **** * Parameters:
 302:.\Generated_Source\PSoC4/UpdateISR.c **** *   None
 303:.\Generated_Source\PSoC4/UpdateISR.c **** *
 304:.\Generated_Source\PSoC4/UpdateISR.c **** * Return:
 305:.\Generated_Source\PSoC4/UpdateISR.c **** *   None
 306:.\Generated_Source\PSoC4/UpdateISR.c **** *
 307:.\Generated_Source\PSoC4/UpdateISR.c **** *******************************************************************************/
 308:.\Generated_Source\PSoC4/UpdateISR.c **** void UpdateISR_Enable(void)
 309:.\Generated_Source\PSoC4/UpdateISR.c **** {
 338              		.loc 1 309 0
 339              		.cfi_startproc
 340 0000 80B5     		push	{r7, lr}
 341              		.cfi_def_cfa_offset 8
 342              		.cfi_offset 7, -8
 343              		.cfi_offset 14, -4
 344 0002 00AF     		add	r7, sp, #0
 345              		.cfi_def_cfa_register 7
 310:.\Generated_Source\PSoC4/UpdateISR.c ****     /* Enable the general interrupt. */
 311:.\Generated_Source\PSoC4/UpdateISR.c ****     *UpdateISR_INTC_SET_EN = UpdateISR__INTC_MASK;
 346              		.loc 1 311 0
 347 0004 024B     		ldr	r3, .L24
 348 0006 2022     		mov	r2, #32
 349 0008 1A60     		str	r2, [r3]
 312:.\Generated_Source\PSoC4/UpdateISR.c **** }
 350              		.loc 1 312 0
 351 000a BD46     		mov	sp, r7
 352              		@ sp needed
 353 000c 80BD     		pop	{r7, pc}
 354              	.L25:
 355 000e C046     		.align	2
 356              	.L24:
 357 0010 00E100E0 		.word	-536813312
 358              		.cfi_endproc
 359              	.LFE42:
 360              		.size	UpdateISR_Enable, .-UpdateISR_Enable
 361              		.section	.text.UpdateISR_GetState,"ax",%progbits
 362              		.align	2
 363              		.global	UpdateISR_GetState
 364              		.code	16
 365              		.thumb_func
 366              		.type	UpdateISR_GetState, %function
 367              	UpdateISR_GetState:
 368              	.LFB43:
 313:.\Generated_Source\PSoC4/UpdateISR.c **** 
 314:.\Generated_Source\PSoC4/UpdateISR.c **** 
 315:.\Generated_Source\PSoC4/UpdateISR.c **** /*******************************************************************************
ARM GAS  C:\Users\faithc\AppData\Local\Temp\cctvfA37.s 			page 13


 316:.\Generated_Source\PSoC4/UpdateISR.c **** * Function Name: UpdateISR_GetState
 317:.\Generated_Source\PSoC4/UpdateISR.c **** ********************************************************************************
 318:.\Generated_Source\PSoC4/UpdateISR.c **** *
 319:.\Generated_Source\PSoC4/UpdateISR.c **** * Summary:
 320:.\Generated_Source\PSoC4/UpdateISR.c **** *   Gets the state (enabled, disabled) of the Interrupt.
 321:.\Generated_Source\PSoC4/UpdateISR.c **** *
 322:.\Generated_Source\PSoC4/UpdateISR.c **** * Parameters:
 323:.\Generated_Source\PSoC4/UpdateISR.c **** *   None
 324:.\Generated_Source\PSoC4/UpdateISR.c **** *
 325:.\Generated_Source\PSoC4/UpdateISR.c **** * Return:
 326:.\Generated_Source\PSoC4/UpdateISR.c **** *   1 if enabled, 0 if disabled.
 327:.\Generated_Source\PSoC4/UpdateISR.c **** *
 328:.\Generated_Source\PSoC4/UpdateISR.c **** *******************************************************************************/
 329:.\Generated_Source\PSoC4/UpdateISR.c **** uint8 UpdateISR_GetState(void)
 330:.\Generated_Source\PSoC4/UpdateISR.c **** {
 369              		.loc 1 330 0
 370              		.cfi_startproc
 371 0000 80B5     		push	{r7, lr}
 372              		.cfi_def_cfa_offset 8
 373              		.cfi_offset 7, -8
 374              		.cfi_offset 14, -4
 375 0002 00AF     		add	r7, sp, #0
 376              		.cfi_def_cfa_register 7
 331:.\Generated_Source\PSoC4/UpdateISR.c ****     /* Get the state of the general interrupt. */
 332:.\Generated_Source\PSoC4/UpdateISR.c ****     return ((*UpdateISR_INTC_SET_EN & (uint32)UpdateISR__INTC_MASK) != 0u) ? 1u:0u;
 377              		.loc 1 332 0
 378 0004 054B     		ldr	r3, .L30
 379 0006 1B68     		ldr	r3, [r3]
 380 0008 2022     		mov	r2, #32
 381 000a 1340     		and	r3, r2
 382 000c 01D0     		beq	.L27
 383              		.loc 1 332 0 is_stmt 0 discriminator 1
 384 000e 0123     		mov	r3, #1
 385 0010 00E0     		b	.L28
 386              	.L27:
 387              		.loc 1 332 0 discriminator 2
 388 0012 0023     		mov	r3, #0
 389              	.L28:
 333:.\Generated_Source\PSoC4/UpdateISR.c **** }
 390              		.loc 1 333 0 is_stmt 1 discriminator 4
 391 0014 181C     		mov	r0, r3
 392 0016 BD46     		mov	sp, r7
 393              		@ sp needed
 394 0018 80BD     		pop	{r7, pc}
 395              	.L31:
 396 001a C046     		.align	2
 397              	.L30:
 398 001c 00E100E0 		.word	-536813312
 399              		.cfi_endproc
 400              	.LFE43:
 401              		.size	UpdateISR_GetState, .-UpdateISR_GetState
 402              		.section	.text.UpdateISR_Disable,"ax",%progbits
 403              		.align	2
 404              		.global	UpdateISR_Disable
 405              		.code	16
 406              		.thumb_func
 407              		.type	UpdateISR_Disable, %function
ARM GAS  C:\Users\faithc\AppData\Local\Temp\cctvfA37.s 			page 14


 408              	UpdateISR_Disable:
 409              	.LFB44:
 334:.\Generated_Source\PSoC4/UpdateISR.c **** 
 335:.\Generated_Source\PSoC4/UpdateISR.c **** 
 336:.\Generated_Source\PSoC4/UpdateISR.c **** /*******************************************************************************
 337:.\Generated_Source\PSoC4/UpdateISR.c **** * Function Name: UpdateISR_Disable
 338:.\Generated_Source\PSoC4/UpdateISR.c **** ********************************************************************************
 339:.\Generated_Source\PSoC4/UpdateISR.c **** *
 340:.\Generated_Source\PSoC4/UpdateISR.c **** * Summary:
 341:.\Generated_Source\PSoC4/UpdateISR.c **** *   Disables the Interrupt in the interrupt controller.
 342:.\Generated_Source\PSoC4/UpdateISR.c **** *
 343:.\Generated_Source\PSoC4/UpdateISR.c **** * Parameters:
 344:.\Generated_Source\PSoC4/UpdateISR.c **** *   None
 345:.\Generated_Source\PSoC4/UpdateISR.c **** *
 346:.\Generated_Source\PSoC4/UpdateISR.c **** * Return:
 347:.\Generated_Source\PSoC4/UpdateISR.c **** *   None
 348:.\Generated_Source\PSoC4/UpdateISR.c **** *
 349:.\Generated_Source\PSoC4/UpdateISR.c **** *******************************************************************************/
 350:.\Generated_Source\PSoC4/UpdateISR.c **** void UpdateISR_Disable(void)
 351:.\Generated_Source\PSoC4/UpdateISR.c **** {
 410              		.loc 1 351 0
 411              		.cfi_startproc
 412 0000 80B5     		push	{r7, lr}
 413              		.cfi_def_cfa_offset 8
 414              		.cfi_offset 7, -8
 415              		.cfi_offset 14, -4
 416 0002 00AF     		add	r7, sp, #0
 417              		.cfi_def_cfa_register 7
 352:.\Generated_Source\PSoC4/UpdateISR.c ****     /* Disable the general interrupt. */
 353:.\Generated_Source\PSoC4/UpdateISR.c ****     *UpdateISR_INTC_CLR_EN = UpdateISR__INTC_MASK;
 418              		.loc 1 353 0
 419 0004 024B     		ldr	r3, .L33
 420 0006 2022     		mov	r2, #32
 421 0008 1A60     		str	r2, [r3]
 354:.\Generated_Source\PSoC4/UpdateISR.c **** }
 422              		.loc 1 354 0
 423 000a BD46     		mov	sp, r7
 424              		@ sp needed
 425 000c 80BD     		pop	{r7, pc}
 426              	.L34:
 427 000e C046     		.align	2
 428              	.L33:
 429 0010 80E100E0 		.word	-536813184
 430              		.cfi_endproc
 431              	.LFE44:
 432              		.size	UpdateISR_Disable, .-UpdateISR_Disable
 433              		.section	.text.UpdateISR_SetPending,"ax",%progbits
 434              		.align	2
 435              		.global	UpdateISR_SetPending
 436              		.code	16
 437              		.thumb_func
 438              		.type	UpdateISR_SetPending, %function
 439              	UpdateISR_SetPending:
 440              	.LFB45:
 355:.\Generated_Source\PSoC4/UpdateISR.c **** 
 356:.\Generated_Source\PSoC4/UpdateISR.c **** 
 357:.\Generated_Source\PSoC4/UpdateISR.c **** /*******************************************************************************
ARM GAS  C:\Users\faithc\AppData\Local\Temp\cctvfA37.s 			page 15


 358:.\Generated_Source\PSoC4/UpdateISR.c **** * Function Name: UpdateISR_SetPending
 359:.\Generated_Source\PSoC4/UpdateISR.c **** ********************************************************************************
 360:.\Generated_Source\PSoC4/UpdateISR.c **** *
 361:.\Generated_Source\PSoC4/UpdateISR.c **** * Summary:
 362:.\Generated_Source\PSoC4/UpdateISR.c **** *   Causes the Interrupt to enter the pending state, a software method of
 363:.\Generated_Source\PSoC4/UpdateISR.c **** *   generating the interrupt.
 364:.\Generated_Source\PSoC4/UpdateISR.c **** *
 365:.\Generated_Source\PSoC4/UpdateISR.c **** * Parameters:
 366:.\Generated_Source\PSoC4/UpdateISR.c **** *   None
 367:.\Generated_Source\PSoC4/UpdateISR.c **** *
 368:.\Generated_Source\PSoC4/UpdateISR.c **** * Return:
 369:.\Generated_Source\PSoC4/UpdateISR.c **** *   None
 370:.\Generated_Source\PSoC4/UpdateISR.c **** *
 371:.\Generated_Source\PSoC4/UpdateISR.c **** * Side Effects:
 372:.\Generated_Source\PSoC4/UpdateISR.c **** *   If interrupts are enabled and the interrupt is set up properly, the ISR is
 373:.\Generated_Source\PSoC4/UpdateISR.c **** *   entered (depending on the priority of this interrupt and other pending 
 374:.\Generated_Source\PSoC4/UpdateISR.c **** *   interrupts).
 375:.\Generated_Source\PSoC4/UpdateISR.c **** *
 376:.\Generated_Source\PSoC4/UpdateISR.c **** *******************************************************************************/
 377:.\Generated_Source\PSoC4/UpdateISR.c **** void UpdateISR_SetPending(void)
 378:.\Generated_Source\PSoC4/UpdateISR.c **** {
 441              		.loc 1 378 0
 442              		.cfi_startproc
 443 0000 80B5     		push	{r7, lr}
 444              		.cfi_def_cfa_offset 8
 445              		.cfi_offset 7, -8
 446              		.cfi_offset 14, -4
 447 0002 00AF     		add	r7, sp, #0
 448              		.cfi_def_cfa_register 7
 379:.\Generated_Source\PSoC4/UpdateISR.c ****     *UpdateISR_INTC_SET_PD = UpdateISR__INTC_MASK;
 449              		.loc 1 379 0
 450 0004 024B     		ldr	r3, .L36
 451 0006 2022     		mov	r2, #32
 452 0008 1A60     		str	r2, [r3]
 380:.\Generated_Source\PSoC4/UpdateISR.c **** }
 453              		.loc 1 380 0
 454 000a BD46     		mov	sp, r7
 455              		@ sp needed
 456 000c 80BD     		pop	{r7, pc}
 457              	.L37:
 458 000e C046     		.align	2
 459              	.L36:
 460 0010 00E200E0 		.word	-536813056
 461              		.cfi_endproc
 462              	.LFE45:
 463              		.size	UpdateISR_SetPending, .-UpdateISR_SetPending
 464              		.section	.text.UpdateISR_ClearPending,"ax",%progbits
 465              		.align	2
 466              		.global	UpdateISR_ClearPending
 467              		.code	16
 468              		.thumb_func
 469              		.type	UpdateISR_ClearPending, %function
 470              	UpdateISR_ClearPending:
 471              	.LFB46:
 381:.\Generated_Source\PSoC4/UpdateISR.c **** 
 382:.\Generated_Source\PSoC4/UpdateISR.c **** 
 383:.\Generated_Source\PSoC4/UpdateISR.c **** /*******************************************************************************
ARM GAS  C:\Users\faithc\AppData\Local\Temp\cctvfA37.s 			page 16


 384:.\Generated_Source\PSoC4/UpdateISR.c **** * Function Name: UpdateISR_ClearPending
 385:.\Generated_Source\PSoC4/UpdateISR.c **** ********************************************************************************
 386:.\Generated_Source\PSoC4/UpdateISR.c **** *
 387:.\Generated_Source\PSoC4/UpdateISR.c **** * Summary:
 388:.\Generated_Source\PSoC4/UpdateISR.c **** *   Clears a pending interrupt in the interrupt controller.
 389:.\Generated_Source\PSoC4/UpdateISR.c **** *
 390:.\Generated_Source\PSoC4/UpdateISR.c **** *   Note Some interrupt sources are clear-on-read and require the block 
 391:.\Generated_Source\PSoC4/UpdateISR.c **** *   interrupt/status register to be read/cleared with the appropriate block API 
 392:.\Generated_Source\PSoC4/UpdateISR.c **** *   (GPIO, UART, and so on). Otherwise the ISR will continue to remain in 
 393:.\Generated_Source\PSoC4/UpdateISR.c **** *   pending state even though the interrupt itself is cleared using this API.
 394:.\Generated_Source\PSoC4/UpdateISR.c **** *
 395:.\Generated_Source\PSoC4/UpdateISR.c **** * Parameters:
 396:.\Generated_Source\PSoC4/UpdateISR.c **** *   None
 397:.\Generated_Source\PSoC4/UpdateISR.c **** *
 398:.\Generated_Source\PSoC4/UpdateISR.c **** * Return:
 399:.\Generated_Source\PSoC4/UpdateISR.c **** *   None
 400:.\Generated_Source\PSoC4/UpdateISR.c **** *
 401:.\Generated_Source\PSoC4/UpdateISR.c **** *******************************************************************************/
 402:.\Generated_Source\PSoC4/UpdateISR.c **** void UpdateISR_ClearPending(void)
 403:.\Generated_Source\PSoC4/UpdateISR.c **** {
 472              		.loc 1 403 0
 473              		.cfi_startproc
 474 0000 80B5     		push	{r7, lr}
 475              		.cfi_def_cfa_offset 8
 476              		.cfi_offset 7, -8
 477              		.cfi_offset 14, -4
 478 0002 00AF     		add	r7, sp, #0
 479              		.cfi_def_cfa_register 7
 404:.\Generated_Source\PSoC4/UpdateISR.c ****     *UpdateISR_INTC_CLR_PD = UpdateISR__INTC_MASK;
 480              		.loc 1 404 0
 481 0004 024B     		ldr	r3, .L39
 482 0006 2022     		mov	r2, #32
 483 0008 1A60     		str	r2, [r3]
 405:.\Generated_Source\PSoC4/UpdateISR.c **** }
 484              		.loc 1 405 0
 485 000a BD46     		mov	sp, r7
 486              		@ sp needed
 487 000c 80BD     		pop	{r7, pc}
 488              	.L40:
 489 000e C046     		.align	2
 490              	.L39:
 491 0010 80E200E0 		.word	-536812928
 492              		.cfi_endproc
 493              	.LFE46:
 494              		.size	UpdateISR_ClearPending, .-UpdateISR_ClearPending
 495              		.text
 496              	.Letext0:
 497              		.file 2 "Generated_Source\\PSoC4/cytypes.h"