ARM GAS  C:\Users\kylep\AppData\Local\Temp\ccmFfMW6.s 			page 1


   1              		.cpu cortex-m0
   2              		.fpu softvfp
   3              		.eabi_attribute 20, 1
   4              		.eabi_attribute 21, 1
   5              		.eabi_attribute 23, 3
   6              		.eabi_attribute 24, 1
   7              		.eabi_attribute 25, 1
   8              		.eabi_attribute 26, 1
   9              		.eabi_attribute 30, 1
  10              		.eabi_attribute 34, 0
  11              		.eabi_attribute 18, 4
  12              		.code	16
  13              		.file	"ADC_SAR_Seq.c"
  14              		.text
  15              	.Ltext0:
  16              		.cfi_sections	.debug_frame
  17              		.global	__aeabi_idiv
  18              		.section	.text.ADC_SAR_Seq_Init,"ax",%progbits
  19              		.align	2
  20              		.global	ADC_SAR_Seq_Init
  21              		.code	16
  22              		.thumb_func
  23              		.type	ADC_SAR_Seq_Init, %function
  24              	ADC_SAR_Seq_Init:
  25              	.LFB1:
  26              		.file 1 ".\\Generated_Source\\PSoC4\\ADC_SAR_Seq.c"
   1:.\Generated_Source\PSoC4/ADC_SAR_Seq.c **** /*******************************************************************************
   2:.\Generated_Source\PSoC4/ADC_SAR_Seq.c **** * File Name: ADC_SAR_Seq.c
   3:.\Generated_Source\PSoC4/ADC_SAR_Seq.c **** * Version 2.30
   4:.\Generated_Source\PSoC4/ADC_SAR_Seq.c **** *
   5:.\Generated_Source\PSoC4/ADC_SAR_Seq.c **** * Description:
   6:.\Generated_Source\PSoC4/ADC_SAR_Seq.c **** *  This file provides the source code to the API for the Sequencing Successive
   7:.\Generated_Source\PSoC4/ADC_SAR_Seq.c **** *  Approximation ADC Component Component.
   8:.\Generated_Source\PSoC4/ADC_SAR_Seq.c **** *
   9:.\Generated_Source\PSoC4/ADC_SAR_Seq.c **** * Note:
  10:.\Generated_Source\PSoC4/ADC_SAR_Seq.c **** *
  11:.\Generated_Source\PSoC4/ADC_SAR_Seq.c **** ********************************************************************************
  12:.\Generated_Source\PSoC4/ADC_SAR_Seq.c **** * Copyright 2008-2015, Cypress Semiconductor Corporation.  All rights reserved.
  13:.\Generated_Source\PSoC4/ADC_SAR_Seq.c **** * You may use this file only in accordance with the license, terms, conditions,
  14:.\Generated_Source\PSoC4/ADC_SAR_Seq.c **** * disclaimers, and limitations in the end user license agreement accompanying
  15:.\Generated_Source\PSoC4/ADC_SAR_Seq.c **** * the software package with which this file was provided.
  16:.\Generated_Source\PSoC4/ADC_SAR_Seq.c **** *******************************************************************************/
  17:.\Generated_Source\PSoC4/ADC_SAR_Seq.c **** 
  18:.\Generated_Source\PSoC4/ADC_SAR_Seq.c **** #include "ADC_SAR_Seq.h"
  19:.\Generated_Source\PSoC4/ADC_SAR_Seq.c **** 
  20:.\Generated_Source\PSoC4/ADC_SAR_Seq.c **** 
  21:.\Generated_Source\PSoC4/ADC_SAR_Seq.c **** /***************************************
  22:.\Generated_Source\PSoC4/ADC_SAR_Seq.c **** * Global data allocation
  23:.\Generated_Source\PSoC4/ADC_SAR_Seq.c **** ***************************************/
  24:.\Generated_Source\PSoC4/ADC_SAR_Seq.c **** uint8 ADC_SAR_Seq_initVar = 0u;
  25:.\Generated_Source\PSoC4/ADC_SAR_Seq.c **** volatile int16 ADC_SAR_Seq_offset[ADC_SAR_Seq_TOTAL_CHANNELS_NUM];
  26:.\Generated_Source\PSoC4/ADC_SAR_Seq.c **** volatile int32 ADC_SAR_Seq_countsPer10Volt[ADC_SAR_Seq_TOTAL_CHANNELS_NUM];   /* Gain compensation 
  27:.\Generated_Source\PSoC4/ADC_SAR_Seq.c **** 
  28:.\Generated_Source\PSoC4/ADC_SAR_Seq.c **** 
  29:.\Generated_Source\PSoC4/ADC_SAR_Seq.c **** /***************************************
  30:.\Generated_Source\PSoC4/ADC_SAR_Seq.c **** * Local data allocation
  31:.\Generated_Source\PSoC4/ADC_SAR_Seq.c **** ***************************************/
ARM GAS  C:\Users\kylep\AppData\Local\Temp\ccmFfMW6.s 			page 2


  32:.\Generated_Source\PSoC4/ADC_SAR_Seq.c **** /* Channels configuration generated by customiser */
  33:.\Generated_Source\PSoC4/ADC_SAR_Seq.c **** static const uint32 CYCODE ADC_SAR_Seq_channelsConfig[] = { 0x00000400u, 0x00000400u, 0x00000400u, 
  34:.\Generated_Source\PSoC4/ADC_SAR_Seq.c **** 
  35:.\Generated_Source\PSoC4/ADC_SAR_Seq.c **** 
  36:.\Generated_Source\PSoC4/ADC_SAR_Seq.c **** /*******************************************************************************
  37:.\Generated_Source\PSoC4/ADC_SAR_Seq.c **** * Function Name: ADC_SAR_Seq_Start
  38:.\Generated_Source\PSoC4/ADC_SAR_Seq.c **** ********************************************************************************
  39:.\Generated_Source\PSoC4/ADC_SAR_Seq.c **** *
  40:.\Generated_Source\PSoC4/ADC_SAR_Seq.c **** * Summary:
  41:.\Generated_Source\PSoC4/ADC_SAR_Seq.c **** *  Performs all required initialization for this component
  42:.\Generated_Source\PSoC4/ADC_SAR_Seq.c **** *  and enables the power. The power will be set to the appropriate
  43:.\Generated_Source\PSoC4/ADC_SAR_Seq.c **** *  power based on the clock frequency.
  44:.\Generated_Source\PSoC4/ADC_SAR_Seq.c **** *
  45:.\Generated_Source\PSoC4/ADC_SAR_Seq.c **** * Parameters:
  46:.\Generated_Source\PSoC4/ADC_SAR_Seq.c **** *  None.
  47:.\Generated_Source\PSoC4/ADC_SAR_Seq.c **** *
  48:.\Generated_Source\PSoC4/ADC_SAR_Seq.c **** * Return:
  49:.\Generated_Source\PSoC4/ADC_SAR_Seq.c **** *  None.
  50:.\Generated_Source\PSoC4/ADC_SAR_Seq.c **** *
  51:.\Generated_Source\PSoC4/ADC_SAR_Seq.c **** * Global variables:
  52:.\Generated_Source\PSoC4/ADC_SAR_Seq.c **** *  The ADC_SAR_Seq_initVar variable is used to indicate when/if initial
  53:.\Generated_Source\PSoC4/ADC_SAR_Seq.c **** *  configuration of this component has happened. The variable is initialized to
  54:.\Generated_Source\PSoC4/ADC_SAR_Seq.c **** *  zero and set to 1 the first time ADC_Start() is called. This allows for
  55:.\Generated_Source\PSoC4/ADC_SAR_Seq.c **** *  component Re-Start without re-initialization in all subsequent calls to the
  56:.\Generated_Source\PSoC4/ADC_SAR_Seq.c **** *  ADC_SAR_Seq_Start() routine.
  57:.\Generated_Source\PSoC4/ADC_SAR_Seq.c **** *  If re-initialization of the component is required the variable should be set
  58:.\Generated_Source\PSoC4/ADC_SAR_Seq.c **** *  to zero before call of ADC_SAR_Seq_Start() routine, or the user may call
  59:.\Generated_Source\PSoC4/ADC_SAR_Seq.c **** *  ADC_SAR_Seq_Init() and ADC_SAR_Seq_Enable() as done in the
  60:.\Generated_Source\PSoC4/ADC_SAR_Seq.c **** *  ADC_SAR_Seq_Start() routine.
  61:.\Generated_Source\PSoC4/ADC_SAR_Seq.c **** *
  62:.\Generated_Source\PSoC4/ADC_SAR_Seq.c **** *******************************************************************************/
  63:.\Generated_Source\PSoC4/ADC_SAR_Seq.c **** void ADC_SAR_Seq_Start(void)
  64:.\Generated_Source\PSoC4/ADC_SAR_Seq.c **** {
  65:.\Generated_Source\PSoC4/ADC_SAR_Seq.c ****     /* If not Initialized then initialize all required hardware and software */
  66:.\Generated_Source\PSoC4/ADC_SAR_Seq.c ****     if(ADC_SAR_Seq_initVar == 0u)
  67:.\Generated_Source\PSoC4/ADC_SAR_Seq.c ****     {
  68:.\Generated_Source\PSoC4/ADC_SAR_Seq.c ****         ADC_SAR_Seq_Init();
  69:.\Generated_Source\PSoC4/ADC_SAR_Seq.c ****         ADC_SAR_Seq_initVar = 1u;
  70:.\Generated_Source\PSoC4/ADC_SAR_Seq.c ****     }
  71:.\Generated_Source\PSoC4/ADC_SAR_Seq.c ****     ADC_SAR_Seq_Enable();
  72:.\Generated_Source\PSoC4/ADC_SAR_Seq.c **** }
  73:.\Generated_Source\PSoC4/ADC_SAR_Seq.c **** 
  74:.\Generated_Source\PSoC4/ADC_SAR_Seq.c **** 
  75:.\Generated_Source\PSoC4/ADC_SAR_Seq.c **** /*******************************************************************************
  76:.\Generated_Source\PSoC4/ADC_SAR_Seq.c **** * Function Name: ADC_SAR_Seq_Init
  77:.\Generated_Source\PSoC4/ADC_SAR_Seq.c **** ********************************************************************************
  78:.\Generated_Source\PSoC4/ADC_SAR_Seq.c **** *
  79:.\Generated_Source\PSoC4/ADC_SAR_Seq.c **** * Summary:
  80:.\Generated_Source\PSoC4/ADC_SAR_Seq.c **** *  Initialize component's parameters to the parameters set by user in the
  81:.\Generated_Source\PSoC4/ADC_SAR_Seq.c **** *  customizer of the component placed onto schematic. Usually called in
  82:.\Generated_Source\PSoC4/ADC_SAR_Seq.c **** *  ADC_SAR_Seq_Start().
  83:.\Generated_Source\PSoC4/ADC_SAR_Seq.c **** *
  84:.\Generated_Source\PSoC4/ADC_SAR_Seq.c **** * Parameters:
  85:.\Generated_Source\PSoC4/ADC_SAR_Seq.c **** *  None.
  86:.\Generated_Source\PSoC4/ADC_SAR_Seq.c **** *
  87:.\Generated_Source\PSoC4/ADC_SAR_Seq.c **** * Return:
  88:.\Generated_Source\PSoC4/ADC_SAR_Seq.c **** *  None.
ARM GAS  C:\Users\kylep\AppData\Local\Temp\ccmFfMW6.s 			page 3


  89:.\Generated_Source\PSoC4/ADC_SAR_Seq.c **** *
  90:.\Generated_Source\PSoC4/ADC_SAR_Seq.c **** * Global variables:
  91:.\Generated_Source\PSoC4/ADC_SAR_Seq.c **** *  The ADC_SAR_Seq_offset variable is initialized.
  92:.\Generated_Source\PSoC4/ADC_SAR_Seq.c **** *
  93:.\Generated_Source\PSoC4/ADC_SAR_Seq.c **** *******************************************************************************/
  94:.\Generated_Source\PSoC4/ADC_SAR_Seq.c **** void ADC_SAR_Seq_Init(void)
  95:.\Generated_Source\PSoC4/ADC_SAR_Seq.c **** {
  27              		.loc 1 95 0
  28              		.cfi_startproc
  29 0000 10B5     		push	{r4, lr}
  30              		.cfi_def_cfa_offset 8
  31              		.cfi_offset 4, -8
  32              		.cfi_offset 14, -4
  96:.\Generated_Source\PSoC4/ADC_SAR_Seq.c ****     uint32 chNum;
  97:.\Generated_Source\PSoC4/ADC_SAR_Seq.c ****     uint32 tmpRegVal;
  98:.\Generated_Source\PSoC4/ADC_SAR_Seq.c ****     int32 counts;
  99:.\Generated_Source\PSoC4/ADC_SAR_Seq.c **** 
 100:.\Generated_Source\PSoC4/ADC_SAR_Seq.c ****     #if(ADC_SAR_Seq_TOTAL_CHANNELS_NUM > 1u)
 101:.\Generated_Source\PSoC4/ADC_SAR_Seq.c ****         static const uint8 CYCODE ADC_SAR_Seq_InputsPlacement[] =
 102:.\Generated_Source\PSoC4/ADC_SAR_Seq.c ****         {
 103:.\Generated_Source\PSoC4/ADC_SAR_Seq.c ****             (uint8)(ADC_SAR_Seq_cy_psoc4_sarmux_8__CH_0_PORT << 4u) |
 104:.\Generated_Source\PSoC4/ADC_SAR_Seq.c ****             (uint8)ADC_SAR_Seq_cy_psoc4_sarmux_8__CH_0_PIN
 105:.\Generated_Source\PSoC4/ADC_SAR_Seq.c ****             ,(uint8)(ADC_SAR_Seq_cy_psoc4_sarmux_8__CH_1_PORT << 4u) |
 106:.\Generated_Source\PSoC4/ADC_SAR_Seq.c ****              (uint8)ADC_SAR_Seq_cy_psoc4_sarmux_8__CH_1_PIN
 107:.\Generated_Source\PSoC4/ADC_SAR_Seq.c ****             #if(ADC_SAR_Seq_TOTAL_CHANNELS_NUM > 2u)
 108:.\Generated_Source\PSoC4/ADC_SAR_Seq.c ****                 ,(uint8)(ADC_SAR_Seq_cy_psoc4_sarmux_8__CH_2_PORT << 4u) |
 109:.\Generated_Source\PSoC4/ADC_SAR_Seq.c ****                  (uint8)ADC_SAR_Seq_cy_psoc4_sarmux_8__CH_2_PIN
 110:.\Generated_Source\PSoC4/ADC_SAR_Seq.c ****             #endif /* End ADC_SAR_Seq_TOTAL_CHANNELS_NUM > 2u */
 111:.\Generated_Source\PSoC4/ADC_SAR_Seq.c ****             #if(ADC_SAR_Seq_TOTAL_CHANNELS_NUM > 3u)
 112:.\Generated_Source\PSoC4/ADC_SAR_Seq.c ****                 ,(uint8)(ADC_SAR_Seq_cy_psoc4_sarmux_8__CH_3_PORT << 4u) |
 113:.\Generated_Source\PSoC4/ADC_SAR_Seq.c ****                  (uint8)ADC_SAR_Seq_cy_psoc4_sarmux_8__CH_3_PIN
 114:.\Generated_Source\PSoC4/ADC_SAR_Seq.c ****             #endif /* End ADC_SAR_Seq_TOTAL_CHANNELS_NUM > 3u */
 115:.\Generated_Source\PSoC4/ADC_SAR_Seq.c ****             #if(ADC_SAR_Seq_TOTAL_CHANNELS_NUM > 4u)
 116:.\Generated_Source\PSoC4/ADC_SAR_Seq.c ****                 ,(uint8)(ADC_SAR_Seq_cy_psoc4_sarmux_8__CH_4_PORT << 4u) |
 117:.\Generated_Source\PSoC4/ADC_SAR_Seq.c ****                  (uint8)ADC_SAR_Seq_cy_psoc4_sarmux_8__CH_4_PIN
 118:.\Generated_Source\PSoC4/ADC_SAR_Seq.c ****             #endif /* End ADC_SAR_Seq_TOTAL_CHANNELS_NUM > 4u */
 119:.\Generated_Source\PSoC4/ADC_SAR_Seq.c ****             #if(ADC_SAR_Seq_TOTAL_CHANNELS_NUM > 5u)
 120:.\Generated_Source\PSoC4/ADC_SAR_Seq.c ****                 ,(uint8)(ADC_SAR_Seq_cy_psoc4_sarmux_8__CH_5_PORT << 4u) |
 121:.\Generated_Source\PSoC4/ADC_SAR_Seq.c ****                  (uint8)ADC_SAR_Seq_cy_psoc4_sarmux_8__CH_5_PIN
 122:.\Generated_Source\PSoC4/ADC_SAR_Seq.c ****             #endif /* End ADC_SAR_Seq_TOTAL_CHANNELS_NUM > 5u */
 123:.\Generated_Source\PSoC4/ADC_SAR_Seq.c ****             #if(ADC_SAR_Seq_TOTAL_CHANNELS_NUM > 6u)
 124:.\Generated_Source\PSoC4/ADC_SAR_Seq.c ****                 ,(uint8)(ADC_SAR_Seq_cy_psoc4_sarmux_8__CH_6_PORT << 4u) |
 125:.\Generated_Source\PSoC4/ADC_SAR_Seq.c ****                  (uint8)ADC_SAR_Seq_cy_psoc4_sarmux_8__CH_6_PIN
 126:.\Generated_Source\PSoC4/ADC_SAR_Seq.c ****             #endif /* End ADC_SAR_Seq_TOTAL_CHANNELS_NUM > 6u */
 127:.\Generated_Source\PSoC4/ADC_SAR_Seq.c ****             #if(ADC_SAR_Seq_TOTAL_CHANNELS_NUM > 7u)
 128:.\Generated_Source\PSoC4/ADC_SAR_Seq.c ****                 ,(uint8)(ADC_SAR_Seq_cy_psoc4_sarmux_8__CH_7_PORT << 4u) |
 129:.\Generated_Source\PSoC4/ADC_SAR_Seq.c ****                  (uint8)ADC_SAR_Seq_cy_psoc4_sarmux_8__CH_7_PIN
 130:.\Generated_Source\PSoC4/ADC_SAR_Seq.c ****             #endif /* End ADC_SAR_Seq_TOTAL_CHANNELS_NUM > 7u */
 131:.\Generated_Source\PSoC4/ADC_SAR_Seq.c ****             #if(ADC_SAR_Seq_TOTAL_CHANNELS_NUM > 8u)
 132:.\Generated_Source\PSoC4/ADC_SAR_Seq.c ****                 ,(uint8)(ADC_SAR_Seq_cy_psoc4_sarmux_8__CH_8_PORT << 4u) |
 133:.\Generated_Source\PSoC4/ADC_SAR_Seq.c ****                  (uint8)ADC_SAR_Seq_cy_psoc4_sarmux_8__CH_8_PIN
 134:.\Generated_Source\PSoC4/ADC_SAR_Seq.c ****             #endif /* End ADC_SAR_Seq_TOTAL_CHANNELS_NUM > 8u */
 135:.\Generated_Source\PSoC4/ADC_SAR_Seq.c ****             #if(ADC_SAR_Seq_TOTAL_CHANNELS_NUM > 9u)
 136:.\Generated_Source\PSoC4/ADC_SAR_Seq.c ****                 ,(uint8)(ADC_SAR_Seq_cy_psoc4_sarmux_8__CH_9_PORT << 4u) |
 137:.\Generated_Source\PSoC4/ADC_SAR_Seq.c ****                  (uint8)ADC_SAR_Seq_cy_psoc4_sarmux_8__CH_9_PIN
 138:.\Generated_Source\PSoC4/ADC_SAR_Seq.c ****             #endif /* End ADC_SAR_Seq_TOTAL_CHANNELS_NUM > 9u */
 139:.\Generated_Source\PSoC4/ADC_SAR_Seq.c ****             #if(ADC_SAR_Seq_TOTAL_CHANNELS_NUM > 10u)
ARM GAS  C:\Users\kylep\AppData\Local\Temp\ccmFfMW6.s 			page 4


 140:.\Generated_Source\PSoC4/ADC_SAR_Seq.c ****                 ,(uint8)(ADC_SAR_Seq_cy_psoc4_sarmux_8__CH_10_PORT << 4u) |
 141:.\Generated_Source\PSoC4/ADC_SAR_Seq.c ****                  (uint8)ADC_SAR_Seq_cy_psoc4_sarmux_8__CH_10_PIN
 142:.\Generated_Source\PSoC4/ADC_SAR_Seq.c ****             #endif /* End ADC_SAR_Seq_TOTAL_CHANNELS_NUM > 10u */
 143:.\Generated_Source\PSoC4/ADC_SAR_Seq.c ****             #if(ADC_SAR_Seq_TOTAL_CHANNELS_NUM > 11u)
 144:.\Generated_Source\PSoC4/ADC_SAR_Seq.c ****                 ,(uint8)(ADC_SAR_Seq_cy_psoc4_sarmux_8__CH_11_PORT << 4u) |
 145:.\Generated_Source\PSoC4/ADC_SAR_Seq.c ****                  (uint8)ADC_SAR_Seq_cy_psoc4_sarmux_8__CH_11_PIN
 146:.\Generated_Source\PSoC4/ADC_SAR_Seq.c ****             #endif /* End ADC_SAR_Seq_TOTAL_CHANNELS_NUM > 11u */
 147:.\Generated_Source\PSoC4/ADC_SAR_Seq.c ****             #if(ADC_SAR_Seq_TOTAL_CHANNELS_NUM > 12u)
 148:.\Generated_Source\PSoC4/ADC_SAR_Seq.c ****                 ,(uint8)(ADC_SAR_Seq_cy_psoc4_sarmux_8__CH_12_PORT << 4u) |
 149:.\Generated_Source\PSoC4/ADC_SAR_Seq.c ****                  (uint8)ADC_SAR_Seq_cy_psoc4_sarmux_8__CH_12_PIN
 150:.\Generated_Source\PSoC4/ADC_SAR_Seq.c ****             #endif /* End ADC_SAR_Seq_TOTAL_CHANNELS_NUM > 12u */
 151:.\Generated_Source\PSoC4/ADC_SAR_Seq.c ****             #if(ADC_SAR_Seq_TOTAL_CHANNELS_NUM > 13u)
 152:.\Generated_Source\PSoC4/ADC_SAR_Seq.c ****                 ,(uint8)(ADC_SAR_Seq_cy_psoc4_sarmux_8__CH_13_PORT << 4u) |
 153:.\Generated_Source\PSoC4/ADC_SAR_Seq.c ****                  (uint8)ADC_SAR_Seq_cy_psoc4_sarmux_8__CH_13_PIN
 154:.\Generated_Source\PSoC4/ADC_SAR_Seq.c ****             #endif /* End ADC_SAR_Seq_TOTAL_CHANNELS_NUM > 13u */
 155:.\Generated_Source\PSoC4/ADC_SAR_Seq.c ****             #if(ADC_SAR_Seq_TOTAL_CHANNELS_NUM > 14u)
 156:.\Generated_Source\PSoC4/ADC_SAR_Seq.c ****                 ,(uint8)(ADC_SAR_Seq_cy_psoc4_sarmux_8__CH_14_PORT << 4u) |
 157:.\Generated_Source\PSoC4/ADC_SAR_Seq.c ****                  (uint8)ADC_SAR_Seq_cy_psoc4_sarmux_8__CH_14_PIN
 158:.\Generated_Source\PSoC4/ADC_SAR_Seq.c ****             #endif /* End ADC_SAR_Seq_TOTAL_CHANNELS_NUM > 14u */
 159:.\Generated_Source\PSoC4/ADC_SAR_Seq.c ****             #if(ADC_SAR_Seq_TOTAL_CHANNELS_NUM > 15u)
 160:.\Generated_Source\PSoC4/ADC_SAR_Seq.c ****                 ,(uint8)(ADC_SAR_Seq_cy_psoc4_sarmux_8__CH_15_PORT << 4u) |
 161:.\Generated_Source\PSoC4/ADC_SAR_Seq.c ****                  (uint8)ADC_SAR_Seq_cy_psoc4_sarmux_8__CH_15_PIN
 162:.\Generated_Source\PSoC4/ADC_SAR_Seq.c ****             #endif /* End ADC_SAR_Seq_TOTAL_CHANNELS_NUM > 15u */
 163:.\Generated_Source\PSoC4/ADC_SAR_Seq.c ****             #if(ADC_SAR_Seq_TOTAL_CHANNELS_NUM > 16u)
 164:.\Generated_Source\PSoC4/ADC_SAR_Seq.c ****                 ,(uint8)(ADC_SAR_Seq_cy_psoc4_sarmux_8__CH_16_PORT << 4u) |
 165:.\Generated_Source\PSoC4/ADC_SAR_Seq.c ****                  (uint8)ADC_SAR_Seq_cy_psoc4_sarmux_8__CH_16_PIN
 166:.\Generated_Source\PSoC4/ADC_SAR_Seq.c ****             #endif /* End ADC_SAR_Seq_TOTAL_CHANNELS_NUM > 16u */
 167:.\Generated_Source\PSoC4/ADC_SAR_Seq.c ****         };
 168:.\Generated_Source\PSoC4/ADC_SAR_Seq.c ****     #endif /* End ADC_SAR_Seq_TOTAL_CHANNELS_NUM > 1u */
 169:.\Generated_Source\PSoC4/ADC_SAR_Seq.c **** 
 170:.\Generated_Source\PSoC4/ADC_SAR_Seq.c ****     #if(ADC_SAR_Seq_IRQ_REMOVE == 0u)
 171:.\Generated_Source\PSoC4/ADC_SAR_Seq.c ****         /* Start and set interrupt vector */
 172:.\Generated_Source\PSoC4/ADC_SAR_Seq.c ****         CyIntSetPriority(ADC_SAR_Seq_INTC_NUMBER, ADC_SAR_Seq_INTC_PRIOR_NUMBER);
  33              		.loc 1 172 0
  34 0002 0E20     		mov	r0, #14
  35 0004 0321     		mov	r1, #3
  36 0006 FFF7FEFF 		bl	CyIntSetPriority
  37              	.LVL0:
 173:.\Generated_Source\PSoC4/ADC_SAR_Seq.c ****         (void)CyIntSetVector(ADC_SAR_Seq_INTC_NUMBER, &ADC_SAR_Seq_ISR);
  38              		.loc 1 173 0
  39 000a 0E20     		mov	r0, #14
  40 000c 5149     		ldr	r1, .L14
  41 000e FFF7FEFF 		bl	CyIntSetVector
  42              	.LVL1:
 174:.\Generated_Source\PSoC4/ADC_SAR_Seq.c ****     #endif   /* End ADC_SAR_Seq_IRQ_REMOVE */
 175:.\Generated_Source\PSoC4/ADC_SAR_Seq.c **** 
 176:.\Generated_Source\PSoC4/ADC_SAR_Seq.c ****     /* Init SAR and MUX registers */
 177:.\Generated_Source\PSoC4/ADC_SAR_Seq.c ****     ADC_SAR_Seq_SAR_CHAN_EN_REG = ADC_SAR_Seq_DEFAULT_EN_CHANNELS;
  43              		.loc 1 177 0
  44 0012 0F22     		mov	r2, #15
  45 0014 504B     		ldr	r3, .L14+4
  46 0016 1A60     		str	r2, [r3]
 178:.\Generated_Source\PSoC4/ADC_SAR_Seq.c ****     ADC_SAR_Seq_SAR_CTRL_REG |= ADC_SAR_Seq_DEFAULT_CTRL_REG_CFG | 
 179:.\Generated_Source\PSoC4/ADC_SAR_Seq.c ****         /* Enable the SAR internal pump when global pump is enabled */
 180:.\Generated_Source\PSoC4/ADC_SAR_Seq.c ****         (((ADC_SAR_Seq_PUMP_CTRL_REG & ADC_SAR_Seq_PUMP_CTRL_ENABLED) != 0u) ? 
  47              		.loc 1 180 0
  48 0018 504B     		ldr	r3, .L14+8
ARM GAS  C:\Users\kylep\AppData\Local\Temp\ccmFfMW6.s 			page 5


  49 001a 1B68     		ldr	r3, [r3]
 178:.\Generated_Source\PSoC4/ADC_SAR_Seq.c ****     ADC_SAR_Seq_SAR_CTRL_REG |= ADC_SAR_Seq_DEFAULT_CTRL_REG_CFG | 
  50              		.loc 1 178 0
  51 001c 002B     		cmp	r3, #0
  52 001e 01DA     		bge	.L12
  53 0020 4F49     		ldr	r1, .L14+12
  54 0022 00E0     		b	.L2
  55              	.L12:
  56 0024 4F49     		ldr	r1, .L14+16
  57              	.L2:
 178:.\Generated_Source\PSoC4/ADC_SAR_Seq.c ****     ADC_SAR_Seq_SAR_CTRL_REG |= ADC_SAR_Seq_DEFAULT_CTRL_REG_CFG | 
  58              		.loc 1 178 0 is_stmt 0 discriminator 4
  59 0026 504A     		ldr	r2, .L14+20
  60 0028 1368     		ldr	r3, [r2]
  61 002a 0B43     		orr	r3, r1
  62 002c 1360     		str	r3, [r2]
 181:.\Generated_Source\PSoC4/ADC_SAR_Seq.c ****         ADC_SAR_Seq_BOOSTPUMP_EN : 0u);
 182:.\Generated_Source\PSoC4/ADC_SAR_Seq.c ****     ADC_SAR_Seq_SAR_SAMPLE_CTRL_REG = ADC_SAR_Seq_DEFAULT_SAMPLE_CTRL_REG_CFG;
  63              		.loc 1 182 0 is_stmt 1 discriminator 4
  64 002e 4F4A     		ldr	r2, .L14+24
  65 0030 4F4B     		ldr	r3, .L14+28
  66 0032 1A60     		str	r2, [r3]
 183:.\Generated_Source\PSoC4/ADC_SAR_Seq.c ****     ADC_SAR_Seq_SAR_RANGE_THRES_REG = ADC_SAR_Seq_DEFAULT_RANGE_THRES_REG_CFG;
  67              		.loc 1 183 0 discriminator 4
  68 0034 4F4A     		ldr	r2, .L14+32
  69 0036 504B     		ldr	r3, .L14+36
  70 0038 1A60     		str	r2, [r3]
 184:.\Generated_Source\PSoC4/ADC_SAR_Seq.c ****     ADC_SAR_Seq_SAR_RANGE_COND_REG  = ADC_SAR_Seq_COMPARE_MODE;
  71              		.loc 1 184 0 discriminator 4
  72 003a 0023     		mov	r3, #0
  73 003c 4F4A     		ldr	r2, .L14+40
  74 003e 1360     		str	r3, [r2]
 185:.\Generated_Source\PSoC4/ADC_SAR_Seq.c ****     ADC_SAR_Seq_SAR_SAMPLE_TIME01_REG = ADC_SAR_Seq_DEFAULT_SAMPLE_TIME01_REG_CFG;
  75              		.loc 1 185 0 discriminator 4
  76 0040 4F49     		ldr	r1, .L14+44
  77 0042 504A     		ldr	r2, .L14+48
  78 0044 1160     		str	r1, [r2]
 186:.\Generated_Source\PSoC4/ADC_SAR_Seq.c ****     ADC_SAR_Seq_SAR_SAMPLE_TIME23_REG = ADC_SAR_Seq_DEFAULT_SAMPLE_TIME23_REG_CFG;
  79              		.loc 1 186 0 discriminator 4
  80 0046 5049     		ldr	r1, .L14+52
  81 0048 504A     		ldr	r2, .L14+56
  82 004a 1160     		str	r1, [r2]
 187:.\Generated_Source\PSoC4/ADC_SAR_Seq.c ****     
 188:.\Generated_Source\PSoC4/ADC_SAR_Seq.c ****     /* Connect Vm to VSSA when even one channel is single-ended or multiple channels configured */
 189:.\Generated_Source\PSoC4/ADC_SAR_Seq.c ****     #if(ADC_SAR_Seq_DEFAULT_MUX_SWITCH0 != 0u)
 190:.\Generated_Source\PSoC4/ADC_SAR_Seq.c ****         ADC_SAR_Seq_MUX_SWITCH0_REG |= ADC_SAR_Seq_DEFAULT_MUX_SWITCH0;
  83              		.loc 1 190 0 discriminator 4
  84 004c 504A     		ldr	r2, .L14+60
  85 004e 1168     		ldr	r1, [r2]
  86 0050 8020     		mov	r0, #128
  87 0052 4002     		lsl	r0, r0, #9
  88 0054 0143     		orr	r1, r0
  89 0056 1160     		str	r1, [r2]
 191:.\Generated_Source\PSoC4/ADC_SAR_Seq.c ****         /* Set MUX_HW_CTRL_VSSA in MUX_SWITCH_HW_CTRL when multiple channels enabled */
 192:.\Generated_Source\PSoC4/ADC_SAR_Seq.c ****         #if(ADC_SAR_Seq_TOTAL_CHANNELS_NUM > 1u)
 193:.\Generated_Source\PSoC4/ADC_SAR_Seq.c ****             ADC_SAR_Seq_MUX_SWITCH_HW_CTRL_REG |= ADC_SAR_Seq_DEFAULT_MUX_SWITCH0;
  90              		.loc 1 193 0 discriminator 4
ARM GAS  C:\Users\kylep\AppData\Local\Temp\ccmFfMW6.s 			page 6


  91 0058 4E49     		ldr	r1, .L14+64
  92 005a 0A68     		ldr	r2, [r1]
  93 005c 0243     		orr	r2, r0
  94 005e 0A60     		str	r2, [r1]
 194:.\Generated_Source\PSoC4/ADC_SAR_Seq.c ****         #endif /* ADC_SAR_Seq_TOTAL_CHANNELS_NUM > 1u */
 195:.\Generated_Source\PSoC4/ADC_SAR_Seq.c ****     #endif /*ADC_SAR_Seq_CHANNELS_MODE !=0 */
 196:.\Generated_Source\PSoC4/ADC_SAR_Seq.c **** 
 197:.\Generated_Source\PSoC4/ADC_SAR_Seq.c ****     ADC_SAR_Seq_SAR_SATURATE_INTR_MASK_REG = 0u;
  95              		.loc 1 197 0 discriminator 4
  96 0060 4D4A     		ldr	r2, .L14+68
  97 0062 1360     		str	r3, [r2]
 198:.\Generated_Source\PSoC4/ADC_SAR_Seq.c ****     ADC_SAR_Seq_SAR_RANGE_INTR_MASK_REG = 0u;
  98              		.loc 1 198 0 discriminator 4
  99 0064 4D4A     		ldr	r2, .L14+72
 100 0066 1360     		str	r3, [r2]
 199:.\Generated_Source\PSoC4/ADC_SAR_Seq.c ****     ADC_SAR_Seq_SAR_INTR_MASK_REG = ADC_SAR_Seq_SAR_INTR_MASK;
 101              		.loc 1 199 0 discriminator 4
 102 0068 1122     		mov	r2, #17
 103 006a 4D4B     		ldr	r3, .L14+76
 104 006c 1A60     		str	r2, [r3]
 200:.\Generated_Source\PSoC4/ADC_SAR_Seq.c **** 
 201:.\Generated_Source\PSoC4/ADC_SAR_Seq.c ****     #if(ADC_SAR_Seq_CY_SAR_IP_VER == ADC_SAR_Seq_CY_SAR_IP_VER0)
 202:.\Generated_Source\PSoC4/ADC_SAR_Seq.c ****         ADC_SAR_Seq_ANA_TRIM_REG = ADC_SAR_Seq_TRIM_COEF;
 105              		.loc 1 202 0 discriminator 4
 106 006e 0F3A     		sub	r2, r2, #15
 107 0070 4C4B     		ldr	r3, .L14+80
 108 0072 1A60     		str	r2, [r3]
 203:.\Generated_Source\PSoC4/ADC_SAR_Seq.c ****     #endif /* (ADC_SAR_Seq_CY_SAR_IP_VER == ADC_SAR_Seq_CY_SAR_IP_VER0) */
 204:.\Generated_Source\PSoC4/ADC_SAR_Seq.c **** 
 205:.\Generated_Source\PSoC4/ADC_SAR_Seq.c ****     /* Read and modify default configuration based on characterization */
 206:.\Generated_Source\PSoC4/ADC_SAR_Seq.c ****     tmpRegVal = ADC_SAR_Seq_SAR_DFT_CTRL_REG;
 109              		.loc 1 206 0 discriminator 4
 110 0074 4C49     		ldr	r1, .L14+84
 111 0076 0A68     		ldr	r2, [r1]
 112              	.LVL2:
 207:.\Generated_Source\PSoC4/ADC_SAR_Seq.c ****     tmpRegVal &= (uint32)~ADC_SAR_Seq_DCEN;
 113              		.loc 1 207 0 discriminator 4
 114 0078 4C4B     		ldr	r3, .L14+88
 115 007a 1340     		and	r3, r2
 116              	.LVL3:
 208:.\Generated_Source\PSoC4/ADC_SAR_Seq.c ****     
 209:.\Generated_Source\PSoC4/ADC_SAR_Seq.c ****     #if(ADC_SAR_Seq_CY_SAR_IP_VER == ADC_SAR_Seq_CY_SAR_IP_VER0)
 210:.\Generated_Source\PSoC4/ADC_SAR_Seq.c ****         #if(ADC_SAR_Seq_NOMINAL_CLOCK_FREQ > (ADC_SAR_Seq_MAX_FREQUENCY / 2))
 211:.\Generated_Source\PSoC4/ADC_SAR_Seq.c ****             tmpRegVal |= ADC_SAR_Seq_SEL_CSEL_DFT_CHAR;
 212:.\Generated_Source\PSoC4/ADC_SAR_Seq.c ****         #else  /* clock speed < 9 Mhz */
 213:.\Generated_Source\PSoC4/ADC_SAR_Seq.c ****             tmpRegVal |= ADC_SAR_Seq_DLY_INC;
 117              		.loc 1 213 0 discriminator 4
 118 007c 0122     		mov	r2, #1
 119 007e 1343     		orr	r3, r2
 120              	.LVL4:
 214:.\Generated_Source\PSoC4/ADC_SAR_Seq.c ****         #endif /* clock speed > 9 Mhz */
 215:.\Generated_Source\PSoC4/ADC_SAR_Seq.c ****     #else
 216:.\Generated_Source\PSoC4/ADC_SAR_Seq.c ****         #if ((ADC_SAR_Seq_DEFAULT_VREF_SEL == ADC_SAR_Seq__INTERNAL1024) || \
 217:.\Generated_Source\PSoC4/ADC_SAR_Seq.c ****              (ADC_SAR_Seq_DEFAULT_VREF_SEL == ADC_SAR_Seq__INTERNALVREF))
 218:.\Generated_Source\PSoC4/ADC_SAR_Seq.c ****             tmpRegVal |= ADC_SAR_Seq_DLY_INC;
 219:.\Generated_Source\PSoC4/ADC_SAR_Seq.c ****         #else
 220:.\Generated_Source\PSoC4/ADC_SAR_Seq.c ****             tmpRegVal |= ADC_SAR_Seq_DCEN;
ARM GAS  C:\Users\kylep\AppData\Local\Temp\ccmFfMW6.s 			page 7


 221:.\Generated_Source\PSoC4/ADC_SAR_Seq.c ****             tmpRegVal &= (uint32)~ADC_SAR_Seq_DLY_INC;
 222:.\Generated_Source\PSoC4/ADC_SAR_Seq.c ****         #endif /* ((ADC_SAR_Seq_DEFAULT_VREF_SEL == ADC_SAR_Seq__INTERNAL1024) || \
 223:.\Generated_Source\PSoC4/ADC_SAR_Seq.c ****                    (ADC_SAR_Seq_DEFAULT_VREF_SEL == ADC_SAR_Seq__INTERNALVREF)) */
 224:.\Generated_Source\PSoC4/ADC_SAR_Seq.c ****     #endif /* (ADC_SAR_Seq_CY_SAR_IP_VER == ADC_SAR_Seq_CY_SAR_IP_VER0) */
 225:.\Generated_Source\PSoC4/ADC_SAR_Seq.c ****     
 226:.\Generated_Source\PSoC4/ADC_SAR_Seq.c ****     ADC_SAR_Seq_SAR_DFT_CTRL_REG = tmpRegVal;
 121              		.loc 1 226 0 discriminator 4
 122 0080 0B60     		str	r3, [r1]
 123              	.LVL5:
 227:.\Generated_Source\PSoC4/ADC_SAR_Seq.c **** 
 228:.\Generated_Source\PSoC4/ADC_SAR_Seq.c ****     #if(ADC_SAR_Seq_MAX_RESOLUTION != ADC_SAR_Seq_RESOLUTION_12)
 229:.\Generated_Source\PSoC4/ADC_SAR_Seq.c ****         ADC_SAR_Seq_WOUNDING_REG = ADC_SAR_Seq_ALT_WOUNDING;
 230:.\Generated_Source\PSoC4/ADC_SAR_Seq.c ****     #endif /* ADC_SAR_Seq_MAX_RESOLUTION != ADC_SAR_Seq_RESOLUTION_12 */
 231:.\Generated_Source\PSoC4/ADC_SAR_Seq.c **** 
 232:.\Generated_Source\PSoC4/ADC_SAR_Seq.c ****     for(chNum = 0u; chNum < ADC_SAR_Seq_TOTAL_CHANNELS_NUM; chNum++)
 124              		.loc 1 232 0 discriminator 4
 125 0082 0024     		mov	r4, #0
 126 0084 63E0     		b	.L3
 127              	.LVL6:
 128              	.L11:
 233:.\Generated_Source\PSoC4/ADC_SAR_Seq.c ****     {
 234:.\Generated_Source\PSoC4/ADC_SAR_Seq.c ****         tmpRegVal = (ADC_SAR_Seq_channelsConfig[chNum] & ADC_SAR_Seq_CHANNEL_CONFIG_MASK);
 129              		.loc 1 234 0
 130 0086 4A4A     		ldr	r2, .L14+92
 131 0088 A300     		lsl	r3, r4, #2
 132 008a 9958     		ldr	r1, [r3, r2]
 133 008c DC23     		mov	r3, #220
 134 008e 9B01     		lsl	r3, r3, #6
 135 0090 0B40     		and	r3, r1
 136              	.LVL7:
 235:.\Generated_Source\PSoC4/ADC_SAR_Seq.c ****         #if(ADC_SAR_Seq_TOTAL_CHANNELS_NUM > 1u)
 236:.\Generated_Source\PSoC4/ADC_SAR_Seq.c ****             tmpRegVal |= ADC_SAR_Seq_InputsPlacement[chNum];
 137              		.loc 1 236 0
 138 0092 1219     		add	r2, r2, r4
 139 0094 127D     		ldrb	r2, [r2, #20]
 140 0096 1343     		orr	r3, r2
 141              	.LVL8:
 237:.\Generated_Source\PSoC4/ADC_SAR_Seq.c ****         #endif /* End ADC_SAR_Seq_TOTAL_CHANNELS_NUM > 1u */
 238:.\Generated_Source\PSoC4/ADC_SAR_Seq.c ****         
 239:.\Generated_Source\PSoC4/ADC_SAR_Seq.c ****         
 240:.\Generated_Source\PSoC4/ADC_SAR_Seq.c ****         /* When the part is limited to 10-bit then the SUB_RESOLUTION bit
 241:.\Generated_Source\PSoC4/ADC_SAR_Seq.c ****         *  will be ignored and the RESOLUTION bit selects between 10-bit
 242:.\Generated_Source\PSoC4/ADC_SAR_Seq.c ****         *  (0) and 8-bit (1) resolution.
 243:.\Generated_Source\PSoC4/ADC_SAR_Seq.c ****         */
 244:.\Generated_Source\PSoC4/ADC_SAR_Seq.c ****         #if((ADC_SAR_Seq_MAX_RESOLUTION != ADC_SAR_Seq_RESOLUTION_12) && \
 245:.\Generated_Source\PSoC4/ADC_SAR_Seq.c ****             (ADC_SAR_Seq_ALT_WOUNDING == ADC_SAR_Seq_WOUNDING_10BIT))
 246:.\Generated_Source\PSoC4/ADC_SAR_Seq.c ****             tmpRegVal &= (uint32)(~ADC_SAR_Seq_ALT_RESOLUTION_ON);
 247:.\Generated_Source\PSoC4/ADC_SAR_Seq.c ****         #endif /* ADC_SAR_Seq_MAX_RESOLUTION != ADC_SAR_Seq_RESOLUTION_12 */
 248:.\Generated_Source\PSoC4/ADC_SAR_Seq.c **** 
 249:.\Generated_Source\PSoC4/ADC_SAR_Seq.c ****         #if(ADC_SAR_Seq_INJ_CHANNEL_ENABLED)
 250:.\Generated_Source\PSoC4/ADC_SAR_Seq.c ****         if(chNum < ADC_SAR_Seq_SEQUENCED_CHANNELS_NUM)
 142              		.loc 1 250 0
 143 0098 032C     		cmp	r4, #3
 144 009a 1ED8     		bhi	.L4
 251:.\Generated_Source\PSoC4/ADC_SAR_Seq.c ****         #endif /* ADC_SAR_Seq_INJ_CHANNEL_ENABLED */
 252:.\Generated_Source\PSoC4/ADC_SAR_Seq.c ****         {
 253:.\Generated_Source\PSoC4/ADC_SAR_Seq.c ****             CY_SET_REG32((reg32 *)(ADC_SAR_Seq_SAR_CHAN_CONFIG_IND + (uint32)(chNum << 2)), tmpRegV
ARM GAS  C:\Users\kylep\AppData\Local\Temp\ccmFfMW6.s 			page 8


 145              		.loc 1 253 0
 146 009c A200     		lsl	r2, r4, #2
 147 009e 4548     		ldr	r0, .L14+96
 148 00a0 8446     		mov	ip, r0
 149 00a2 6244     		add	r2, r2, ip
 150 00a4 1360     		str	r3, [r2]
 254:.\Generated_Source\PSoC4/ADC_SAR_Seq.c **** 
 255:.\Generated_Source\PSoC4/ADC_SAR_Seq.c ****             if((ADC_SAR_Seq_channelsConfig[chNum] & ADC_SAR_Seq_IS_SATURATE_EN_MASK) != 0u)
 151              		.loc 1 255 0
 152 00a6 CB07     		lsl	r3, r1, #31
 153 00a8 08D5     		bpl	.L5
 154              	.LVL9:
 256:.\Generated_Source\PSoC4/ADC_SAR_Seq.c ****             {
 257:.\Generated_Source\PSoC4/ADC_SAR_Seq.c ****                 ADC_SAR_Seq_SAR_SATURATE_INTR_MASK_REG |= (uint16)((uint16)1 << chNum);
 155              		.loc 1 257 0
 156 00aa 3B49     		ldr	r1, .L14+68
 157 00ac 0868     		ldr	r0, [r1]
 158 00ae 8022     		mov	r2, #128
 159              	.LVL10:
 160 00b0 5202     		lsl	r2, r2, #9
 161 00b2 131C     		mov	r3, r2
 162 00b4 A340     		lsl	r3, r3, r4
 163 00b6 1B0C     		lsr	r3, r3, #16
 164 00b8 0343     		orr	r3, r0
 165 00ba 0B60     		str	r3, [r1]
 166              	.LVL11:
 167              	.L5:
 258:.\Generated_Source\PSoC4/ADC_SAR_Seq.c ****             }
 259:.\Generated_Source\PSoC4/ADC_SAR_Seq.c **** 
 260:.\Generated_Source\PSoC4/ADC_SAR_Seq.c ****             if((ADC_SAR_Seq_channelsConfig[chNum] & ADC_SAR_Seq_IS_RANGE_CTRL_EN_MASK) != 0u)
 168              		.loc 1 260 0
 169 00bc A300     		lsl	r3, r4, #2
 170 00be 3C4A     		ldr	r2, .L14+92
 171              	.LVL12:
 172 00c0 9B58     		ldr	r3, [r3, r2]
 173 00c2 9B07     		lsl	r3, r3, #30
 174 00c4 22D5     		bpl	.L6
 261:.\Generated_Source\PSoC4/ADC_SAR_Seq.c ****             {
 262:.\Generated_Source\PSoC4/ADC_SAR_Seq.c ****                 ADC_SAR_Seq_SAR_RANGE_INTR_MASK_REG |= (uint16)((uint16)1 << chNum);
 175              		.loc 1 262 0
 176 00c6 3549     		ldr	r1, .L14+72
 177 00c8 0868     		ldr	r0, [r1]
 178 00ca 8022     		mov	r2, #128
 179              	.LVL13:
 180 00cc 5202     		lsl	r2, r2, #9
 181 00ce 131C     		mov	r3, r2
 182 00d0 A340     		lsl	r3, r3, r4
 183 00d2 1B0C     		lsr	r3, r3, #16
 184 00d4 0343     		orr	r3, r0
 185 00d6 0B60     		str	r3, [r1]
 186 00d8 18E0     		b	.L6
 187              	.LVL14:
 188              	.L4:
 263:.\Generated_Source\PSoC4/ADC_SAR_Seq.c ****             }
 264:.\Generated_Source\PSoC4/ADC_SAR_Seq.c ****         }
 265:.\Generated_Source\PSoC4/ADC_SAR_Seq.c ****         #if(ADC_SAR_Seq_INJ_CHANNEL_ENABLED)
 266:.\Generated_Source\PSoC4/ADC_SAR_Seq.c ****             else
ARM GAS  C:\Users\kylep\AppData\Local\Temp\ccmFfMW6.s 			page 9


 267:.\Generated_Source\PSoC4/ADC_SAR_Seq.c ****             {
 268:.\Generated_Source\PSoC4/ADC_SAR_Seq.c ****                 CY_SET_REG32(ADC_SAR_Seq_SAR_INJ_CHAN_CONFIG_PTR, tmpRegVal | ADC_SAR_Seq_INJ_TAILG
 189              		.loc 1 268 0
 190 00da 8022     		mov	r2, #128
 191 00dc D205     		lsl	r2, r2, #23
 192 00de 1343     		orr	r3, r2
 193              	.LVL15:
 194 00e0 354A     		ldr	r2, .L14+100
 195 00e2 1360     		str	r3, [r2]
 269:.\Generated_Source\PSoC4/ADC_SAR_Seq.c **** 
 270:.\Generated_Source\PSoC4/ADC_SAR_Seq.c ****                 if((ADC_SAR_Seq_channelsConfig[chNum] & ADC_SAR_Seq_IS_SATURATE_EN_MASK) != 0u)
 196              		.loc 1 270 0
 197 00e4 A300     		lsl	r3, r4, #2
 198 00e6 324A     		ldr	r2, .L14+92
 199              	.LVL16:
 200 00e8 9B58     		ldr	r3, [r3, r2]
 201 00ea DB07     		lsl	r3, r3, #31
 202 00ec 04D5     		bpl	.L7
 271:.\Generated_Source\PSoC4/ADC_SAR_Seq.c ****                 {
 272:.\Generated_Source\PSoC4/ADC_SAR_Seq.c ****                     ADC_SAR_Seq_SAR_INTR_MASK_REG |= ADC_SAR_Seq_INJ_SATURATE_MASK;
 203              		.loc 1 272 0
 204 00ee 2C4A     		ldr	r2, .L14+76
 205              	.LVL17:
 206 00f0 1168     		ldr	r1, [r2]
 207              	.LVL18:
 208 00f2 2023     		mov	r3, #32
 209 00f4 0B43     		orr	r3, r1
 210 00f6 1360     		str	r3, [r2]
 211              	.L7:
 273:.\Generated_Source\PSoC4/ADC_SAR_Seq.c ****                 }
 274:.\Generated_Source\PSoC4/ADC_SAR_Seq.c **** 
 275:.\Generated_Source\PSoC4/ADC_SAR_Seq.c ****                 if((ADC_SAR_Seq_channelsConfig[chNum] & ADC_SAR_Seq_IS_RANGE_CTRL_EN_MASK) != 0u)
 212              		.loc 1 275 0
 213 00f8 A300     		lsl	r3, r4, #2
 214 00fa 2D4A     		ldr	r2, .L14+92
 215              	.LVL19:
 216 00fc 9B58     		ldr	r3, [r3, r2]
 217 00fe 9B07     		lsl	r3, r3, #30
 218 0100 04D5     		bpl	.L6
 276:.\Generated_Source\PSoC4/ADC_SAR_Seq.c ****                 {
 277:.\Generated_Source\PSoC4/ADC_SAR_Seq.c ****                     ADC_SAR_Seq_SAR_INTR_MASK_REG |= ADC_SAR_Seq_INJ_RANGE_MASK;
 219              		.loc 1 277 0
 220 0102 274A     		ldr	r2, .L14+76
 221              	.LVL20:
 222 0104 1168     		ldr	r1, [r2]
 223 0106 4023     		mov	r3, #64
 224 0108 0B43     		orr	r3, r1
 225 010a 1360     		str	r3, [r2]
 226              	.L6:
 278:.\Generated_Source\PSoC4/ADC_SAR_Seq.c ****                 }
 279:.\Generated_Source\PSoC4/ADC_SAR_Seq.c ****             }
 280:.\Generated_Source\PSoC4/ADC_SAR_Seq.c ****         #endif /* ADC_SAR_Seq_INJ_CHANNEL_ENABLED */
 281:.\Generated_Source\PSoC4/ADC_SAR_Seq.c **** 
 282:.\Generated_Source\PSoC4/ADC_SAR_Seq.c ****         if((ADC_SAR_Seq_channelsConfig[chNum] & ADC_SAR_Seq_ALT_RESOLUTION_ON) != 0u)
 227              		.loc 1 282 0
 228 010c A300     		lsl	r3, r4, #2
 229 010e 284A     		ldr	r2, .L14+92
ARM GAS  C:\Users\kylep\AppData\Local\Temp\ccmFfMW6.s 			page 10


 230              	.LVL21:
 231 0110 9B58     		ldr	r3, [r3, r2]
 232 0112 9A05     		lsl	r2, r3, #22
 233 0114 02D5     		bpl	.L13
 234              	.LVL22:
 283:.\Generated_Source\PSoC4/ADC_SAR_Seq.c ****         {
 284:.\Generated_Source\PSoC4/ADC_SAR_Seq.c ****                counts = (int32)ADC_SAR_Seq_DEFAULT_MAX_WRK_ALT;
 235              		.loc 1 284 0
 236 0116 8020     		mov	r0, #128
 237 0118 4000     		lsl	r0, r0, #1
 238 011a 01E0     		b	.L8
 239              	.L13:
 285:.\Generated_Source\PSoC4/ADC_SAR_Seq.c ****         }
 286:.\Generated_Source\PSoC4/ADC_SAR_Seq.c ****         else
 287:.\Generated_Source\PSoC4/ADC_SAR_Seq.c ****         {
 288:.\Generated_Source\PSoC4/ADC_SAR_Seq.c ****                counts = (int32)ADC_SAR_Seq_SAR_WRK_MAX_12BIT;
 240              		.loc 1 288 0
 241 011c 8020     		mov	r0, #128
 242 011e 4001     		lsl	r0, r0, #5
 243              	.L8:
 244              	.LVL23:
 289:.\Generated_Source\PSoC4/ADC_SAR_Seq.c ****         }
 290:.\Generated_Source\PSoC4/ADC_SAR_Seq.c **** 
 291:.\Generated_Source\PSoC4/ADC_SAR_Seq.c ****         if((ADC_SAR_Seq_channelsConfig[chNum] & ADC_SAR_Seq_DIFFERENTIAL_EN) == 0u)
 245              		.loc 1 291 0
 246 0120 DB05     		lsl	r3, r3, #23
 247 0122 04D4     		bmi	.L9
 292:.\Generated_Source\PSoC4/ADC_SAR_Seq.c ****         {
 293:.\Generated_Source\PSoC4/ADC_SAR_Seq.c ****             #if((ADC_SAR_Seq_DEFAULT_SE_RESULT_FORMAT_SEL == ADC_SAR_Seq__FSIGNED) && \
 294:.\Generated_Source\PSoC4/ADC_SAR_Seq.c ****                 (ADC_SAR_Seq_DEFAULT_NEG_INPUT_SEL == ADC_SAR_Seq__VREF))
 295:.\Generated_Source\PSoC4/ADC_SAR_Seq.c ****                 /* Set offset to the minus half scale to convert results to unsigned format */
 296:.\Generated_Source\PSoC4/ADC_SAR_Seq.c ****                 ADC_SAR_Seq_offset[chNum] = (int16)(counts / -2);
 297:.\Generated_Source\PSoC4/ADC_SAR_Seq.c ****             #else
 298:.\Generated_Source\PSoC4/ADC_SAR_Seq.c ****                 ADC_SAR_Seq_offset[chNum] = 0;
 248              		.loc 1 298 0
 249 0124 6300     		lsl	r3, r4, #1
 250 0126 0021     		mov	r1, #0
 251 0128 244A     		ldr	r2, .L14+104
 252 012a 9952     		strh	r1, [r3, r2]
 253 012c 03E0     		b	.L10
 254              	.L9:
 299:.\Generated_Source\PSoC4/ADC_SAR_Seq.c ****             #endif /* end DEFAULT_SE_RESULT_FORMAT_SEL == ADC_SAR_Seq__FSIGNED */
 300:.\Generated_Source\PSoC4/ADC_SAR_Seq.c ****         }
 301:.\Generated_Source\PSoC4/ADC_SAR_Seq.c ****         else    /* Differential channel */
 302:.\Generated_Source\PSoC4/ADC_SAR_Seq.c ****         {
 303:.\Generated_Source\PSoC4/ADC_SAR_Seq.c ****             #if(ADC_SAR_Seq_DEFAULT_DIFF_RESULT_FORMAT_SEL == ADC_SAR_Seq__FUNSIGNED)
 304:.\Generated_Source\PSoC4/ADC_SAR_Seq.c ****                 /* Set offset to the half scale to convert results to signed format */
 305:.\Generated_Source\PSoC4/ADC_SAR_Seq.c ****                 ADC_SAR_Seq_offset[chNum] = (int16)(counts / 2);
 255              		.loc 1 305 0
 256 012e 4208     		lsr	r2, r0, #1
 257 0130 6300     		lsl	r3, r4, #1
 258 0132 2249     		ldr	r1, .L14+104
 259 0134 5A52     		strh	r2, [r3, r1]
 260              	.L10:
 306:.\Generated_Source\PSoC4/ADC_SAR_Seq.c ****             #else
 307:.\Generated_Source\PSoC4/ADC_SAR_Seq.c ****                 ADC_SAR_Seq_offset[chNum] = 0;
 308:.\Generated_Source\PSoC4/ADC_SAR_Seq.c ****             #endif /* end ADC_SAR_Seq_DEFAULT_DIFF_RESULT_FORMAT_SEL == ADC_SAR_Seq__FUNSIGNED */
ARM GAS  C:\Users\kylep\AppData\Local\Temp\ccmFfMW6.s 			page 11


 309:.\Generated_Source\PSoC4/ADC_SAR_Seq.c ****         }
 310:.\Generated_Source\PSoC4/ADC_SAR_Seq.c ****         /* Calculate gain in counts per 10 volts with rounding */
 311:.\Generated_Source\PSoC4/ADC_SAR_Seq.c ****         ADC_SAR_Seq_countsPer10Volt[chNum] = (int16)(((counts * ADC_SAR_Seq_10MV_COUNTS) +
 261              		.loc 1 311 0 discriminator 2
 262 0136 2249     		ldr	r1, .L14+108
 263 0138 4843     		mul	r0, r1
 264              	.LVL24:
 265 013a 224B     		ldr	r3, .L14+112
 266 013c 9C46     		mov	ip, r3
 267 013e 6044     		add	r0, r0, ip
 312:.\Generated_Source\PSoC4/ADC_SAR_Seq.c ****                             ADC_SAR_Seq_DEFAULT_VREF_MV_VALUE) / (ADC_SAR_Seq_DEFAULT_VREF_MV_VALUE
 268              		.loc 1 312 0 discriminator 2
 269 0140 FFF7FEFF 		bl	__aeabi_idiv
 270              	.LVL25:
 311:.\Generated_Source\PSoC4/ADC_SAR_Seq.c ****                             ADC_SAR_Seq_DEFAULT_VREF_MV_VALUE) / (ADC_SAR_Seq_DEFAULT_VREF_MV_VALUE
 271              		.loc 1 311 0 discriminator 2
 272 0144 00B2     		sxth	r0, r0
 273 0146 A200     		lsl	r2, r4, #2
 274 0148 1F4B     		ldr	r3, .L14+116
 275 014a D050     		str	r0, [r2, r3]
 232:.\Generated_Source\PSoC4/ADC_SAR_Seq.c ****     {
 276              		.loc 1 232 0 discriminator 2
 277 014c 0134     		add	r4, r4, #1
 278              	.LVL26:
 279              	.L3:
 232:.\Generated_Source\PSoC4/ADC_SAR_Seq.c ****     {
 280              		.loc 1 232 0 is_stmt 0 discriminator 1
 281 014e 042C     		cmp	r4, #4
 282 0150 99D9     		bls	.L11
 313:.\Generated_Source\PSoC4/ADC_SAR_Seq.c ****     }
 314:.\Generated_Source\PSoC4/ADC_SAR_Seq.c **** }
 283              		.loc 1 314 0 is_stmt 1
 284              		@ sp needed
 285              	.LVL27:
 286 0152 10BD     		pop	{r4, pc}
 287              	.L15:
 288              		.align	2
 289              	.L14:
 290 0154 00000000 		.word	ADC_SAR_Seq_ISR
 291 0158 20001A40 		.word	1075445792
 292 015c 80031A40 		.word	1075446656
 293 0160 70201011 		.word	286269552
 294 0164 70200011 		.word	285220976
 295 0168 00001A40 		.word	1075445760
 296 016c A4000080 		.word	-2147483484
 297 0170 04001A40 		.word	1075445764
 298 0174 0000FF0F 		.word	268369920
 299 0178 18001A40 		.word	1075445784
 300 017c 1C001A40 		.word	1075445788
 301 0180 02000200 		.word	131074
 302 0184 10001A40 		.word	1075445776
 303 0188 0200FF03 		.word	67043330
 304 018c 14001A40 		.word	1075445780
 305 0190 00031A40 		.word	1075446528
 306 0194 40031A40 		.word	1075446592
 307 0198 28021A40 		.word	1075446312
 308 019c 38021A40 		.word	1075446328
ARM GAS  C:\Users\kylep\AppData\Local\Temp\ccmFfMW6.s 			page 12


 309 01a0 18021A40 		.word	1075446296
 310 01a4 000F1A40 		.word	1075449600
 311 01a8 30001A40 		.word	1075445808
 312 01ac FFFFFFDF 		.word	-536870913
 313 01b0 00000000 		.word	.LANCHOR0
 314 01b4 80001A40 		.word	1075445888
 315 01b8 80021A40 		.word	1075446400
 316 01bc 00000000 		.word	ADC_SAR_Seq_offset
 317 01c0 10270000 		.word	10000
 318 01c4 88130000 		.word	5000
 319 01c8 00000000 		.word	ADC_SAR_Seq_countsPer10Volt
 320              		.cfi_endproc
 321              	.LFE1:
 322              		.size	ADC_SAR_Seq_Init, .-ADC_SAR_Seq_Init
 323              		.section	.text.ADC_SAR_Seq_Enable,"ax",%progbits
 324              		.align	2
 325              		.global	ADC_SAR_Seq_Enable
 326              		.code	16
 327              		.thumb_func
 328              		.type	ADC_SAR_Seq_Enable, %function
 329              	ADC_SAR_Seq_Enable:
 330              	.LFB2:
 315:.\Generated_Source\PSoC4/ADC_SAR_Seq.c **** 
 316:.\Generated_Source\PSoC4/ADC_SAR_Seq.c **** /*******************************************************************************
 317:.\Generated_Source\PSoC4/ADC_SAR_Seq.c **** * Function Name: ADC_SAR_1_Enable
 318:.\Generated_Source\PSoC4/ADC_SAR_Seq.c **** ********************************************************************************
 319:.\Generated_Source\PSoC4/ADC_SAR_Seq.c **** *
 320:.\Generated_Source\PSoC4/ADC_SAR_Seq.c **** * Summary:
 321:.\Generated_Source\PSoC4/ADC_SAR_Seq.c **** *  Enables the clock and analog power for SAR ADC.
 322:.\Generated_Source\PSoC4/ADC_SAR_Seq.c **** *
 323:.\Generated_Source\PSoC4/ADC_SAR_Seq.c **** * Parameters:
 324:.\Generated_Source\PSoC4/ADC_SAR_Seq.c **** *  None.
 325:.\Generated_Source\PSoC4/ADC_SAR_Seq.c **** *
 326:.\Generated_Source\PSoC4/ADC_SAR_Seq.c **** * Return:
 327:.\Generated_Source\PSoC4/ADC_SAR_Seq.c **** *  None.
 328:.\Generated_Source\PSoC4/ADC_SAR_Seq.c **** *
 329:.\Generated_Source\PSoC4/ADC_SAR_Seq.c **** *******************************************************************************/
 330:.\Generated_Source\PSoC4/ADC_SAR_Seq.c **** void ADC_SAR_Seq_Enable(void)
 331:.\Generated_Source\PSoC4/ADC_SAR_Seq.c **** {
 331              		.loc 1 331 0
 332              		.cfi_startproc
 333 0000 08B5     		push	{r3, lr}
 334              		.cfi_def_cfa_offset 8
 335              		.cfi_offset 3, -8
 336              		.cfi_offset 14, -4
 332:.\Generated_Source\PSoC4/ADC_SAR_Seq.c ****     if (0u == (ADC_SAR_Seq_SAR_CTRL_REG & ADC_SAR_Seq_ENABLE))
 337              		.loc 1 332 0
 338 0002 074B     		ldr	r3, .L18
 339 0004 1B68     		ldr	r3, [r3]
 340 0006 002B     		cmp	r3, #0
 341 0008 08DB     		blt	.L16
 333:.\Generated_Source\PSoC4/ADC_SAR_Seq.c ****     {
 334:.\Generated_Source\PSoC4/ADC_SAR_Seq.c ****         #if(ADC_SAR_Seq_CY_SAR_IP_VER != ADC_SAR_Seq_CY_SAR_IP_VER0)
 335:.\Generated_Source\PSoC4/ADC_SAR_Seq.c **** 
 336:.\Generated_Source\PSoC4/ADC_SAR_Seq.c ****             while (0u != (ADC_SAR_Seq_SAR_STATUS_REG & ADC_SAR_Seq_STATUS_BUSY))
 337:.\Generated_Source\PSoC4/ADC_SAR_Seq.c ****             {
 338:.\Generated_Source\PSoC4/ADC_SAR_Seq.c ****                 /* wait for SAR to go idle to avoid deadlock */
ARM GAS  C:\Users\kylep\AppData\Local\Temp\ccmFfMW6.s 			page 13


 339:.\Generated_Source\PSoC4/ADC_SAR_Seq.c ****             }
 340:.\Generated_Source\PSoC4/ADC_SAR_Seq.c ****         #endif /* (ADC_SAR_Seq_CY_SAR_IP_VER != ADC_SAR_Seq_CY_SAR_IP_VER0) */
 341:.\Generated_Source\PSoC4/ADC_SAR_Seq.c ****         
 342:.\Generated_Source\PSoC4/ADC_SAR_Seq.c ****         ADC_SAR_Seq_SAR_CTRL_REG |= ADC_SAR_Seq_ENABLE;
 342              		.loc 1 342 0
 343 000a 054A     		ldr	r2, .L18
 344 000c 1368     		ldr	r3, [r2]
 345 000e 8021     		mov	r1, #128
 346 0010 0906     		lsl	r1, r1, #24
 347 0012 0B43     		orr	r3, r1
 348 0014 1360     		str	r3, [r2]
 343:.\Generated_Source\PSoC4/ADC_SAR_Seq.c ****         
 344:.\Generated_Source\PSoC4/ADC_SAR_Seq.c ****         /* The block is ready to use 10 us after the enable signal is set high. */
 345:.\Generated_Source\PSoC4/ADC_SAR_Seq.c ****         CyDelayUs(ADC_SAR_Seq_10US_DELAY);         
 349              		.loc 1 345 0
 350 0016 0A20     		mov	r0, #10
 351 0018 FFF7FEFF 		bl	CyDelayUs
 352              	.LVL28:
 353              	.L16:
 346:.\Generated_Source\PSoC4/ADC_SAR_Seq.c ****     }
 347:.\Generated_Source\PSoC4/ADC_SAR_Seq.c **** }
 354              		.loc 1 347 0
 355              		@ sp needed
 356 001c 08BD     		pop	{r3, pc}
 357              	.L19:
 358 001e C046     		.align	2
 359              	.L18:
 360 0020 00001A40 		.word	1075445760
 361              		.cfi_endproc
 362              	.LFE2:
 363              		.size	ADC_SAR_Seq_Enable, .-ADC_SAR_Seq_Enable
 364              		.section	.text.ADC_SAR_Seq_Start,"ax",%progbits
 365              		.align	2
 366              		.global	ADC_SAR_Seq_Start
 367              		.code	16
 368              		.thumb_func
 369              		.type	ADC_SAR_Seq_Start, %function
 370              	ADC_SAR_Seq_Start:
 371              	.LFB0:
  64:.\Generated_Source\PSoC4/ADC_SAR_Seq.c ****     /* If not Initialized then initialize all required hardware and software */
 372              		.loc 1 64 0
 373              		.cfi_startproc
 374 0000 08B5     		push	{r3, lr}
 375              		.cfi_def_cfa_offset 8
 376              		.cfi_offset 3, -8
 377              		.cfi_offset 14, -4
  66:.\Generated_Source\PSoC4/ADC_SAR_Seq.c ****     {
 378              		.loc 1 66 0
 379 0002 064B     		ldr	r3, .L22
 380 0004 1B78     		ldrb	r3, [r3]
 381 0006 002B     		cmp	r3, #0
 382 0008 04D1     		bne	.L21
  68:.\Generated_Source\PSoC4/ADC_SAR_Seq.c ****         ADC_SAR_Seq_initVar = 1u;
 383              		.loc 1 68 0
 384 000a FFF7FEFF 		bl	ADC_SAR_Seq_Init
 385              	.LVL29:
  69:.\Generated_Source\PSoC4/ADC_SAR_Seq.c ****     }
ARM GAS  C:\Users\kylep\AppData\Local\Temp\ccmFfMW6.s 			page 14


 386              		.loc 1 69 0
 387 000e 0122     		mov	r2, #1
 388 0010 024B     		ldr	r3, .L22
 389 0012 1A70     		strb	r2, [r3]
 390              	.L21:
  71:.\Generated_Source\PSoC4/ADC_SAR_Seq.c **** }
 391              		.loc 1 71 0
 392 0014 FFF7FEFF 		bl	ADC_SAR_Seq_Enable
 393              	.LVL30:
  72:.\Generated_Source\PSoC4/ADC_SAR_Seq.c **** 
 394              		.loc 1 72 0
 395              		@ sp needed
 396 0018 08BD     		pop	{r3, pc}
 397              	.L23:
 398 001a C046     		.align	2
 399              	.L22:
 400 001c 00000000 		.word	.LANCHOR1
 401              		.cfi_endproc
 402              	.LFE0:
 403              		.size	ADC_SAR_Seq_Start, .-ADC_SAR_Seq_Start
 404              		.section	.text.ADC_SAR_Seq_Stop,"ax",%progbits
 405              		.align	2
 406              		.global	ADC_SAR_Seq_Stop
 407              		.code	16
 408              		.thumb_func
 409              		.type	ADC_SAR_Seq_Stop, %function
 410              	ADC_SAR_Seq_Stop:
 411              	.LFB3:
 348:.\Generated_Source\PSoC4/ADC_SAR_Seq.c **** 
 349:.\Generated_Source\PSoC4/ADC_SAR_Seq.c **** 
 350:.\Generated_Source\PSoC4/ADC_SAR_Seq.c **** /*******************************************************************************
 351:.\Generated_Source\PSoC4/ADC_SAR_Seq.c **** * Function Name: ADC_SAR_Seq_Stop
 352:.\Generated_Source\PSoC4/ADC_SAR_Seq.c **** ********************************************************************************
 353:.\Generated_Source\PSoC4/ADC_SAR_Seq.c **** *
 354:.\Generated_Source\PSoC4/ADC_SAR_Seq.c **** * Summary:
 355:.\Generated_Source\PSoC4/ADC_SAR_Seq.c **** *  This function stops ADC conversions and puts the ADC into its lowest power
 356:.\Generated_Source\PSoC4/ADC_SAR_Seq.c **** *  mode.
 357:.\Generated_Source\PSoC4/ADC_SAR_Seq.c **** *
 358:.\Generated_Source\PSoC4/ADC_SAR_Seq.c **** * Parameters:
 359:.\Generated_Source\PSoC4/ADC_SAR_Seq.c **** *  None.
 360:.\Generated_Source\PSoC4/ADC_SAR_Seq.c **** *
 361:.\Generated_Source\PSoC4/ADC_SAR_Seq.c **** * Return:
 362:.\Generated_Source\PSoC4/ADC_SAR_Seq.c **** *  None.
 363:.\Generated_Source\PSoC4/ADC_SAR_Seq.c **** *
 364:.\Generated_Source\PSoC4/ADC_SAR_Seq.c **** *******************************************************************************/
 365:.\Generated_Source\PSoC4/ADC_SAR_Seq.c **** void ADC_SAR_Seq_Stop(void)
 366:.\Generated_Source\PSoC4/ADC_SAR_Seq.c **** {
 412              		.loc 1 366 0
 413              		.cfi_startproc
 367:.\Generated_Source\PSoC4/ADC_SAR_Seq.c ****     ADC_SAR_Seq_SAR_CTRL_REG &= (uint32)~ADC_SAR_Seq_ENABLE;
 414              		.loc 1 367 0
 415 0000 024A     		ldr	r2, .L25
 416 0002 1368     		ldr	r3, [r2]
 417 0004 5B00     		lsl	r3, r3, #1
 418 0006 5B08     		lsr	r3, r3, #1
 419 0008 1360     		str	r3, [r2]
 368:.\Generated_Source\PSoC4/ADC_SAR_Seq.c **** }
ARM GAS  C:\Users\kylep\AppData\Local\Temp\ccmFfMW6.s 			page 15


 420              		.loc 1 368 0
 421              		@ sp needed
 422 000a 7047     		bx	lr
 423              	.L26:
 424              		.align	2
 425              	.L25:
 426 000c 00001A40 		.word	1075445760
 427              		.cfi_endproc
 428              	.LFE3:
 429              		.size	ADC_SAR_Seq_Stop, .-ADC_SAR_Seq_Stop
 430              		.section	.text.ADC_SAR_Seq_StartConvert,"ax",%progbits
 431              		.align	2
 432              		.global	ADC_SAR_Seq_StartConvert
 433              		.code	16
 434              		.thumb_func
 435              		.type	ADC_SAR_Seq_StartConvert, %function
 436              	ADC_SAR_Seq_StartConvert:
 437              	.LFB4:
 369:.\Generated_Source\PSoC4/ADC_SAR_Seq.c **** 
 370:.\Generated_Source\PSoC4/ADC_SAR_Seq.c **** 
 371:.\Generated_Source\PSoC4/ADC_SAR_Seq.c **** /*******************************************************************************
 372:.\Generated_Source\PSoC4/ADC_SAR_Seq.c **** * Function Name: ADC_SAR_Seq_StartConvert
 373:.\Generated_Source\PSoC4/ADC_SAR_Seq.c **** ********************************************************************************
 374:.\Generated_Source\PSoC4/ADC_SAR_Seq.c **** *
 375:.\Generated_Source\PSoC4/ADC_SAR_Seq.c **** * Summary:
 376:.\Generated_Source\PSoC4/ADC_SAR_Seq.c **** *  Description:
 377:.\Generated_Source\PSoC4/ADC_SAR_Seq.c **** *  For free running mode, this API starts the conversion process and it
 378:.\Generated_Source\PSoC4/ADC_SAR_Seq.c **** *  runs continuously.
 379:.\Generated_Source\PSoC4/ADC_SAR_Seq.c **** *
 380:.\Generated_Source\PSoC4/ADC_SAR_Seq.c **** *  In a triggered mode, this routine triggers every conversion by
 381:.\Generated_Source\PSoC4/ADC_SAR_Seq.c **** *  writing into the FW_TRIGGER bit in SAR_START_CTRL reg. In triggered mode,
 382:.\Generated_Source\PSoC4/ADC_SAR_Seq.c **** *  every conversion has to start by this API.
 383:.\Generated_Source\PSoC4/ADC_SAR_Seq.c **** *
 384:.\Generated_Source\PSoC4/ADC_SAR_Seq.c **** * Parameters:
 385:.\Generated_Source\PSoC4/ADC_SAR_Seq.c **** *  None.
 386:.\Generated_Source\PSoC4/ADC_SAR_Seq.c **** *
 387:.\Generated_Source\PSoC4/ADC_SAR_Seq.c **** * Return:
 388:.\Generated_Source\PSoC4/ADC_SAR_Seq.c **** *  None.
 389:.\Generated_Source\PSoC4/ADC_SAR_Seq.c **** *
 390:.\Generated_Source\PSoC4/ADC_SAR_Seq.c **** *******************************************************************************/
 391:.\Generated_Source\PSoC4/ADC_SAR_Seq.c **** void ADC_SAR_Seq_StartConvert(void)
 392:.\Generated_Source\PSoC4/ADC_SAR_Seq.c **** {
 438              		.loc 1 392 0
 439              		.cfi_startproc
 393:.\Generated_Source\PSoC4/ADC_SAR_Seq.c ****     #if(ADC_SAR_Seq_DEFAULT_SAMPLE_MODE_SEL == ADC_SAR_Seq__FREERUNNING)
 394:.\Generated_Source\PSoC4/ADC_SAR_Seq.c ****         ADC_SAR_Seq_SAR_SAMPLE_CTRL_REG |= ADC_SAR_Seq_CONTINUOUS_EN;
 440              		.loc 1 394 0
 441 0000 034A     		ldr	r2, .L28
 442 0002 1368     		ldr	r3, [r2]
 443 0004 8021     		mov	r1, #128
 444 0006 4902     		lsl	r1, r1, #9
 445 0008 0B43     		orr	r3, r1
 446 000a 1360     		str	r3, [r2]
 395:.\Generated_Source\PSoC4/ADC_SAR_Seq.c ****     #else /* Firmware trigger */
 396:.\Generated_Source\PSoC4/ADC_SAR_Seq.c ****         ADC_SAR_Seq_SAR_START_CTRL_REG = ADC_SAR_Seq_FW_TRIGGER;
 397:.\Generated_Source\PSoC4/ADC_SAR_Seq.c ****     #endif /* End ADC_SAR_Seq_DEFAULT_SAMPLE_MODE == ADC_SAR_Seq__FREERUNNING */
 398:.\Generated_Source\PSoC4/ADC_SAR_Seq.c **** 
ARM GAS  C:\Users\kylep\AppData\Local\Temp\ccmFfMW6.s 			page 16


 399:.\Generated_Source\PSoC4/ADC_SAR_Seq.c **** }
 447              		.loc 1 399 0
 448              		@ sp needed
 449 000c 7047     		bx	lr
 450              	.L29:
 451 000e C046     		.align	2
 452              	.L28:
 453 0010 04001A40 		.word	1075445764
 454              		.cfi_endproc
 455              	.LFE4:
 456              		.size	ADC_SAR_Seq_StartConvert, .-ADC_SAR_Seq_StartConvert
 457              		.section	.text.ADC_SAR_Seq_StopConvert,"ax",%progbits
 458              		.align	2
 459              		.global	ADC_SAR_Seq_StopConvert
 460              		.code	16
 461              		.thumb_func
 462              		.type	ADC_SAR_Seq_StopConvert, %function
 463              	ADC_SAR_Seq_StopConvert:
 464              	.LFB5:
 400:.\Generated_Source\PSoC4/ADC_SAR_Seq.c **** 
 401:.\Generated_Source\PSoC4/ADC_SAR_Seq.c **** 
 402:.\Generated_Source\PSoC4/ADC_SAR_Seq.c **** /*******************************************************************************
 403:.\Generated_Source\PSoC4/ADC_SAR_Seq.c **** * Function Name: ADC_SAR_Seq_StopConvert
 404:.\Generated_Source\PSoC4/ADC_SAR_Seq.c **** ********************************************************************************
 405:.\Generated_Source\PSoC4/ADC_SAR_Seq.c **** *
 406:.\Generated_Source\PSoC4/ADC_SAR_Seq.c **** * Summary:
 407:.\Generated_Source\PSoC4/ADC_SAR_Seq.c **** *  Forces the ADC to stop all conversions.
 408:.\Generated_Source\PSoC4/ADC_SAR_Seq.c **** *
 409:.\Generated_Source\PSoC4/ADC_SAR_Seq.c **** * Parameters:
 410:.\Generated_Source\PSoC4/ADC_SAR_Seq.c **** *  None.
 411:.\Generated_Source\PSoC4/ADC_SAR_Seq.c **** *
 412:.\Generated_Source\PSoC4/ADC_SAR_Seq.c **** * Return:
 413:.\Generated_Source\PSoC4/ADC_SAR_Seq.c **** *  None.
 414:.\Generated_Source\PSoC4/ADC_SAR_Seq.c **** *
 415:.\Generated_Source\PSoC4/ADC_SAR_Seq.c **** *******************************************************************************/
 416:.\Generated_Source\PSoC4/ADC_SAR_Seq.c **** void ADC_SAR_Seq_StopConvert(void)
 417:.\Generated_Source\PSoC4/ADC_SAR_Seq.c **** {
 465              		.loc 1 417 0
 466              		.cfi_startproc
 418:.\Generated_Source\PSoC4/ADC_SAR_Seq.c ****     #if(ADC_SAR_Seq_DEFAULT_SAMPLE_MODE_SEL == ADC_SAR_Seq__FREERUNNING)
 419:.\Generated_Source\PSoC4/ADC_SAR_Seq.c ****         ADC_SAR_Seq_SAR_SAMPLE_CTRL_REG &= (uint32)(~ADC_SAR_Seq_CONTINUOUS_EN);
 467              		.loc 1 419 0
 468 0000 024A     		ldr	r2, .L31
 469 0002 1168     		ldr	r1, [r2]
 470 0004 024B     		ldr	r3, .L31+4
 471 0006 0B40     		and	r3, r1
 472 0008 1360     		str	r3, [r2]
 420:.\Generated_Source\PSoC4/ADC_SAR_Seq.c ****     #endif /* ADC_SAR_Seq_DEFAULT_SAMPLE_MODE == ADC_SAR_Seq__FREERUNNING */
 421:.\Generated_Source\PSoC4/ADC_SAR_Seq.c **** }
 473              		.loc 1 421 0
 474              		@ sp needed
 475 000a 7047     		bx	lr
 476              	.L32:
 477              		.align	2
 478              	.L31:
 479 000c 04001A40 		.word	1075445764
 480 0010 FFFFFEFF 		.word	-65537
ARM GAS  C:\Users\kylep\AppData\Local\Temp\ccmFfMW6.s 			page 17


 481              		.cfi_endproc
 482              	.LFE5:
 483              		.size	ADC_SAR_Seq_StopConvert, .-ADC_SAR_Seq_StopConvert
 484              		.section	.text.ADC_SAR_Seq_IsEndConversion,"ax",%progbits
 485              		.align	2
 486              		.global	ADC_SAR_Seq_IsEndConversion
 487              		.code	16
 488              		.thumb_func
 489              		.type	ADC_SAR_Seq_IsEndConversion, %function
 490              	ADC_SAR_Seq_IsEndConversion:
 491              	.LFB6:
 422:.\Generated_Source\PSoC4/ADC_SAR_Seq.c **** 
 423:.\Generated_Source\PSoC4/ADC_SAR_Seq.c **** 
 424:.\Generated_Source\PSoC4/ADC_SAR_Seq.c **** /*******************************************************************************
 425:.\Generated_Source\PSoC4/ADC_SAR_Seq.c **** * Function Name: ADC_SAR_Seq_IsEndConversion
 426:.\Generated_Source\PSoC4/ADC_SAR_Seq.c **** ********************************************************************************
 427:.\Generated_Source\PSoC4/ADC_SAR_Seq.c **** *
 428:.\Generated_Source\PSoC4/ADC_SAR_Seq.c **** * Summary:
 429:.\Generated_Source\PSoC4/ADC_SAR_Seq.c **** *  Description: Checks for ADC end of conversion for the case one
 430:.\Generated_Source\PSoC4/ADC_SAR_Seq.c **** *  channel and end of scan for the case of multiple channels. It acts
 431:.\Generated_Source\PSoC4/ADC_SAR_Seq.c **** *  as a software version of the EOC. This function provides the
 432:.\Generated_Source\PSoC4/ADC_SAR_Seq.c **** *  programmer with two options. In one mode this function
 433:.\Generated_Source\PSoC4/ADC_SAR_Seq.c **** *  immediately returns with the conversion status. In the other mode,
 434:.\Generated_Source\PSoC4/ADC_SAR_Seq.c **** *  the function does not return (blocking) until the conversion has
 435:.\Generated_Source\PSoC4/ADC_SAR_Seq.c **** *  completed.
 436:.\Generated_Source\PSoC4/ADC_SAR_Seq.c **** *
 437:.\Generated_Source\PSoC4/ADC_SAR_Seq.c **** * Parameters:
 438:.\Generated_Source\PSoC4/ADC_SAR_Seq.c **** *  ADC_RETURN_STATUS        -> Immediately returns conversion result status
 439:.\Generated_Source\PSoC4/ADC_SAR_Seq.c **** *  ADC_WAIT_FOR_RESULT      -> Does not return until ADC complete
 440:.\Generated_Source\PSoC4/ADC_SAR_Seq.c **** *  ADC_RETURN_STATUS_INJ    -> Immediately returns conversion result status
 441:.\Generated_Source\PSoC4/ADC_SAR_Seq.c **** *                              for injection channel
 442:.\Generated_Source\PSoC4/ADC_SAR_Seq.c **** *  ADC_WAIT_FOR_RESULT_INJ  -> Does not return until ADC completes injection
 443:.\Generated_Source\PSoC4/ADC_SAR_Seq.c **** *                              channel conversion
 444:.\Generated_Source\PSoC4/ADC_SAR_Seq.c **** *
 445:.\Generated_Source\PSoC4/ADC_SAR_Seq.c **** * Return:
 446:.\Generated_Source\PSoC4/ADC_SAR_Seq.c **** *  If a non-zero value is returned, the last conversion or scan has completed.
 447:.\Generated_Source\PSoC4/ADC_SAR_Seq.c **** *  If the returned value is zero, the ADC is still in the process of a scan.
 448:.\Generated_Source\PSoC4/ADC_SAR_Seq.c **** *
 449:.\Generated_Source\PSoC4/ADC_SAR_Seq.c **** *******************************************************************************/
 450:.\Generated_Source\PSoC4/ADC_SAR_Seq.c **** uint32 ADC_SAR_Seq_IsEndConversion(uint32 retMode)
 451:.\Generated_Source\PSoC4/ADC_SAR_Seq.c **** {
 492              		.loc 1 451 0
 493              		.cfi_startproc
 494              	.LVL31:
 495 0000 011C     		mov	r1, r0
 496              	.LVL32:
 452:.\Generated_Source\PSoC4/ADC_SAR_Seq.c ****     uint32 status = 0u;
 453:.\Generated_Source\PSoC4/ADC_SAR_Seq.c **** 
 454:.\Generated_Source\PSoC4/ADC_SAR_Seq.c ****     if((retMode & (ADC_SAR_Seq_RETURN_STATUS | ADC_SAR_Seq_WAIT_FOR_RESULT)) != 0u)
 497              		.loc 1 454 0
 498 0002 8307     		lsl	r3, r0, #30
 499 0004 0CD0     		beq	.L40
 500              	.LVL33:
 501              	.L36:
 455:.\Generated_Source\PSoC4/ADC_SAR_Seq.c ****     {
 456:.\Generated_Source\PSoC4/ADC_SAR_Seq.c ****         do
 457:.\Generated_Source\PSoC4/ADC_SAR_Seq.c ****         {
ARM GAS  C:\Users\kylep\AppData\Local\Temp\ccmFfMW6.s 			page 18


 458:.\Generated_Source\PSoC4/ADC_SAR_Seq.c ****             status = ADC_SAR_Seq_SAR_INTR_REG & ADC_SAR_Seq_EOS_MASK;
 502              		.loc 1 458 0 discriminator 2
 503 0006 104B     		ldr	r3, .L41
 504 0008 1B68     		ldr	r3, [r3]
 505 000a 0120     		mov	r0, #1
 506 000c 1840     		and	r0, r3
 507              	.LVL34:
 459:.\Generated_Source\PSoC4/ADC_SAR_Seq.c ****         }while((status == 0u) && ((retMode & ADC_SAR_Seq_WAIT_FOR_RESULT) != 0u));
 508              		.loc 1 459 0 discriminator 2
 509 000e 01D1     		bne	.L35
 510              		.loc 1 459 0 is_stmt 0 discriminator 1
 511 0010 8B07     		lsl	r3, r1, #30
 512 0012 F8D4     		bmi	.L36
 513              	.L35:
 460:.\Generated_Source\PSoC4/ADC_SAR_Seq.c **** 
 461:.\Generated_Source\PSoC4/ADC_SAR_Seq.c ****         if(status != 0u)
 514              		.loc 1 461 0 is_stmt 1
 515 0014 0028     		cmp	r0, #0
 516 0016 04D0     		beq	.L34
 462:.\Generated_Source\PSoC4/ADC_SAR_Seq.c ****         {
 463:.\Generated_Source\PSoC4/ADC_SAR_Seq.c ****             /* Clear EOS bit */
 464:.\Generated_Source\PSoC4/ADC_SAR_Seq.c ****             ADC_SAR_Seq_SAR_INTR_REG = ADC_SAR_Seq_EOS_MASK;
 517              		.loc 1 464 0
 518 0018 0122     		mov	r2, #1
 519 001a 0B4B     		ldr	r3, .L41
 520 001c 1A60     		str	r2, [r3]
 521 001e 00E0     		b	.L34
 522              	.LVL35:
 523              	.L40:
 452:.\Generated_Source\PSoC4/ADC_SAR_Seq.c **** 
 524              		.loc 1 452 0
 525 0020 0020     		mov	r0, #0
 526              	.LVL36:
 527              	.L34:
 465:.\Generated_Source\PSoC4/ADC_SAR_Seq.c ****         }
 466:.\Generated_Source\PSoC4/ADC_SAR_Seq.c ****     }
 467:.\Generated_Source\PSoC4/ADC_SAR_Seq.c **** 
 468:.\Generated_Source\PSoC4/ADC_SAR_Seq.c ****     #if(ADC_SAR_Seq_INJ_CHANNEL_ENABLED)
 469:.\Generated_Source\PSoC4/ADC_SAR_Seq.c ****         if((retMode & (ADC_SAR_Seq_RETURN_STATUS_INJ | ADC_SAR_Seq_WAIT_FOR_RESULT_INJ)) != 0u)
 528              		.loc 1 469 0
 529 0022 0C23     		mov	r3, #12
 530 0024 0B42     		tst	r3, r1
 531 0026 0DD0     		beq	.L37
 532              	.L39:
 470:.\Generated_Source\PSoC4/ADC_SAR_Seq.c ****         {
 471:.\Generated_Source\PSoC4/ADC_SAR_Seq.c ****             do
 472:.\Generated_Source\PSoC4/ADC_SAR_Seq.c ****             {
 473:.\Generated_Source\PSoC4/ADC_SAR_Seq.c ****                 status |= ADC_SAR_Seq_SAR_INTR_REG & ADC_SAR_Seq_INJ_EOC_MASK;
 533              		.loc 1 473 0
 534 0028 074B     		ldr	r3, .L41
 535 002a 1A68     		ldr	r2, [r3]
 536 002c 1023     		mov	r3, #16
 537 002e 1A40     		and	r2, r3
 538 0030 1043     		orr	r0, r2
 539              	.LVL37:
 474:.\Generated_Source\PSoC4/ADC_SAR_Seq.c ****             }while(((status & ADC_SAR_Seq_INJ_EOC_MASK) == 0u) &&
 540              		.loc 1 474 0
ARM GAS  C:\Users\kylep\AppData\Local\Temp\ccmFfMW6.s 			page 19


 541 0032 0340     		and	r3, r0
 475:.\Generated_Source\PSoC4/ADC_SAR_Seq.c ****                    ((retMode & ADC_SAR_Seq_WAIT_FOR_RESULT_INJ) != 0u));
 542              		.loc 1 475 0
 543 0034 01D1     		bne	.L38
 474:.\Generated_Source\PSoC4/ADC_SAR_Seq.c ****             }while(((status & ADC_SAR_Seq_INJ_EOC_MASK) == 0u) &&
 544              		.loc 1 474 0 discriminator 1
 545 0036 0A07     		lsl	r2, r1, #28
 546 0038 F6D4     		bmi	.L39
 547              	.L38:
 476:.\Generated_Source\PSoC4/ADC_SAR_Seq.c **** 
 477:.\Generated_Source\PSoC4/ADC_SAR_Seq.c ****             if((status & ADC_SAR_Seq_INJ_EOC_MASK) != 0u)
 548              		.loc 1 477 0
 549 003a 002B     		cmp	r3, #0
 550 003c 02D0     		beq	.L37
 478:.\Generated_Source\PSoC4/ADC_SAR_Seq.c ****             {
 479:.\Generated_Source\PSoC4/ADC_SAR_Seq.c ****                 /* Clear Injection EOS bit */
 480:.\Generated_Source\PSoC4/ADC_SAR_Seq.c ****                 ADC_SAR_Seq_SAR_INTR_REG = ADC_SAR_Seq_INJ_EOC_MASK;
 551              		.loc 1 480 0
 552 003e 1022     		mov	r2, #16
 553 0040 014B     		ldr	r3, .L41
 554 0042 1A60     		str	r2, [r3]
 555              	.L37:
 481:.\Generated_Source\PSoC4/ADC_SAR_Seq.c ****             }
 482:.\Generated_Source\PSoC4/ADC_SAR_Seq.c ****         }
 483:.\Generated_Source\PSoC4/ADC_SAR_Seq.c ****     #endif /* ADC_SAR_Seq_INJ_CHANNEL_ENABLED */
 484:.\Generated_Source\PSoC4/ADC_SAR_Seq.c **** 
 485:.\Generated_Source\PSoC4/ADC_SAR_Seq.c ****     return (status);
 486:.\Generated_Source\PSoC4/ADC_SAR_Seq.c **** }
 556              		.loc 1 486 0
 557              		@ sp needed
 558 0044 7047     		bx	lr
 559              	.L42:
 560 0046 C046     		.align	2
 561              	.L41:
 562 0048 10021A40 		.word	1075446288
 563              		.cfi_endproc
 564              	.LFE6:
 565              		.size	ADC_SAR_Seq_IsEndConversion, .-ADC_SAR_Seq_IsEndConversion
 566              		.section	.text.ADC_SAR_Seq_GetResult16,"ax",%progbits
 567              		.align	2
 568              		.global	ADC_SAR_Seq_GetResult16
 569              		.code	16
 570              		.thumb_func
 571              		.type	ADC_SAR_Seq_GetResult16, %function
 572              	ADC_SAR_Seq_GetResult16:
 573              	.LFB7:
 487:.\Generated_Source\PSoC4/ADC_SAR_Seq.c **** 
 488:.\Generated_Source\PSoC4/ADC_SAR_Seq.c **** 
 489:.\Generated_Source\PSoC4/ADC_SAR_Seq.c **** /*******************************************************************************
 490:.\Generated_Source\PSoC4/ADC_SAR_Seq.c **** * Function Name: ADC_SAR_Seq_GetResult16
 491:.\Generated_Source\PSoC4/ADC_SAR_Seq.c **** ********************************************************************************
 492:.\Generated_Source\PSoC4/ADC_SAR_Seq.c **** *
 493:.\Generated_Source\PSoC4/ADC_SAR_Seq.c **** * Summary:
 494:.\Generated_Source\PSoC4/ADC_SAR_Seq.c **** *  Gets the data available in the SAR DATA register.
 495:.\Generated_Source\PSoC4/ADC_SAR_Seq.c **** *
 496:.\Generated_Source\PSoC4/ADC_SAR_Seq.c **** * Parameters:
 497:.\Generated_Source\PSoC4/ADC_SAR_Seq.c **** *  chan: The ADC channel in which to return the result. The first channel
ARM GAS  C:\Users\kylep\AppData\Local\Temp\ccmFfMW6.s 			page 20


 498:.\Generated_Source\PSoC4/ADC_SAR_Seq.c **** *  is 0 and the injection channel if enabled is the number of valid channels.
 499:.\Generated_Source\PSoC4/ADC_SAR_Seq.c **** *
 500:.\Generated_Source\PSoC4/ADC_SAR_Seq.c **** * Return:
 501:.\Generated_Source\PSoC4/ADC_SAR_Seq.c **** *  Returns converted data as a signed 16-bit integer
 502:.\Generated_Source\PSoC4/ADC_SAR_Seq.c **** *
 503:.\Generated_Source\PSoC4/ADC_SAR_Seq.c **** *******************************************************************************/
 504:.\Generated_Source\PSoC4/ADC_SAR_Seq.c **** int16 ADC_SAR_Seq_GetResult16(uint32 chan)
 505:.\Generated_Source\PSoC4/ADC_SAR_Seq.c **** {
 574              		.loc 1 505 0
 575              		.cfi_startproc
 576              	.LVL38:
 577 0000 10B5     		push	{r4, lr}
 578              		.cfi_def_cfa_offset 8
 579              		.cfi_offset 4, -8
 580              		.cfi_offset 14, -4
 581 0002 041E     		sub	r4, r0, #0
 506:.\Generated_Source\PSoC4/ADC_SAR_Seq.c ****     uint32 result;
 507:.\Generated_Source\PSoC4/ADC_SAR_Seq.c **** 
 508:.\Generated_Source\PSoC4/ADC_SAR_Seq.c ****     /* Halt CPU in debug mode if channel is out of valid range */
 509:.\Generated_Source\PSoC4/ADC_SAR_Seq.c ****     CYASSERT(chan < ADC_SAR_Seq_TOTAL_CHANNELS_NUM);
 582              		.loc 1 509 0
 583 0004 042C     		cmp	r4, #4
 584 0006 02D9     		bls	.L44
 585              		.loc 1 509 0 is_stmt 0 discriminator 1
 586 0008 0020     		mov	r0, #0
 587              	.LVL39:
 588 000a FFF7FEFF 		bl	CyHalt
 589              	.LVL40:
 590              	.L44:
 510:.\Generated_Source\PSoC4/ADC_SAR_Seq.c **** 
 511:.\Generated_Source\PSoC4/ADC_SAR_Seq.c ****     if(chan < ADC_SAR_Seq_SEQUENCED_CHANNELS_NUM)
 591              		.loc 1 511 0 is_stmt 1
 592 000e 032C     		cmp	r4, #3
 593 0010 07D8     		bhi	.L45
 512:.\Generated_Source\PSoC4/ADC_SAR_Seq.c ****     {
 513:.\Generated_Source\PSoC4/ADC_SAR_Seq.c ****         result = CY_GET_REG32((reg32 *)(ADC_SAR_Seq_SAR_CHAN_RESULT_IND + (uint32)(chan << 2u))) &
 594              		.loc 1 513 0
 595 0012 A400     		lsl	r4, r4, #2
 596              	.LVL41:
 597 0014 064B     		ldr	r3, .L47
 598 0016 9C46     		mov	ip, r3
 599 0018 6444     		add	r4, r4, ip
 600 001a 2068     		ldr	r0, [r4]
 601 001c 0004     		lsl	r0, r0, #16
 602 001e 000C     		lsr	r0, r0, #16
 603              	.LVL42:
 604 0020 03E0     		b	.L46
 605              	.LVL43:
 606              	.L45:
 514:.\Generated_Source\PSoC4/ADC_SAR_Seq.c ****                 ADC_SAR_Seq_RESULT_MASK;
 515:.\Generated_Source\PSoC4/ADC_SAR_Seq.c ****     }
 516:.\Generated_Source\PSoC4/ADC_SAR_Seq.c ****     else
 517:.\Generated_Source\PSoC4/ADC_SAR_Seq.c ****     {
 518:.\Generated_Source\PSoC4/ADC_SAR_Seq.c ****         #if(ADC_SAR_Seq_INJ_CHANNEL_ENABLED)
 519:.\Generated_Source\PSoC4/ADC_SAR_Seq.c ****             result = ADC_SAR_Seq_SAR_INJ_RESULT_REG & ADC_SAR_Seq_RESULT_MASK;
 607              		.loc 1 519 0
 608 0022 044B     		ldr	r3, .L47+4
ARM GAS  C:\Users\kylep\AppData\Local\Temp\ccmFfMW6.s 			page 21


 609 0024 1868     		ldr	r0, [r3]
 610 0026 0004     		lsl	r0, r0, #16
 611 0028 000C     		lsr	r0, r0, #16
 612              	.LVL44:
 613              	.L46:
 520:.\Generated_Source\PSoC4/ADC_SAR_Seq.c ****         #else
 521:.\Generated_Source\PSoC4/ADC_SAR_Seq.c ****             result = 0u;
 522:.\Generated_Source\PSoC4/ADC_SAR_Seq.c ****         #endif /* ADC_SAR_Seq_INJ_CHANNEL_ENABLED */
 523:.\Generated_Source\PSoC4/ADC_SAR_Seq.c ****     }
 524:.\Generated_Source\PSoC4/ADC_SAR_Seq.c **** 
 525:.\Generated_Source\PSoC4/ADC_SAR_Seq.c ****     return ( (int16)result );
 614              		.loc 1 525 0
 615 002a 00B2     		sxth	r0, r0
 616              	.LVL45:
 526:.\Generated_Source\PSoC4/ADC_SAR_Seq.c **** }
 617              		.loc 1 526 0
 618              		@ sp needed
 619 002c 10BD     		pop	{r4, pc}
 620              	.L48:
 621 002e C046     		.align	2
 622              	.L47:
 623 0030 80011A40 		.word	1075446144
 624 0034 90021A40 		.word	1075446416
 625              		.cfi_endproc
 626              	.LFE7:
 627              		.size	ADC_SAR_Seq_GetResult16, .-ADC_SAR_Seq_GetResult16
 628              		.section	.text.ADC_SAR_Seq_SetChanMask,"ax",%progbits
 629              		.align	2
 630              		.global	ADC_SAR_Seq_SetChanMask
 631              		.code	16
 632              		.thumb_func
 633              		.type	ADC_SAR_Seq_SetChanMask, %function
 634              	ADC_SAR_Seq_SetChanMask:
 635              	.LFB8:
 527:.\Generated_Source\PSoC4/ADC_SAR_Seq.c **** 
 528:.\Generated_Source\PSoC4/ADC_SAR_Seq.c **** 
 529:.\Generated_Source\PSoC4/ADC_SAR_Seq.c **** /*******************************************************************************
 530:.\Generated_Source\PSoC4/ADC_SAR_Seq.c **** * Function Name: ADC_SAR_Seq_SetChanMask
 531:.\Generated_Source\PSoC4/ADC_SAR_Seq.c **** ********************************************************************************
 532:.\Generated_Source\PSoC4/ADC_SAR_Seq.c **** *
 533:.\Generated_Source\PSoC4/ADC_SAR_Seq.c **** * Summary:
 534:.\Generated_Source\PSoC4/ADC_SAR_Seq.c **** *  Sets the channel enable mask.
 535:.\Generated_Source\PSoC4/ADC_SAR_Seq.c **** *
 536:.\Generated_Source\PSoC4/ADC_SAR_Seq.c **** * Parameters:
 537:.\Generated_Source\PSoC4/ADC_SAR_Seq.c **** *  mask: Sets which channels that will be
 538:.\Generated_Source\PSoC4/ADC_SAR_Seq.c **** *  scanned. Setting bits for channels that do not exist will have no
 539:.\Generated_Source\PSoC4/ADC_SAR_Seq.c **** *  effect. For example, if only 6 channels were enabled, setting a
 540:.\Generated_Source\PSoC4/ADC_SAR_Seq.c **** *  mask of 0x0103 would only enable the last two channels (0 and 1).
 541:.\Generated_Source\PSoC4/ADC_SAR_Seq.c **** *  This API will not enable the injection channel.
 542:.\Generated_Source\PSoC4/ADC_SAR_Seq.c **** *  Examples: If the component is setup to sequence through 8
 543:.\Generated_Source\PSoC4/ADC_SAR_Seq.c **** *  channels, a mask of 0x000F would enable channels 0, 1, 2, and 3.
 544:.\Generated_Source\PSoC4/ADC_SAR_Seq.c **** *
 545:.\Generated_Source\PSoC4/ADC_SAR_Seq.c **** * Return:
 546:.\Generated_Source\PSoC4/ADC_SAR_Seq.c **** *  None.
 547:.\Generated_Source\PSoC4/ADC_SAR_Seq.c **** *
 548:.\Generated_Source\PSoC4/ADC_SAR_Seq.c **** *******************************************************************************/
 549:.\Generated_Source\PSoC4/ADC_SAR_Seq.c **** void ADC_SAR_Seq_SetChanMask(uint32 mask)
ARM GAS  C:\Users\kylep\AppData\Local\Temp\ccmFfMW6.s 			page 22


 550:.\Generated_Source\PSoC4/ADC_SAR_Seq.c **** {
 636              		.loc 1 550 0
 637              		.cfi_startproc
 638              	.LVL46:
 551:.\Generated_Source\PSoC4/ADC_SAR_Seq.c ****     ADC_SAR_Seq_SAR_CHAN_EN_REG = mask & ADC_SAR_Seq_MAX_CHANNELS_EN_MASK;
 639              		.loc 1 551 0
 640 0000 0F23     		mov	r3, #15
 641 0002 1840     		and	r0, r3
 642              	.LVL47:
 643 0004 014B     		ldr	r3, .L50
 644 0006 1860     		str	r0, [r3]
 552:.\Generated_Source\PSoC4/ADC_SAR_Seq.c **** }
 645              		.loc 1 552 0
 646              		@ sp needed
 647 0008 7047     		bx	lr
 648              	.L51:
 649 000a C046     		.align	2
 650              	.L50:
 651 000c 20001A40 		.word	1075445792
 652              		.cfi_endproc
 653              	.LFE8:
 654              		.size	ADC_SAR_Seq_SetChanMask, .-ADC_SAR_Seq_SetChanMask
 655              		.section	.text.ADC_SAR_Seq_EnableInjection,"ax",%progbits
 656              		.align	2
 657              		.global	ADC_SAR_Seq_EnableInjection
 658              		.code	16
 659              		.thumb_func
 660              		.type	ADC_SAR_Seq_EnableInjection, %function
 661              	ADC_SAR_Seq_EnableInjection:
 662              	.LFB9:
 553:.\Generated_Source\PSoC4/ADC_SAR_Seq.c **** 
 554:.\Generated_Source\PSoC4/ADC_SAR_Seq.c **** #if(ADC_SAR_Seq_INJ_CHANNEL_ENABLED)
 555:.\Generated_Source\PSoC4/ADC_SAR_Seq.c **** 
 556:.\Generated_Source\PSoC4/ADC_SAR_Seq.c **** 
 557:.\Generated_Source\PSoC4/ADC_SAR_Seq.c ****     /*******************************************************************************
 558:.\Generated_Source\PSoC4/ADC_SAR_Seq.c ****     * Function Name: ADC_SAR_Seq_EnableInjection
 559:.\Generated_Source\PSoC4/ADC_SAR_Seq.c ****     ********************************************************************************
 560:.\Generated_Source\PSoC4/ADC_SAR_Seq.c ****     *
 561:.\Generated_Source\PSoC4/ADC_SAR_Seq.c ****     * Summary:
 562:.\Generated_Source\PSoC4/ADC_SAR_Seq.c ****     *  Enables the injection channel for the next scan only.
 563:.\Generated_Source\PSoC4/ADC_SAR_Seq.c ****     *
 564:.\Generated_Source\PSoC4/ADC_SAR_Seq.c ****     * Parameters:
 565:.\Generated_Source\PSoC4/ADC_SAR_Seq.c ****     *  None.
 566:.\Generated_Source\PSoC4/ADC_SAR_Seq.c ****     *
 567:.\Generated_Source\PSoC4/ADC_SAR_Seq.c ****     * Return:
 568:.\Generated_Source\PSoC4/ADC_SAR_Seq.c ****     *  None.
 569:.\Generated_Source\PSoC4/ADC_SAR_Seq.c ****     *
 570:.\Generated_Source\PSoC4/ADC_SAR_Seq.c ****     *******************************************************************************/
 571:.\Generated_Source\PSoC4/ADC_SAR_Seq.c ****     void ADC_SAR_Seq_EnableInjection(void)
 572:.\Generated_Source\PSoC4/ADC_SAR_Seq.c ****     {
 663              		.loc 1 572 0
 664              		.cfi_startproc
 573:.\Generated_Source\PSoC4/ADC_SAR_Seq.c ****         ADC_SAR_Seq_SAR_INJ_CHAN_CONFIG_REG |= ADC_SAR_Seq_INJ_CHAN_EN;
 665              		.loc 1 573 0
 666 0000 034A     		ldr	r2, .L53
 667 0002 1368     		ldr	r3, [r2]
 668 0004 8021     		mov	r1, #128
ARM GAS  C:\Users\kylep\AppData\Local\Temp\ccmFfMW6.s 			page 23


 669 0006 0906     		lsl	r1, r1, #24
 670 0008 0B43     		orr	r3, r1
 671 000a 1360     		str	r3, [r2]
 574:.\Generated_Source\PSoC4/ADC_SAR_Seq.c ****     }
 672              		.loc 1 574 0
 673              		@ sp needed
 674 000c 7047     		bx	lr
 675              	.L54:
 676 000e C046     		.align	2
 677              	.L53:
 678 0010 80021A40 		.word	1075446400
 679              		.cfi_endproc
 680              	.LFE9:
 681              		.size	ADC_SAR_Seq_EnableInjection, .-ADC_SAR_Seq_EnableInjection
 682              		.section	.text.ADC_SAR_Seq_SetLowLimit,"ax",%progbits
 683              		.align	2
 684              		.global	ADC_SAR_Seq_SetLowLimit
 685              		.code	16
 686              		.thumb_func
 687              		.type	ADC_SAR_Seq_SetLowLimit, %function
 688              	ADC_SAR_Seq_SetLowLimit:
 689              	.LFB10:
 575:.\Generated_Source\PSoC4/ADC_SAR_Seq.c **** 
 576:.\Generated_Source\PSoC4/ADC_SAR_Seq.c **** #endif /* ADC_SAR_Seq_INJ_CHANNEL_ENABLED */
 577:.\Generated_Source\PSoC4/ADC_SAR_Seq.c **** 
 578:.\Generated_Source\PSoC4/ADC_SAR_Seq.c **** 
 579:.\Generated_Source\PSoC4/ADC_SAR_Seq.c **** /*******************************************************************************
 580:.\Generated_Source\PSoC4/ADC_SAR_Seq.c **** * Function Name: ADC_SAR_Seq_SetLowLimit
 581:.\Generated_Source\PSoC4/ADC_SAR_Seq.c **** ********************************************************************************
 582:.\Generated_Source\PSoC4/ADC_SAR_Seq.c **** *
 583:.\Generated_Source\PSoC4/ADC_SAR_Seq.c **** * Summary:
 584:.\Generated_Source\PSoC4/ADC_SAR_Seq.c **** *  Sets the low limit parameter for a limit condition.
 585:.\Generated_Source\PSoC4/ADC_SAR_Seq.c **** *
 586:.\Generated_Source\PSoC4/ADC_SAR_Seq.c **** * Parameters:
 587:.\Generated_Source\PSoC4/ADC_SAR_Seq.c **** *  lowLimit: The low limit for a limit condition.
 588:.\Generated_Source\PSoC4/ADC_SAR_Seq.c **** *
 589:.\Generated_Source\PSoC4/ADC_SAR_Seq.c **** * Return:
 590:.\Generated_Source\PSoC4/ADC_SAR_Seq.c **** *  None.
 591:.\Generated_Source\PSoC4/ADC_SAR_Seq.c **** *
 592:.\Generated_Source\PSoC4/ADC_SAR_Seq.c **** *******************************************************************************/
 593:.\Generated_Source\PSoC4/ADC_SAR_Seq.c **** void ADC_SAR_Seq_SetLowLimit(uint32 lowLimit)
 594:.\Generated_Source\PSoC4/ADC_SAR_Seq.c **** {
 690              		.loc 1 594 0
 691              		.cfi_startproc
 692              	.LVL48:
 595:.\Generated_Source\PSoC4/ADC_SAR_Seq.c ****     ADC_SAR_Seq_SAR_RANGE_THRES_REG &= (uint32)(~ADC_SAR_Seq_RANGE_LOW_MASK);
 693              		.loc 1 595 0
 694 0000 054A     		ldr	r2, .L56
 695 0002 1368     		ldr	r3, [r2]
 696 0004 1B0C     		lsr	r3, r3, #16
 697 0006 1B04     		lsl	r3, r3, #16
 698 0008 1360     		str	r3, [r2]
 596:.\Generated_Source\PSoC4/ADC_SAR_Seq.c ****     ADC_SAR_Seq_SAR_RANGE_THRES_REG |= lowLimit & ADC_SAR_Seq_RANGE_LOW_MASK;
 699              		.loc 1 596 0
 700 000a 1368     		ldr	r3, [r2]
 701 000c 0004     		lsl	r0, r0, #16
 702              	.LVL49:
ARM GAS  C:\Users\kylep\AppData\Local\Temp\ccmFfMW6.s 			page 24


 703 000e 000C     		lsr	r0, r0, #16
 704 0010 1843     		orr	r0, r3
 705 0012 1060     		str	r0, [r2]
 597:.\Generated_Source\PSoC4/ADC_SAR_Seq.c **** }
 706              		.loc 1 597 0
 707              		@ sp needed
 708 0014 7047     		bx	lr
 709              	.L57:
 710 0016 C046     		.align	2
 711              	.L56:
 712 0018 18001A40 		.word	1075445784
 713              		.cfi_endproc
 714              	.LFE10:
 715              		.size	ADC_SAR_Seq_SetLowLimit, .-ADC_SAR_Seq_SetLowLimit
 716              		.section	.text.ADC_SAR_Seq_SetHighLimit,"ax",%progbits
 717              		.align	2
 718              		.global	ADC_SAR_Seq_SetHighLimit
 719              		.code	16
 720              		.thumb_func
 721              		.type	ADC_SAR_Seq_SetHighLimit, %function
 722              	ADC_SAR_Seq_SetHighLimit:
 723              	.LFB11:
 598:.\Generated_Source\PSoC4/ADC_SAR_Seq.c **** 
 599:.\Generated_Source\PSoC4/ADC_SAR_Seq.c **** 
 600:.\Generated_Source\PSoC4/ADC_SAR_Seq.c **** /*******************************************************************************
 601:.\Generated_Source\PSoC4/ADC_SAR_Seq.c **** * Function Name: ADC_SAR_Seq_SetHighLimit
 602:.\Generated_Source\PSoC4/ADC_SAR_Seq.c **** ********************************************************************************
 603:.\Generated_Source\PSoC4/ADC_SAR_Seq.c **** *
 604:.\Generated_Source\PSoC4/ADC_SAR_Seq.c **** * Summary:
 605:.\Generated_Source\PSoC4/ADC_SAR_Seq.c **** *  Sets the low limit parameter for a limit condition.
 606:.\Generated_Source\PSoC4/ADC_SAR_Seq.c **** *
 607:.\Generated_Source\PSoC4/ADC_SAR_Seq.c **** * Parameters:
 608:.\Generated_Source\PSoC4/ADC_SAR_Seq.c **** *  highLimit: The high limit for a limit condition.
 609:.\Generated_Source\PSoC4/ADC_SAR_Seq.c **** *
 610:.\Generated_Source\PSoC4/ADC_SAR_Seq.c **** * Return:
 611:.\Generated_Source\PSoC4/ADC_SAR_Seq.c **** *  None.
 612:.\Generated_Source\PSoC4/ADC_SAR_Seq.c **** *
 613:.\Generated_Source\PSoC4/ADC_SAR_Seq.c **** *******************************************************************************/
 614:.\Generated_Source\PSoC4/ADC_SAR_Seq.c **** void ADC_SAR_Seq_SetHighLimit(uint32 highLimit)
 615:.\Generated_Source\PSoC4/ADC_SAR_Seq.c **** {
 724              		.loc 1 615 0
 725              		.cfi_startproc
 726              	.LVL50:
 616:.\Generated_Source\PSoC4/ADC_SAR_Seq.c ****     ADC_SAR_Seq_SAR_RANGE_THRES_REG &= (uint32)(~ADC_SAR_Seq_RANGE_HIGH_MASK);
 727              		.loc 1 616 0
 728 0000 044A     		ldr	r2, .L59
 729 0002 1368     		ldr	r3, [r2]
 730 0004 1B04     		lsl	r3, r3, #16
 731 0006 1B0C     		lsr	r3, r3, #16
 732 0008 1360     		str	r3, [r2]
 617:.\Generated_Source\PSoC4/ADC_SAR_Seq.c ****     ADC_SAR_Seq_SAR_RANGE_THRES_REG |= (uint32)(highLimit << ADC_SAR_Seq_RANGE_HIGH_OFFSET);
 733              		.loc 1 617 0
 734 000a 1368     		ldr	r3, [r2]
 735 000c 0004     		lsl	r0, r0, #16
 736              	.LVL51:
 737 000e 1843     		orr	r0, r3
 738 0010 1060     		str	r0, [r2]
ARM GAS  C:\Users\kylep\AppData\Local\Temp\ccmFfMW6.s 			page 25


 618:.\Generated_Source\PSoC4/ADC_SAR_Seq.c **** }
 739              		.loc 1 618 0
 740              		@ sp needed
 741 0012 7047     		bx	lr
 742              	.L60:
 743              		.align	2
 744              	.L59:
 745 0014 18001A40 		.word	1075445784
 746              		.cfi_endproc
 747              	.LFE11:
 748              		.size	ADC_SAR_Seq_SetHighLimit, .-ADC_SAR_Seq_SetHighLimit
 749              		.section	.text.ADC_SAR_Seq_SetLimitMask,"ax",%progbits
 750              		.align	2
 751              		.global	ADC_SAR_Seq_SetLimitMask
 752              		.code	16
 753              		.thumb_func
 754              		.type	ADC_SAR_Seq_SetLimitMask, %function
 755              	ADC_SAR_Seq_SetLimitMask:
 756              	.LFB12:
 619:.\Generated_Source\PSoC4/ADC_SAR_Seq.c **** 
 620:.\Generated_Source\PSoC4/ADC_SAR_Seq.c **** 
 621:.\Generated_Source\PSoC4/ADC_SAR_Seq.c **** /*******************************************************************************
 622:.\Generated_Source\PSoC4/ADC_SAR_Seq.c **** * Function Name: ADC_SAR_Seq_SetLimitMask
 623:.\Generated_Source\PSoC4/ADC_SAR_Seq.c **** ********************************************************************************
 624:.\Generated_Source\PSoC4/ADC_SAR_Seq.c **** *
 625:.\Generated_Source\PSoC4/ADC_SAR_Seq.c **** * Summary:
 626:.\Generated_Source\PSoC4/ADC_SAR_Seq.c **** *  Sets the channel limit condition mask.
 627:.\Generated_Source\PSoC4/ADC_SAR_Seq.c **** *
 628:.\Generated_Source\PSoC4/ADC_SAR_Seq.c **** * Parameters:
 629:.\Generated_Source\PSoC4/ADC_SAR_Seq.c **** *  mask: Sets which channels that may cause a
 630:.\Generated_Source\PSoC4/ADC_SAR_Seq.c **** *  limit condition interrupt. Setting bits for channels that do not exist
 631:.\Generated_Source\PSoC4/ADC_SAR_Seq.c **** *  will have no effect. For example, if only 6 channels were enabled,
 632:.\Generated_Source\PSoC4/ADC_SAR_Seq.c **** *  setting a mask of 0x0103 would only enable the last two channels (0 and 1).
 633:.\Generated_Source\PSoC4/ADC_SAR_Seq.c **** *
 634:.\Generated_Source\PSoC4/ADC_SAR_Seq.c **** * Return:
 635:.\Generated_Source\PSoC4/ADC_SAR_Seq.c **** *  None.
 636:.\Generated_Source\PSoC4/ADC_SAR_Seq.c **** *
 637:.\Generated_Source\PSoC4/ADC_SAR_Seq.c **** *******************************************************************************/
 638:.\Generated_Source\PSoC4/ADC_SAR_Seq.c **** void ADC_SAR_Seq_SetLimitMask(uint32 mask)
 639:.\Generated_Source\PSoC4/ADC_SAR_Seq.c **** {
 757              		.loc 1 639 0
 758              		.cfi_startproc
 759              	.LVL52:
 640:.\Generated_Source\PSoC4/ADC_SAR_Seq.c ****     ADC_SAR_Seq_SAR_RANGE_INTR_MASK_REG = mask & ADC_SAR_Seq_MAX_CHANNELS_EN_MASK;
 760              		.loc 1 640 0
 761 0000 0F23     		mov	r3, #15
 762 0002 1840     		and	r0, r3
 763              	.LVL53:
 764 0004 014B     		ldr	r3, .L62
 765 0006 1860     		str	r0, [r3]
 641:.\Generated_Source\PSoC4/ADC_SAR_Seq.c **** }
 766              		.loc 1 641 0
 767              		@ sp needed
 768 0008 7047     		bx	lr
 769              	.L63:
 770 000a C046     		.align	2
 771              	.L62:
ARM GAS  C:\Users\kylep\AppData\Local\Temp\ccmFfMW6.s 			page 26


 772 000c 38021A40 		.word	1075446328
 773              		.cfi_endproc
 774              	.LFE12:
 775              		.size	ADC_SAR_Seq_SetLimitMask, .-ADC_SAR_Seq_SetLimitMask
 776              		.section	.text.ADC_SAR_Seq_SetSatMask,"ax",%progbits
 777              		.align	2
 778              		.global	ADC_SAR_Seq_SetSatMask
 779              		.code	16
 780              		.thumb_func
 781              		.type	ADC_SAR_Seq_SetSatMask, %function
 782              	ADC_SAR_Seq_SetSatMask:
 783              	.LFB13:
 642:.\Generated_Source\PSoC4/ADC_SAR_Seq.c **** 
 643:.\Generated_Source\PSoC4/ADC_SAR_Seq.c **** 
 644:.\Generated_Source\PSoC4/ADC_SAR_Seq.c **** /*******************************************************************************
 645:.\Generated_Source\PSoC4/ADC_SAR_Seq.c **** * Function Name: ADC_SAR_Seq_SetSatMask
 646:.\Generated_Source\PSoC4/ADC_SAR_Seq.c **** ********************************************************************************
 647:.\Generated_Source\PSoC4/ADC_SAR_Seq.c **** *
 648:.\Generated_Source\PSoC4/ADC_SAR_Seq.c **** * Summary:
 649:.\Generated_Source\PSoC4/ADC_SAR_Seq.c **** *  Sets the channel saturation event mask.
 650:.\Generated_Source\PSoC4/ADC_SAR_Seq.c **** *
 651:.\Generated_Source\PSoC4/ADC_SAR_Seq.c **** * Parameters:
 652:.\Generated_Source\PSoC4/ADC_SAR_Seq.c **** *  mask: Sets which channels that may cause a
 653:.\Generated_Source\PSoC4/ADC_SAR_Seq.c **** *  saturation event interrupt. Setting bits for channels that do not exist
 654:.\Generated_Source\PSoC4/ADC_SAR_Seq.c **** *  will have no effect. For example, if only 8 channels were enabled,
 655:.\Generated_Source\PSoC4/ADC_SAR_Seq.c **** *  setting a mask of 0x01C0 would only enable two channels (6 and 7).
 656:.\Generated_Source\PSoC4/ADC_SAR_Seq.c **** *
 657:.\Generated_Source\PSoC4/ADC_SAR_Seq.c **** * Return:
 658:.\Generated_Source\PSoC4/ADC_SAR_Seq.c **** *  None.
 659:.\Generated_Source\PSoC4/ADC_SAR_Seq.c **** *
 660:.\Generated_Source\PSoC4/ADC_SAR_Seq.c **** *******************************************************************************/
 661:.\Generated_Source\PSoC4/ADC_SAR_Seq.c **** void ADC_SAR_Seq_SetSatMask(uint32 mask)
 662:.\Generated_Source\PSoC4/ADC_SAR_Seq.c **** {
 784              		.loc 1 662 0
 785              		.cfi_startproc
 786              	.LVL54:
 663:.\Generated_Source\PSoC4/ADC_SAR_Seq.c ****     ADC_SAR_Seq_SAR_SATURATE_INTR_MASK_REG = mask & ADC_SAR_Seq_MAX_CHANNELS_EN_MASK;
 787              		.loc 1 663 0
 788 0000 0F23     		mov	r3, #15
 789 0002 1840     		and	r0, r3
 790              	.LVL55:
 791 0004 014B     		ldr	r3, .L65
 792 0006 1860     		str	r0, [r3]
 664:.\Generated_Source\PSoC4/ADC_SAR_Seq.c **** }
 793              		.loc 1 664 0
 794              		@ sp needed
 795 0008 7047     		bx	lr
 796              	.L66:
 797 000a C046     		.align	2
 798              	.L65:
 799 000c 28021A40 		.word	1075446312
 800              		.cfi_endproc
 801              	.LFE13:
 802              		.size	ADC_SAR_Seq_SetSatMask, .-ADC_SAR_Seq_SetSatMask
 803              		.section	.text.ADC_SAR_Seq_SetOffset,"ax",%progbits
 804              		.align	2
 805              		.global	ADC_SAR_Seq_SetOffset
ARM GAS  C:\Users\kylep\AppData\Local\Temp\ccmFfMW6.s 			page 27


 806              		.code	16
 807              		.thumb_func
 808              		.type	ADC_SAR_Seq_SetOffset, %function
 809              	ADC_SAR_Seq_SetOffset:
 810              	.LFB14:
 665:.\Generated_Source\PSoC4/ADC_SAR_Seq.c **** 
 666:.\Generated_Source\PSoC4/ADC_SAR_Seq.c **** 
 667:.\Generated_Source\PSoC4/ADC_SAR_Seq.c **** /*******************************************************************************
 668:.\Generated_Source\PSoC4/ADC_SAR_Seq.c **** * Function Name: ADC_SAR_Seq_SetOffset
 669:.\Generated_Source\PSoC4/ADC_SAR_Seq.c **** ********************************************************************************
 670:.\Generated_Source\PSoC4/ADC_SAR_Seq.c **** *
 671:.\Generated_Source\PSoC4/ADC_SAR_Seq.c **** * Summary:
 672:.\Generated_Source\PSoC4/ADC_SAR_Seq.c **** *   Description: Sets the ADC offset which is used by the functions
 673:.\Generated_Source\PSoC4/ADC_SAR_Seq.c **** *   ADC_CountsTo_uVolts, ADC_CountsTo_mVolts and ADC_CountsTo_Volts
 674:.\Generated_Source\PSoC4/ADC_SAR_Seq.c **** *   to substract the offset from the given reading
 675:.\Generated_Source\PSoC4/ADC_SAR_Seq.c **** *   before calculating the voltage conversion.
 676:.\Generated_Source\PSoC4/ADC_SAR_Seq.c **** *
 677:.\Generated_Source\PSoC4/ADC_SAR_Seq.c **** * Parameters:
 678:.\Generated_Source\PSoC4/ADC_SAR_Seq.c **** *  chan: ADC channel number.
 679:.\Generated_Source\PSoC4/ADC_SAR_Seq.c **** *  offset: This value is a measured value when the
 680:.\Generated_Source\PSoC4/ADC_SAR_Seq.c **** *          inputs are shorted or connected to the same input voltage.
 681:.\Generated_Source\PSoC4/ADC_SAR_Seq.c **** *
 682:.\Generated_Source\PSoC4/ADC_SAR_Seq.c **** * Return:
 683:.\Generated_Source\PSoC4/ADC_SAR_Seq.c **** *  None.
 684:.\Generated_Source\PSoC4/ADC_SAR_Seq.c **** *
 685:.\Generated_Source\PSoC4/ADC_SAR_Seq.c **** * Global variables:
 686:.\Generated_Source\PSoC4/ADC_SAR_Seq.c **** *  ADC_SAR_Seq_Offset:  Modified to set the user provided offset.
 687:.\Generated_Source\PSoC4/ADC_SAR_Seq.c **** *
 688:.\Generated_Source\PSoC4/ADC_SAR_Seq.c **** *******************************************************************************/
 689:.\Generated_Source\PSoC4/ADC_SAR_Seq.c **** void ADC_SAR_Seq_SetOffset(uint32 chan, int16 offset)
 690:.\Generated_Source\PSoC4/ADC_SAR_Seq.c **** {
 811              		.loc 1 690 0
 812              		.cfi_startproc
 813              	.LVL56:
 814 0000 38B5     		push	{r3, r4, r5, lr}
 815              		.cfi_def_cfa_offset 16
 816              		.cfi_offset 3, -16
 817              		.cfi_offset 4, -12
 818              		.cfi_offset 5, -8
 819              		.cfi_offset 14, -4
 820 0002 041C     		mov	r4, r0
 821 0004 0D1C     		mov	r5, r1
 691:.\Generated_Source\PSoC4/ADC_SAR_Seq.c ****     /* Halt CPU in debug mode if channel is out of valid range */
 692:.\Generated_Source\PSoC4/ADC_SAR_Seq.c ****     CYASSERT(chan < ADC_SAR_Seq_TOTAL_CHANNELS_NUM);
 822              		.loc 1 692 0
 823 0006 0428     		cmp	r0, #4
 824 0008 02D9     		bls	.L68
 825              		.loc 1 692 0 is_stmt 0 discriminator 1
 826 000a 0020     		mov	r0, #0
 827              	.LVL57:
 828 000c FFF7FEFF 		bl	CyHalt
 829              	.LVL58:
 830              	.L68:
 693:.\Generated_Source\PSoC4/ADC_SAR_Seq.c **** 
 694:.\Generated_Source\PSoC4/ADC_SAR_Seq.c ****     ADC_SAR_Seq_offset[chan] = offset;
 831              		.loc 1 694 0 is_stmt 1
 832 0010 6400     		lsl	r4, r4, #1
ARM GAS  C:\Users\kylep\AppData\Local\Temp\ccmFfMW6.s 			page 28


 833              	.LVL59:
 834 0012 014B     		ldr	r3, .L69
 835 0014 E552     		strh	r5, [r4, r3]
 695:.\Generated_Source\PSoC4/ADC_SAR_Seq.c **** }
 836              		.loc 1 695 0
 837              		@ sp needed
 838 0016 38BD     		pop	{r3, r4, r5, pc}
 839              	.L70:
 840              		.align	2
 841              	.L69:
 842 0018 00000000 		.word	ADC_SAR_Seq_offset
 843              		.cfi_endproc
 844              	.LFE14:
 845              		.size	ADC_SAR_Seq_SetOffset, .-ADC_SAR_Seq_SetOffset
 846              		.section	.text.ADC_SAR_Seq_SetGain,"ax",%progbits
 847              		.align	2
 848              		.global	ADC_SAR_Seq_SetGain
 849              		.code	16
 850              		.thumb_func
 851              		.type	ADC_SAR_Seq_SetGain, %function
 852              	ADC_SAR_Seq_SetGain:
 853              	.LFB15:
 696:.\Generated_Source\PSoC4/ADC_SAR_Seq.c **** 
 697:.\Generated_Source\PSoC4/ADC_SAR_Seq.c **** 
 698:.\Generated_Source\PSoC4/ADC_SAR_Seq.c **** /*******************************************************************************
 699:.\Generated_Source\PSoC4/ADC_SAR_Seq.c **** * Function Name: ADC_SAR_Seq_SetGain
 700:.\Generated_Source\PSoC4/ADC_SAR_Seq.c **** ********************************************************************************
 701:.\Generated_Source\PSoC4/ADC_SAR_Seq.c **** *
 702:.\Generated_Source\PSoC4/ADC_SAR_Seq.c **** * Summary:
 703:.\Generated_Source\PSoC4/ADC_SAR_Seq.c **** *  Description: Sets the ADC gain in counts per 10 volt for the voltage
 704:.\Generated_Source\PSoC4/ADC_SAR_Seq.c **** *  conversion functions below. This value is set by default by the
 705:.\Generated_Source\PSoC4/ADC_SAR_Seq.c **** *  reference and input range settings. It should only be used to further
 706:.\Generated_Source\PSoC4/ADC_SAR_Seq.c **** *  calibrate the ADC with a known input or if an external reference is
 707:.\Generated_Source\PSoC4/ADC_SAR_Seq.c **** *  used. Affects the ADC_CountsTo_uVolts, ADC_CountsTo_mVolts
 708:.\Generated_Source\PSoC4/ADC_SAR_Seq.c **** *  and ADC_CountsTo_Volts functions by supplying the correct
 709:.\Generated_Source\PSoC4/ADC_SAR_Seq.c **** *  conversion between ADC counts and voltage.
 710:.\Generated_Source\PSoC4/ADC_SAR_Seq.c **** *
 711:.\Generated_Source\PSoC4/ADC_SAR_Seq.c **** * Parameters:
 712:.\Generated_Source\PSoC4/ADC_SAR_Seq.c **** *  chan: ADC channel number.
 713:.\Generated_Source\PSoC4/ADC_SAR_Seq.c **** *  adcGain: ADC gain in counts per 10 volts.
 714:.\Generated_Source\PSoC4/ADC_SAR_Seq.c **** *
 715:.\Generated_Source\PSoC4/ADC_SAR_Seq.c **** * Return:
 716:.\Generated_Source\PSoC4/ADC_SAR_Seq.c **** *  None.
 717:.\Generated_Source\PSoC4/ADC_SAR_Seq.c **** *
 718:.\Generated_Source\PSoC4/ADC_SAR_Seq.c **** * Global variables:
 719:.\Generated_Source\PSoC4/ADC_SAR_Seq.c **** *  ADC_SAR_Seq_CountsPer10Volt:  modified to set the ADC gain in counts
 720:.\Generated_Source\PSoC4/ADC_SAR_Seq.c **** *   per 10 volt.
 721:.\Generated_Source\PSoC4/ADC_SAR_Seq.c **** *
 722:.\Generated_Source\PSoC4/ADC_SAR_Seq.c **** *******************************************************************************/
 723:.\Generated_Source\PSoC4/ADC_SAR_Seq.c **** void ADC_SAR_Seq_SetGain(uint32 chan, int32 adcGain)
 724:.\Generated_Source\PSoC4/ADC_SAR_Seq.c **** {
 854              		.loc 1 724 0
 855              		.cfi_startproc
 856              	.LVL60:
 857 0000 38B5     		push	{r3, r4, r5, lr}
 858              		.cfi_def_cfa_offset 16
 859              		.cfi_offset 3, -16
ARM GAS  C:\Users\kylep\AppData\Local\Temp\ccmFfMW6.s 			page 29


 860              		.cfi_offset 4, -12
 861              		.cfi_offset 5, -8
 862              		.cfi_offset 14, -4
 863 0002 041C     		mov	r4, r0
 864 0004 0D1C     		mov	r5, r1
 725:.\Generated_Source\PSoC4/ADC_SAR_Seq.c ****     /* Halt CPU in debug mode if channel is out of valid range */
 726:.\Generated_Source\PSoC4/ADC_SAR_Seq.c ****     CYASSERT(chan < ADC_SAR_Seq_TOTAL_CHANNELS_NUM);
 865              		.loc 1 726 0
 866 0006 0428     		cmp	r0, #4
 867 0008 02D9     		bls	.L72
 868              		.loc 1 726 0 is_stmt 0 discriminator 1
 869 000a 0020     		mov	r0, #0
 870              	.LVL61:
 871 000c FFF7FEFF 		bl	CyHalt
 872              	.LVL62:
 873              	.L72:
 727:.\Generated_Source\PSoC4/ADC_SAR_Seq.c **** 
 728:.\Generated_Source\PSoC4/ADC_SAR_Seq.c ****     ADC_SAR_Seq_countsPer10Volt[chan] = adcGain;
 874              		.loc 1 728 0 is_stmt 1
 875 0010 A400     		lsl	r4, r4, #2
 876              	.LVL63:
 877 0012 014B     		ldr	r3, .L73
 878 0014 E550     		str	r5, [r4, r3]
 729:.\Generated_Source\PSoC4/ADC_SAR_Seq.c **** }
 879              		.loc 1 729 0
 880              		@ sp needed
 881              	.LVL64:
 882 0016 38BD     		pop	{r3, r4, r5, pc}
 883              	.L74:
 884              		.align	2
 885              	.L73:
 886 0018 00000000 		.word	ADC_SAR_Seq_countsPer10Volt
 887              		.cfi_endproc
 888              	.LFE15:
 889              		.size	ADC_SAR_Seq_SetGain, .-ADC_SAR_Seq_SetGain
 890              		.section	.text.ADC_SAR_Seq_CountsTo_mVolts,"ax",%progbits
 891              		.align	2
 892              		.global	ADC_SAR_Seq_CountsTo_mVolts
 893              		.code	16
 894              		.thumb_func
 895              		.type	ADC_SAR_Seq_CountsTo_mVolts, %function
 896              	ADC_SAR_Seq_CountsTo_mVolts:
 897              	.LFB16:
 730:.\Generated_Source\PSoC4/ADC_SAR_Seq.c **** 
 731:.\Generated_Source\PSoC4/ADC_SAR_Seq.c **** 
 732:.\Generated_Source\PSoC4/ADC_SAR_Seq.c **** #if(ADC_SAR_Seq_DEFAULT_JUSTIFICATION_SEL == ADC_SAR_Seq__RIGHT)
 733:.\Generated_Source\PSoC4/ADC_SAR_Seq.c **** 
 734:.\Generated_Source\PSoC4/ADC_SAR_Seq.c **** 
 735:.\Generated_Source\PSoC4/ADC_SAR_Seq.c ****     /*******************************************************************************
 736:.\Generated_Source\PSoC4/ADC_SAR_Seq.c ****     * Function Name: ADC_SAR_Seq_CountsTo_mVolts
 737:.\Generated_Source\PSoC4/ADC_SAR_Seq.c ****     ********************************************************************************
 738:.\Generated_Source\PSoC4/ADC_SAR_Seq.c ****     *
 739:.\Generated_Source\PSoC4/ADC_SAR_Seq.c ****     * Summary:
 740:.\Generated_Source\PSoC4/ADC_SAR_Seq.c ****     *  This function converts ADC counts to mVolts
 741:.\Generated_Source\PSoC4/ADC_SAR_Seq.c ****     *  This function is not available when left data format justification selected.
 742:.\Generated_Source\PSoC4/ADC_SAR_Seq.c ****     *
 743:.\Generated_Source\PSoC4/ADC_SAR_Seq.c ****     * Parameters:
ARM GAS  C:\Users\kylep\AppData\Local\Temp\ccmFfMW6.s 			page 30


 744:.\Generated_Source\PSoC4/ADC_SAR_Seq.c ****     *  chan: The ADC channel number.
 745:.\Generated_Source\PSoC4/ADC_SAR_Seq.c ****     *  adcCounts: Result from the ADC conversion
 746:.\Generated_Source\PSoC4/ADC_SAR_Seq.c ****     *
 747:.\Generated_Source\PSoC4/ADC_SAR_Seq.c ****     * Return:
 748:.\Generated_Source\PSoC4/ADC_SAR_Seq.c ****     *  Results in mVolts
 749:.\Generated_Source\PSoC4/ADC_SAR_Seq.c ****     *
 750:.\Generated_Source\PSoC4/ADC_SAR_Seq.c ****     * Global variables:
 751:.\Generated_Source\PSoC4/ADC_SAR_Seq.c ****     *  ADC_SAR_Seq_countsPer10Volt:  used to convert ADC counts to mVolts.
 752:.\Generated_Source\PSoC4/ADC_SAR_Seq.c ****     *  ADC_SAR_Seq_Offset:  Used as the offset while converting ADC counts
 753:.\Generated_Source\PSoC4/ADC_SAR_Seq.c ****     *   to mVolts.
 754:.\Generated_Source\PSoC4/ADC_SAR_Seq.c ****     *
 755:.\Generated_Source\PSoC4/ADC_SAR_Seq.c ****     *******************************************************************************/
 756:.\Generated_Source\PSoC4/ADC_SAR_Seq.c ****     int16 ADC_SAR_Seq_CountsTo_mVolts(uint32 chan, int16 adcCounts)
 757:.\Generated_Source\PSoC4/ADC_SAR_Seq.c ****     {
 898              		.loc 1 757 0
 899              		.cfi_startproc
 900              	.LVL65:
 901 0000 38B5     		push	{r3, r4, r5, lr}
 902              		.cfi_def_cfa_offset 16
 903              		.cfi_offset 3, -16
 904              		.cfi_offset 4, -12
 905              		.cfi_offset 5, -8
 906              		.cfi_offset 14, -4
 907 0002 041C     		mov	r4, r0
 908 0004 0D1C     		mov	r5, r1
 758:.\Generated_Source\PSoC4/ADC_SAR_Seq.c ****         int16 mVolts;
 759:.\Generated_Source\PSoC4/ADC_SAR_Seq.c **** 
 760:.\Generated_Source\PSoC4/ADC_SAR_Seq.c ****         /* Halt CPU in debug mode if channel is out of valid range */
 761:.\Generated_Source\PSoC4/ADC_SAR_Seq.c ****         CYASSERT(chan < ADC_SAR_Seq_TOTAL_CHANNELS_NUM);
 909              		.loc 1 761 0
 910 0006 0428     		cmp	r0, #4
 911 0008 02D9     		bls	.L76
 912              		.loc 1 761 0 is_stmt 0 discriminator 1
 913 000a 0020     		mov	r0, #0
 914              	.LVL66:
 915 000c FFF7FEFF 		bl	CyHalt
 916              	.LVL67:
 917              	.L76:
 762:.\Generated_Source\PSoC4/ADC_SAR_Seq.c **** 
 763:.\Generated_Source\PSoC4/ADC_SAR_Seq.c ****         /* Divide the adcCount when accumulate averaging mode selected */
 764:.\Generated_Source\PSoC4/ADC_SAR_Seq.c ****         #if(ADC_SAR_Seq_DEFAULT_AVG_MODE == ADC_SAR_Seq__ACCUMULATE)
 765:.\Generated_Source\PSoC4/ADC_SAR_Seq.c ****             if((ADC_SAR_Seq_channelsConfig[chan] & ADC_SAR_Seq_AVERAGING_EN) != 0u)
 766:.\Generated_Source\PSoC4/ADC_SAR_Seq.c ****             {
 767:.\Generated_Source\PSoC4/ADC_SAR_Seq.c ****                 adcCounts /= ADC_SAR_Seq_DEFAULT_AVG_SAMPLES_DIV;
 768:.\Generated_Source\PSoC4/ADC_SAR_Seq.c ****             }
 769:.\Generated_Source\PSoC4/ADC_SAR_Seq.c ****         #endif /* ADC_SAR_Seq_DEFAULT_AVG_MODE == ADC_SAR_Seq__ACCUMULATE */
 770:.\Generated_Source\PSoC4/ADC_SAR_Seq.c **** 
 771:.\Generated_Source\PSoC4/ADC_SAR_Seq.c ****         /* Subtract ADC offset */
 772:.\Generated_Source\PSoC4/ADC_SAR_Seq.c ****         adcCounts -= ADC_SAR_Seq_offset[chan];
 918              		.loc 1 772 0 is_stmt 1
 919 0010 6300     		lsl	r3, r4, #1
 920 0012 0F4A     		ldr	r2, .L79
 921 0014 995A     		ldrh	r1, [r3, r2]
 922 0016 691A     		sub	r1, r5, r1
 923 0018 09B2     		sxth	r1, r1
 924              	.LVL68:
 773:.\Generated_Source\PSoC4/ADC_SAR_Seq.c **** 
ARM GAS  C:\Users\kylep\AppData\Local\Temp\ccmFfMW6.s 			page 31


 774:.\Generated_Source\PSoC4/ADC_SAR_Seq.c ****         mVolts = (int16)((((int32)adcCounts * ADC_SAR_Seq_10MV_COUNTS) + ( (adcCounts > 0) ?
 925              		.loc 1 774 0
 926 001a 0E48     		ldr	r0, .L79+4
 927 001c 021C     		mov	r2, r0
 928 001e 4A43     		mul	r2, r1
 775:.\Generated_Source\PSoC4/ADC_SAR_Seq.c ****                  (ADC_SAR_Seq_countsPer10Volt[chan] / 2) : (-(ADC_SAR_Seq_countsPer10Volt[chan] / 2
 929              		.loc 1 775 0
 930 0020 0029     		cmp	r1, #0
 931 0022 06DD     		ble	.L77
 932              		.loc 1 775 0 is_stmt 0 discriminator 1
 933 0024 A300     		lsl	r3, r4, #2
 934 0026 0C49     		ldr	r1, .L79+8
 935              	.LVL69:
 936 0028 5B58     		ldr	r3, [r3, r1]
 937 002a D80F     		lsr	r0, r3, #31
 938 002c C018     		add	r0, r0, r3
 939 002e 4310     		asr	r3, r0, #1
 940 0030 06E0     		b	.L78
 941              	.LVL70:
 942              	.L77:
 943              		.loc 1 775 0 discriminator 2
 944 0032 A300     		lsl	r3, r4, #2
 945 0034 0849     		ldr	r1, .L79+8
 946              	.LVL71:
 947 0036 5B58     		ldr	r3, [r3, r1]
 948 0038 D80F     		lsr	r0, r3, #31
 949 003a C318     		add	r3, r0, r3
 950 003c 5B10     		asr	r3, r3, #1
 951 003e 5B42     		neg	r3, r3
 952              	.L78:
 774:.\Generated_Source\PSoC4/ADC_SAR_Seq.c ****                  (ADC_SAR_Seq_countsPer10Volt[chan] / 2) : (-(ADC_SAR_Seq_countsPer10Volt[chan] / 2
 953              		.loc 1 774 0 is_stmt 1
 954 0040 D018     		add	r0, r2, r3
 776:.\Generated_Source\PSoC4/ADC_SAR_Seq.c ****                  / ADC_SAR_Seq_countsPer10Volt[chan]);
 955              		.loc 1 776 0
 956 0042 A400     		lsl	r4, r4, #2
 957              	.LVL72:
 958 0044 044B     		ldr	r3, .L79+8
 959 0046 E158     		ldr	r1, [r4, r3]
 960 0048 FFF7FEFF 		bl	__aeabi_idiv
 961              	.LVL73:
 777:.\Generated_Source\PSoC4/ADC_SAR_Seq.c **** 
 778:.\Generated_Source\PSoC4/ADC_SAR_Seq.c ****         return( mVolts );
 962              		.loc 1 778 0
 963 004c 00B2     		sxth	r0, r0
 779:.\Generated_Source\PSoC4/ADC_SAR_Seq.c ****     }
 964              		.loc 1 779 0
 965              		@ sp needed
 966 004e 38BD     		pop	{r3, r4, r5, pc}
 967              	.L80:
 968              		.align	2
 969              	.L79:
 970 0050 00000000 		.word	ADC_SAR_Seq_offset
 971 0054 10270000 		.word	10000
 972 0058 00000000 		.word	ADC_SAR_Seq_countsPer10Volt
 973              		.cfi_endproc
 974              	.LFE16:
ARM GAS  C:\Users\kylep\AppData\Local\Temp\ccmFfMW6.s 			page 32


 975              		.size	ADC_SAR_Seq_CountsTo_mVolts, .-ADC_SAR_Seq_CountsTo_mVolts
 976              		.global	__aeabi_lmul
 977              		.global	__aeabi_ldivmod
 978              		.section	.text.ADC_SAR_Seq_CountsTo_uVolts,"ax",%progbits
 979              		.align	2
 980              		.global	ADC_SAR_Seq_CountsTo_uVolts
 981              		.code	16
 982              		.thumb_func
 983              		.type	ADC_SAR_Seq_CountsTo_uVolts, %function
 984              	ADC_SAR_Seq_CountsTo_uVolts:
 985              	.LFB17:
 780:.\Generated_Source\PSoC4/ADC_SAR_Seq.c **** 
 781:.\Generated_Source\PSoC4/ADC_SAR_Seq.c **** 
 782:.\Generated_Source\PSoC4/ADC_SAR_Seq.c ****     /*******************************************************************************
 783:.\Generated_Source\PSoC4/ADC_SAR_Seq.c ****     * Function Name: ADC_SAR_Seq_CountsTo_uVolts
 784:.\Generated_Source\PSoC4/ADC_SAR_Seq.c ****     ********************************************************************************
 785:.\Generated_Source\PSoC4/ADC_SAR_Seq.c ****     *
 786:.\Generated_Source\PSoC4/ADC_SAR_Seq.c ****     * Summary:
 787:.\Generated_Source\PSoC4/ADC_SAR_Seq.c ****     *  This function converts ADC counts to micro Volts
 788:.\Generated_Source\PSoC4/ADC_SAR_Seq.c ****     *  This function is not available when left data format justification selected.
 789:.\Generated_Source\PSoC4/ADC_SAR_Seq.c ****     *
 790:.\Generated_Source\PSoC4/ADC_SAR_Seq.c ****     * Parameters:
 791:.\Generated_Source\PSoC4/ADC_SAR_Seq.c ****     *  chan: The ADC channel number.
 792:.\Generated_Source\PSoC4/ADC_SAR_Seq.c ****     *  adcCounts: Result from the ADC conversion
 793:.\Generated_Source\PSoC4/ADC_SAR_Seq.c ****     *
 794:.\Generated_Source\PSoC4/ADC_SAR_Seq.c ****     * Return:
 795:.\Generated_Source\PSoC4/ADC_SAR_Seq.c ****     *  Results in uVolts
 796:.\Generated_Source\PSoC4/ADC_SAR_Seq.c ****     *
 797:.\Generated_Source\PSoC4/ADC_SAR_Seq.c ****     * Global variables:
 798:.\Generated_Source\PSoC4/ADC_SAR_Seq.c ****     *  ADC_SAR_Seq_countsPer10Volt:  used to convert ADC counts to uVolts.
 799:.\Generated_Source\PSoC4/ADC_SAR_Seq.c ****     *  ADC_SAR_Seq_Offset:  Used as the offset while converting ADC counts
 800:.\Generated_Source\PSoC4/ADC_SAR_Seq.c ****     *   to mVolts.
 801:.\Generated_Source\PSoC4/ADC_SAR_Seq.c ****     *
 802:.\Generated_Source\PSoC4/ADC_SAR_Seq.c ****     * Theory:
 803:.\Generated_Source\PSoC4/ADC_SAR_Seq.c ****     *  Care must be taken to not exceed the maximum value for a 31 bit signed
 804:.\Generated_Source\PSoC4/ADC_SAR_Seq.c ****     *  number in the conversion to uVolts and at the same time not loose
 805:.\Generated_Source\PSoC4/ADC_SAR_Seq.c ****     *  resolution.
 806:.\Generated_Source\PSoC4/ADC_SAR_Seq.c ****     *  To convert adcCounts to microVolts it is required to be multiplied
 807:.\Generated_Source\PSoC4/ADC_SAR_Seq.c ****     *  on 10 million and later divide on gain in counts per 10V.
 808:.\Generated_Source\PSoC4/ADC_SAR_Seq.c ****     *
 809:.\Generated_Source\PSoC4/ADC_SAR_Seq.c ****     *******************************************************************************/
 810:.\Generated_Source\PSoC4/ADC_SAR_Seq.c ****     int32 ADC_SAR_Seq_CountsTo_uVolts(uint32 chan, int16 adcCounts)
 811:.\Generated_Source\PSoC4/ADC_SAR_Seq.c ****     {
 986              		.loc 1 811 0
 987              		.cfi_startproc
 988              	.LVL74:
 989 0000 38B5     		push	{r3, r4, r5, lr}
 990              		.cfi_def_cfa_offset 16
 991              		.cfi_offset 3, -16
 992              		.cfi_offset 4, -12
 993              		.cfi_offset 5, -8
 994              		.cfi_offset 14, -4
 995 0002 051C     		mov	r5, r0
 996 0004 0C1C     		mov	r4, r1
 812:.\Generated_Source\PSoC4/ADC_SAR_Seq.c ****         int64 uVolts;
 813:.\Generated_Source\PSoC4/ADC_SAR_Seq.c **** 
 814:.\Generated_Source\PSoC4/ADC_SAR_Seq.c ****         /* Halt CPU in debug mode if channel is out of valid range */
ARM GAS  C:\Users\kylep\AppData\Local\Temp\ccmFfMW6.s 			page 33


 815:.\Generated_Source\PSoC4/ADC_SAR_Seq.c ****         CYASSERT(chan < ADC_SAR_Seq_TOTAL_CHANNELS_NUM);
 997              		.loc 1 815 0
 998 0006 0428     		cmp	r0, #4
 999 0008 02D9     		bls	.L82
 1000              		.loc 1 815 0 is_stmt 0 discriminator 1
 1001 000a 0020     		mov	r0, #0
 1002              	.LVL75:
 1003 000c FFF7FEFF 		bl	CyHalt
 1004              	.LVL76:
 1005              	.L82:
 816:.\Generated_Source\PSoC4/ADC_SAR_Seq.c **** 
 817:.\Generated_Source\PSoC4/ADC_SAR_Seq.c ****         /* Divide the adcCount when accumulate averaging mode selected */
 818:.\Generated_Source\PSoC4/ADC_SAR_Seq.c ****         #if(ADC_SAR_Seq_DEFAULT_AVG_MODE == ADC_SAR_Seq__ACCUMULATE)
 819:.\Generated_Source\PSoC4/ADC_SAR_Seq.c ****             if((ADC_SAR_Seq_channelsConfig[chan] & ADC_SAR_Seq_AVERAGING_EN) != 0u)
 820:.\Generated_Source\PSoC4/ADC_SAR_Seq.c ****             {
 821:.\Generated_Source\PSoC4/ADC_SAR_Seq.c ****                 adcCounts /= ADC_SAR_Seq_DEFAULT_AVG_SAMPLES_DIV;
 822:.\Generated_Source\PSoC4/ADC_SAR_Seq.c ****             }
 823:.\Generated_Source\PSoC4/ADC_SAR_Seq.c ****         #endif /* ADC_SAR_Seq_DEFAULT_AVG_MODE == ADC_SAR_Seq__ACCUMULATE */
 824:.\Generated_Source\PSoC4/ADC_SAR_Seq.c **** 
 825:.\Generated_Source\PSoC4/ADC_SAR_Seq.c ****         /* Subtract ADC offset */
 826:.\Generated_Source\PSoC4/ADC_SAR_Seq.c ****         adcCounts -= ADC_SAR_Seq_offset[chan];
 1006              		.loc 1 826 0 is_stmt 1
 1007 0010 6A00     		lsl	r2, r5, #1
 1008 0012 084B     		ldr	r3, .L83
 1009 0014 D05A     		ldrh	r0, [r2, r3]
 1010 0016 201A     		sub	r0, r4, r0
 1011 0018 00B2     		sxth	r0, r0
 1012              	.LVL77:
 827:.\Generated_Source\PSoC4/ADC_SAR_Seq.c **** 
 828:.\Generated_Source\PSoC4/ADC_SAR_Seq.c ****         uVolts = ((int64)adcCounts * ADC_SAR_Seq_10UV_COUNTS) / ADC_SAR_Seq_countsPer10Volt[chan];
 1013              		.loc 1 828 0
 1014 001a C117     		asr	r1, r0, #31
 1015 001c 064A     		ldr	r2, .L83+4
 1016 001e 0023     		mov	r3, #0
 1017 0020 FFF7FEFF 		bl	__aeabi_lmul
 1018              	.LVL78:
 1019 0024 AD00     		lsl	r5, r5, #2
 1020              	.LVL79:
 1021 0026 054B     		ldr	r3, .L83+8
 1022 0028 EA58     		ldr	r2, [r5, r3]
 1023 002a D317     		asr	r3, r2, #31
 1024 002c FFF7FEFF 		bl	__aeabi_ldivmod
 1025              	.LVL80:
 829:.\Generated_Source\PSoC4/ADC_SAR_Seq.c **** 
 830:.\Generated_Source\PSoC4/ADC_SAR_Seq.c ****         return( (int32)uVolts );
 831:.\Generated_Source\PSoC4/ADC_SAR_Seq.c ****     }
 1026              		.loc 1 831 0
 1027              		@ sp needed
 1028 0030 38BD     		pop	{r3, r4, r5, pc}
 1029              	.L84:
 1030 0032 C046     		.align	2
 1031              	.L83:
 1032 0034 00000000 		.word	ADC_SAR_Seq_offset
 1033 0038 80969800 		.word	10000000
 1034 003c 00000000 		.word	ADC_SAR_Seq_countsPer10Volt
 1035              		.cfi_endproc
 1036              	.LFE17:
ARM GAS  C:\Users\kylep\AppData\Local\Temp\ccmFfMW6.s 			page 34


 1037              		.size	ADC_SAR_Seq_CountsTo_uVolts, .-ADC_SAR_Seq_CountsTo_uVolts
 1038              		.global	__aeabi_i2f
 1039              		.global	__aeabi_fmul
 1040              		.global	__aeabi_fdiv
 1041              		.section	.text.ADC_SAR_Seq_CountsTo_Volts,"ax",%progbits
 1042              		.align	2
 1043              		.global	ADC_SAR_Seq_CountsTo_Volts
 1044              		.code	16
 1045              		.thumb_func
 1046              		.type	ADC_SAR_Seq_CountsTo_Volts, %function
 1047              	ADC_SAR_Seq_CountsTo_Volts:
 1048              	.LFB18:
 832:.\Generated_Source\PSoC4/ADC_SAR_Seq.c **** 
 833:.\Generated_Source\PSoC4/ADC_SAR_Seq.c **** 
 834:.\Generated_Source\PSoC4/ADC_SAR_Seq.c ****     /*******************************************************************************
 835:.\Generated_Source\PSoC4/ADC_SAR_Seq.c ****     * Function Name: ADC_SAR_Seq_CountsTo_Volts
 836:.\Generated_Source\PSoC4/ADC_SAR_Seq.c ****     ********************************************************************************
 837:.\Generated_Source\PSoC4/ADC_SAR_Seq.c ****     *
 838:.\Generated_Source\PSoC4/ADC_SAR_Seq.c ****     * Summary:
 839:.\Generated_Source\PSoC4/ADC_SAR_Seq.c ****     *  Converts the ADC output to Volts as a floating point number.
 840:.\Generated_Source\PSoC4/ADC_SAR_Seq.c ****     *  This function is not available when left data format justification selected.
 841:.\Generated_Source\PSoC4/ADC_SAR_Seq.c ****     *
 842:.\Generated_Source\PSoC4/ADC_SAR_Seq.c ****     * Parameters:
 843:.\Generated_Source\PSoC4/ADC_SAR_Seq.c ****     *  chan: The ADC channel number.
 844:.\Generated_Source\PSoC4/ADC_SAR_Seq.c ****     *  Result from the ADC conversion
 845:.\Generated_Source\PSoC4/ADC_SAR_Seq.c ****     *
 846:.\Generated_Source\PSoC4/ADC_SAR_Seq.c ****     * Return:
 847:.\Generated_Source\PSoC4/ADC_SAR_Seq.c ****     *  Results in Volts
 848:.\Generated_Source\PSoC4/ADC_SAR_Seq.c ****     *
 849:.\Generated_Source\PSoC4/ADC_SAR_Seq.c ****     * Global variables:
 850:.\Generated_Source\PSoC4/ADC_SAR_Seq.c ****     *  ADC_SAR_Seq_countsPer10Volt:  used to convert ADC counts to Volts.
 851:.\Generated_Source\PSoC4/ADC_SAR_Seq.c ****     *  ADC_SAR_Seq_Offset:  Used as the offset while converting ADC counts
 852:.\Generated_Source\PSoC4/ADC_SAR_Seq.c ****     *   to mVolts.
 853:.\Generated_Source\PSoC4/ADC_SAR_Seq.c ****     *
 854:.\Generated_Source\PSoC4/ADC_SAR_Seq.c ****     *******************************************************************************/
 855:.\Generated_Source\PSoC4/ADC_SAR_Seq.c ****     float32 ADC_SAR_Seq_CountsTo_Volts(uint32 chan, int16 adcCounts)
 856:.\Generated_Source\PSoC4/ADC_SAR_Seq.c ****     {
 1049              		.loc 1 856 0
 1050              		.cfi_startproc
 1051              	.LVL81:
 1052 0000 38B5     		push	{r3, r4, r5, lr}
 1053              		.cfi_def_cfa_offset 16
 1054              		.cfi_offset 3, -16
 1055              		.cfi_offset 4, -12
 1056              		.cfi_offset 5, -8
 1057              		.cfi_offset 14, -4
 1058 0002 041C     		mov	r4, r0
 1059 0004 0D1C     		mov	r5, r1
 857:.\Generated_Source\PSoC4/ADC_SAR_Seq.c ****         float32 volts;
 858:.\Generated_Source\PSoC4/ADC_SAR_Seq.c **** 
 859:.\Generated_Source\PSoC4/ADC_SAR_Seq.c ****         /* Halt CPU in debug mode if channel is out of valid range */
 860:.\Generated_Source\PSoC4/ADC_SAR_Seq.c ****         CYASSERT(chan < ADC_SAR_Seq_TOTAL_CHANNELS_NUM);
 1060              		.loc 1 860 0
 1061 0006 0428     		cmp	r0, #4
 1062 0008 02D9     		bls	.L86
 1063              		.loc 1 860 0 is_stmt 0 discriminator 1
 1064 000a 0020     		mov	r0, #0
ARM GAS  C:\Users\kylep\AppData\Local\Temp\ccmFfMW6.s 			page 35


 1065              	.LVL82:
 1066 000c FFF7FEFF 		bl	CyHalt
 1067              	.LVL83:
 1068              	.L86:
 861:.\Generated_Source\PSoC4/ADC_SAR_Seq.c **** 
 862:.\Generated_Source\PSoC4/ADC_SAR_Seq.c ****         /* Divide the adcCount when accumulate averaging mode selected */
 863:.\Generated_Source\PSoC4/ADC_SAR_Seq.c ****         #if(ADC_SAR_Seq_DEFAULT_AVG_MODE == ADC_SAR_Seq__ACCUMULATE)
 864:.\Generated_Source\PSoC4/ADC_SAR_Seq.c ****             if((ADC_SAR_Seq_channelsConfig[chan] & ADC_SAR_Seq_AVERAGING_EN) != 0u)
 865:.\Generated_Source\PSoC4/ADC_SAR_Seq.c ****             {
 866:.\Generated_Source\PSoC4/ADC_SAR_Seq.c ****                 adcCounts /= ADC_SAR_Seq_DEFAULT_AVG_SAMPLES_DIV;
 867:.\Generated_Source\PSoC4/ADC_SAR_Seq.c ****             }
 868:.\Generated_Source\PSoC4/ADC_SAR_Seq.c ****         #endif /* ADC_SAR_Seq_DEFAULT_AVG_MODE == ADC_SAR_Seq__ACCUMULATE */
 869:.\Generated_Source\PSoC4/ADC_SAR_Seq.c **** 
 870:.\Generated_Source\PSoC4/ADC_SAR_Seq.c ****         /* Subtract ADC offset */
 871:.\Generated_Source\PSoC4/ADC_SAR_Seq.c ****         adcCounts -= ADC_SAR_Seq_offset[chan];
 1069              		.loc 1 871 0 is_stmt 1
 1070 0010 6200     		lsl	r2, r4, #1
 1071 0012 0A4B     		ldr	r3, .L87
 1072 0014 D05A     		ldrh	r0, [r2, r3]
 1073 0016 281A     		sub	r0, r5, r0
 1074 0018 00B2     		sxth	r0, r0
 1075              	.LVL84:
 872:.\Generated_Source\PSoC4/ADC_SAR_Seq.c **** 
 873:.\Generated_Source\PSoC4/ADC_SAR_Seq.c ****         volts = ((float32)adcCounts * ADC_SAR_Seq_10V_COUNTS) / (float32)ADC_SAR_Seq_countsPer10Vol
 1076              		.loc 1 873 0
 1077 001a FFF7FEFF 		bl	__aeabi_i2f
 1078              	.LVL85:
 1079 001e 0849     		ldr	r1, .L87+4
 1080 0020 FFF7FEFF 		bl	__aeabi_fmul
 1081              	.LVL86:
 1082 0024 051C     		add	r5, r0, #0
 1083 0026 A400     		lsl	r4, r4, #2
 1084              	.LVL87:
 1085 0028 064B     		ldr	r3, .L87+8
 1086 002a E058     		ldr	r0, [r4, r3]
 1087 002c FFF7FEFF 		bl	__aeabi_i2f
 1088              	.LVL88:
 1089 0030 011C     		add	r1, r0, #0
 1090 0032 281C     		add	r0, r5, #0
 1091 0034 FFF7FEFF 		bl	__aeabi_fdiv
 1092              	.LVL89:
 874:.\Generated_Source\PSoC4/ADC_SAR_Seq.c **** 
 875:.\Generated_Source\PSoC4/ADC_SAR_Seq.c ****         return( volts );
 876:.\Generated_Source\PSoC4/ADC_SAR_Seq.c ****     }
 1093              		.loc 1 876 0
 1094              		@ sp needed
 1095 0038 38BD     		pop	{r3, r4, r5, pc}
 1096              	.L88:
 1097 003a C046     		.align	2
 1098              	.L87:
 1099 003c 00000000 		.word	ADC_SAR_Seq_offset
 1100 0040 00002041 		.word	1092616192
 1101 0044 00000000 		.word	ADC_SAR_Seq_countsPer10Volt
 1102              		.cfi_endproc
 1103              	.LFE18:
 1104              		.size	ADC_SAR_Seq_CountsTo_Volts, .-ADC_SAR_Seq_CountsTo_Volts
 1105              		.comm	ADC_SAR_Seq_countsPer10Volt,20,4
ARM GAS  C:\Users\kylep\AppData\Local\Temp\ccmFfMW6.s 			page 36


 1106              		.comm	ADC_SAR_Seq_offset,10,4
 1107              		.global	ADC_SAR_Seq_initVar
 1108              		.section	.rodata
 1109              		.align	2
 1110              		.set	.LANCHOR0,. + 0
 1111              		.type	ADC_SAR_Seq_channelsConfig, %object
 1112              		.size	ADC_SAR_Seq_channelsConfig, 20
 1113              	ADC_SAR_Seq_channelsConfig:
 1114 0000 00040000 		.word	1024
 1115 0004 00040000 		.word	1024
 1116 0008 00040000 		.word	1024
 1117 000c 00040000 		.word	1024
 1118 0010 00340000 		.word	13312
 1119              		.type	ADC_SAR_Seq_InputsPlacement.4744, %object
 1120              		.size	ADC_SAR_Seq_InputsPlacement.4744, 5
 1121              	ADC_SAR_Seq_InputsPlacement.4744:
 1122 0014 06       		.byte	6
 1123 0015 07       		.byte	7
 1124 0016 04       		.byte	4
 1125 0017 03       		.byte	3
 1126 0018 70       		.byte	112
 1127 0019 000000   		.bss
 1128              		.set	.LANCHOR1,. + 0
 1129              		.type	ADC_SAR_Seq_initVar, %object
 1130              		.size	ADC_SAR_Seq_initVar, 1
 1131              	ADC_SAR_Seq_initVar:
 1132 0000 00       		.space	1
 1133              		.text
 1134              	.Letext0:
 1135              		.file 2 ".\\Generated_Source\\PSoC4\\cytypes.h"
 1136              		.file 3 ".\\Generated_Source\\PSoC4\\CyLib.h"