ARM GAS  C:\Users\kylep\AppData\Local\Temp\ccYOPxnt.s 			page 1


   1              		.cpu cortex-m0
   2              		.fpu softvfp
   3              		.eabi_attribute 20, 1
   4              		.eabi_attribute 21, 1
   5              		.eabi_attribute 23, 3
   6              		.eabi_attribute 24, 1
   7              		.eabi_attribute 25, 1
   8              		.eabi_attribute 26, 1
   9              		.eabi_attribute 30, 1
  10              		.eabi_attribute 34, 0
  11              		.eabi_attribute 18, 4
  12              		.code	16
  13              		.file	"CommTimeoutISR.c"
  14              		.text
  15              	.Ltext0:
  16              		.cfi_sections	.debug_frame
  17              		.section	.text.CommTimeoutISR_Interrupt,"ax",%progbits
  18              		.align	2
  19              		.global	CommTimeoutISR_Interrupt
  20              		.code	16
  21              		.thumb_func
  22              		.type	CommTimeoutISR_Interrupt, %function
  23              	CommTimeoutISR_Interrupt:
  24              	.LFB37:
  25              		.file 1 ".\\Generated_Source\\PSoC4\\CommTimeoutISR.c"
   1:.\Generated_Source\PSoC4/CommTimeoutISR.c **** /*******************************************************************************
   2:.\Generated_Source\PSoC4/CommTimeoutISR.c **** * File Name: CommTimeoutISR.c  
   3:.\Generated_Source\PSoC4/CommTimeoutISR.c **** * Version 1.70
   4:.\Generated_Source\PSoC4/CommTimeoutISR.c **** *
   5:.\Generated_Source\PSoC4/CommTimeoutISR.c **** *  Description:
   6:.\Generated_Source\PSoC4/CommTimeoutISR.c **** *   API for controlling the state of an interrupt.
   7:.\Generated_Source\PSoC4/CommTimeoutISR.c **** *
   8:.\Generated_Source\PSoC4/CommTimeoutISR.c **** *
   9:.\Generated_Source\PSoC4/CommTimeoutISR.c **** *  Note:
  10:.\Generated_Source\PSoC4/CommTimeoutISR.c **** *
  11:.\Generated_Source\PSoC4/CommTimeoutISR.c **** ********************************************************************************
  12:.\Generated_Source\PSoC4/CommTimeoutISR.c **** * Copyright 2008-2015, Cypress Semiconductor Corporation.  All rights reserved.
  13:.\Generated_Source\PSoC4/CommTimeoutISR.c **** * You may use this file only in accordance with the license, terms, conditions, 
  14:.\Generated_Source\PSoC4/CommTimeoutISR.c **** * disclaimers, and limitations in the end user license agreement accompanying 
  15:.\Generated_Source\PSoC4/CommTimeoutISR.c **** * the software package with which this file was provided.
  16:.\Generated_Source\PSoC4/CommTimeoutISR.c **** *******************************************************************************/
  17:.\Generated_Source\PSoC4/CommTimeoutISR.c **** 
  18:.\Generated_Source\PSoC4/CommTimeoutISR.c **** 
  19:.\Generated_Source\PSoC4/CommTimeoutISR.c **** #include <cydevice_trm.h>
  20:.\Generated_Source\PSoC4/CommTimeoutISR.c **** #include <CyLib.h>
  21:.\Generated_Source\PSoC4/CommTimeoutISR.c **** #include <CommTimeoutISR.h>
  22:.\Generated_Source\PSoC4/CommTimeoutISR.c **** 
  23:.\Generated_Source\PSoC4/CommTimeoutISR.c **** 
  24:.\Generated_Source\PSoC4/CommTimeoutISR.c **** #if !defined(CommTimeoutISR__REMOVED) /* Check for removal by optimization */
  25:.\Generated_Source\PSoC4/CommTimeoutISR.c **** 
  26:.\Generated_Source\PSoC4/CommTimeoutISR.c **** /*******************************************************************************
  27:.\Generated_Source\PSoC4/CommTimeoutISR.c **** *  Place your includes, defines and code here 
  28:.\Generated_Source\PSoC4/CommTimeoutISR.c **** ********************************************************************************/
  29:.\Generated_Source\PSoC4/CommTimeoutISR.c **** /* `#START CommTimeoutISR_intc` */
  30:.\Generated_Source\PSoC4/CommTimeoutISR.c **** 
  31:.\Generated_Source\PSoC4/CommTimeoutISR.c **** #include "BrightnessCommManager.h"
  32:.\Generated_Source\PSoC4/CommTimeoutISR.c ****     
ARM GAS  C:\Users\kylep\AppData\Local\Temp\ccYOPxnt.s 			page 2


  33:.\Generated_Source\PSoC4/CommTimeoutISR.c **** /* `#END` */
  34:.\Generated_Source\PSoC4/CommTimeoutISR.c **** 
  35:.\Generated_Source\PSoC4/CommTimeoutISR.c **** extern cyisraddress CyRamVectors[CYINT_IRQ_BASE + CY_NUM_INTERRUPTS];
  36:.\Generated_Source\PSoC4/CommTimeoutISR.c **** 
  37:.\Generated_Source\PSoC4/CommTimeoutISR.c **** /* Declared in startup, used to set unused interrupts to. */
  38:.\Generated_Source\PSoC4/CommTimeoutISR.c **** CY_ISR_PROTO(IntDefaultHandler);
  39:.\Generated_Source\PSoC4/CommTimeoutISR.c **** 
  40:.\Generated_Source\PSoC4/CommTimeoutISR.c **** 
  41:.\Generated_Source\PSoC4/CommTimeoutISR.c **** /*******************************************************************************
  42:.\Generated_Source\PSoC4/CommTimeoutISR.c **** * Function Name: CommTimeoutISR_Start
  43:.\Generated_Source\PSoC4/CommTimeoutISR.c **** ********************************************************************************
  44:.\Generated_Source\PSoC4/CommTimeoutISR.c **** *
  45:.\Generated_Source\PSoC4/CommTimeoutISR.c **** * Summary:
  46:.\Generated_Source\PSoC4/CommTimeoutISR.c **** *  Set up the interrupt and enable it. This function disables the interrupt, 
  47:.\Generated_Source\PSoC4/CommTimeoutISR.c **** *  sets the default interrupt vector, sets the priority from the value in the
  48:.\Generated_Source\PSoC4/CommTimeoutISR.c **** *  Design Wide Resources Interrupt Editor, then enables the interrupt to the 
  49:.\Generated_Source\PSoC4/CommTimeoutISR.c **** *  interrupt controller.
  50:.\Generated_Source\PSoC4/CommTimeoutISR.c **** *
  51:.\Generated_Source\PSoC4/CommTimeoutISR.c **** * Parameters:  
  52:.\Generated_Source\PSoC4/CommTimeoutISR.c **** *   None
  53:.\Generated_Source\PSoC4/CommTimeoutISR.c **** *
  54:.\Generated_Source\PSoC4/CommTimeoutISR.c **** * Return:
  55:.\Generated_Source\PSoC4/CommTimeoutISR.c **** *   None
  56:.\Generated_Source\PSoC4/CommTimeoutISR.c **** *
  57:.\Generated_Source\PSoC4/CommTimeoutISR.c **** *******************************************************************************/
  58:.\Generated_Source\PSoC4/CommTimeoutISR.c **** void CommTimeoutISR_Start(void)
  59:.\Generated_Source\PSoC4/CommTimeoutISR.c **** {
  60:.\Generated_Source\PSoC4/CommTimeoutISR.c ****     /* For all we know the interrupt is active. */
  61:.\Generated_Source\PSoC4/CommTimeoutISR.c ****     CommTimeoutISR_Disable();
  62:.\Generated_Source\PSoC4/CommTimeoutISR.c **** 
  63:.\Generated_Source\PSoC4/CommTimeoutISR.c ****     /* Set the ISR to point to the CommTimeoutISR Interrupt. */
  64:.\Generated_Source\PSoC4/CommTimeoutISR.c ****     CommTimeoutISR_SetVector(&CommTimeoutISR_Interrupt);
  65:.\Generated_Source\PSoC4/CommTimeoutISR.c **** 
  66:.\Generated_Source\PSoC4/CommTimeoutISR.c ****     /* Set the priority. */
  67:.\Generated_Source\PSoC4/CommTimeoutISR.c ****     CommTimeoutISR_SetPriority((uint8)CommTimeoutISR_INTC_PRIOR_NUMBER);
  68:.\Generated_Source\PSoC4/CommTimeoutISR.c **** 
  69:.\Generated_Source\PSoC4/CommTimeoutISR.c ****     /* Enable it. */
  70:.\Generated_Source\PSoC4/CommTimeoutISR.c ****     CommTimeoutISR_Enable();
  71:.\Generated_Source\PSoC4/CommTimeoutISR.c **** }
  72:.\Generated_Source\PSoC4/CommTimeoutISR.c **** 
  73:.\Generated_Source\PSoC4/CommTimeoutISR.c **** 
  74:.\Generated_Source\PSoC4/CommTimeoutISR.c **** /*******************************************************************************
  75:.\Generated_Source\PSoC4/CommTimeoutISR.c **** * Function Name: CommTimeoutISR_StartEx
  76:.\Generated_Source\PSoC4/CommTimeoutISR.c **** ********************************************************************************
  77:.\Generated_Source\PSoC4/CommTimeoutISR.c **** *
  78:.\Generated_Source\PSoC4/CommTimeoutISR.c **** * Summary:
  79:.\Generated_Source\PSoC4/CommTimeoutISR.c **** *  Sets up the interrupt and enables it. This function disables the interrupt,
  80:.\Generated_Source\PSoC4/CommTimeoutISR.c **** *  sets the interrupt vector based on the address passed in, sets the priority 
  81:.\Generated_Source\PSoC4/CommTimeoutISR.c **** *  from the value in the Design Wide Resources Interrupt Editor, then enables 
  82:.\Generated_Source\PSoC4/CommTimeoutISR.c **** *  the interrupt to the interrupt controller.
  83:.\Generated_Source\PSoC4/CommTimeoutISR.c **** *  
  84:.\Generated_Source\PSoC4/CommTimeoutISR.c **** *  When defining ISR functions, the CY_ISR and CY_ISR_PROTO macros should be 
  85:.\Generated_Source\PSoC4/CommTimeoutISR.c **** *  used to provide consistent definition across compilers:
  86:.\Generated_Source\PSoC4/CommTimeoutISR.c **** *  
  87:.\Generated_Source\PSoC4/CommTimeoutISR.c **** *  Function definition example:
  88:.\Generated_Source\PSoC4/CommTimeoutISR.c **** *   CY_ISR(MyISR)
  89:.\Generated_Source\PSoC4/CommTimeoutISR.c **** *   {
ARM GAS  C:\Users\kylep\AppData\Local\Temp\ccYOPxnt.s 			page 3


  90:.\Generated_Source\PSoC4/CommTimeoutISR.c **** *   }
  91:.\Generated_Source\PSoC4/CommTimeoutISR.c **** *   Function prototype example:
  92:.\Generated_Source\PSoC4/CommTimeoutISR.c **** *   CY_ISR_PROTO(MyISR);
  93:.\Generated_Source\PSoC4/CommTimeoutISR.c **** *
  94:.\Generated_Source\PSoC4/CommTimeoutISR.c **** * Parameters:  
  95:.\Generated_Source\PSoC4/CommTimeoutISR.c **** *   address: Address of the ISR to set in the interrupt vector table.
  96:.\Generated_Source\PSoC4/CommTimeoutISR.c **** *
  97:.\Generated_Source\PSoC4/CommTimeoutISR.c **** * Return:
  98:.\Generated_Source\PSoC4/CommTimeoutISR.c **** *   None
  99:.\Generated_Source\PSoC4/CommTimeoutISR.c **** *
 100:.\Generated_Source\PSoC4/CommTimeoutISR.c **** *******************************************************************************/
 101:.\Generated_Source\PSoC4/CommTimeoutISR.c **** void CommTimeoutISR_StartEx(cyisraddress address)
 102:.\Generated_Source\PSoC4/CommTimeoutISR.c **** {
 103:.\Generated_Source\PSoC4/CommTimeoutISR.c ****     /* For all we know the interrupt is active. */
 104:.\Generated_Source\PSoC4/CommTimeoutISR.c ****     CommTimeoutISR_Disable();
 105:.\Generated_Source\PSoC4/CommTimeoutISR.c **** 
 106:.\Generated_Source\PSoC4/CommTimeoutISR.c ****     /* Set the ISR to point to the CommTimeoutISR Interrupt. */
 107:.\Generated_Source\PSoC4/CommTimeoutISR.c ****     CommTimeoutISR_SetVector(address);
 108:.\Generated_Source\PSoC4/CommTimeoutISR.c **** 
 109:.\Generated_Source\PSoC4/CommTimeoutISR.c ****     /* Set the priority. */
 110:.\Generated_Source\PSoC4/CommTimeoutISR.c ****     CommTimeoutISR_SetPriority((uint8)CommTimeoutISR_INTC_PRIOR_NUMBER);
 111:.\Generated_Source\PSoC4/CommTimeoutISR.c **** 
 112:.\Generated_Source\PSoC4/CommTimeoutISR.c ****     /* Enable it. */
 113:.\Generated_Source\PSoC4/CommTimeoutISR.c ****     CommTimeoutISR_Enable();
 114:.\Generated_Source\PSoC4/CommTimeoutISR.c **** }
 115:.\Generated_Source\PSoC4/CommTimeoutISR.c **** 
 116:.\Generated_Source\PSoC4/CommTimeoutISR.c **** 
 117:.\Generated_Source\PSoC4/CommTimeoutISR.c **** /*******************************************************************************
 118:.\Generated_Source\PSoC4/CommTimeoutISR.c **** * Function Name: CommTimeoutISR_Stop
 119:.\Generated_Source\PSoC4/CommTimeoutISR.c **** ********************************************************************************
 120:.\Generated_Source\PSoC4/CommTimeoutISR.c **** *
 121:.\Generated_Source\PSoC4/CommTimeoutISR.c **** * Summary:
 122:.\Generated_Source\PSoC4/CommTimeoutISR.c **** *   Disables and removes the interrupt.
 123:.\Generated_Source\PSoC4/CommTimeoutISR.c **** *
 124:.\Generated_Source\PSoC4/CommTimeoutISR.c **** * Parameters:  
 125:.\Generated_Source\PSoC4/CommTimeoutISR.c **** *   None
 126:.\Generated_Source\PSoC4/CommTimeoutISR.c **** *
 127:.\Generated_Source\PSoC4/CommTimeoutISR.c **** * Return:
 128:.\Generated_Source\PSoC4/CommTimeoutISR.c **** *   None
 129:.\Generated_Source\PSoC4/CommTimeoutISR.c **** *
 130:.\Generated_Source\PSoC4/CommTimeoutISR.c **** *******************************************************************************/
 131:.\Generated_Source\PSoC4/CommTimeoutISR.c **** void CommTimeoutISR_Stop(void)
 132:.\Generated_Source\PSoC4/CommTimeoutISR.c **** {
 133:.\Generated_Source\PSoC4/CommTimeoutISR.c ****     /* Disable this interrupt. */
 134:.\Generated_Source\PSoC4/CommTimeoutISR.c ****     CommTimeoutISR_Disable();
 135:.\Generated_Source\PSoC4/CommTimeoutISR.c **** 
 136:.\Generated_Source\PSoC4/CommTimeoutISR.c ****     /* Set the ISR to point to the passive one. */
 137:.\Generated_Source\PSoC4/CommTimeoutISR.c ****     CommTimeoutISR_SetVector(&IntDefaultHandler);
 138:.\Generated_Source\PSoC4/CommTimeoutISR.c **** }
 139:.\Generated_Source\PSoC4/CommTimeoutISR.c **** 
 140:.\Generated_Source\PSoC4/CommTimeoutISR.c **** 
 141:.\Generated_Source\PSoC4/CommTimeoutISR.c **** /*******************************************************************************
 142:.\Generated_Source\PSoC4/CommTimeoutISR.c **** * Function Name: CommTimeoutISR_Interrupt
 143:.\Generated_Source\PSoC4/CommTimeoutISR.c **** ********************************************************************************
 144:.\Generated_Source\PSoC4/CommTimeoutISR.c **** *
 145:.\Generated_Source\PSoC4/CommTimeoutISR.c **** * Summary:
 146:.\Generated_Source\PSoC4/CommTimeoutISR.c **** *   The default Interrupt Service Routine for CommTimeoutISR.
ARM GAS  C:\Users\kylep\AppData\Local\Temp\ccYOPxnt.s 			page 4


 147:.\Generated_Source\PSoC4/CommTimeoutISR.c **** *
 148:.\Generated_Source\PSoC4/CommTimeoutISR.c **** *   Add custom code between the START and END comments to keep the next version
 149:.\Generated_Source\PSoC4/CommTimeoutISR.c **** *   of this file from over-writing your code.
 150:.\Generated_Source\PSoC4/CommTimeoutISR.c **** *
 151:.\Generated_Source\PSoC4/CommTimeoutISR.c **** *   Note You may use either the default ISR by using this API, or you may define
 152:.\Generated_Source\PSoC4/CommTimeoutISR.c **** *   your own separate ISR through ISR_StartEx().
 153:.\Generated_Source\PSoC4/CommTimeoutISR.c **** *
 154:.\Generated_Source\PSoC4/CommTimeoutISR.c **** * Parameters:  
 155:.\Generated_Source\PSoC4/CommTimeoutISR.c **** *   None
 156:.\Generated_Source\PSoC4/CommTimeoutISR.c **** *
 157:.\Generated_Source\PSoC4/CommTimeoutISR.c **** * Return:
 158:.\Generated_Source\PSoC4/CommTimeoutISR.c **** *   None
 159:.\Generated_Source\PSoC4/CommTimeoutISR.c **** *
 160:.\Generated_Source\PSoC4/CommTimeoutISR.c **** *******************************************************************************/
 161:.\Generated_Source\PSoC4/CommTimeoutISR.c **** CY_ISR(CommTimeoutISR_Interrupt)
 162:.\Generated_Source\PSoC4/CommTimeoutISR.c **** {
  26              		.loc 1 162 0
  27              		.cfi_startproc
  28 0000 08B5     		push	{r3, lr}
  29              		.cfi_def_cfa_offset 8
  30              		.cfi_offset 3, -8
  31              		.cfi_offset 14, -4
 163:.\Generated_Source\PSoC4/CommTimeoutISR.c ****     #ifdef CommTimeoutISR_INTERRUPT_INTERRUPT_CALLBACK
 164:.\Generated_Source\PSoC4/CommTimeoutISR.c ****         CommTimeoutISR_Interrupt_InterruptCallback();
 165:.\Generated_Source\PSoC4/CommTimeoutISR.c ****     #endif /* CommTimeoutISR_INTERRUPT_INTERRUPT_CALLBACK */ 
 166:.\Generated_Source\PSoC4/CommTimeoutISR.c **** 
 167:.\Generated_Source\PSoC4/CommTimeoutISR.c ****     /*  Place your Interrupt code here. */
 168:.\Generated_Source\PSoC4/CommTimeoutISR.c ****     /* `#START CommTimeoutISR_Interrupt` */
 169:.\Generated_Source\PSoC4/CommTimeoutISR.c **** 
 170:.\Generated_Source\PSoC4/CommTimeoutISR.c ****     processTimeoutTimerRoutine();
  32              		.loc 1 170 0
  33 0002 FFF7FEFF 		bl	processTimeoutTimerRoutine
  34              	.LVL0:
 171:.\Generated_Source\PSoC4/CommTimeoutISR.c ****     
 172:.\Generated_Source\PSoC4/CommTimeoutISR.c ****     /* `#END` */
 173:.\Generated_Source\PSoC4/CommTimeoutISR.c **** }
  35              		.loc 1 173 0
  36              		@ sp needed
  37 0006 08BD     		pop	{r3, pc}
  38              		.cfi_endproc
  39              	.LFE37:
  40              		.size	CommTimeoutISR_Interrupt, .-CommTimeoutISR_Interrupt
  41              		.section	.text.CommTimeoutISR_SetVector,"ax",%progbits
  42              		.align	2
  43              		.global	CommTimeoutISR_SetVector
  44              		.code	16
  45              		.thumb_func
  46              		.type	CommTimeoutISR_SetVector, %function
  47              	CommTimeoutISR_SetVector:
  48              	.LFB38:
 174:.\Generated_Source\PSoC4/CommTimeoutISR.c **** 
 175:.\Generated_Source\PSoC4/CommTimeoutISR.c **** 
 176:.\Generated_Source\PSoC4/CommTimeoutISR.c **** /*******************************************************************************
 177:.\Generated_Source\PSoC4/CommTimeoutISR.c **** * Function Name: CommTimeoutISR_SetVector
 178:.\Generated_Source\PSoC4/CommTimeoutISR.c **** ********************************************************************************
 179:.\Generated_Source\PSoC4/CommTimeoutISR.c **** *
 180:.\Generated_Source\PSoC4/CommTimeoutISR.c **** * Summary:
ARM GAS  C:\Users\kylep\AppData\Local\Temp\ccYOPxnt.s 			page 5


 181:.\Generated_Source\PSoC4/CommTimeoutISR.c **** *   Change the ISR vector for the Interrupt. Note calling CommTimeoutISR_Start
 182:.\Generated_Source\PSoC4/CommTimeoutISR.c **** *   will override any effect this method would have had. To set the vector 
 183:.\Generated_Source\PSoC4/CommTimeoutISR.c **** *   before the component has been started use CommTimeoutISR_StartEx instead.
 184:.\Generated_Source\PSoC4/CommTimeoutISR.c **** * 
 185:.\Generated_Source\PSoC4/CommTimeoutISR.c **** *   When defining ISR functions, the CY_ISR and CY_ISR_PROTO macros should be 
 186:.\Generated_Source\PSoC4/CommTimeoutISR.c **** *   used to provide consistent definition across compilers:
 187:.\Generated_Source\PSoC4/CommTimeoutISR.c **** *
 188:.\Generated_Source\PSoC4/CommTimeoutISR.c **** *   Function definition example:
 189:.\Generated_Source\PSoC4/CommTimeoutISR.c **** *   CY_ISR(MyISR)
 190:.\Generated_Source\PSoC4/CommTimeoutISR.c **** *   {
 191:.\Generated_Source\PSoC4/CommTimeoutISR.c **** *   }
 192:.\Generated_Source\PSoC4/CommTimeoutISR.c **** *
 193:.\Generated_Source\PSoC4/CommTimeoutISR.c **** *   Function prototype example:
 194:.\Generated_Source\PSoC4/CommTimeoutISR.c **** *     CY_ISR_PROTO(MyISR);
 195:.\Generated_Source\PSoC4/CommTimeoutISR.c **** *
 196:.\Generated_Source\PSoC4/CommTimeoutISR.c **** * Parameters:
 197:.\Generated_Source\PSoC4/CommTimeoutISR.c **** *   address: Address of the ISR to set in the interrupt vector table.
 198:.\Generated_Source\PSoC4/CommTimeoutISR.c **** *
 199:.\Generated_Source\PSoC4/CommTimeoutISR.c **** * Return:
 200:.\Generated_Source\PSoC4/CommTimeoutISR.c **** *   None
 201:.\Generated_Source\PSoC4/CommTimeoutISR.c **** *
 202:.\Generated_Source\PSoC4/CommTimeoutISR.c **** *******************************************************************************/
 203:.\Generated_Source\PSoC4/CommTimeoutISR.c **** void CommTimeoutISR_SetVector(cyisraddress address)
 204:.\Generated_Source\PSoC4/CommTimeoutISR.c **** {
  49              		.loc 1 204 0
  50              		.cfi_startproc
  51              	.LVL1:
 205:.\Generated_Source\PSoC4/CommTimeoutISR.c ****     CyRamVectors[CYINT_IRQ_BASE + CommTimeoutISR__INTC_NUMBER] = address;
  52              		.loc 1 205 0
  53 0000 014B     		ldr	r3, .L3
  54 0002 9864     		str	r0, [r3, #72]
 206:.\Generated_Source\PSoC4/CommTimeoutISR.c **** }
  55              		.loc 1 206 0
  56              		@ sp needed
  57 0004 7047     		bx	lr
  58              	.L4:
  59 0006 C046     		.align	2
  60              	.L3:
  61 0008 00000000 		.word	CyRamVectors
  62              		.cfi_endproc
  63              	.LFE38:
  64              		.size	CommTimeoutISR_SetVector, .-CommTimeoutISR_SetVector
  65              		.section	.text.CommTimeoutISR_GetVector,"ax",%progbits
  66              		.align	2
  67              		.global	CommTimeoutISR_GetVector
  68              		.code	16
  69              		.thumb_func
  70              		.type	CommTimeoutISR_GetVector, %function
  71              	CommTimeoutISR_GetVector:
  72              	.LFB39:
 207:.\Generated_Source\PSoC4/CommTimeoutISR.c **** 
 208:.\Generated_Source\PSoC4/CommTimeoutISR.c **** 
 209:.\Generated_Source\PSoC4/CommTimeoutISR.c **** /*******************************************************************************
 210:.\Generated_Source\PSoC4/CommTimeoutISR.c **** * Function Name: CommTimeoutISR_GetVector
 211:.\Generated_Source\PSoC4/CommTimeoutISR.c **** ********************************************************************************
 212:.\Generated_Source\PSoC4/CommTimeoutISR.c **** *
 213:.\Generated_Source\PSoC4/CommTimeoutISR.c **** * Summary:
ARM GAS  C:\Users\kylep\AppData\Local\Temp\ccYOPxnt.s 			page 6


 214:.\Generated_Source\PSoC4/CommTimeoutISR.c **** *   Gets the "address" of the current ISR vector for the Interrupt.
 215:.\Generated_Source\PSoC4/CommTimeoutISR.c **** *
 216:.\Generated_Source\PSoC4/CommTimeoutISR.c **** * Parameters:
 217:.\Generated_Source\PSoC4/CommTimeoutISR.c **** *   None
 218:.\Generated_Source\PSoC4/CommTimeoutISR.c **** *
 219:.\Generated_Source\PSoC4/CommTimeoutISR.c **** * Return:
 220:.\Generated_Source\PSoC4/CommTimeoutISR.c **** *   Address of the ISR in the interrupt vector table.
 221:.\Generated_Source\PSoC4/CommTimeoutISR.c **** *
 222:.\Generated_Source\PSoC4/CommTimeoutISR.c **** *******************************************************************************/
 223:.\Generated_Source\PSoC4/CommTimeoutISR.c **** cyisraddress CommTimeoutISR_GetVector(void)
 224:.\Generated_Source\PSoC4/CommTimeoutISR.c **** {
  73              		.loc 1 224 0
  74              		.cfi_startproc
 225:.\Generated_Source\PSoC4/CommTimeoutISR.c ****     return CyRamVectors[CYINT_IRQ_BASE + CommTimeoutISR__INTC_NUMBER];
  75              		.loc 1 225 0
  76 0000 014B     		ldr	r3, .L6
  77 0002 986C     		ldr	r0, [r3, #72]
 226:.\Generated_Source\PSoC4/CommTimeoutISR.c **** }
  78              		.loc 1 226 0
  79              		@ sp needed
  80 0004 7047     		bx	lr
  81              	.L7:
  82 0006 C046     		.align	2
  83              	.L6:
  84 0008 00000000 		.word	CyRamVectors
  85              		.cfi_endproc
  86              	.LFE39:
  87              		.size	CommTimeoutISR_GetVector, .-CommTimeoutISR_GetVector
  88              		.section	.text.CommTimeoutISR_SetPriority,"ax",%progbits
  89              		.align	2
  90              		.global	CommTimeoutISR_SetPriority
  91              		.code	16
  92              		.thumb_func
  93              		.type	CommTimeoutISR_SetPriority, %function
  94              	CommTimeoutISR_SetPriority:
  95              	.LFB40:
 227:.\Generated_Source\PSoC4/CommTimeoutISR.c **** 
 228:.\Generated_Source\PSoC4/CommTimeoutISR.c **** 
 229:.\Generated_Source\PSoC4/CommTimeoutISR.c **** /*******************************************************************************
 230:.\Generated_Source\PSoC4/CommTimeoutISR.c **** * Function Name: CommTimeoutISR_SetPriority
 231:.\Generated_Source\PSoC4/CommTimeoutISR.c **** ********************************************************************************
 232:.\Generated_Source\PSoC4/CommTimeoutISR.c **** *
 233:.\Generated_Source\PSoC4/CommTimeoutISR.c **** * Summary:
 234:.\Generated_Source\PSoC4/CommTimeoutISR.c **** *   Sets the Priority of the Interrupt. 
 235:.\Generated_Source\PSoC4/CommTimeoutISR.c **** *
 236:.\Generated_Source\PSoC4/CommTimeoutISR.c **** *   Note calling CommTimeoutISR_Start or CommTimeoutISR_StartEx will 
 237:.\Generated_Source\PSoC4/CommTimeoutISR.c **** *   override any effect this API would have had. This API should only be called
 238:.\Generated_Source\PSoC4/CommTimeoutISR.c **** *   after CommTimeoutISR_Start or CommTimeoutISR_StartEx has been called. 
 239:.\Generated_Source\PSoC4/CommTimeoutISR.c **** *   To set the initial priority for the component, use the Design-Wide Resources
 240:.\Generated_Source\PSoC4/CommTimeoutISR.c **** *   Interrupt Editor.
 241:.\Generated_Source\PSoC4/CommTimeoutISR.c **** *
 242:.\Generated_Source\PSoC4/CommTimeoutISR.c **** *   Note This API has no effect on Non-maskable interrupt NMI).
 243:.\Generated_Source\PSoC4/CommTimeoutISR.c **** *
 244:.\Generated_Source\PSoC4/CommTimeoutISR.c **** * Parameters:
 245:.\Generated_Source\PSoC4/CommTimeoutISR.c **** *   priority: Priority of the interrupt, 0 being the highest priority
 246:.\Generated_Source\PSoC4/CommTimeoutISR.c **** *             PSoC 3 and PSoC 5LP: Priority is from 0 to 7.
 247:.\Generated_Source\PSoC4/CommTimeoutISR.c **** *             PSoC 4: Priority is from 0 to 3.
ARM GAS  C:\Users\kylep\AppData\Local\Temp\ccYOPxnt.s 			page 7


 248:.\Generated_Source\PSoC4/CommTimeoutISR.c **** *
 249:.\Generated_Source\PSoC4/CommTimeoutISR.c **** * Return:
 250:.\Generated_Source\PSoC4/CommTimeoutISR.c **** *   None
 251:.\Generated_Source\PSoC4/CommTimeoutISR.c **** *
 252:.\Generated_Source\PSoC4/CommTimeoutISR.c **** *******************************************************************************/
 253:.\Generated_Source\PSoC4/CommTimeoutISR.c **** void CommTimeoutISR_SetPriority(uint8 priority)
 254:.\Generated_Source\PSoC4/CommTimeoutISR.c **** {
  96              		.loc 1 254 0
  97              		.cfi_startproc
  98              	.LVL2:
  99 0000 10B5     		push	{r4, lr}
 100              		.cfi_def_cfa_offset 8
 101              		.cfi_offset 4, -8
 102              		.cfi_offset 14, -4
 103 0002 041C     		mov	r4, r0
 104              	.LVL3:
 255:.\Generated_Source\PSoC4/CommTimeoutISR.c **** 	uint8 interruptState;
 256:.\Generated_Source\PSoC4/CommTimeoutISR.c ****     uint32 priorityOffset = ((CommTimeoutISR__INTC_NUMBER % 4u) * 8u) + 6u;
 257:.\Generated_Source\PSoC4/CommTimeoutISR.c ****     
 258:.\Generated_Source\PSoC4/CommTimeoutISR.c **** 	interruptState = CyEnterCriticalSection();
 105              		.loc 1 258 0
 106 0004 FFF7FEFF 		bl	CyEnterCriticalSection
 107              	.LVL4:
 259:.\Generated_Source\PSoC4/CommTimeoutISR.c ****     *CommTimeoutISR_INTC_PRIOR = (*CommTimeoutISR_INTC_PRIOR & (uint32)(~CommTimeoutISR__INTC_PRIOR
 108              		.loc 1 259 0
 109 0008 044A     		ldr	r2, .L9
 110 000a 1168     		ldr	r1, [r2]
 111 000c 044B     		ldr	r3, .L9+4
 112 000e 0B40     		and	r3, r1
 260:.\Generated_Source\PSoC4/CommTimeoutISR.c ****                                     ((uint32)priority << priorityOffset);
 113              		.loc 1 260 0
 114 0010 A405     		lsl	r4, r4, #22
 259:.\Generated_Source\PSoC4/CommTimeoutISR.c ****     *CommTimeoutISR_INTC_PRIOR = (*CommTimeoutISR_INTC_PRIOR & (uint32)(~CommTimeoutISR__INTC_PRIOR
 115              		.loc 1 259 0
 116 0012 1C43     		orr	r4, r3
 117 0014 1460     		str	r4, [r2]
 261:.\Generated_Source\PSoC4/CommTimeoutISR.c **** 	CyExitCriticalSection(interruptState);
 118              		.loc 1 261 0
 119 0016 FFF7FEFF 		bl	CyExitCriticalSection
 120              	.LVL5:
 262:.\Generated_Source\PSoC4/CommTimeoutISR.c **** }
 121              		.loc 1 262 0
 122              		@ sp needed
 123 001a 10BD     		pop	{r4, pc}
 124              	.L10:
 125              		.align	2
 126              	.L9:
 127 001c 00E400E0 		.word	-536812544
 128 0020 FFFF3FFF 		.word	-12582913
 129              		.cfi_endproc
 130              	.LFE40:
 131              		.size	CommTimeoutISR_SetPriority, .-CommTimeoutISR_SetPriority
 132              		.section	.text.CommTimeoutISR_GetPriority,"ax",%progbits
 133              		.align	2
 134              		.global	CommTimeoutISR_GetPriority
 135              		.code	16
 136              		.thumb_func
ARM GAS  C:\Users\kylep\AppData\Local\Temp\ccYOPxnt.s 			page 8


 137              		.type	CommTimeoutISR_GetPriority, %function
 138              	CommTimeoutISR_GetPriority:
 139              	.LFB41:
 263:.\Generated_Source\PSoC4/CommTimeoutISR.c **** 
 264:.\Generated_Source\PSoC4/CommTimeoutISR.c **** 
 265:.\Generated_Source\PSoC4/CommTimeoutISR.c **** /*******************************************************************************
 266:.\Generated_Source\PSoC4/CommTimeoutISR.c **** * Function Name: CommTimeoutISR_GetPriority
 267:.\Generated_Source\PSoC4/CommTimeoutISR.c **** ********************************************************************************
 268:.\Generated_Source\PSoC4/CommTimeoutISR.c **** *
 269:.\Generated_Source\PSoC4/CommTimeoutISR.c **** * Summary:
 270:.\Generated_Source\PSoC4/CommTimeoutISR.c **** *   Gets the Priority of the Interrupt.
 271:.\Generated_Source\PSoC4/CommTimeoutISR.c **** *
 272:.\Generated_Source\PSoC4/CommTimeoutISR.c **** * Parameters:
 273:.\Generated_Source\PSoC4/CommTimeoutISR.c **** *   None
 274:.\Generated_Source\PSoC4/CommTimeoutISR.c **** *
 275:.\Generated_Source\PSoC4/CommTimeoutISR.c **** * Return:
 276:.\Generated_Source\PSoC4/CommTimeoutISR.c **** *   Priority of the interrupt, 0 being the highest priority
 277:.\Generated_Source\PSoC4/CommTimeoutISR.c **** *    PSoC 3 and PSoC 5LP: Priority is from 0 to 7.
 278:.\Generated_Source\PSoC4/CommTimeoutISR.c **** *    PSoC 4: Priority is from 0 to 3.
 279:.\Generated_Source\PSoC4/CommTimeoutISR.c **** *
 280:.\Generated_Source\PSoC4/CommTimeoutISR.c **** *******************************************************************************/
 281:.\Generated_Source\PSoC4/CommTimeoutISR.c **** uint8 CommTimeoutISR_GetPriority(void)
 282:.\Generated_Source\PSoC4/CommTimeoutISR.c **** {
 140              		.loc 1 282 0
 141              		.cfi_startproc
 142              	.LVL6:
 283:.\Generated_Source\PSoC4/CommTimeoutISR.c ****     uint32 priority;
 284:.\Generated_Source\PSoC4/CommTimeoutISR.c **** 	uint32 priorityOffset = ((CommTimeoutISR__INTC_NUMBER % 4u) * 8u) + 6u;
 285:.\Generated_Source\PSoC4/CommTimeoutISR.c **** 
 286:.\Generated_Source\PSoC4/CommTimeoutISR.c ****     priority = (*CommTimeoutISR_INTC_PRIOR & CommTimeoutISR__INTC_PRIOR_MASK) >> priorityOffset;
 143              		.loc 1 286 0
 144 0000 024B     		ldr	r3, .L12
 145 0002 1868     		ldr	r0, [r3]
 146 0004 0002     		lsl	r0, r0, #8
 147              	.LVL7:
 287:.\Generated_Source\PSoC4/CommTimeoutISR.c **** 
 288:.\Generated_Source\PSoC4/CommTimeoutISR.c ****     return (uint8)priority;
 148              		.loc 1 288 0
 149 0006 800F     		lsr	r0, r0, #30
 150              	.LVL8:
 289:.\Generated_Source\PSoC4/CommTimeoutISR.c **** }
 151              		.loc 1 289 0
 152              		@ sp needed
 153 0008 7047     		bx	lr
 154              	.L13:
 155 000a C046     		.align	2
 156              	.L12:
 157 000c 00E400E0 		.word	-536812544
 158              		.cfi_endproc
 159              	.LFE41:
 160              		.size	CommTimeoutISR_GetPriority, .-CommTimeoutISR_GetPriority
 161              		.section	.text.CommTimeoutISR_Enable,"ax",%progbits
 162              		.align	2
 163              		.global	CommTimeoutISR_Enable
 164              		.code	16
 165              		.thumb_func
 166              		.type	CommTimeoutISR_Enable, %function
ARM GAS  C:\Users\kylep\AppData\Local\Temp\ccYOPxnt.s 			page 9


 167              	CommTimeoutISR_Enable:
 168              	.LFB42:
 290:.\Generated_Source\PSoC4/CommTimeoutISR.c **** 
 291:.\Generated_Source\PSoC4/CommTimeoutISR.c **** 
 292:.\Generated_Source\PSoC4/CommTimeoutISR.c **** /*******************************************************************************
 293:.\Generated_Source\PSoC4/CommTimeoutISR.c **** * Function Name: CommTimeoutISR_Enable
 294:.\Generated_Source\PSoC4/CommTimeoutISR.c **** ********************************************************************************
 295:.\Generated_Source\PSoC4/CommTimeoutISR.c **** *
 296:.\Generated_Source\PSoC4/CommTimeoutISR.c **** * Summary:
 297:.\Generated_Source\PSoC4/CommTimeoutISR.c **** *   Enables the interrupt to the interrupt controller. Do not call this function
 298:.\Generated_Source\PSoC4/CommTimeoutISR.c **** *   unless ISR_Start() has been called or the functionality of the ISR_Start() 
 299:.\Generated_Source\PSoC4/CommTimeoutISR.c **** *   function, which sets the vector and the priority, has been called.
 300:.\Generated_Source\PSoC4/CommTimeoutISR.c **** *
 301:.\Generated_Source\PSoC4/CommTimeoutISR.c **** * Parameters:
 302:.\Generated_Source\PSoC4/CommTimeoutISR.c **** *   None
 303:.\Generated_Source\PSoC4/CommTimeoutISR.c **** *
 304:.\Generated_Source\PSoC4/CommTimeoutISR.c **** * Return:
 305:.\Generated_Source\PSoC4/CommTimeoutISR.c **** *   None
 306:.\Generated_Source\PSoC4/CommTimeoutISR.c **** *
 307:.\Generated_Source\PSoC4/CommTimeoutISR.c **** *******************************************************************************/
 308:.\Generated_Source\PSoC4/CommTimeoutISR.c **** void CommTimeoutISR_Enable(void)
 309:.\Generated_Source\PSoC4/CommTimeoutISR.c **** {
 169              		.loc 1 309 0
 170              		.cfi_startproc
 310:.\Generated_Source\PSoC4/CommTimeoutISR.c ****     /* Enable the general interrupt. */
 311:.\Generated_Source\PSoC4/CommTimeoutISR.c ****     *CommTimeoutISR_INTC_SET_EN = CommTimeoutISR__INTC_MASK;
 171              		.loc 1 311 0
 172 0000 0422     		mov	r2, #4
 173 0002 014B     		ldr	r3, .L15
 174 0004 1A60     		str	r2, [r3]
 312:.\Generated_Source\PSoC4/CommTimeoutISR.c **** }
 175              		.loc 1 312 0
 176              		@ sp needed
 177 0006 7047     		bx	lr
 178              	.L16:
 179              		.align	2
 180              	.L15:
 181 0008 00E100E0 		.word	-536813312
 182              		.cfi_endproc
 183              	.LFE42:
 184              		.size	CommTimeoutISR_Enable, .-CommTimeoutISR_Enable
 185              		.section	.text.CommTimeoutISR_GetState,"ax",%progbits
 186              		.align	2
 187              		.global	CommTimeoutISR_GetState
 188              		.code	16
 189              		.thumb_func
 190              		.type	CommTimeoutISR_GetState, %function
 191              	CommTimeoutISR_GetState:
 192              	.LFB43:
 313:.\Generated_Source\PSoC4/CommTimeoutISR.c **** 
 314:.\Generated_Source\PSoC4/CommTimeoutISR.c **** 
 315:.\Generated_Source\PSoC4/CommTimeoutISR.c **** /*******************************************************************************
 316:.\Generated_Source\PSoC4/CommTimeoutISR.c **** * Function Name: CommTimeoutISR_GetState
 317:.\Generated_Source\PSoC4/CommTimeoutISR.c **** ********************************************************************************
 318:.\Generated_Source\PSoC4/CommTimeoutISR.c **** *
 319:.\Generated_Source\PSoC4/CommTimeoutISR.c **** * Summary:
 320:.\Generated_Source\PSoC4/CommTimeoutISR.c **** *   Gets the state (enabled, disabled) of the Interrupt.
ARM GAS  C:\Users\kylep\AppData\Local\Temp\ccYOPxnt.s 			page 10


 321:.\Generated_Source\PSoC4/CommTimeoutISR.c **** *
 322:.\Generated_Source\PSoC4/CommTimeoutISR.c **** * Parameters:
 323:.\Generated_Source\PSoC4/CommTimeoutISR.c **** *   None
 324:.\Generated_Source\PSoC4/CommTimeoutISR.c **** *
 325:.\Generated_Source\PSoC4/CommTimeoutISR.c **** * Return:
 326:.\Generated_Source\PSoC4/CommTimeoutISR.c **** *   1 if enabled, 0 if disabled.
 327:.\Generated_Source\PSoC4/CommTimeoutISR.c **** *
 328:.\Generated_Source\PSoC4/CommTimeoutISR.c **** *******************************************************************************/
 329:.\Generated_Source\PSoC4/CommTimeoutISR.c **** uint8 CommTimeoutISR_GetState(void)
 330:.\Generated_Source\PSoC4/CommTimeoutISR.c **** {
 193              		.loc 1 330 0
 194              		.cfi_startproc
 331:.\Generated_Source\PSoC4/CommTimeoutISR.c ****     /* Get the state of the general interrupt. */
 332:.\Generated_Source\PSoC4/CommTimeoutISR.c ****     return ((*CommTimeoutISR_INTC_SET_EN & (uint32)CommTimeoutISR__INTC_MASK) != 0u) ? 1u:0u;
 195              		.loc 1 332 0
 196 0000 034B     		ldr	r3, .L20
 197 0002 1B68     		ldr	r3, [r3]
 198 0004 5B07     		lsl	r3, r3, #29
 199 0006 01D5     		bpl	.L19
 200 0008 0120     		mov	r0, #1
 201 000a 00E0     		b	.L18
 202              	.L19:
 203 000c 0020     		mov	r0, #0
 204              	.L18:
 333:.\Generated_Source\PSoC4/CommTimeoutISR.c **** }
 205              		.loc 1 333 0 discriminator 4
 206              		@ sp needed
 207 000e 7047     		bx	lr
 208              	.L21:
 209              		.align	2
 210              	.L20:
 211 0010 00E100E0 		.word	-536813312
 212              		.cfi_endproc
 213              	.LFE43:
 214              		.size	CommTimeoutISR_GetState, .-CommTimeoutISR_GetState
 215              		.section	.text.CommTimeoutISR_Disable,"ax",%progbits
 216              		.align	2
 217              		.global	CommTimeoutISR_Disable
 218              		.code	16
 219              		.thumb_func
 220              		.type	CommTimeoutISR_Disable, %function
 221              	CommTimeoutISR_Disable:
 222              	.LFB44:
 334:.\Generated_Source\PSoC4/CommTimeoutISR.c **** 
 335:.\Generated_Source\PSoC4/CommTimeoutISR.c **** 
 336:.\Generated_Source\PSoC4/CommTimeoutISR.c **** /*******************************************************************************
 337:.\Generated_Source\PSoC4/CommTimeoutISR.c **** * Function Name: CommTimeoutISR_Disable
 338:.\Generated_Source\PSoC4/CommTimeoutISR.c **** ********************************************************************************
 339:.\Generated_Source\PSoC4/CommTimeoutISR.c **** *
 340:.\Generated_Source\PSoC4/CommTimeoutISR.c **** * Summary:
 341:.\Generated_Source\PSoC4/CommTimeoutISR.c **** *   Disables the Interrupt in the interrupt controller.
 342:.\Generated_Source\PSoC4/CommTimeoutISR.c **** *
 343:.\Generated_Source\PSoC4/CommTimeoutISR.c **** * Parameters:
 344:.\Generated_Source\PSoC4/CommTimeoutISR.c **** *   None
 345:.\Generated_Source\PSoC4/CommTimeoutISR.c **** *
 346:.\Generated_Source\PSoC4/CommTimeoutISR.c **** * Return:
 347:.\Generated_Source\PSoC4/CommTimeoutISR.c **** *   None
ARM GAS  C:\Users\kylep\AppData\Local\Temp\ccYOPxnt.s 			page 11


 348:.\Generated_Source\PSoC4/CommTimeoutISR.c **** *
 349:.\Generated_Source\PSoC4/CommTimeoutISR.c **** *******************************************************************************/
 350:.\Generated_Source\PSoC4/CommTimeoutISR.c **** void CommTimeoutISR_Disable(void)
 351:.\Generated_Source\PSoC4/CommTimeoutISR.c **** {
 223              		.loc 1 351 0
 224              		.cfi_startproc
 352:.\Generated_Source\PSoC4/CommTimeoutISR.c ****     /* Disable the general interrupt. */
 353:.\Generated_Source\PSoC4/CommTimeoutISR.c ****     *CommTimeoutISR_INTC_CLR_EN = CommTimeoutISR__INTC_MASK;
 225              		.loc 1 353 0
 226 0000 0422     		mov	r2, #4
 227 0002 014B     		ldr	r3, .L23
 228 0004 1A60     		str	r2, [r3]
 354:.\Generated_Source\PSoC4/CommTimeoutISR.c **** }
 229              		.loc 1 354 0
 230              		@ sp needed
 231 0006 7047     		bx	lr
 232              	.L24:
 233              		.align	2
 234              	.L23:
 235 0008 80E100E0 		.word	-536813184
 236              		.cfi_endproc
 237              	.LFE44:
 238              		.size	CommTimeoutISR_Disable, .-CommTimeoutISR_Disable
 239              		.section	.text.CommTimeoutISR_Start,"ax",%progbits
 240              		.align	2
 241              		.global	CommTimeoutISR_Start
 242              		.code	16
 243              		.thumb_func
 244              		.type	CommTimeoutISR_Start, %function
 245              	CommTimeoutISR_Start:
 246              	.LFB34:
  59:.\Generated_Source\PSoC4/CommTimeoutISR.c ****     /* For all we know the interrupt is active. */
 247              		.loc 1 59 0
 248              		.cfi_startproc
 249 0000 08B5     		push	{r3, lr}
 250              		.cfi_def_cfa_offset 8
 251              		.cfi_offset 3, -8
 252              		.cfi_offset 14, -4
  61:.\Generated_Source\PSoC4/CommTimeoutISR.c **** 
 253              		.loc 1 61 0
 254 0002 FFF7FEFF 		bl	CommTimeoutISR_Disable
 255              	.LVL9:
  64:.\Generated_Source\PSoC4/CommTimeoutISR.c **** 
 256              		.loc 1 64 0
 257 0006 0448     		ldr	r0, .L26
 258 0008 FFF7FEFF 		bl	CommTimeoutISR_SetVector
 259              	.LVL10:
  67:.\Generated_Source\PSoC4/CommTimeoutISR.c **** 
 260              		.loc 1 67 0
 261 000c 0320     		mov	r0, #3
 262 000e FFF7FEFF 		bl	CommTimeoutISR_SetPriority
 263              	.LVL11:
  70:.\Generated_Source\PSoC4/CommTimeoutISR.c **** }
 264              		.loc 1 70 0
 265 0012 FFF7FEFF 		bl	CommTimeoutISR_Enable
 266              	.LVL12:
  71:.\Generated_Source\PSoC4/CommTimeoutISR.c **** 
ARM GAS  C:\Users\kylep\AppData\Local\Temp\ccYOPxnt.s 			page 12


 267              		.loc 1 71 0
 268              		@ sp needed
 269 0016 08BD     		pop	{r3, pc}
 270              	.L27:
 271              		.align	2
 272              	.L26:
 273 0018 00000000 		.word	CommTimeoutISR_Interrupt
 274              		.cfi_endproc
 275              	.LFE34:
 276              		.size	CommTimeoutISR_Start, .-CommTimeoutISR_Start
 277              		.section	.text.CommTimeoutISR_StartEx,"ax",%progbits
 278              		.align	2
 279              		.global	CommTimeoutISR_StartEx
 280              		.code	16
 281              		.thumb_func
 282              		.type	CommTimeoutISR_StartEx, %function
 283              	CommTimeoutISR_StartEx:
 284              	.LFB35:
 102:.\Generated_Source\PSoC4/CommTimeoutISR.c ****     /* For all we know the interrupt is active. */
 285              		.loc 1 102 0
 286              		.cfi_startproc
 287              	.LVL13:
 288 0000 10B5     		push	{r4, lr}
 289              		.cfi_def_cfa_offset 8
 290              		.cfi_offset 4, -8
 291              		.cfi_offset 14, -4
 292 0002 041C     		mov	r4, r0
 104:.\Generated_Source\PSoC4/CommTimeoutISR.c **** 
 293              		.loc 1 104 0
 294 0004 FFF7FEFF 		bl	CommTimeoutISR_Disable
 295              	.LVL14:
 107:.\Generated_Source\PSoC4/CommTimeoutISR.c **** 
 296              		.loc 1 107 0
 297 0008 201C     		mov	r0, r4
 298 000a FFF7FEFF 		bl	CommTimeoutISR_SetVector
 299              	.LVL15:
 110:.\Generated_Source\PSoC4/CommTimeoutISR.c **** 
 300              		.loc 1 110 0
 301 000e 0320     		mov	r0, #3
 302 0010 FFF7FEFF 		bl	CommTimeoutISR_SetPriority
 303              	.LVL16:
 113:.\Generated_Source\PSoC4/CommTimeoutISR.c **** }
 304              		.loc 1 113 0
 305 0014 FFF7FEFF 		bl	CommTimeoutISR_Enable
 306              	.LVL17:
 114:.\Generated_Source\PSoC4/CommTimeoutISR.c **** 
 307              		.loc 1 114 0
 308              		@ sp needed
 309              	.LVL18:
 310 0018 10BD     		pop	{r4, pc}
 311              		.cfi_endproc
 312              	.LFE35:
 313              		.size	CommTimeoutISR_StartEx, .-CommTimeoutISR_StartEx
 314 001a C046     		.section	.text.CommTimeoutISR_Stop,"ax",%progbits
 315              		.align	2
 316              		.global	CommTimeoutISR_Stop
 317              		.code	16
ARM GAS  C:\Users\kylep\AppData\Local\Temp\ccYOPxnt.s 			page 13


 318              		.thumb_func
 319              		.type	CommTimeoutISR_Stop, %function
 320              	CommTimeoutISR_Stop:
 321              	.LFB36:
 132:.\Generated_Source\PSoC4/CommTimeoutISR.c ****     /* Disable this interrupt. */
 322              		.loc 1 132 0
 323              		.cfi_startproc
 324 0000 08B5     		push	{r3, lr}
 325              		.cfi_def_cfa_offset 8
 326              		.cfi_offset 3, -8
 327              		.cfi_offset 14, -4
 134:.\Generated_Source\PSoC4/CommTimeoutISR.c **** 
 328              		.loc 1 134 0
 329 0002 FFF7FEFF 		bl	CommTimeoutISR_Disable
 330              	.LVL19:
 137:.\Generated_Source\PSoC4/CommTimeoutISR.c **** }
 331              		.loc 1 137 0
 332 0006 0248     		ldr	r0, .L30
 333 0008 FFF7FEFF 		bl	CommTimeoutISR_SetVector
 334              	.LVL20:
 138:.\Generated_Source\PSoC4/CommTimeoutISR.c **** 
 335              		.loc 1 138 0
 336              		@ sp needed
 337 000c 08BD     		pop	{r3, pc}
 338              	.L31:
 339 000e C046     		.align	2
 340              	.L30:
 341 0010 00000000 		.word	IntDefaultHandler
 342              		.cfi_endproc
 343              	.LFE36:
 344              		.size	CommTimeoutISR_Stop, .-CommTimeoutISR_Stop
 345              		.section	.text.CommTimeoutISR_SetPending,"ax",%progbits
 346              		.align	2
 347              		.global	CommTimeoutISR_SetPending
 348              		.code	16
 349              		.thumb_func
 350              		.type	CommTimeoutISR_SetPending, %function
 351              	CommTimeoutISR_SetPending:
 352              	.LFB45:
 355:.\Generated_Source\PSoC4/CommTimeoutISR.c **** 
 356:.\Generated_Source\PSoC4/CommTimeoutISR.c **** 
 357:.\Generated_Source\PSoC4/CommTimeoutISR.c **** /*******************************************************************************
 358:.\Generated_Source\PSoC4/CommTimeoutISR.c **** * Function Name: CommTimeoutISR_SetPending
 359:.\Generated_Source\PSoC4/CommTimeoutISR.c **** ********************************************************************************
 360:.\Generated_Source\PSoC4/CommTimeoutISR.c **** *
 361:.\Generated_Source\PSoC4/CommTimeoutISR.c **** * Summary:
 362:.\Generated_Source\PSoC4/CommTimeoutISR.c **** *   Causes the Interrupt to enter the pending state, a software method of
 363:.\Generated_Source\PSoC4/CommTimeoutISR.c **** *   generating the interrupt.
 364:.\Generated_Source\PSoC4/CommTimeoutISR.c **** *
 365:.\Generated_Source\PSoC4/CommTimeoutISR.c **** * Parameters:
 366:.\Generated_Source\PSoC4/CommTimeoutISR.c **** *   None
 367:.\Generated_Source\PSoC4/CommTimeoutISR.c **** *
 368:.\Generated_Source\PSoC4/CommTimeoutISR.c **** * Return:
 369:.\Generated_Source\PSoC4/CommTimeoutISR.c **** *   None
 370:.\Generated_Source\PSoC4/CommTimeoutISR.c **** *
 371:.\Generated_Source\PSoC4/CommTimeoutISR.c **** * Side Effects:
 372:.\Generated_Source\PSoC4/CommTimeoutISR.c **** *   If interrupts are enabled and the interrupt is set up properly, the ISR is
ARM GAS  C:\Users\kylep\AppData\Local\Temp\ccYOPxnt.s 			page 14


 373:.\Generated_Source\PSoC4/CommTimeoutISR.c **** *   entered (depending on the priority of this interrupt and other pending 
 374:.\Generated_Source\PSoC4/CommTimeoutISR.c **** *   interrupts).
 375:.\Generated_Source\PSoC4/CommTimeoutISR.c **** *
 376:.\Generated_Source\PSoC4/CommTimeoutISR.c **** *******************************************************************************/
 377:.\Generated_Source\PSoC4/CommTimeoutISR.c **** void CommTimeoutISR_SetPending(void)
 378:.\Generated_Source\PSoC4/CommTimeoutISR.c **** {
 353              		.loc 1 378 0
 354              		.cfi_startproc
 379:.\Generated_Source\PSoC4/CommTimeoutISR.c ****     *CommTimeoutISR_INTC_SET_PD = CommTimeoutISR__INTC_MASK;
 355              		.loc 1 379 0
 356 0000 0422     		mov	r2, #4
 357 0002 014B     		ldr	r3, .L33
 358 0004 1A60     		str	r2, [r3]
 380:.\Generated_Source\PSoC4/CommTimeoutISR.c **** }
 359              		.loc 1 380 0
 360              		@ sp needed
 361 0006 7047     		bx	lr
 362              	.L34:
 363              		.align	2
 364              	.L33:
 365 0008 00E200E0 		.word	-536813056
 366              		.cfi_endproc
 367              	.LFE45:
 368              		.size	CommTimeoutISR_SetPending, .-CommTimeoutISR_SetPending
 369              		.section	.text.CommTimeoutISR_ClearPending,"ax",%progbits
 370              		.align	2
 371              		.global	CommTimeoutISR_ClearPending
 372              		.code	16
 373              		.thumb_func
 374              		.type	CommTimeoutISR_ClearPending, %function
 375              	CommTimeoutISR_ClearPending:
 376              	.LFB46:
 381:.\Generated_Source\PSoC4/CommTimeoutISR.c **** 
 382:.\Generated_Source\PSoC4/CommTimeoutISR.c **** 
 383:.\Generated_Source\PSoC4/CommTimeoutISR.c **** /*******************************************************************************
 384:.\Generated_Source\PSoC4/CommTimeoutISR.c **** * Function Name: CommTimeoutISR_ClearPending
 385:.\Generated_Source\PSoC4/CommTimeoutISR.c **** ********************************************************************************
 386:.\Generated_Source\PSoC4/CommTimeoutISR.c **** *
 387:.\Generated_Source\PSoC4/CommTimeoutISR.c **** * Summary:
 388:.\Generated_Source\PSoC4/CommTimeoutISR.c **** *   Clears a pending interrupt in the interrupt controller.
 389:.\Generated_Source\PSoC4/CommTimeoutISR.c **** *
 390:.\Generated_Source\PSoC4/CommTimeoutISR.c **** *   Note Some interrupt sources are clear-on-read and require the block 
 391:.\Generated_Source\PSoC4/CommTimeoutISR.c **** *   interrupt/status register to be read/cleared with the appropriate block API 
 392:.\Generated_Source\PSoC4/CommTimeoutISR.c **** *   (GPIO, UART, and so on). Otherwise the ISR will continue to remain in 
 393:.\Generated_Source\PSoC4/CommTimeoutISR.c **** *   pending state even though the interrupt itself is cleared using this API.
 394:.\Generated_Source\PSoC4/CommTimeoutISR.c **** *
 395:.\Generated_Source\PSoC4/CommTimeoutISR.c **** * Parameters:
 396:.\Generated_Source\PSoC4/CommTimeoutISR.c **** *   None
 397:.\Generated_Source\PSoC4/CommTimeoutISR.c **** *
 398:.\Generated_Source\PSoC4/CommTimeoutISR.c **** * Return:
 399:.\Generated_Source\PSoC4/CommTimeoutISR.c **** *   None
 400:.\Generated_Source\PSoC4/CommTimeoutISR.c **** *
 401:.\Generated_Source\PSoC4/CommTimeoutISR.c **** *******************************************************************************/
 402:.\Generated_Source\PSoC4/CommTimeoutISR.c **** void CommTimeoutISR_ClearPending(void)
 403:.\Generated_Source\PSoC4/CommTimeoutISR.c **** {
 377              		.loc 1 403 0
 378              		.cfi_startproc
ARM GAS  C:\Users\kylep\AppData\Local\Temp\ccYOPxnt.s 			page 15


 404:.\Generated_Source\PSoC4/CommTimeoutISR.c ****     *CommTimeoutISR_INTC_CLR_PD = CommTimeoutISR__INTC_MASK;
 379              		.loc 1 404 0
 380 0000 0422     		mov	r2, #4
 381 0002 014B     		ldr	r3, .L36
 382 0004 1A60     		str	r2, [r3]
 405:.\Generated_Source\PSoC4/CommTimeoutISR.c **** }
 383              		.loc 1 405 0
 384              		@ sp needed
 385 0006 7047     		bx	lr
 386              	.L37:
 387              		.align	2
 388              	.L36:
 389 0008 80E200E0 		.word	-536812928
 390              		.cfi_endproc
 391              	.LFE46:
 392              		.size	CommTimeoutISR_ClearPending, .-CommTimeoutISR_ClearPending
 393              		.text
 394              	.Letext0:
 395              		.file 2 "Generated_Source\\PSoC4/cytypes.h"
 396              		.file 3 "./BrightnessCommManager.h"
 397              		.file 4 "Generated_Source\\PSoC4/CyLib.h"