ARM GAS  C:\Users\kylep\AppData\Local\Temp\cckaXDuL.s 			page 1


   1              		.cpu cortex-m0
   2              		.fpu softvfp
   3              		.eabi_attribute 20, 1
   4              		.eabi_attribute 21, 1
   5              		.eabi_attribute 23, 3
   6              		.eabi_attribute 24, 1
   7              		.eabi_attribute 25, 1
   8              		.eabi_attribute 26, 1
   9              		.eabi_attribute 30, 1
  10              		.eabi_attribute 34, 0
  11              		.eabi_attribute 18, 4
  12              		.code	16
  13              		.file	"cyfitter_cfg.c"
  14              		.text
  15              	.Ltext0:
  16              		.cfi_sections	.debug_frame
  17              		.section	.text.cfg_write_bytes32,"ax",%progbits
  18              		.align	2
  19              		.code	16
  20              		.thumb_func
  21              		.type	cfg_write_bytes32, %function
  22              	cfg_write_bytes32:
  23              	.LFB3:
  24              		.file 1 ".\\Generated_Source\\PSoC4\\cyfitter_cfg.c"
   1:.\Generated_Source\PSoC4/cyfitter_cfg.c **** /*******************************************************************************
   2:.\Generated_Source\PSoC4/cyfitter_cfg.c **** * File Name: cyfitter_cfg.c
   3:.\Generated_Source\PSoC4/cyfitter_cfg.c **** * 
   4:.\Generated_Source\PSoC4/cyfitter_cfg.c **** * PSoC Creator  3.3 CP3
   5:.\Generated_Source\PSoC4/cyfitter_cfg.c **** *
   6:.\Generated_Source\PSoC4/cyfitter_cfg.c **** * Description:
   7:.\Generated_Source\PSoC4/cyfitter_cfg.c **** * This file contains device initialization code.
   8:.\Generated_Source\PSoC4/cyfitter_cfg.c **** * Except for the user defined sections in CyClockStartupError(), this file should not be modified.
   9:.\Generated_Source\PSoC4/cyfitter_cfg.c **** * This file is automatically generated by PSoC Creator.
  10:.\Generated_Source\PSoC4/cyfitter_cfg.c **** *
  11:.\Generated_Source\PSoC4/cyfitter_cfg.c **** ********************************************************************************
  12:.\Generated_Source\PSoC4/cyfitter_cfg.c **** * Copyright (c) 2007-2016 Cypress Semiconductor.  All rights reserved.
  13:.\Generated_Source\PSoC4/cyfitter_cfg.c **** * You may use this file only in accordance with the license, terms, conditions, 
  14:.\Generated_Source\PSoC4/cyfitter_cfg.c **** * disclaimers, and limitations in the end user license agreement accompanying 
  15:.\Generated_Source\PSoC4/cyfitter_cfg.c **** * the software package with which this file was provided.
  16:.\Generated_Source\PSoC4/cyfitter_cfg.c **** ********************************************************************************/
  17:.\Generated_Source\PSoC4/cyfitter_cfg.c **** 
  18:.\Generated_Source\PSoC4/cyfitter_cfg.c **** #include <string.h>
  19:.\Generated_Source\PSoC4/cyfitter_cfg.c **** #include "cytypes.h"
  20:.\Generated_Source\PSoC4/cyfitter_cfg.c **** #include "cydevice_trm.h"
  21:.\Generated_Source\PSoC4/cyfitter_cfg.c **** #include "cyfitter.h"
  22:.\Generated_Source\PSoC4/cyfitter_cfg.c **** #include "CyLib.h"
  23:.\Generated_Source\PSoC4/cyfitter_cfg.c **** #include "CyLFClk.h"
  24:.\Generated_Source\PSoC4/cyfitter_cfg.c **** #include "cyfitter_cfg.h"
  25:.\Generated_Source\PSoC4/cyfitter_cfg.c **** 
  26:.\Generated_Source\PSoC4/cyfitter_cfg.c **** 
  27:.\Generated_Source\PSoC4/cyfitter_cfg.c **** #if defined(__GNUC__) || defined(__ARMCC_VERSION)
  28:.\Generated_Source\PSoC4/cyfitter_cfg.c ****     #define CYPACKED 
  29:.\Generated_Source\PSoC4/cyfitter_cfg.c ****     #define CYPACKED_ATTR __attribute__ ((packed))
  30:.\Generated_Source\PSoC4/cyfitter_cfg.c ****     #define CYALIGNED __attribute__ ((aligned))
  31:.\Generated_Source\PSoC4/cyfitter_cfg.c ****     #define CY_CFG_UNUSED __attribute__ ((unused))
  32:.\Generated_Source\PSoC4/cyfitter_cfg.c ****     #ifndef CY_CFG_SECTION
  33:.\Generated_Source\PSoC4/cyfitter_cfg.c ****         #define CY_CFG_SECTION __attribute__ ((section(".psocinit")))
ARM GAS  C:\Users\kylep\AppData\Local\Temp\cckaXDuL.s 			page 2


  34:.\Generated_Source\PSoC4/cyfitter_cfg.c ****     #endif
  35:.\Generated_Source\PSoC4/cyfitter_cfg.c ****     
  36:.\Generated_Source\PSoC4/cyfitter_cfg.c ****     #if defined(__ARMCC_VERSION)
  37:.\Generated_Source\PSoC4/cyfitter_cfg.c ****         #define CY_CFG_MEMORY_BARRIER() __memory_changed()
  38:.\Generated_Source\PSoC4/cyfitter_cfg.c ****     #else
  39:.\Generated_Source\PSoC4/cyfitter_cfg.c ****         #define CY_CFG_MEMORY_BARRIER() __sync_synchronize()
  40:.\Generated_Source\PSoC4/cyfitter_cfg.c ****     #endif
  41:.\Generated_Source\PSoC4/cyfitter_cfg.c ****     
  42:.\Generated_Source\PSoC4/cyfitter_cfg.c **** #elif defined(__ICCARM__)
  43:.\Generated_Source\PSoC4/cyfitter_cfg.c ****     #include <intrinsics.h>
  44:.\Generated_Source\PSoC4/cyfitter_cfg.c **** 
  45:.\Generated_Source\PSoC4/cyfitter_cfg.c ****     #define CYPACKED __packed
  46:.\Generated_Source\PSoC4/cyfitter_cfg.c ****     #define CYPACKED_ATTR 
  47:.\Generated_Source\PSoC4/cyfitter_cfg.c ****     #define CYALIGNED _Pragma("data_alignment=4")
  48:.\Generated_Source\PSoC4/cyfitter_cfg.c ****     #define CY_CFG_UNUSED _Pragma("diag_suppress=Pe177")
  49:.\Generated_Source\PSoC4/cyfitter_cfg.c ****     #define CY_CFG_SECTION _Pragma("location=\".psocinit\"")
  50:.\Generated_Source\PSoC4/cyfitter_cfg.c ****     
  51:.\Generated_Source\PSoC4/cyfitter_cfg.c ****     #define CY_CFG_MEMORY_BARRIER() __DMB()
  52:.\Generated_Source\PSoC4/cyfitter_cfg.c ****     
  53:.\Generated_Source\PSoC4/cyfitter_cfg.c **** #else
  54:.\Generated_Source\PSoC4/cyfitter_cfg.c ****     #error Unsupported toolchain
  55:.\Generated_Source\PSoC4/cyfitter_cfg.c **** #endif
  56:.\Generated_Source\PSoC4/cyfitter_cfg.c **** 
  57:.\Generated_Source\PSoC4/cyfitter_cfg.c **** 
  58:.\Generated_Source\PSoC4/cyfitter_cfg.c **** CY_CFG_UNUSED
  59:.\Generated_Source\PSoC4/cyfitter_cfg.c **** static void CYMEMZERO(void *s, size_t n);
  60:.\Generated_Source\PSoC4/cyfitter_cfg.c **** CY_CFG_UNUSED
  61:.\Generated_Source\PSoC4/cyfitter_cfg.c **** static void CYMEMZERO(void *s, size_t n)
  62:.\Generated_Source\PSoC4/cyfitter_cfg.c **** {
  63:.\Generated_Source\PSoC4/cyfitter_cfg.c **** 	(void)memset(s, 0, n);
  64:.\Generated_Source\PSoC4/cyfitter_cfg.c **** }
  65:.\Generated_Source\PSoC4/cyfitter_cfg.c **** CY_CFG_UNUSED
  66:.\Generated_Source\PSoC4/cyfitter_cfg.c **** static void CYCONFIGCPY(void *dest, const void *src, size_t n);
  67:.\Generated_Source\PSoC4/cyfitter_cfg.c **** CY_CFG_UNUSED
  68:.\Generated_Source\PSoC4/cyfitter_cfg.c **** static void CYCONFIGCPY(void *dest, const void *src, size_t n)
  69:.\Generated_Source\PSoC4/cyfitter_cfg.c **** {
  70:.\Generated_Source\PSoC4/cyfitter_cfg.c **** 	(void)memcpy(dest, src, n);
  71:.\Generated_Source\PSoC4/cyfitter_cfg.c **** }
  72:.\Generated_Source\PSoC4/cyfitter_cfg.c **** CY_CFG_UNUSED
  73:.\Generated_Source\PSoC4/cyfitter_cfg.c **** static void CYCONFIGCPYCODE(void *dest, const void *src, size_t n);
  74:.\Generated_Source\PSoC4/cyfitter_cfg.c **** CY_CFG_UNUSED
  75:.\Generated_Source\PSoC4/cyfitter_cfg.c **** static void CYCONFIGCPYCODE(void *dest, const void *src, size_t n)
  76:.\Generated_Source\PSoC4/cyfitter_cfg.c **** {
  77:.\Generated_Source\PSoC4/cyfitter_cfg.c **** 	(void)memcpy(dest, src, n);
  78:.\Generated_Source\PSoC4/cyfitter_cfg.c **** }
  79:.\Generated_Source\PSoC4/cyfitter_cfg.c **** 
  80:.\Generated_Source\PSoC4/cyfitter_cfg.c **** 
  81:.\Generated_Source\PSoC4/cyfitter_cfg.c **** 
  82:.\Generated_Source\PSoC4/cyfitter_cfg.c **** /* Clock startup error codes                                                   */
  83:.\Generated_Source\PSoC4/cyfitter_cfg.c **** #define CYCLOCKSTART_NO_ERROR    0u
  84:.\Generated_Source\PSoC4/cyfitter_cfg.c **** #define CYCLOCKSTART_XTAL_ERROR  1u
  85:.\Generated_Source\PSoC4/cyfitter_cfg.c **** #define CYCLOCKSTART_32KHZ_ERROR 2u
  86:.\Generated_Source\PSoC4/cyfitter_cfg.c **** #define CYCLOCKSTART_PLL_ERROR   3u
  87:.\Generated_Source\PSoC4/cyfitter_cfg.c **** 
  88:.\Generated_Source\PSoC4/cyfitter_cfg.c **** #ifdef CY_NEED_CYCLOCKSTARTUPERROR
  89:.\Generated_Source\PSoC4/cyfitter_cfg.c **** /*******************************************************************************
  90:.\Generated_Source\PSoC4/cyfitter_cfg.c **** * Function Name: CyClockStartupError
ARM GAS  C:\Users\kylep\AppData\Local\Temp\cckaXDuL.s 			page 3


  91:.\Generated_Source\PSoC4/cyfitter_cfg.c **** ********************************************************************************
  92:.\Generated_Source\PSoC4/cyfitter_cfg.c **** * Summary:
  93:.\Generated_Source\PSoC4/cyfitter_cfg.c **** *  If an error is encountered during clock configuration (crystal startup error,
  94:.\Generated_Source\PSoC4/cyfitter_cfg.c **** *  PLL lock error, etc.), the system will end up here.  Unless reimplemented by
  95:.\Generated_Source\PSoC4/cyfitter_cfg.c **** *  the customer, this function will stop in an infinite loop.
  96:.\Generated_Source\PSoC4/cyfitter_cfg.c **** *
  97:.\Generated_Source\PSoC4/cyfitter_cfg.c **** * Parameters:
  98:.\Generated_Source\PSoC4/cyfitter_cfg.c **** *   void
  99:.\Generated_Source\PSoC4/cyfitter_cfg.c **** *
 100:.\Generated_Source\PSoC4/cyfitter_cfg.c **** * Return:
 101:.\Generated_Source\PSoC4/cyfitter_cfg.c **** *   void
 102:.\Generated_Source\PSoC4/cyfitter_cfg.c **** *
 103:.\Generated_Source\PSoC4/cyfitter_cfg.c **** *******************************************************************************/
 104:.\Generated_Source\PSoC4/cyfitter_cfg.c **** CY_CFG_UNUSED
 105:.\Generated_Source\PSoC4/cyfitter_cfg.c **** static void CyClockStartupError(uint8 errorCode);
 106:.\Generated_Source\PSoC4/cyfitter_cfg.c **** CY_CFG_UNUSED
 107:.\Generated_Source\PSoC4/cyfitter_cfg.c **** static void CyClockStartupError(uint8 errorCode)
 108:.\Generated_Source\PSoC4/cyfitter_cfg.c **** {
 109:.\Generated_Source\PSoC4/cyfitter_cfg.c ****     /* To remove the compiler warning if errorCode not used.                */
 110:.\Generated_Source\PSoC4/cyfitter_cfg.c ****     errorCode = errorCode;
 111:.\Generated_Source\PSoC4/cyfitter_cfg.c **** 
 112:.\Generated_Source\PSoC4/cyfitter_cfg.c ****     /* `#START CyClockStartupError` */
 113:.\Generated_Source\PSoC4/cyfitter_cfg.c **** 
 114:.\Generated_Source\PSoC4/cyfitter_cfg.c ****     /* If we have a clock startup error (bad MHz crystal, PLL lock, etc.),  */
 115:.\Generated_Source\PSoC4/cyfitter_cfg.c ****     /* we will end up here to allow the customer to implement something to  */
 116:.\Generated_Source\PSoC4/cyfitter_cfg.c ****     /* deal with the clock condition.                                       */
 117:.\Generated_Source\PSoC4/cyfitter_cfg.c **** 
 118:.\Generated_Source\PSoC4/cyfitter_cfg.c ****     /* `#END` */
 119:.\Generated_Source\PSoC4/cyfitter_cfg.c **** 
 120:.\Generated_Source\PSoC4/cyfitter_cfg.c ****     /* If nothing else, stop here since the clocks have not started         */
 121:.\Generated_Source\PSoC4/cyfitter_cfg.c ****     /* correctly.                                                           */
 122:.\Generated_Source\PSoC4/cyfitter_cfg.c ****     while(1) {}
 123:.\Generated_Source\PSoC4/cyfitter_cfg.c **** }
 124:.\Generated_Source\PSoC4/cyfitter_cfg.c **** #endif
 125:.\Generated_Source\PSoC4/cyfitter_cfg.c **** 
 126:.\Generated_Source\PSoC4/cyfitter_cfg.c **** #define CY_CFG_BASE_ADDR_COUNT 8u
 127:.\Generated_Source\PSoC4/cyfitter_cfg.c **** CYPACKED typedef struct
 128:.\Generated_Source\PSoC4/cyfitter_cfg.c **** {
 129:.\Generated_Source\PSoC4/cyfitter_cfg.c **** 	uint8 offset;
 130:.\Generated_Source\PSoC4/cyfitter_cfg.c **** 	uint8 value;
 131:.\Generated_Source\PSoC4/cyfitter_cfg.c **** } CYPACKED_ATTR cy_cfg_addrvalue_t;
 132:.\Generated_Source\PSoC4/cyfitter_cfg.c **** 
 133:.\Generated_Source\PSoC4/cyfitter_cfg.c **** 
 134:.\Generated_Source\PSoC4/cyfitter_cfg.c **** 
 135:.\Generated_Source\PSoC4/cyfitter_cfg.c **** /*******************************************************************************
 136:.\Generated_Source\PSoC4/cyfitter_cfg.c **** * Function Name: cfg_write_bytes32
 137:.\Generated_Source\PSoC4/cyfitter_cfg.c **** ********************************************************************************
 138:.\Generated_Source\PSoC4/cyfitter_cfg.c **** * Summary:
 139:.\Generated_Source\PSoC4/cyfitter_cfg.c **** *  This function is used for setting up the chip configuration areas that
 140:.\Generated_Source\PSoC4/cyfitter_cfg.c **** *  contain relatively sparse data.
 141:.\Generated_Source\PSoC4/cyfitter_cfg.c **** *
 142:.\Generated_Source\PSoC4/cyfitter_cfg.c **** * Parameters:
 143:.\Generated_Source\PSoC4/cyfitter_cfg.c **** *   void
 144:.\Generated_Source\PSoC4/cyfitter_cfg.c **** *
 145:.\Generated_Source\PSoC4/cyfitter_cfg.c **** * Return:
 146:.\Generated_Source\PSoC4/cyfitter_cfg.c **** *   void
 147:.\Generated_Source\PSoC4/cyfitter_cfg.c **** *
ARM GAS  C:\Users\kylep\AppData\Local\Temp\cckaXDuL.s 			page 4


 148:.\Generated_Source\PSoC4/cyfitter_cfg.c **** *******************************************************************************/
 149:.\Generated_Source\PSoC4/cyfitter_cfg.c **** static void cfg_write_bytes32(const uint32 addr_table[], const cy_cfg_addrvalue_t data_table[]);
 150:.\Generated_Source\PSoC4/cyfitter_cfg.c **** static void cfg_write_bytes32(const uint32 addr_table[], const cy_cfg_addrvalue_t data_table[])
 151:.\Generated_Source\PSoC4/cyfitter_cfg.c **** {
  25              		.loc 1 151 0
  26              		.cfi_startproc
  27              	.LVL0:
  28 0000 F0B5     		push	{r4, r5, r6, r7, lr}
  29              		.cfi_def_cfa_offset 20
  30              		.cfi_offset 4, -20
  31              		.cfi_offset 5, -16
  32              		.cfi_offset 6, -12
  33              		.cfi_offset 7, -8
  34              		.cfi_offset 14, -4
  35              	.LVL1:
 152:.\Generated_Source\PSoC4/cyfitter_cfg.c **** 	/* For 32-bit little-endian architectures */
 153:.\Generated_Source\PSoC4/cyfitter_cfg.c **** 	uint32 i, j = 0u;
  36              		.loc 1 153 0
  37 0002 0025     		mov	r5, #0
 154:.\Generated_Source\PSoC4/cyfitter_cfg.c **** 	for (i = 0u; i < CY_CFG_BASE_ADDR_COUNT; i++)
  38              		.loc 1 154 0
  39 0004 0027     		mov	r7, #0
  40 0006 11E0     		b	.L2
  41              	.LVL2:
  42              	.L5:
  43              	.LBB2:
 155:.\Generated_Source\PSoC4/cyfitter_cfg.c **** 	{
 156:.\Generated_Source\PSoC4/cyfitter_cfg.c **** 		uint32 baseAddr = addr_table[i];
  44              		.loc 1 156 0
  45 0008 BB00     		lsl	r3, r7, #2
  46 000a C658     		ldr	r6, [r0, r3]
  47              	.LVL3:
 157:.\Generated_Source\PSoC4/cyfitter_cfg.c **** 		uint8 count = (uint8)baseAddr;
  48              		.loc 1 157 0
  49 000c F3B2     		uxtb	r3, r6
  50              	.LVL4:
 158:.\Generated_Source\PSoC4/cyfitter_cfg.c **** 		baseAddr &= 0xFFFFFF00u;
  51              		.loc 1 158 0
  52 000e FF22     		mov	r2, #255
  53 0010 9643     		bic	r6, r2
  54              	.LVL5:
 159:.\Generated_Source\PSoC4/cyfitter_cfg.c **** 		while (count != 0u)
  55              		.loc 1 159 0
  56 0012 08E0     		b	.L3
  57              	.L4:
 160:.\Generated_Source\PSoC4/cyfitter_cfg.c **** 		{
 161:.\Generated_Source\PSoC4/cyfitter_cfg.c **** 			CY_SET_XTND_REG8((void CYFAR *)(baseAddr + data_table[j].offset), data_table[j].value);
  58              		.loc 1 161 0
  59 0014 6A00     		lsl	r2, r5, #1
  60 0016 8A18     		add	r2, r1, r2
  61 0018 1478     		ldrb	r4, [r2]
  62 001a A419     		add	r4, r4, r6
  63 001c 5278     		ldrb	r2, [r2, #1]
  64 001e 2270     		strb	r2, [r4]
 162:.\Generated_Source\PSoC4/cyfitter_cfg.c **** 			j++;
  65              		.loc 1 162 0
  66 0020 0135     		add	r5, r5, #1
ARM GAS  C:\Users\kylep\AppData\Local\Temp\cckaXDuL.s 			page 5


  67              	.LVL6:
 163:.\Generated_Source\PSoC4/cyfitter_cfg.c **** 			count--;
  68              		.loc 1 163 0
  69 0022 013B     		sub	r3, r3, #1
  70              	.LVL7:
  71 0024 DBB2     		uxtb	r3, r3
  72              	.LVL8:
  73              	.L3:
 159:.\Generated_Source\PSoC4/cyfitter_cfg.c **** 		{
  74              		.loc 1 159 0
  75 0026 002B     		cmp	r3, #0
  76 0028 F4D1     		bne	.L4
  77              	.LBE2:
 154:.\Generated_Source\PSoC4/cyfitter_cfg.c **** 	{
  78              		.loc 1 154 0 discriminator 2
  79 002a 0137     		add	r7, r7, #1
  80              	.LVL9:
  81              	.L2:
 154:.\Generated_Source\PSoC4/cyfitter_cfg.c **** 	{
  82              		.loc 1 154 0 is_stmt 0 discriminator 1
  83 002c 072F     		cmp	r7, #7
  84 002e EBD9     		bls	.L5
 164:.\Generated_Source\PSoC4/cyfitter_cfg.c **** 		}
 165:.\Generated_Source\PSoC4/cyfitter_cfg.c **** 	}
 166:.\Generated_Source\PSoC4/cyfitter_cfg.c **** }
  85              		.loc 1 166 0 is_stmt 1
  86              		@ sp needed
  87              	.LVL10:
  88              	.LVL11:
  89 0030 F0BD     		pop	{r4, r5, r6, r7, pc}
  90              		.cfi_endproc
  91              	.LFE3:
  92              		.size	cfg_write_bytes32, .-cfg_write_bytes32
  93 0032 C046     		.section	.text.AnalogSetDefault,"ax",%progbits
  94              		.align	2
  95              		.code	16
  96              		.thumb_func
  97              		.type	AnalogSetDefault, %function
  98              	AnalogSetDefault:
  99              	.LFB5:
 167:.\Generated_Source\PSoC4/cyfitter_cfg.c **** 
 168:.\Generated_Source\PSoC4/cyfitter_cfg.c **** 
 169:.\Generated_Source\PSoC4/cyfitter_cfg.c **** /*******************************************************************************
 170:.\Generated_Source\PSoC4/cyfitter_cfg.c **** * Function Name: ClockSetup
 171:.\Generated_Source\PSoC4/cyfitter_cfg.c **** ********************************************************************************
 172:.\Generated_Source\PSoC4/cyfitter_cfg.c **** *
 173:.\Generated_Source\PSoC4/cyfitter_cfg.c **** * Summary:
 174:.\Generated_Source\PSoC4/cyfitter_cfg.c **** *   Performs the initialization of all of the clocks in the device based on the
 175:.\Generated_Source\PSoC4/cyfitter_cfg.c **** *   settings in the Clock tab of the DWR.  This includes enabling the requested
 176:.\Generated_Source\PSoC4/cyfitter_cfg.c **** *   clocks and setting the necessary dividers to produce the desired frequency. 
 177:.\Generated_Source\PSoC4/cyfitter_cfg.c **** *
 178:.\Generated_Source\PSoC4/cyfitter_cfg.c **** * Parameters:
 179:.\Generated_Source\PSoC4/cyfitter_cfg.c **** *   void
 180:.\Generated_Source\PSoC4/cyfitter_cfg.c **** *
 181:.\Generated_Source\PSoC4/cyfitter_cfg.c **** * Return:
 182:.\Generated_Source\PSoC4/cyfitter_cfg.c **** *   void
 183:.\Generated_Source\PSoC4/cyfitter_cfg.c **** *
ARM GAS  C:\Users\kylep\AppData\Local\Temp\cckaXDuL.s 			page 6


 184:.\Generated_Source\PSoC4/cyfitter_cfg.c **** *******************************************************************************/
 185:.\Generated_Source\PSoC4/cyfitter_cfg.c **** static void ClockSetup(void);
 186:.\Generated_Source\PSoC4/cyfitter_cfg.c **** CY_CFG_SECTION
 187:.\Generated_Source\PSoC4/cyfitter_cfg.c **** static void ClockSetup(void)
 188:.\Generated_Source\PSoC4/cyfitter_cfg.c **** {
 189:.\Generated_Source\PSoC4/cyfitter_cfg.c **** 	/* Enable HALF_EN before trimming for the flash accelerator. */
 190:.\Generated_Source\PSoC4/cyfitter_cfg.c **** 	CY_SET_REG32((void CYXDATA *)(CYREG_CLK_SELECT), (CY_GET_REG32((void *)CYREG_CLK_SELECT) | 0x00040
 191:.\Generated_Source\PSoC4/cyfitter_cfg.c **** 
 192:.\Generated_Source\PSoC4/cyfitter_cfg.c **** 	/* Setup and trim IMO based on desired frequency. */
 193:.\Generated_Source\PSoC4/cyfitter_cfg.c **** 	CySysClkWriteImoFreq(48u);
 194:.\Generated_Source\PSoC4/cyfitter_cfg.c **** 	/* CYDEV_CLK_ILO_CONFIG Starting address: CYDEV_CLK_ILO_CONFIG */
 195:.\Generated_Source\PSoC4/cyfitter_cfg.c **** 	CY_SET_XTND_REG32((void CYFAR *)(CYREG_CLK_ILO_CONFIG), 0x80000006u);
 196:.\Generated_Source\PSoC4/cyfitter_cfg.c **** 
 197:.\Generated_Source\PSoC4/cyfitter_cfg.c **** 
 198:.\Generated_Source\PSoC4/cyfitter_cfg.c **** 	/* CYDEV_CLK_SELECT00 Starting address: CYDEV_CLK_SELECT00 */
 199:.\Generated_Source\PSoC4/cyfitter_cfg.c **** 	CY_SET_XTND_REG32((void CYFAR *)(CYREG_CLK_SELECT03), 0x00000011u);
 200:.\Generated_Source\PSoC4/cyfitter_cfg.c **** 	CY_SET_XTND_REG32((void CYFAR *)(CYREG_CLK_SELECT07), 0x00000030u);
 201:.\Generated_Source\PSoC4/cyfitter_cfg.c **** 	CY_SET_XTND_REG32((void CYFAR *)(CYREG_CLK_SELECT08), 0x00000013u);
 202:.\Generated_Source\PSoC4/cyfitter_cfg.c **** 	CY_SET_XTND_REG32((void CYFAR *)(CYREG_CLK_SELECT09), 0x00000031u);
 203:.\Generated_Source\PSoC4/cyfitter_cfg.c **** 	CY_SET_XTND_REG32((void CYFAR *)(CYREG_CLK_SELECT10), 0x00000022u);
 204:.\Generated_Source\PSoC4/cyfitter_cfg.c **** 	CY_SET_XTND_REG32((void CYFAR *)(CYREG_CLK_SELECT11), 0x00000012u);
 205:.\Generated_Source\PSoC4/cyfitter_cfg.c **** 	CY_SET_XTND_REG32((void CYFAR *)(CYREG_CLK_SELECT13), 0x00000020u);
 206:.\Generated_Source\PSoC4/cyfitter_cfg.c **** 	CY_SET_XTND_REG32((void CYFAR *)(CYREG_CLK_SELECT14), 0x00000032u);
 207:.\Generated_Source\PSoC4/cyfitter_cfg.c **** 	CY_SET_XTND_REG32((void CYFAR *)(CYREG_CLK_SELECT15), 0x00000021u);
 208:.\Generated_Source\PSoC4/cyfitter_cfg.c **** 
 209:.\Generated_Source\PSoC4/cyfitter_cfg.c **** 	/* CYDEV_CLK_IMO_CONFIG Starting address: CYDEV_CLK_IMO_CONFIG */
 210:.\Generated_Source\PSoC4/cyfitter_cfg.c **** 	CY_SET_XTND_REG32((void CYFAR *)(CYREG_CLK_IMO_CONFIG), 0x82000000u);
 211:.\Generated_Source\PSoC4/cyfitter_cfg.c **** 
 212:.\Generated_Source\PSoC4/cyfitter_cfg.c **** 	/* CYDEV_CLK_SELECT Starting address: CYDEV_CLK_SELECT */
 213:.\Generated_Source\PSoC4/cyfitter_cfg.c **** 	CY_SET_XTND_REG32((void CYFAR *)(CYREG_CLK_SELECT), 0x00040000u);
 214:.\Generated_Source\PSoC4/cyfitter_cfg.c **** 
 215:.\Generated_Source\PSoC4/cyfitter_cfg.c **** 	/* CYDEV_CLK_DIVIDER_A00 Starting address: CYDEV_CLK_DIVIDER_A00 */
 216:.\Generated_Source\PSoC4/cyfitter_cfg.c **** 	CY_SET_XTND_REG32((void CYFAR *)(CYREG_CLK_DIVIDER_A00), 0x8000BB7Fu);
 217:.\Generated_Source\PSoC4/cyfitter_cfg.c **** 
 218:.\Generated_Source\PSoC4/cyfitter_cfg.c **** 	/* CYDEV_CLK_DIVIDER_B00 Starting address: CYDEV_CLK_DIVIDER_B00 */
 219:.\Generated_Source\PSoC4/cyfitter_cfg.c **** 	CY_SET_XTND_REG32((void CYFAR *)(CYREG_CLK_DIVIDER_B00), 0x80000008u);
 220:.\Generated_Source\PSoC4/cyfitter_cfg.c **** 
 221:.\Generated_Source\PSoC4/cyfitter_cfg.c **** 	/* CYDEV_CLK_DIVIDER_C00 Starting address: CYDEV_CLK_DIVIDER_C00 */
 222:.\Generated_Source\PSoC4/cyfitter_cfg.c **** 	CY_SET_XTND_REG32((void CYFAR *)(CYREG_CLK_DIVIDER_C00), 0x8000000Au);
 223:.\Generated_Source\PSoC4/cyfitter_cfg.c **** 
 224:.\Generated_Source\PSoC4/cyfitter_cfg.c **** 	/* CYDEV_CLK_DIVIDER_A01 Starting address: CYDEV_CLK_DIVIDER_A01 */
 225:.\Generated_Source\PSoC4/cyfitter_cfg.c **** 	CY_SET_XTND_REG32((void CYFAR *)(CYREG_CLK_DIVIDER_A01), 0x80000022u);
 226:.\Generated_Source\PSoC4/cyfitter_cfg.c **** 
 227:.\Generated_Source\PSoC4/cyfitter_cfg.c **** 	/* CYDEV_CLK_DIVIDER_B01 Starting address: CYDEV_CLK_DIVIDER_B01 */
 228:.\Generated_Source\PSoC4/cyfitter_cfg.c **** 	CY_SET_XTND_REG32((void CYFAR *)(CYREG_CLK_DIVIDER_B01), 0x8000002Fu);
 229:.\Generated_Source\PSoC4/cyfitter_cfg.c **** 
 230:.\Generated_Source\PSoC4/cyfitter_cfg.c **** 	/* CYDEV_CLK_DIVIDER_C01 Starting address: CYDEV_CLK_DIVIDER_C01 */
 231:.\Generated_Source\PSoC4/cyfitter_cfg.c **** 	CY_SET_XTND_REG32((void CYFAR *)(CYREG_CLK_DIVIDER_C01), 0x8000002Fu);
 232:.\Generated_Source\PSoC4/cyfitter_cfg.c **** 
 233:.\Generated_Source\PSoC4/cyfitter_cfg.c **** 	/* CYDEV_CLK_DIVIDER_A02 Starting address: CYDEV_CLK_DIVIDER_A02 */
 234:.\Generated_Source\PSoC4/cyfitter_cfg.c **** 	CY_SET_XTND_REG32((void CYFAR *)(CYREG_CLK_DIVIDER_A02), 0x8000002Fu);
 235:.\Generated_Source\PSoC4/cyfitter_cfg.c **** 
 236:.\Generated_Source\PSoC4/cyfitter_cfg.c **** 	/* CYDEV_CLK_DIVIDER_B02 Starting address: CYDEV_CLK_DIVIDER_B02 */
 237:.\Generated_Source\PSoC4/cyfitter_cfg.c **** 	CY_SET_XTND_REG32((void CYFAR *)(CYREG_CLK_DIVIDER_B02), 0x8000002Fu);
 238:.\Generated_Source\PSoC4/cyfitter_cfg.c **** 
 239:.\Generated_Source\PSoC4/cyfitter_cfg.c **** 	/* CYDEV_CLK_DIVIDER_C02 Starting address: CYDEV_CLK_DIVIDER_C02 */
 240:.\Generated_Source\PSoC4/cyfitter_cfg.c **** 	CY_SET_XTND_REG32((void CYFAR *)(CYREG_CLK_DIVIDER_C02), 0x800003ACu);
ARM GAS  C:\Users\kylep\AppData\Local\Temp\cckaXDuL.s 			page 7


 241:.\Generated_Source\PSoC4/cyfitter_cfg.c **** 
 242:.\Generated_Source\PSoC4/cyfitter_cfg.c **** 	/* CYDEV_CLK_DIVIDER_FRAC_A00 Starting address: CYDEV_CLK_DIVIDER_FRAC_A00 */
 243:.\Generated_Source\PSoC4/cyfitter_cfg.c **** 	CY_SET_XTND_REG32((void CYFAR *)(CYREG_CLK_DIVIDER_FRAC_A00), 0x8000BB7Fu);
 244:.\Generated_Source\PSoC4/cyfitter_cfg.c **** 
 245:.\Generated_Source\PSoC4/cyfitter_cfg.c **** 	(void)CyIntSetVector(9u, &CySysWdtIsr);
 246:.\Generated_Source\PSoC4/cyfitter_cfg.c **** 	CyIntEnable(9u);
 247:.\Generated_Source\PSoC4/cyfitter_cfg.c **** 	CY_SET_XTND_REG32((void CYFAR *)(CYREG_WDT_CONFIG), 0x00000000u);
 248:.\Generated_Source\PSoC4/cyfitter_cfg.c **** }
 249:.\Generated_Source\PSoC4/cyfitter_cfg.c **** 
 250:.\Generated_Source\PSoC4/cyfitter_cfg.c **** 
 251:.\Generated_Source\PSoC4/cyfitter_cfg.c **** /* Analog API Functions */
 252:.\Generated_Source\PSoC4/cyfitter_cfg.c **** 
 253:.\Generated_Source\PSoC4/cyfitter_cfg.c **** 
 254:.\Generated_Source\PSoC4/cyfitter_cfg.c **** /*******************************************************************************
 255:.\Generated_Source\PSoC4/cyfitter_cfg.c **** * Function Name: AnalogSetDefault
 256:.\Generated_Source\PSoC4/cyfitter_cfg.c **** ********************************************************************************
 257:.\Generated_Source\PSoC4/cyfitter_cfg.c **** *
 258:.\Generated_Source\PSoC4/cyfitter_cfg.c **** * Summary:
 259:.\Generated_Source\PSoC4/cyfitter_cfg.c **** *  Sets up the analog portions of the chip to default values based on chip
 260:.\Generated_Source\PSoC4/cyfitter_cfg.c **** *  configuration options from the project.
 261:.\Generated_Source\PSoC4/cyfitter_cfg.c **** *
 262:.\Generated_Source\PSoC4/cyfitter_cfg.c **** * Parameters:
 263:.\Generated_Source\PSoC4/cyfitter_cfg.c **** *  void
 264:.\Generated_Source\PSoC4/cyfitter_cfg.c **** *
 265:.\Generated_Source\PSoC4/cyfitter_cfg.c **** * Return:
 266:.\Generated_Source\PSoC4/cyfitter_cfg.c **** *  void
 267:.\Generated_Source\PSoC4/cyfitter_cfg.c **** *
 268:.\Generated_Source\PSoC4/cyfitter_cfg.c **** *******************************************************************************/
 269:.\Generated_Source\PSoC4/cyfitter_cfg.c **** static void AnalogSetDefault(void);
 270:.\Generated_Source\PSoC4/cyfitter_cfg.c **** static void AnalogSetDefault(void)
 271:.\Generated_Source\PSoC4/cyfitter_cfg.c **** {
 100              		.loc 1 271 0
 101              		.cfi_startproc
 272:.\Generated_Source\PSoC4/cyfitter_cfg.c **** 	CY_SET_XTND_REG32((void CYFAR *)CYREG_SAR_MUX_SWITCH0, 0x000300D8u);
 102              		.loc 1 272 0
 103 0000 024B     		ldr	r3, .L7
 104 0002 034A     		ldr	r2, .L7+4
 105 0004 1360     		str	r3, [r2]
 273:.\Generated_Source\PSoC4/cyfitter_cfg.c **** 	CY_SET_XTND_REG32((void CYFAR *)CYREG_SAR_MUX_SWITCH_HW_CTRL, 0x000300D8u);
 106              		.loc 1 273 0
 107 0006 034A     		ldr	r2, .L7+8
 108 0008 1360     		str	r3, [r2]
 274:.\Generated_Source\PSoC4/cyfitter_cfg.c **** 	/* Variable VDDA is selected; no pumps are enabled by default */
 275:.\Generated_Source\PSoC4/cyfitter_cfg.c **** }
 109              		.loc 1 275 0
 110              		@ sp needed
 111 000a 7047     		bx	lr
 112              	.L8:
 113              		.align	2
 114              	.L7:
 115 000c D8000300 		.word	196824
 116 0010 00031A40 		.word	1075446528
 117 0014 40031A40 		.word	1075446592
 118              		.cfi_endproc
 119              	.LFE5:
 120              		.size	AnalogSetDefault, .-AnalogSetDefault
 121              		.section	.text.CYMEMZERO,"ax",%progbits
ARM GAS  C:\Users\kylep\AppData\Local\Temp\cckaXDuL.s 			page 8


 122              		.align	2
 123              		.code	16
 124              		.thumb_func
 125              		.type	CYMEMZERO, %function
 126              	CYMEMZERO:
 127              	.LFB0:
  62:.\Generated_Source\PSoC4/cyfitter_cfg.c **** 	(void)memset(s, 0, n);
 128              		.loc 1 62 0
 129              		.cfi_startproc
 130              	.LVL12:
 131 0000 08B5     		push	{r3, lr}
 132              		.cfi_def_cfa_offset 8
 133              		.cfi_offset 3, -8
 134              		.cfi_offset 14, -4
 135 0002 0A1C     		mov	r2, r1
  63:.\Generated_Source\PSoC4/cyfitter_cfg.c **** }
 136              		.loc 1 63 0
 137 0004 0021     		mov	r1, #0
 138              	.LVL13:
 139 0006 FFF7FEFF 		bl	memset
 140              	.LVL14:
  64:.\Generated_Source\PSoC4/cyfitter_cfg.c **** CY_CFG_UNUSED
 141              		.loc 1 64 0
 142              		@ sp needed
 143 000a 08BD     		pop	{r3, pc}
 144              		.cfi_endproc
 145              	.LFE0:
 146              		.size	CYMEMZERO, .-CYMEMZERO
 147              		.section	.psocinit,"ax",%progbits
 148              		.align	2
 149              		.code	16
 150              		.thumb_func
 151              		.type	ClockSetup, %function
 152              	ClockSetup:
 153              	.LFB4:
 188:.\Generated_Source\PSoC4/cyfitter_cfg.c **** 	/* Enable HALF_EN before trimming for the flash accelerator. */
 154              		.loc 1 188 0
 155              		.cfi_startproc
 156 0000 38B5     		push	{r3, r4, r5, lr}
 157              		.cfi_def_cfa_offset 16
 158              		.cfi_offset 3, -16
 159              		.cfi_offset 4, -12
 160              		.cfi_offset 5, -8
 161              		.cfi_offset 14, -4
 190:.\Generated_Source\PSoC4/cyfitter_cfg.c **** 
 162              		.loc 1 190 0
 163 0002 284C     		ldr	r4, .L11
 164 0004 2368     		ldr	r3, [r4]
 165 0006 8025     		mov	r5, #128
 166 0008 ED02     		lsl	r5, r5, #11
 167 000a 2B43     		orr	r3, r5
 168 000c 2360     		str	r3, [r4]
 193:.\Generated_Source\PSoC4/cyfitter_cfg.c **** 	/* CYDEV_CLK_ILO_CONFIG Starting address: CYDEV_CLK_ILO_CONFIG */
 169              		.loc 1 193 0
 170 000e 3020     		mov	r0, #48
 171 0010 FFF7FEFF 		bl	CySysClkWriteImoFreq
 172              	.LVL15:
ARM GAS  C:\Users\kylep\AppData\Local\Temp\cckaXDuL.s 			page 9


 195:.\Generated_Source\PSoC4/cyfitter_cfg.c **** 
 173              		.loc 1 195 0
 174 0014 244A     		ldr	r2, .L11+4
 175 0016 254B     		ldr	r3, .L11+8
 176 0018 1A60     		str	r2, [r3]
 199:.\Generated_Source\PSoC4/cyfitter_cfg.c **** 	CY_SET_XTND_REG32((void CYFAR *)(CYREG_CLK_SELECT07), 0x00000030u);
 177              		.loc 1 199 0
 178 001a 1122     		mov	r2, #17
 179 001c 244B     		ldr	r3, .L11+12
 180 001e 1A60     		str	r2, [r3]
 200:.\Generated_Source\PSoC4/cyfitter_cfg.c **** 	CY_SET_XTND_REG32((void CYFAR *)(CYREG_CLK_SELECT08), 0x00000013u);
 181              		.loc 1 200 0
 182 0020 1F32     		add	r2, r2, #31
 183 0022 244B     		ldr	r3, .L11+16
 184 0024 1A60     		str	r2, [r3]
 201:.\Generated_Source\PSoC4/cyfitter_cfg.c **** 	CY_SET_XTND_REG32((void CYFAR *)(CYREG_CLK_SELECT09), 0x00000031u);
 185              		.loc 1 201 0
 186 0026 1D3A     		sub	r2, r2, #29
 187 0028 234B     		ldr	r3, .L11+20
 188 002a 1A60     		str	r2, [r3]
 202:.\Generated_Source\PSoC4/cyfitter_cfg.c **** 	CY_SET_XTND_REG32((void CYFAR *)(CYREG_CLK_SELECT10), 0x00000022u);
 189              		.loc 1 202 0
 190 002c 1E32     		add	r2, r2, #30
 191 002e 234B     		ldr	r3, .L11+24
 192 0030 1A60     		str	r2, [r3]
 203:.\Generated_Source\PSoC4/cyfitter_cfg.c **** 	CY_SET_XTND_REG32((void CYFAR *)(CYREG_CLK_SELECT11), 0x00000012u);
 193              		.loc 1 203 0
 194 0032 0F3A     		sub	r2, r2, #15
 195 0034 224B     		ldr	r3, .L11+28
 196 0036 1A60     		str	r2, [r3]
 204:.\Generated_Source\PSoC4/cyfitter_cfg.c **** 	CY_SET_XTND_REG32((void CYFAR *)(CYREG_CLK_SELECT13), 0x00000020u);
 197              		.loc 1 204 0
 198 0038 103A     		sub	r2, r2, #16
 199 003a 224B     		ldr	r3, .L11+32
 200 003c 1A60     		str	r2, [r3]
 205:.\Generated_Source\PSoC4/cyfitter_cfg.c **** 	CY_SET_XTND_REG32((void CYFAR *)(CYREG_CLK_SELECT14), 0x00000032u);
 201              		.loc 1 205 0
 202 003e 0E32     		add	r2, r2, #14
 203 0040 214B     		ldr	r3, .L11+36
 204 0042 1A60     		str	r2, [r3]
 206:.\Generated_Source\PSoC4/cyfitter_cfg.c **** 	CY_SET_XTND_REG32((void CYFAR *)(CYREG_CLK_SELECT15), 0x00000021u);
 205              		.loc 1 206 0
 206 0044 1232     		add	r2, r2, #18
 207 0046 214B     		ldr	r3, .L11+40
 208 0048 1A60     		str	r2, [r3]
 207:.\Generated_Source\PSoC4/cyfitter_cfg.c **** 
 209              		.loc 1 207 0
 210 004a 113A     		sub	r2, r2, #17
 211 004c 204B     		ldr	r3, .L11+44
 212 004e 1A60     		str	r2, [r3]
 210:.\Generated_Source\PSoC4/cyfitter_cfg.c **** 
 213              		.loc 1 210 0
 214 0050 8222     		mov	r2, #130
 215 0052 1206     		lsl	r2, r2, #24
 216 0054 1F4B     		ldr	r3, .L11+48
 217 0056 1A60     		str	r2, [r3]
 213:.\Generated_Source\PSoC4/cyfitter_cfg.c **** 
ARM GAS  C:\Users\kylep\AppData\Local\Temp\cckaXDuL.s 			page 10


 218              		.loc 1 213 0
 219 0058 2560     		str	r5, [r4]
 216:.\Generated_Source\PSoC4/cyfitter_cfg.c **** 
 220              		.loc 1 216 0
 221 005a 1F4A     		ldr	r2, .L11+52
 222 005c 1F4B     		ldr	r3, .L11+56
 223 005e 1A60     		str	r2, [r3]
 219:.\Generated_Source\PSoC4/cyfitter_cfg.c **** 
 224              		.loc 1 219 0
 225 0060 1F49     		ldr	r1, .L11+60
 226 0062 204B     		ldr	r3, .L11+64
 227 0064 1960     		str	r1, [r3]
 222:.\Generated_Source\PSoC4/cyfitter_cfg.c **** 
 228              		.loc 1 222 0
 229 0066 2049     		ldr	r1, .L11+68
 230 0068 204B     		ldr	r3, .L11+72
 231 006a 1960     		str	r1, [r3]
 225:.\Generated_Source\PSoC4/cyfitter_cfg.c **** 
 232              		.loc 1 225 0
 233 006c 2049     		ldr	r1, .L11+76
 234 006e 214B     		ldr	r3, .L11+80
 235 0070 1960     		str	r1, [r3]
 228:.\Generated_Source\PSoC4/cyfitter_cfg.c **** 
 236              		.loc 1 228 0
 237 0072 214B     		ldr	r3, .L11+84
 238 0074 2149     		ldr	r1, .L11+88
 239 0076 0B60     		str	r3, [r1]
 231:.\Generated_Source\PSoC4/cyfitter_cfg.c **** 
 240              		.loc 1 231 0
 241 0078 2149     		ldr	r1, .L11+92
 242 007a 0B60     		str	r3, [r1]
 234:.\Generated_Source\PSoC4/cyfitter_cfg.c **** 
 243              		.loc 1 234 0
 244 007c 2149     		ldr	r1, .L11+96
 245 007e 0B60     		str	r3, [r1]
 237:.\Generated_Source\PSoC4/cyfitter_cfg.c **** 
 246              		.loc 1 237 0
 247 0080 2149     		ldr	r1, .L11+100
 248 0082 0B60     		str	r3, [r1]
 240:.\Generated_Source\PSoC4/cyfitter_cfg.c **** 
 249              		.loc 1 240 0
 250 0084 2149     		ldr	r1, .L11+104
 251 0086 224B     		ldr	r3, .L11+108
 252 0088 1960     		str	r1, [r3]
 243:.\Generated_Source\PSoC4/cyfitter_cfg.c **** 
 253              		.loc 1 243 0
 254 008a 224B     		ldr	r3, .L11+112
 255 008c 1A60     		str	r2, [r3]
 245:.\Generated_Source\PSoC4/cyfitter_cfg.c **** 	CyIntEnable(9u);
 256              		.loc 1 245 0
 257 008e 0920     		mov	r0, #9
 258 0090 2149     		ldr	r1, .L11+116
 259 0092 FFF7FEFF 		bl	CyIntSetVector
 260              	.LVL16:
 246:.\Generated_Source\PSoC4/cyfitter_cfg.c **** 	CY_SET_XTND_REG32((void CYFAR *)(CYREG_WDT_CONFIG), 0x00000000u);
 261              		.loc 1 246 0
 262 0096 0920     		mov	r0, #9
ARM GAS  C:\Users\kylep\AppData\Local\Temp\cckaXDuL.s 			page 11


 263 0098 FFF7FEFF 		bl	CyIntEnable
 264              	.LVL17:
 247:.\Generated_Source\PSoC4/cyfitter_cfg.c **** }
 265              		.loc 1 247 0
 266 009c 0022     		mov	r2, #0
 267 009e 1F4B     		ldr	r3, .L11+120
 268 00a0 1A60     		str	r2, [r3]
 248:.\Generated_Source\PSoC4/cyfitter_cfg.c **** 
 269              		.loc 1 248 0
 270              		@ sp needed
 271 00a2 38BD     		pop	{r3, r4, r5, pc}
 272              	.L12:
 273              		.align	2
 274              	.L11:
 275 00a4 00010B40 		.word	1074462976
 276 00a8 06000080 		.word	-2147483642
 277 00ac 04010B40 		.word	1074462980
 278 00b0 0C020240 		.word	1073873420
 279 00b4 1C020240 		.word	1073873436
 280 00b8 20020240 		.word	1073873440
 281 00bc 24020240 		.word	1073873444
 282 00c0 28020240 		.word	1073873448
 283 00c4 2C020240 		.word	1073873452
 284 00c8 34020240 		.word	1073873460
 285 00cc 38020240 		.word	1073873464
 286 00d0 3C020240 		.word	1073873468
 287 00d4 08010B40 		.word	1074462984
 288 00d8 7FBB0080 		.word	-2147435649
 289 00dc 00000240 		.word	1073872896
 290 00e0 08000080 		.word	-2147483640
 291 00e4 40000240 		.word	1073872960
 292 00e8 0A000080 		.word	-2147483638
 293 00ec 80000240 		.word	1073873024
 294 00f0 22000080 		.word	-2147483614
 295 00f4 04000240 		.word	1073872900
 296 00f8 2F000080 		.word	-2147483601
 297 00fc 44000240 		.word	1073872964
 298 0100 84000240 		.word	1073873028
 299 0104 08000240 		.word	1073872904
 300 0108 48000240 		.word	1073872968
 301 010c AC030080 		.word	-2147482708
 302 0110 88000240 		.word	1073873032
 303 0114 00010240 		.word	1073873152
 304 0118 00000000 		.word	CySysWdtIsr
 305 011c 0C020B40 		.word	1074463244
 306              		.cfi_endproc
 307              	.LFE4:
 308              		.size	ClockSetup, .-ClockSetup
 309              		.section	.text.SetAnalogRoutingPumps,"ax",%progbits
 310              		.align	2
 311              		.global	SetAnalogRoutingPumps
 312              		.code	16
 313              		.thumb_func
 314              		.type	SetAnalogRoutingPumps, %function
 315              	SetAnalogRoutingPumps:
 316              	.LFB6:
 276:.\Generated_Source\PSoC4/cyfitter_cfg.c **** 
ARM GAS  C:\Users\kylep\AppData\Local\Temp\cckaXDuL.s 			page 12


 277:.\Generated_Source\PSoC4/cyfitter_cfg.c **** 
 278:.\Generated_Source\PSoC4/cyfitter_cfg.c **** /*******************************************************************************
 279:.\Generated_Source\PSoC4/cyfitter_cfg.c **** * Function Name: SetAnalogRoutingPumps
 280:.\Generated_Source\PSoC4/cyfitter_cfg.c **** ********************************************************************************
 281:.\Generated_Source\PSoC4/cyfitter_cfg.c **** *
 282:.\Generated_Source\PSoC4/cyfitter_cfg.c **** * Summary:
 283:.\Generated_Source\PSoC4/cyfitter_cfg.c **** * Enables or disables the analog pumps feeding analog routing switches.
 284:.\Generated_Source\PSoC4/cyfitter_cfg.c **** * Intended to be called at startup, based on the Vdda system configuration;
 285:.\Generated_Source\PSoC4/cyfitter_cfg.c **** * may be called during operation when the user informs us that the Vdda voltage crossed the pump th
 286:.\Generated_Source\PSoC4/cyfitter_cfg.c **** *
 287:.\Generated_Source\PSoC4/cyfitter_cfg.c **** * Parameters:
 288:.\Generated_Source\PSoC4/cyfitter_cfg.c **** *  enabled - 1 to enable the pumps, 0 to disable the pumps
 289:.\Generated_Source\PSoC4/cyfitter_cfg.c **** *
 290:.\Generated_Source\PSoC4/cyfitter_cfg.c **** * Return:
 291:.\Generated_Source\PSoC4/cyfitter_cfg.c **** *  void
 292:.\Generated_Source\PSoC4/cyfitter_cfg.c **** *
 293:.\Generated_Source\PSoC4/cyfitter_cfg.c **** *******************************************************************************/
 294:.\Generated_Source\PSoC4/cyfitter_cfg.c **** void SetAnalogRoutingPumps(uint8 enabled)
 295:.\Generated_Source\PSoC4/cyfitter_cfg.c **** {
 317              		.loc 1 295 0
 318              		.cfi_startproc
 319              	.LVL18:
 296:.\Generated_Source\PSoC4/cyfitter_cfg.c **** 	uint32 regValue = CY_GET_XTND_REG32((void *)(CYREG_SAR_PUMP_CTRL));
 320              		.loc 1 296 0
 321 0000 064B     		ldr	r3, .L16
 322 0002 1B68     		ldr	r3, [r3]
 323              	.LVL19:
 297:.\Generated_Source\PSoC4/cyfitter_cfg.c **** 	if (enabled != 0u)
 324              		.loc 1 297 0
 325 0004 0028     		cmp	r0, #0
 326 0006 03D0     		beq	.L14
 298:.\Generated_Source\PSoC4/cyfitter_cfg.c **** 	{
 299:.\Generated_Source\PSoC4/cyfitter_cfg.c **** 		regValue |= 0x80000000u;
 327              		.loc 1 299 0
 328 0008 8022     		mov	r2, #128
 329 000a 1206     		lsl	r2, r2, #24
 330 000c 1343     		orr	r3, r2
 331              	.LVL20:
 332 000e 01E0     		b	.L15
 333              	.L14:
 300:.\Generated_Source\PSoC4/cyfitter_cfg.c **** 	}
 301:.\Generated_Source\PSoC4/cyfitter_cfg.c **** 	else
 302:.\Generated_Source\PSoC4/cyfitter_cfg.c **** 	{
 303:.\Generated_Source\PSoC4/cyfitter_cfg.c **** 		regValue &= ~0x80000000u;
 334              		.loc 1 303 0
 335 0010 5B00     		lsl	r3, r3, #1
 336              	.LVL21:
 337 0012 5B08     		lsr	r3, r3, #1
 338              	.LVL22:
 339              	.L15:
 304:.\Generated_Source\PSoC4/cyfitter_cfg.c **** 	}
 305:.\Generated_Source\PSoC4/cyfitter_cfg.c **** 	CY_SET_XTND_REG32((void *)(CYREG_SAR_PUMP_CTRL), regValue);
 340              		.loc 1 305 0
 341 0014 014A     		ldr	r2, .L16
 342 0016 1360     		str	r3, [r2]
 306:.\Generated_Source\PSoC4/cyfitter_cfg.c **** }
 343              		.loc 1 306 0
ARM GAS  C:\Users\kylep\AppData\Local\Temp\cckaXDuL.s 			page 13


 344              		@ sp needed
 345 0018 7047     		bx	lr
 346              	.L17:
 347 001a C046     		.align	2
 348              	.L16:
 349 001c 80031A40 		.word	1075446656
 350              		.cfi_endproc
 351              	.LFE6:
 352              		.size	SetAnalogRoutingPumps, .-SetAnalogRoutingPumps
 353              		.section	.psocinit
 354              		.align	2
 355              		.global	cyfitter_cfg
 356              		.code	16
 357              		.thumb_func
 358              		.type	cyfitter_cfg, %function
 359              	cyfitter_cfg:
 360              	.LFB7:
 307:.\Generated_Source\PSoC4/cyfitter_cfg.c **** 
 308:.\Generated_Source\PSoC4/cyfitter_cfg.c **** #define CY_AMUX_UNUSED CYREG_CM0_ROM_DWT
 309:.\Generated_Source\PSoC4/cyfitter_cfg.c **** 
 310:.\Generated_Source\PSoC4/cyfitter_cfg.c **** 
 311:.\Generated_Source\PSoC4/cyfitter_cfg.c **** /*******************************************************************************
 312:.\Generated_Source\PSoC4/cyfitter_cfg.c **** * Function Name: cyfitter_cfg
 313:.\Generated_Source\PSoC4/cyfitter_cfg.c **** ********************************************************************************
 314:.\Generated_Source\PSoC4/cyfitter_cfg.c **** * Summary:
 315:.\Generated_Source\PSoC4/cyfitter_cfg.c **** *  This function is called by the start-up code for the selected device. It
 316:.\Generated_Source\PSoC4/cyfitter_cfg.c **** *  performs all of the necessary device configuration based on the design
 317:.\Generated_Source\PSoC4/cyfitter_cfg.c **** *  settings.  This includes settings from the Design Wide Resources (DWR) such
 318:.\Generated_Source\PSoC4/cyfitter_cfg.c **** *  as Clocks and Pins as well as any component configuration that is necessary.
 319:.\Generated_Source\PSoC4/cyfitter_cfg.c **** *
 320:.\Generated_Source\PSoC4/cyfitter_cfg.c **** * Parameters:  
 321:.\Generated_Source\PSoC4/cyfitter_cfg.c **** *   void
 322:.\Generated_Source\PSoC4/cyfitter_cfg.c **** *
 323:.\Generated_Source\PSoC4/cyfitter_cfg.c **** * Return:
 324:.\Generated_Source\PSoC4/cyfitter_cfg.c **** *   void
 325:.\Generated_Source\PSoC4/cyfitter_cfg.c **** *
 326:.\Generated_Source\PSoC4/cyfitter_cfg.c **** *******************************************************************************/
 327:.\Generated_Source\PSoC4/cyfitter_cfg.c **** CY_CFG_SECTION
 328:.\Generated_Source\PSoC4/cyfitter_cfg.c **** void cyfitter_cfg(void)
 329:.\Generated_Source\PSoC4/cyfitter_cfg.c **** {
 361              		.loc 1 329 0
 362              		.cfi_startproc
 363 0120 10B5     		push	{r4, lr}
 364              		.cfi_def_cfa_offset 8
 365              		.cfi_offset 4, -8
 366              		.cfi_offset 14, -4
 330:.\Generated_Source\PSoC4/cyfitter_cfg.c **** 	/* Disable interrupts by default. Let user enable if/when they want. */
 331:.\Generated_Source\PSoC4/cyfitter_cfg.c **** 	CyGlobalIntDisable;
 367              		.loc 1 331 0
 368              	@ 331 ".\Generated_Source\PSoC4\cyfitter_cfg.c" 1
 369 0122 72B6     		CPSID   i
 370              	@ 0 "" 2
 332:.\Generated_Source\PSoC4/cyfitter_cfg.c **** 
 333:.\Generated_Source\PSoC4/cyfitter_cfg.c **** 	/* Enable the clock in the interrupt controller for the routed interrupts */
 334:.\Generated_Source\PSoC4/cyfitter_cfg.c **** 	CY_SET_REG8((void *)CYREG_UDB_UDBIF_INT_CLK_CTL, 0x01u);
 371              		.loc 1 334 0
 372              		.code	16
ARM GAS  C:\Users\kylep\AppData\Local\Temp\cckaXDuL.s 			page 14


 373 0124 0122     		mov	r2, #1
 374 0126 344B     		ldr	r3, .L21
 375 0128 1A70     		strb	r2, [r3]
 376              	.LVL23:
 377              	.LBB3:
 335:.\Generated_Source\PSoC4/cyfitter_cfg.c **** 	{
 336:.\Generated_Source\PSoC4/cyfitter_cfg.c **** 		static const uint32 CYCODE cy_cfg_addr_table[] = {
 337:.\Generated_Source\PSoC4/cyfitter_cfg.c **** 			0x400F0002u, /* Base address: 0x400F0000 Count: 2 */
 338:.\Generated_Source\PSoC4/cyfitter_cfg.c **** 			0x400F3036u, /* Base address: 0x400F3000 Count: 54 */
 339:.\Generated_Source\PSoC4/cyfitter_cfg.c **** 			0x400F311Bu, /* Base address: 0x400F3100 Count: 27 */
 340:.\Generated_Source\PSoC4/cyfitter_cfg.c **** 			0x400F3259u, /* Base address: 0x400F3200 Count: 89 */
 341:.\Generated_Source\PSoC4/cyfitter_cfg.c **** 			0x400F332Eu, /* Base address: 0x400F3300 Count: 46 */
 342:.\Generated_Source\PSoC4/cyfitter_cfg.c **** 			0x400F400Du, /* Base address: 0x400F4000 Count: 13 */
 343:.\Generated_Source\PSoC4/cyfitter_cfg.c **** 			0x400F410Bu, /* Base address: 0x400F4100 Count: 11 */
 344:.\Generated_Source\PSoC4/cyfitter_cfg.c **** 			0x400F6002u, /* Base address: 0x400F6000 Count: 2 */
 345:.\Generated_Source\PSoC4/cyfitter_cfg.c **** 		};
 346:.\Generated_Source\PSoC4/cyfitter_cfg.c **** 
 347:.\Generated_Source\PSoC4/cyfitter_cfg.c **** 		static const cy_cfg_addrvalue_t CYCODE cy_cfg_data_table[] = {
 348:.\Generated_Source\PSoC4/cyfitter_cfg.c **** 			{0x81u, 0x0Du},
 349:.\Generated_Source\PSoC4/cyfitter_cfg.c **** 			{0x83u, 0x0Du},
 350:.\Generated_Source\PSoC4/cyfitter_cfg.c **** 			{0x40u, 0x54u},
 351:.\Generated_Source\PSoC4/cyfitter_cfg.c **** 			{0x49u, 0xFFu},
 352:.\Generated_Source\PSoC4/cyfitter_cfg.c **** 			{0x4Au, 0xFFu},
 353:.\Generated_Source\PSoC4/cyfitter_cfg.c **** 			{0x4Bu, 0xFFu},
 354:.\Generated_Source\PSoC4/cyfitter_cfg.c **** 			{0x4Fu, 0x01u},
 355:.\Generated_Source\PSoC4/cyfitter_cfg.c **** 			{0x50u, 0x18u},
 356:.\Generated_Source\PSoC4/cyfitter_cfg.c **** 			{0x52u, 0x80u},
 357:.\Generated_Source\PSoC4/cyfitter_cfg.c **** 			{0x5Au, 0x04u},
 358:.\Generated_Source\PSoC4/cyfitter_cfg.c **** 			{0x5Bu, 0x04u},
 359:.\Generated_Source\PSoC4/cyfitter_cfg.c **** 			{0x5Du, 0x33u},
 360:.\Generated_Source\PSoC4/cyfitter_cfg.c **** 			{0x5Fu, 0x01u},
 361:.\Generated_Source\PSoC4/cyfitter_cfg.c **** 			{0x60u, 0x40u},
 362:.\Generated_Source\PSoC4/cyfitter_cfg.c **** 			{0x62u, 0x40u},
 363:.\Generated_Source\PSoC4/cyfitter_cfg.c **** 			{0x64u, 0x40u},
 364:.\Generated_Source\PSoC4/cyfitter_cfg.c **** 			{0x65u, 0x40u},
 365:.\Generated_Source\PSoC4/cyfitter_cfg.c **** 			{0x66u, 0x80u},
 366:.\Generated_Source\PSoC4/cyfitter_cfg.c **** 			{0x68u, 0x80u},
 367:.\Generated_Source\PSoC4/cyfitter_cfg.c **** 			{0x6Au, 0x80u},
 368:.\Generated_Source\PSoC4/cyfitter_cfg.c **** 			{0x6Cu, 0x80u},
 369:.\Generated_Source\PSoC4/cyfitter_cfg.c **** 			{0x6Eu, 0x80u},
 370:.\Generated_Source\PSoC4/cyfitter_cfg.c **** 			{0x82u, 0x01u},
 371:.\Generated_Source\PSoC4/cyfitter_cfg.c **** 			{0x8Eu, 0x02u},
 372:.\Generated_Source\PSoC4/cyfitter_cfg.c **** 			{0x92u, 0x01u},
 373:.\Generated_Source\PSoC4/cyfitter_cfg.c **** 			{0xA2u, 0x02u},
 374:.\Generated_Source\PSoC4/cyfitter_cfg.c **** 			{0xB0u, 0x01u},
 375:.\Generated_Source\PSoC4/cyfitter_cfg.c **** 			{0xB4u, 0x02u},
 376:.\Generated_Source\PSoC4/cyfitter_cfg.c **** 			{0xBEu, 0x11u},
 377:.\Generated_Source\PSoC4/cyfitter_cfg.c **** 			{0xC0u, 0x54u},
 378:.\Generated_Source\PSoC4/cyfitter_cfg.c **** 			{0xC5u, 0xECu},
 379:.\Generated_Source\PSoC4/cyfitter_cfg.c **** 			{0xC6u, 0x02u},
 380:.\Generated_Source\PSoC4/cyfitter_cfg.c **** 			{0xC8u, 0x07u},
 381:.\Generated_Source\PSoC4/cyfitter_cfg.c **** 			{0xC9u, 0xFFu},
 382:.\Generated_Source\PSoC4/cyfitter_cfg.c **** 			{0xCAu, 0xFFu},
 383:.\Generated_Source\PSoC4/cyfitter_cfg.c **** 			{0xCBu, 0xFFu},
 384:.\Generated_Source\PSoC4/cyfitter_cfg.c **** 			{0xCDu, 0x83u},
 385:.\Generated_Source\PSoC4/cyfitter_cfg.c **** 			{0xCEu, 0x03u},
 386:.\Generated_Source\PSoC4/cyfitter_cfg.c **** 			{0xCFu, 0x01u},
ARM GAS  C:\Users\kylep\AppData\Local\Temp\cckaXDuL.s 			page 15


 387:.\Generated_Source\PSoC4/cyfitter_cfg.c **** 			{0xD0u, 0x18u},
 388:.\Generated_Source\PSoC4/cyfitter_cfg.c **** 			{0xD4u, 0x01u},
 389:.\Generated_Source\PSoC4/cyfitter_cfg.c **** 			{0xD6u, 0x04u},
 390:.\Generated_Source\PSoC4/cyfitter_cfg.c **** 			{0xD8u, 0x04u},
 391:.\Generated_Source\PSoC4/cyfitter_cfg.c **** 			{0xDAu, 0x04u},
 392:.\Generated_Source\PSoC4/cyfitter_cfg.c **** 			{0xDBu, 0x04u},
 393:.\Generated_Source\PSoC4/cyfitter_cfg.c **** 			{0xDDu, 0x33u},
 394:.\Generated_Source\PSoC4/cyfitter_cfg.c **** 			{0xDFu, 0x01u},
 395:.\Generated_Source\PSoC4/cyfitter_cfg.c **** 			{0xE0u, 0x40u},
 396:.\Generated_Source\PSoC4/cyfitter_cfg.c **** 			{0xE2u, 0x40u},
 397:.\Generated_Source\PSoC4/cyfitter_cfg.c **** 			{0xE4u, 0x40u},
 398:.\Generated_Source\PSoC4/cyfitter_cfg.c **** 			{0xE5u, 0x40u},
 399:.\Generated_Source\PSoC4/cyfitter_cfg.c **** 			{0xE6u, 0x80u},
 400:.\Generated_Source\PSoC4/cyfitter_cfg.c **** 			{0xE8u, 0x80u},
 401:.\Generated_Source\PSoC4/cyfitter_cfg.c **** 			{0xEAu, 0x80u},
 402:.\Generated_Source\PSoC4/cyfitter_cfg.c **** 			{0xECu, 0x80u},
 403:.\Generated_Source\PSoC4/cyfitter_cfg.c **** 			{0xEEu, 0x80u},
 404:.\Generated_Source\PSoC4/cyfitter_cfg.c **** 			{0x06u, 0x80u},
 405:.\Generated_Source\PSoC4/cyfitter_cfg.c **** 			{0x07u, 0x02u},
 406:.\Generated_Source\PSoC4/cyfitter_cfg.c **** 			{0x0Cu, 0x02u},
 407:.\Generated_Source\PSoC4/cyfitter_cfg.c **** 			{0x17u, 0x01u},
 408:.\Generated_Source\PSoC4/cyfitter_cfg.c **** 			{0x1Eu, 0x80u},
 409:.\Generated_Source\PSoC4/cyfitter_cfg.c **** 			{0x1Fu, 0x20u},
 410:.\Generated_Source\PSoC4/cyfitter_cfg.c **** 			{0x42u, 0x80u},
 411:.\Generated_Source\PSoC4/cyfitter_cfg.c **** 			{0x46u, 0x80u},
 412:.\Generated_Source\PSoC4/cyfitter_cfg.c **** 			{0x48u, 0x02u},
 413:.\Generated_Source\PSoC4/cyfitter_cfg.c **** 			{0x4Cu, 0x02u},
 414:.\Generated_Source\PSoC4/cyfitter_cfg.c **** 			{0x4Du, 0x04u},
 415:.\Generated_Source\PSoC4/cyfitter_cfg.c **** 			{0x4Fu, 0x01u},
 416:.\Generated_Source\PSoC4/cyfitter_cfg.c **** 			{0x56u, 0x80u},
 417:.\Generated_Source\PSoC4/cyfitter_cfg.c **** 			{0x5Du, 0x04u},
 418:.\Generated_Source\PSoC4/cyfitter_cfg.c **** 			{0x5Eu, 0x80u},
 419:.\Generated_Source\PSoC4/cyfitter_cfg.c **** 			{0x5Fu, 0x01u},
 420:.\Generated_Source\PSoC4/cyfitter_cfg.c **** 			{0x65u, 0x01u},
 421:.\Generated_Source\PSoC4/cyfitter_cfg.c **** 			{0x6Fu, 0x01u},
 422:.\Generated_Source\PSoC4/cyfitter_cfg.c **** 			{0x70u, 0x02u},
 423:.\Generated_Source\PSoC4/cyfitter_cfg.c **** 			{0x81u, 0x01u},
 424:.\Generated_Source\PSoC4/cyfitter_cfg.c **** 			{0xC0u, 0x90u},
 425:.\Generated_Source\PSoC4/cyfitter_cfg.c **** 			{0xC2u, 0x10u},
 426:.\Generated_Source\PSoC4/cyfitter_cfg.c **** 			{0xC4u, 0x10u},
 427:.\Generated_Source\PSoC4/cyfitter_cfg.c **** 			{0xD0u, 0x81u},
 428:.\Generated_Source\PSoC4/cyfitter_cfg.c **** 			{0xD2u, 0x18u},
 429:.\Generated_Source\PSoC4/cyfitter_cfg.c **** 			{0xD6u, 0xD0u},
 430:.\Generated_Source\PSoC4/cyfitter_cfg.c **** 			{0xD8u, 0x80u},
 431:.\Generated_Source\PSoC4/cyfitter_cfg.c **** 			{0x02u, 0x20u},
 432:.\Generated_Source\PSoC4/cyfitter_cfg.c **** 			{0x04u, 0x10u},
 433:.\Generated_Source\PSoC4/cyfitter_cfg.c **** 			{0x06u, 0x04u},
 434:.\Generated_Source\PSoC4/cyfitter_cfg.c **** 			{0x08u, 0x01u},
 435:.\Generated_Source\PSoC4/cyfitter_cfg.c **** 			{0x0Au, 0x12u},
 436:.\Generated_Source\PSoC4/cyfitter_cfg.c **** 			{0x0Fu, 0x04u},
 437:.\Generated_Source\PSoC4/cyfitter_cfg.c **** 			{0x13u, 0x03u},
 438:.\Generated_Source\PSoC4/cyfitter_cfg.c **** 			{0x16u, 0x1Fu},
 439:.\Generated_Source\PSoC4/cyfitter_cfg.c **** 			{0x1Cu, 0x18u},
 440:.\Generated_Source\PSoC4/cyfitter_cfg.c **** 			{0x1Eu, 0x03u},
 441:.\Generated_Source\PSoC4/cyfitter_cfg.c **** 			{0x20u, 0x06u},
 442:.\Generated_Source\PSoC4/cyfitter_cfg.c **** 			{0x22u, 0x11u},
 443:.\Generated_Source\PSoC4/cyfitter_cfg.c **** 			{0x23u, 0x01u},
ARM GAS  C:\Users\kylep\AppData\Local\Temp\cckaXDuL.s 			page 16


 444:.\Generated_Source\PSoC4/cyfitter_cfg.c **** 			{0x24u, 0x07u},
 445:.\Generated_Source\PSoC4/cyfitter_cfg.c **** 			{0x26u, 0x08u},
 446:.\Generated_Source\PSoC4/cyfitter_cfg.c **** 			{0x27u, 0x02u},
 447:.\Generated_Source\PSoC4/cyfitter_cfg.c **** 			{0x30u, 0x1Fu},
 448:.\Generated_Source\PSoC4/cyfitter_cfg.c **** 			{0x31u, 0x04u},
 449:.\Generated_Source\PSoC4/cyfitter_cfg.c **** 			{0x32u, 0x20u},
 450:.\Generated_Source\PSoC4/cyfitter_cfg.c **** 			{0x37u, 0x03u},
 451:.\Generated_Source\PSoC4/cyfitter_cfg.c **** 			{0x40u, 0x30u},
 452:.\Generated_Source\PSoC4/cyfitter_cfg.c **** 			{0x41u, 0x05u},
 453:.\Generated_Source\PSoC4/cyfitter_cfg.c **** 			{0x45u, 0x10u},
 454:.\Generated_Source\PSoC4/cyfitter_cfg.c **** 			{0x46u, 0x02u},
 455:.\Generated_Source\PSoC4/cyfitter_cfg.c **** 			{0x48u, 0x0Eu},
 456:.\Generated_Source\PSoC4/cyfitter_cfg.c **** 			{0x49u, 0xFFu},
 457:.\Generated_Source\PSoC4/cyfitter_cfg.c **** 			{0x4Au, 0xFFu},
 458:.\Generated_Source\PSoC4/cyfitter_cfg.c **** 			{0x4Bu, 0xFFu},
 459:.\Generated_Source\PSoC4/cyfitter_cfg.c **** 			{0x4Du, 0xA0u},
 460:.\Generated_Source\PSoC4/cyfitter_cfg.c **** 			{0x4Fu, 0x04u},
 461:.\Generated_Source\PSoC4/cyfitter_cfg.c **** 			{0x50u, 0x18u},
 462:.\Generated_Source\PSoC4/cyfitter_cfg.c **** 			{0x52u, 0x87u},
 463:.\Generated_Source\PSoC4/cyfitter_cfg.c **** 			{0x58u, 0x04u},
 464:.\Generated_Source\PSoC4/cyfitter_cfg.c **** 			{0x59u, 0x04u},
 465:.\Generated_Source\PSoC4/cyfitter_cfg.c **** 			{0x5Au, 0x04u},
 466:.\Generated_Source\PSoC4/cyfitter_cfg.c **** 			{0x5Bu, 0x04u},
 467:.\Generated_Source\PSoC4/cyfitter_cfg.c **** 			{0x5Cu, 0x21u},
 468:.\Generated_Source\PSoC4/cyfitter_cfg.c **** 			{0x5Du, 0x11u},
 469:.\Generated_Source\PSoC4/cyfitter_cfg.c **** 			{0x5Fu, 0x01u},
 470:.\Generated_Source\PSoC4/cyfitter_cfg.c **** 			{0x60u, 0x40u},
 471:.\Generated_Source\PSoC4/cyfitter_cfg.c **** 			{0x62u, 0xC0u},
 472:.\Generated_Source\PSoC4/cyfitter_cfg.c **** 			{0x64u, 0x40u},
 473:.\Generated_Source\PSoC4/cyfitter_cfg.c **** 			{0x65u, 0x40u},
 474:.\Generated_Source\PSoC4/cyfitter_cfg.c **** 			{0x66u, 0xC0u},
 475:.\Generated_Source\PSoC4/cyfitter_cfg.c **** 			{0x68u, 0xC0u},
 476:.\Generated_Source\PSoC4/cyfitter_cfg.c **** 			{0x6Au, 0xC0u},
 477:.\Generated_Source\PSoC4/cyfitter_cfg.c **** 			{0x6Cu, 0xC0u},
 478:.\Generated_Source\PSoC4/cyfitter_cfg.c **** 			{0x6Eu, 0xC0u},
 479:.\Generated_Source\PSoC4/cyfitter_cfg.c **** 			{0x92u, 0x04u},
 480:.\Generated_Source\PSoC4/cyfitter_cfg.c **** 			{0x98u, 0x03u},
 481:.\Generated_Source\PSoC4/cyfitter_cfg.c **** 			{0x99u, 0x01u},
 482:.\Generated_Source\PSoC4/cyfitter_cfg.c **** 			{0x9Du, 0x01u},
 483:.\Generated_Source\PSoC4/cyfitter_cfg.c **** 			{0xA2u, 0x01u},
 484:.\Generated_Source\PSoC4/cyfitter_cfg.c **** 			{0xA6u, 0x02u},
 485:.\Generated_Source\PSoC4/cyfitter_cfg.c **** 			{0xAAu, 0x04u},
 486:.\Generated_Source\PSoC4/cyfitter_cfg.c **** 			{0xB2u, 0x04u},
 487:.\Generated_Source\PSoC4/cyfitter_cfg.c **** 			{0xB5u, 0x01u},
 488:.\Generated_Source\PSoC4/cyfitter_cfg.c **** 			{0xB6u, 0x03u},
 489:.\Generated_Source\PSoC4/cyfitter_cfg.c **** 			{0xB9u, 0x20u},
 490:.\Generated_Source\PSoC4/cyfitter_cfg.c **** 			{0xBEu, 0x04u},
 491:.\Generated_Source\PSoC4/cyfitter_cfg.c **** 			{0xC0u, 0x40u},
 492:.\Generated_Source\PSoC4/cyfitter_cfg.c **** 			{0xC1u, 0x06u},
 493:.\Generated_Source\PSoC4/cyfitter_cfg.c **** 			{0xC5u, 0xD1u},
 494:.\Generated_Source\PSoC4/cyfitter_cfg.c **** 			{0xC7u, 0x02u},
 495:.\Generated_Source\PSoC4/cyfitter_cfg.c **** 			{0xC8u, 0x17u},
 496:.\Generated_Source\PSoC4/cyfitter_cfg.c **** 			{0xC9u, 0xFFu},
 497:.\Generated_Source\PSoC4/cyfitter_cfg.c **** 			{0xCAu, 0xFFu},
 498:.\Generated_Source\PSoC4/cyfitter_cfg.c **** 			{0xCBu, 0xFFu},
 499:.\Generated_Source\PSoC4/cyfitter_cfg.c **** 			{0xCDu, 0xA0u},
 500:.\Generated_Source\PSoC4/cyfitter_cfg.c **** 			{0xCFu, 0x04u},
ARM GAS  C:\Users\kylep\AppData\Local\Temp\cckaXDuL.s 			page 17


 501:.\Generated_Source\PSoC4/cyfitter_cfg.c **** 			{0xD0u, 0x18u},
 502:.\Generated_Source\PSoC4/cyfitter_cfg.c **** 			{0xD2u, 0x80u},
 503:.\Generated_Source\PSoC4/cyfitter_cfg.c **** 			{0xD4u, 0x05u},
 504:.\Generated_Source\PSoC4/cyfitter_cfg.c **** 			{0xD8u, 0x04u},
 505:.\Generated_Source\PSoC4/cyfitter_cfg.c **** 			{0xD9u, 0x04u},
 506:.\Generated_Source\PSoC4/cyfitter_cfg.c **** 			{0xDAu, 0x04u},
 507:.\Generated_Source\PSoC4/cyfitter_cfg.c **** 			{0xDBu, 0x04u},
 508:.\Generated_Source\PSoC4/cyfitter_cfg.c **** 			{0xDCu, 0x22u},
 509:.\Generated_Source\PSoC4/cyfitter_cfg.c **** 			{0xDDu, 0x22u},
 510:.\Generated_Source\PSoC4/cyfitter_cfg.c **** 			{0xDFu, 0x01u},
 511:.\Generated_Source\PSoC4/cyfitter_cfg.c **** 			{0xE0u, 0x40u},
 512:.\Generated_Source\PSoC4/cyfitter_cfg.c **** 			{0xE2u, 0xC0u},
 513:.\Generated_Source\PSoC4/cyfitter_cfg.c **** 			{0xE4u, 0x40u},
 514:.\Generated_Source\PSoC4/cyfitter_cfg.c **** 			{0xE5u, 0x40u},
 515:.\Generated_Source\PSoC4/cyfitter_cfg.c **** 			{0xE6u, 0xC0u},
 516:.\Generated_Source\PSoC4/cyfitter_cfg.c **** 			{0xE8u, 0xC0u},
 517:.\Generated_Source\PSoC4/cyfitter_cfg.c **** 			{0xEAu, 0xC0u},
 518:.\Generated_Source\PSoC4/cyfitter_cfg.c **** 			{0xECu, 0xC0u},
 519:.\Generated_Source\PSoC4/cyfitter_cfg.c **** 			{0xEEu, 0xC0u},
 520:.\Generated_Source\PSoC4/cyfitter_cfg.c **** 			{0x06u, 0x20u},
 521:.\Generated_Source\PSoC4/cyfitter_cfg.c **** 			{0x07u, 0x44u},
 522:.\Generated_Source\PSoC4/cyfitter_cfg.c **** 			{0x09u, 0x22u},
 523:.\Generated_Source\PSoC4/cyfitter_cfg.c **** 			{0x0Du, 0x08u},
 524:.\Generated_Source\PSoC4/cyfitter_cfg.c **** 			{0x0Fu, 0x02u},
 525:.\Generated_Source\PSoC4/cyfitter_cfg.c **** 			{0x10u, 0xA8u},
 526:.\Generated_Source\PSoC4/cyfitter_cfg.c **** 			{0x15u, 0x04u},
 527:.\Generated_Source\PSoC4/cyfitter_cfg.c **** 			{0x17u, 0x01u},
 528:.\Generated_Source\PSoC4/cyfitter_cfg.c **** 			{0x19u, 0x44u},
 529:.\Generated_Source\PSoC4/cyfitter_cfg.c **** 			{0x1Du, 0x08u},
 530:.\Generated_Source\PSoC4/cyfitter_cfg.c **** 			{0x1Fu, 0x01u},
 531:.\Generated_Source\PSoC4/cyfitter_cfg.c **** 			{0x21u, 0x20u},
 532:.\Generated_Source\PSoC4/cyfitter_cfg.c **** 			{0x25u, 0x02u},
 533:.\Generated_Source\PSoC4/cyfitter_cfg.c **** 			{0x26u, 0x01u},
 534:.\Generated_Source\PSoC4/cyfitter_cfg.c **** 			{0x27u, 0x02u},
 535:.\Generated_Source\PSoC4/cyfitter_cfg.c **** 			{0x2Cu, 0xA0u},
 536:.\Generated_Source\PSoC4/cyfitter_cfg.c **** 			{0x30u, 0xA0u},
 537:.\Generated_Source\PSoC4/cyfitter_cfg.c **** 			{0x36u, 0x01u},
 538:.\Generated_Source\PSoC4/cyfitter_cfg.c **** 			{0x3Fu, 0x40u},
 539:.\Generated_Source\PSoC4/cyfitter_cfg.c **** 			{0x41u, 0x02u},
 540:.\Generated_Source\PSoC4/cyfitter_cfg.c **** 			{0x45u, 0x08u},
 541:.\Generated_Source\PSoC4/cyfitter_cfg.c **** 			{0x48u, 0x28u},
 542:.\Generated_Source\PSoC4/cyfitter_cfg.c **** 			{0x49u, 0x01u},
 543:.\Generated_Source\PSoC4/cyfitter_cfg.c **** 			{0x4Fu, 0x82u},
 544:.\Generated_Source\PSoC4/cyfitter_cfg.c **** 			{0x50u, 0x88u},
 545:.\Generated_Source\PSoC4/cyfitter_cfg.c **** 			{0x56u, 0x20u},
 546:.\Generated_Source\PSoC4/cyfitter_cfg.c **** 			{0x57u, 0x40u},
 547:.\Generated_Source\PSoC4/cyfitter_cfg.c **** 			{0x59u, 0x45u},
 548:.\Generated_Source\PSoC4/cyfitter_cfg.c **** 			{0x6Du, 0x04u},
 549:.\Generated_Source\PSoC4/cyfitter_cfg.c **** 			{0x6Fu, 0x05u},
 550:.\Generated_Source\PSoC4/cyfitter_cfg.c **** 			{0x73u, 0x40u},
 551:.\Generated_Source\PSoC4/cyfitter_cfg.c **** 			{0x77u, 0x40u},
 552:.\Generated_Source\PSoC4/cyfitter_cfg.c **** 			{0x8Fu, 0x01u},
 553:.\Generated_Source\PSoC4/cyfitter_cfg.c **** 			{0x9Fu, 0x02u},
 554:.\Generated_Source\PSoC4/cyfitter_cfg.c **** 			{0xB7u, 0x20u},
 555:.\Generated_Source\PSoC4/cyfitter_cfg.c **** 			{0xC0u, 0x70u},
 556:.\Generated_Source\PSoC4/cyfitter_cfg.c **** 			{0xC2u, 0xAAu},
 557:.\Generated_Source\PSoC4/cyfitter_cfg.c **** 			{0xC4u, 0x3Eu},
ARM GAS  C:\Users\kylep\AppData\Local\Temp\cckaXDuL.s 			page 18


 558:.\Generated_Source\PSoC4/cyfitter_cfg.c **** 			{0xCAu, 0xC0u},
 559:.\Generated_Source\PSoC4/cyfitter_cfg.c **** 			{0xCCu, 0x8Cu},
 560:.\Generated_Source\PSoC4/cyfitter_cfg.c **** 			{0xCEu, 0x10u},
 561:.\Generated_Source\PSoC4/cyfitter_cfg.c **** 			{0xD0u, 0x41u},
 562:.\Generated_Source\PSoC4/cyfitter_cfg.c **** 			{0xD2u, 0x14u},
 563:.\Generated_Source\PSoC4/cyfitter_cfg.c **** 			{0xD6u, 0x0Bu},
 564:.\Generated_Source\PSoC4/cyfitter_cfg.c **** 			{0xE2u, 0x40u},
 565:.\Generated_Source\PSoC4/cyfitter_cfg.c **** 			{0xEAu, 0x40u},
 566:.\Generated_Source\PSoC4/cyfitter_cfg.c **** 			{0x53u, 0x80u},
 567:.\Generated_Source\PSoC4/cyfitter_cfg.c **** 			{0x56u, 0x02u},
 568:.\Generated_Source\PSoC4/cyfitter_cfg.c **** 			{0x6Fu, 0x42u},
 569:.\Generated_Source\PSoC4/cyfitter_cfg.c **** 			{0x73u, 0x08u},
 570:.\Generated_Source\PSoC4/cyfitter_cfg.c **** 			{0x76u, 0x20u},
 571:.\Generated_Source\PSoC4/cyfitter_cfg.c **** 			{0x79u, 0x80u},
 572:.\Generated_Source\PSoC4/cyfitter_cfg.c **** 			{0x82u, 0x20u},
 573:.\Generated_Source\PSoC4/cyfitter_cfg.c **** 			{0xD4u, 0x20u},
 574:.\Generated_Source\PSoC4/cyfitter_cfg.c **** 			{0xD6u, 0x20u},
 575:.\Generated_Source\PSoC4/cyfitter_cfg.c **** 			{0xDAu, 0x80u},
 576:.\Generated_Source\PSoC4/cyfitter_cfg.c **** 			{0xDCu, 0xE0u},
 577:.\Generated_Source\PSoC4/cyfitter_cfg.c **** 			{0xDEu, 0x20u},
 578:.\Generated_Source\PSoC4/cyfitter_cfg.c **** 			{0xE2u, 0x20u},
 579:.\Generated_Source\PSoC4/cyfitter_cfg.c **** 			{0x21u, 0x40u},
 580:.\Generated_Source\PSoC4/cyfitter_cfg.c **** 			{0x23u, 0x10u},
 581:.\Generated_Source\PSoC4/cyfitter_cfg.c **** 			{0x27u, 0x48u},
 582:.\Generated_Source\PSoC4/cyfitter_cfg.c **** 			{0x87u, 0x12u},
 583:.\Generated_Source\PSoC4/cyfitter_cfg.c **** 			{0x8Eu, 0x02u},
 584:.\Generated_Source\PSoC4/cyfitter_cfg.c **** 			{0x95u, 0x80u},
 585:.\Generated_Source\PSoC4/cyfitter_cfg.c **** 			{0x9Eu, 0x02u},
 586:.\Generated_Source\PSoC4/cyfitter_cfg.c **** 			{0x9Fu, 0x48u},
 587:.\Generated_Source\PSoC4/cyfitter_cfg.c **** 			{0xA7u, 0x02u},
 588:.\Generated_Source\PSoC4/cyfitter_cfg.c **** 			{0xB7u, 0x80u},
 589:.\Generated_Source\PSoC4/cyfitter_cfg.c **** 			{0xC8u, 0xF0u},
 590:.\Generated_Source\PSoC4/cyfitter_cfg.c **** 			{0x01u, 0x0Eu},
 591:.\Generated_Source\PSoC4/cyfitter_cfg.c **** 			{0x10u, 0x0Eu},
 592:.\Generated_Source\PSoC4/cyfitter_cfg.c **** 		};
 593:.\Generated_Source\PSoC4/cyfitter_cfg.c **** 
 594:.\Generated_Source\PSoC4/cyfitter_cfg.c **** 
 595:.\Generated_Source\PSoC4/cyfitter_cfg.c **** 
 596:.\Generated_Source\PSoC4/cyfitter_cfg.c **** 		CYPACKED typedef struct {
 597:.\Generated_Source\PSoC4/cyfitter_cfg.c **** 			void CYFAR *address;
 598:.\Generated_Source\PSoC4/cyfitter_cfg.c **** 			uint16 size;
 599:.\Generated_Source\PSoC4/cyfitter_cfg.c **** 		} CYPACKED_ATTR cfg_memset_t;
 600:.\Generated_Source\PSoC4/cyfitter_cfg.c **** 
 601:.\Generated_Source\PSoC4/cyfitter_cfg.c **** 		static const cfg_memset_t CYCODE cfg_memset_list [] = {
 602:.\Generated_Source\PSoC4/cyfitter_cfg.c **** 			/* address, size */
 603:.\Generated_Source\PSoC4/cyfitter_cfg.c **** 			{(void CYFAR *)(CYDEV_UDB_P0_U0_BASE), 1024u},
 604:.\Generated_Source\PSoC4/cyfitter_cfg.c **** 			{(void CYFAR *)(CYDEV_UDB_DSI0_BASE), 1024u},
 605:.\Generated_Source\PSoC4/cyfitter_cfg.c **** 		};
 606:.\Generated_Source\PSoC4/cyfitter_cfg.c **** 
 607:.\Generated_Source\PSoC4/cyfitter_cfg.c **** 		uint8 CYDATA i;
 608:.\Generated_Source\PSoC4/cyfitter_cfg.c **** 
 609:.\Generated_Source\PSoC4/cyfitter_cfg.c **** 		/* Zero out critical memory blocks before beginning configuration */
 610:.\Generated_Source\PSoC4/cyfitter_cfg.c **** 		for (i = 0u; i < (sizeof(cfg_memset_list)/sizeof(cfg_memset_list[0])); i++)
 378              		.loc 1 610 0
 379 012a 0024     		mov	r4, #0
 380 012c 10E0     		b	.L19
 381              	.LVL24:
ARM GAS  C:\Users\kylep\AppData\Local\Temp\cckaXDuL.s 			page 19


 382              	.L20:
 383              	.LBB4:
 611:.\Generated_Source\PSoC4/cyfitter_cfg.c **** 		{
 612:.\Generated_Source\PSoC4/cyfitter_cfg.c **** 			const cfg_memset_t CYCODE * CYDATA ms = &cfg_memset_list[i];
 613:.\Generated_Source\PSoC4/cyfitter_cfg.c **** 			CYMEMZERO(ms->address, (size_t)(uint32)(ms->size));
 384              		.loc 1 613 0 discriminator 3
 385 012e 3348     		ldr	r0, .L21+4
 386 0130 6300     		lsl	r3, r4, #1
 387 0132 1A19     		add	r2, r3, r4
 388 0134 5200     		lsl	r2, r2, #1
 389 0136 8218     		add	r2, r0, r2
 390 0138 9188     		ldrh	r1, [r2, #4]
 391 013a 1B19     		add	r3, r3, r4
 392 013c 5B00     		lsl	r3, r3, #1
 393 013e 1A5A     		ldrh	r2, [r3, r0]
 394 0140 C318     		add	r3, r0, r3
 395 0142 5888     		ldrh	r0, [r3, #2]
 396 0144 0004     		lsl	r0, r0, #16
 397 0146 1043     		orr	r0, r2
 398 0148 FFF7FEFF 		bl	CYMEMZERO
 399              	.LVL25:
 400              	.LBE4:
 610:.\Generated_Source\PSoC4/cyfitter_cfg.c **** 		{
 401              		.loc 1 610 0 discriminator 3
 402 014c 0134     		add	r4, r4, #1
 403              	.LVL26:
 404 014e E4B2     		uxtb	r4, r4
 405              	.LVL27:
 406              	.L19:
 610:.\Generated_Source\PSoC4/cyfitter_cfg.c **** 		{
 407              		.loc 1 610 0 is_stmt 0 discriminator 1
 408 0150 012C     		cmp	r4, #1
 409 0152 ECD9     		bls	.L20
 614:.\Generated_Source\PSoC4/cyfitter_cfg.c **** 		}
 615:.\Generated_Source\PSoC4/cyfitter_cfg.c **** 
 616:.\Generated_Source\PSoC4/cyfitter_cfg.c **** 		cfg_write_bytes32(cy_cfg_addr_table, cy_cfg_data_table);
 410              		.loc 1 616 0 is_stmt 1
 411 0154 2949     		ldr	r1, .L21+4
 412 0156 081C     		mov	r0, r1
 413 0158 0C30     		add	r0, r0, #12
 414 015a 2C31     		add	r1, r1, #44
 415 015c FFF7FEFF 		bl	cfg_write_bytes32
 416              	.LVL28:
 617:.\Generated_Source\PSoC4/cyfitter_cfg.c **** 
 618:.\Generated_Source\PSoC4/cyfitter_cfg.c **** 		/* HSIOM Starting address: CYDEV_HSIOM_BASE */
 619:.\Generated_Source\PSoC4/cyfitter_cfg.c **** 		CY_SET_XTND_REG32((void CYFAR *)(CYDEV_HSIOM_BASE), 0x00003030u);
 417              		.loc 1 619 0
 418 0160 274A     		ldr	r2, .L21+8
 419 0162 284B     		ldr	r3, .L21+12
 420 0164 1A60     		str	r2, [r3]
 620:.\Generated_Source\PSoC4/cyfitter_cfg.c **** 		CY_SET_XTND_REG32((void CYFAR *)(CYREG_HSIOM_PORT_SEL3), 0x0000EE99u);
 421              		.loc 1 620 0
 422 0166 284A     		ldr	r2, .L21+16
 423 0168 284B     		ldr	r3, .L21+20
 424 016a 1A60     		str	r2, [r3]
 621:.\Generated_Source\PSoC4/cyfitter_cfg.c **** 
 622:.\Generated_Source\PSoC4/cyfitter_cfg.c **** 		/* UDB_PA_0 Starting address: CYDEV_UDB_PA0_BASE */
ARM GAS  C:\Users\kylep\AppData\Local\Temp\cckaXDuL.s 			page 20


 623:.\Generated_Source\PSoC4/cyfitter_cfg.c **** 		CY_SET_XTND_REG32((void CYFAR *)(CYDEV_UDB_PA0_BASE), 0x00990000u);
 425              		.loc 1 623 0
 426 016c 9923     		mov	r3, #153
 427 016e 1B04     		lsl	r3, r3, #16
 428 0170 274A     		ldr	r2, .L21+24
 429 0172 1360     		str	r3, [r2]
 624:.\Generated_Source\PSoC4/cyfitter_cfg.c **** 		CY_SET_XTND_REG32((void CYFAR *)(CYREG_UDB_PA0_CFG8), 0x00D10000u);
 430              		.loc 1 624 0
 431 0174 D121     		mov	r1, #209
 432 0176 0904     		lsl	r1, r1, #16
 433 0178 264A     		ldr	r2, .L21+28
 434 017a 1160     		str	r1, [r2]
 625:.\Generated_Source\PSoC4/cyfitter_cfg.c **** 
 626:.\Generated_Source\PSoC4/cyfitter_cfg.c **** 		/* UDB_PA_1 Starting address: CYDEV_UDB_PA1_BASE */
 627:.\Generated_Source\PSoC4/cyfitter_cfg.c **** 		CY_SET_XTND_REG32((void CYFAR *)(CYDEV_UDB_PA1_BASE), 0x00990000u);
 435              		.loc 1 627 0
 436 017c 264A     		ldr	r2, .L21+32
 437 017e 1360     		str	r3, [r2]
 628:.\Generated_Source\PSoC4/cyfitter_cfg.c **** 
 629:.\Generated_Source\PSoC4/cyfitter_cfg.c **** 		/* UDB_PA_2 Starting address: CYDEV_UDB_PA2_BASE */
 630:.\Generated_Source\PSoC4/cyfitter_cfg.c **** 		CY_SET_XTND_REG32((void CYFAR *)(CYDEV_UDB_PA2_BASE), 0x00990000u);
 438              		.loc 1 630 0
 439 0180 264A     		ldr	r2, .L21+36
 440 0182 1360     		str	r3, [r2]
 631:.\Generated_Source\PSoC4/cyfitter_cfg.c **** 
 632:.\Generated_Source\PSoC4/cyfitter_cfg.c **** 		/* UDB_PA_3 Starting address: CYDEV_UDB_PA3_BASE */
 633:.\Generated_Source\PSoC4/cyfitter_cfg.c **** 		CY_SET_XTND_REG32((void CYFAR *)(CYDEV_UDB_PA3_BASE), 0x00990000u);
 441              		.loc 1 633 0
 442 0184 264A     		ldr	r2, .L21+40
 443 0186 1360     		str	r3, [r2]
 634:.\Generated_Source\PSoC4/cyfitter_cfg.c **** 
 635:.\Generated_Source\PSoC4/cyfitter_cfg.c **** 		/* INT_SELECT Starting address: CYDEV_CPUSS_INTR_SELECT */
 636:.\Generated_Source\PSoC4/cyfitter_cfg.c **** 		CY_SET_XTND_REG32((void CYFAR *)(CYREG_CPUSS_INTR_SELECT), 0x0000003Eu);
 444              		.loc 1 636 0
 445 0188 3E22     		mov	r2, #62
 446 018a 264B     		ldr	r3, .L21+44
 447 018c 1A60     		str	r2, [r3]
 637:.\Generated_Source\PSoC4/cyfitter_cfg.c **** 
 638:.\Generated_Source\PSoC4/cyfitter_cfg.c **** 		/* INT_CONFIG Starting address: CYDEV_UDB_INT_CFG */
 639:.\Generated_Source\PSoC4/cyfitter_cfg.c **** 		CY_SET_XTND_REG32((void CYFAR *)(CYREG_UDB_INT_CFG), 0x00000028u);
 448              		.loc 1 639 0
 449 018e 163A     		sub	r2, r2, #22
 450 0190 254B     		ldr	r3, .L21+48
 451 0192 1A60     		str	r2, [r3]
 640:.\Generated_Source\PSoC4/cyfitter_cfg.c **** 
 641:.\Generated_Source\PSoC4/cyfitter_cfg.c **** 		/* Enable digital routing */
 642:.\Generated_Source\PSoC4/cyfitter_cfg.c **** 		CY_SET_XTND_REG8((void *)CYREG_UDB_UDBIF_BANK_CTL, CY_GET_XTND_REG8((void *)CYREG_UDB_UDBIF_BANK_
 452              		.loc 1 642 0
 453 0194 254B     		ldr	r3, .L21+52
 454 0196 1878     		ldrb	r0, [r3]
 455 0198 263A     		sub	r2, r2, #38
 456 019a 0221     		mov	r1, #2
 457 019c 0143     		orr	r1, r0
 458 019e 1970     		strb	r1, [r3]
 643:.\Generated_Source\PSoC4/cyfitter_cfg.c **** 
 644:.\Generated_Source\PSoC4/cyfitter_cfg.c **** 		/* Enable UDB array */
 645:.\Generated_Source\PSoC4/cyfitter_cfg.c **** 		CY_SET_XTND_REG8((void *)CYREG_UDB_UDBIF_WAIT_CFG, (uint8)((CY_GET_XTND_REG8((void *)CYREG_UDB_UD
ARM GAS  C:\Users\kylep\AppData\Local\Temp\cckaXDuL.s 			page 21


 459              		.loc 1 645 0
 460 01a0 234C     		ldr	r4, .L21+56
 461              	.LVL29:
 462 01a2 2178     		ldrb	r1, [r4]
 463 01a4 3C20     		mov	r0, #60
 464 01a6 8143     		bic	r1, r0
 465 01a8 2838     		sub	r0, r0, #40
 466 01aa 0143     		orr	r1, r0
 467 01ac 2170     		strb	r1, [r4]
 646:.\Generated_Source\PSoC4/cyfitter_cfg.c **** 		CY_SET_XTND_REG8((void *)CYREG_UDB_UDBIF_BANK_CTL, (uint8)(CY_GET_XTND_REG8((void *)CYREG_UDB_UDB
 468              		.loc 1 646 0
 469 01ae 1878     		ldrb	r0, [r3]
 470 01b0 1621     		mov	r1, #22
 471 01b2 0143     		orr	r1, r0
 472 01b4 1970     		strb	r1, [r3]
 473              	.LBE3:
 647:.\Generated_Source\PSoC4/cyfitter_cfg.c **** 	}
 648:.\Generated_Source\PSoC4/cyfitter_cfg.c **** 
 649:.\Generated_Source\PSoC4/cyfitter_cfg.c **** 	/* Perform second pass device configuration. These items must be configured in specific order afte
 650:.\Generated_Source\PSoC4/cyfitter_cfg.c **** 	/* IOPINS0_0 Starting address: CYDEV_PRT0_BASE */
 651:.\Generated_Source\PSoC4/cyfitter_cfg.c **** 	CY_SET_XTND_REG32((void CYFAR *)(CYDEV_PRT0_BASE), 0x0000000Bu);
 474              		.loc 1 651 0
 475 01b6 0B21     		mov	r1, #11
 476 01b8 1E4B     		ldr	r3, .L21+60
 477 01ba 1960     		str	r1, [r3]
 652:.\Generated_Source\PSoC4/cyfitter_cfg.c **** 	CY_SET_XTND_REG32((void CYFAR *)(CYREG_PRT0_PC), 0x000C0CDAu);
 478              		.loc 1 652 0
 479 01bc 1E49     		ldr	r1, .L21+64
 480 01be 1F4B     		ldr	r3, .L21+68
 481 01c0 1960     		str	r1, [r3]
 653:.\Generated_Source\PSoC4/cyfitter_cfg.c **** 	CY_SET_XTND_REG32((void CYFAR *)(CYREG_PRT0_INTCFG), 0x00000002u);
 482              		.loc 1 653 0
 483 01c2 1F4B     		ldr	r3, .L21+72
 484 01c4 1A60     		str	r2, [r3]
 654:.\Generated_Source\PSoC4/cyfitter_cfg.c **** 
 655:.\Generated_Source\PSoC4/cyfitter_cfg.c **** 	/* IOPINS0_1 Starting address: CYDEV_PRT1_BASE */
 656:.\Generated_Source\PSoC4/cyfitter_cfg.c **** 	CY_SET_XTND_REG32((void CYFAR *)(CYREG_PRT1_PC), 0x00000180u);
 485              		.loc 1 656 0
 486 01c6 C021     		mov	r1, #192
 487 01c8 4900     		lsl	r1, r1, #1
 488 01ca 1E4B     		ldr	r3, .L21+76
 489 01cc 1960     		str	r1, [r3]
 657:.\Generated_Source\PSoC4/cyfitter_cfg.c **** 
 658:.\Generated_Source\PSoC4/cyfitter_cfg.c **** 	/* IOPINS0_2 Starting address: CYDEV_PRT2_BASE */
 659:.\Generated_Source\PSoC4/cyfitter_cfg.c **** 	CY_SET_XTND_REG32((void CYFAR *)(CYDEV_PRT2_BASE), 0x000000D0u);
 490              		.loc 1 659 0
 491 01ce B039     		sub	r1, r1, #176
 492 01d0 1D4B     		ldr	r3, .L21+80
 493 01d2 1960     		str	r1, [r3]
 660:.\Generated_Source\PSoC4/cyfitter_cfg.c **** 	CY_SET_XTND_REG32((void CYFAR *)(CYREG_PRT2_PC2), 0x000000D8u);
 494              		.loc 1 660 0
 495 01d4 0831     		add	r1, r1, #8
 496 01d6 1D4B     		ldr	r3, .L21+84
 497 01d8 1960     		str	r1, [r3]
 661:.\Generated_Source\PSoC4/cyfitter_cfg.c **** 
 662:.\Generated_Source\PSoC4/cyfitter_cfg.c **** 	/* IOPINS0_3 Starting address: CYDEV_PRT3_BASE */
 663:.\Generated_Source\PSoC4/cyfitter_cfg.c **** 	CY_SET_XTND_REG32((void CYFAR *)(CYDEV_PRT3_BASE), 0x00000002u);
ARM GAS  C:\Users\kylep\AppData\Local\Temp\cckaXDuL.s 			page 22


 498              		.loc 1 663 0
 499 01da 1D4B     		ldr	r3, .L21+88
 500 01dc 1A60     		str	r2, [r3]
 664:.\Generated_Source\PSoC4/cyfitter_cfg.c **** 	CY_SET_XTND_REG32((void CYFAR *)(CYREG_PRT3_PC), 0x00000DB1u);
 501              		.loc 1 664 0
 502 01de 1D49     		ldr	r1, .L21+92
 503 01e0 1D4B     		ldr	r3, .L21+96
 504 01e2 1960     		str	r1, [r3]
 665:.\Generated_Source\PSoC4/cyfitter_cfg.c **** 	CY_SET_XTND_REG32((void CYFAR *)(CYREG_PRT3_PC2), 0x00000002u);
 505              		.loc 1 665 0
 506 01e4 1D4B     		ldr	r3, .L21+100
 507 01e6 1A60     		str	r2, [r3]
 666:.\Generated_Source\PSoC4/cyfitter_cfg.c **** 
 667:.\Generated_Source\PSoC4/cyfitter_cfg.c **** 	/* IOPINS0_4 Starting address: CYDEV_PRT4_BASE */
 668:.\Generated_Source\PSoC4/cyfitter_cfg.c **** 	CY_SET_XTND_REG32((void CYFAR *)(CYREG_PRT4_PC), 0x00000006u);
 508              		.loc 1 668 0
 509 01e8 0432     		add	r2, r2, #4
 510 01ea 1D4B     		ldr	r3, .L21+104
 511 01ec 1A60     		str	r2, [r3]
 669:.\Generated_Source\PSoC4/cyfitter_cfg.c **** 
 670:.\Generated_Source\PSoC4/cyfitter_cfg.c **** 
 671:.\Generated_Source\PSoC4/cyfitter_cfg.c **** 	/* Setup clocks based on selections from Clock DWR */
 672:.\Generated_Source\PSoC4/cyfitter_cfg.c **** 	ClockSetup();
 512              		.loc 1 672 0
 513 01ee FFF707FF 		bl	ClockSetup
 514              	.LVL30:
 673:.\Generated_Source\PSoC4/cyfitter_cfg.c **** 
 674:.\Generated_Source\PSoC4/cyfitter_cfg.c **** 	/* Perform basic analog initialization to defaults */
 675:.\Generated_Source\PSoC4/cyfitter_cfg.c **** 	AnalogSetDefault();
 515              		.loc 1 675 0
 516 01f2 FFF7FEFF 		bl	AnalogSetDefault
 517              	.LVL31:
 676:.\Generated_Source\PSoC4/cyfitter_cfg.c **** 
 677:.\Generated_Source\PSoC4/cyfitter_cfg.c **** }
 518              		.loc 1 677 0
 519              		@ sp needed
 520 01f6 10BD     		pop	{r4, pc}
 521              	.L22:
 522              		.align	2
 523              	.L21:
 524 01f8 1C700F40 		.word	1074753564
 525 01fc 00000000 		.word	.LANCHOR0
 526 0200 30300000 		.word	12336
 527 0204 00000140 		.word	1073807360
 528 0208 99EE0000 		.word	61081
 529 020c 0C000140 		.word	1073807372
 530 0210 00500F40 		.word	1074745344
 531 0214 08500F40 		.word	1074745352
 532 0218 10500F40 		.word	1074745360
 533 021c 20500F40 		.word	1074745376
 534 0220 30500F40 		.word	1074745392
 535 0224 20000040 		.word	1073741856
 536 0228 00800F40 		.word	1074757632
 537 022c 00700F40 		.word	1074753536
 538 0230 01700F40 		.word	1074753537
 539 0234 00000440 		.word	1074003968
 540 0238 DA0C0C00 		.word	789722
ARM GAS  C:\Users\kylep\AppData\Local\Temp\cckaXDuL.s 			page 23


 541 023c 08000440 		.word	1074003976
 542 0240 0C000440 		.word	1074003980
 543 0244 08010440 		.word	1074004232
 544 0248 00020440 		.word	1074004480
 545 024c 18020440 		.word	1074004504
 546 0250 00030440 		.word	1074004736
 547 0254 B10D0000 		.word	3505
 548 0258 08030440 		.word	1074004744
 549 025c 18030440 		.word	1074004760
 550 0260 08040440 		.word	1074005000
 551              		.cfi_endproc
 552              	.LFE7:
 553              		.size	cyfitter_cfg, .-cyfitter_cfg
 554              		.section	.rodata
 555              		.align	2
 556              		.set	.LANCHOR0,. + 0
 557              		.type	cfg_memset_list.4745, %object
 558              		.size	cfg_memset_list.4745, 12
 559              	cfg_memset_list.4745:
 560 0000 00300F40 		.word	1074737152
 561 0004 0004     		.short	1024
 562 0006 00400F40 		.4byte	1074741248
 563 000a 0004     		.short	1024
 564              		.type	cy_cfg_addr_table.4739, %object
 565              		.size	cy_cfg_addr_table.4739, 32
 566              	cy_cfg_addr_table.4739:
 567 000c 02000F40 		.word	1074724866
 568 0010 36300F40 		.word	1074737206
 569 0014 1B310F40 		.word	1074737435
 570 0018 59320F40 		.word	1074737753
 571 001c 2E330F40 		.word	1074737966
 572 0020 0D400F40 		.word	1074741261
 573 0024 0B410F40 		.word	1074741515
 574 0028 02600F40 		.word	1074749442
 575              		.type	cy_cfg_data_table.4740, %object
 576              		.size	cy_cfg_data_table.4740, 488
 577              	cy_cfg_data_table.4740:
 578 002c 81       		.byte	-127
 579 002d 0D       		.byte	13
 580 002e 83       		.byte	-125
 581 002f 0D       		.byte	13
 582 0030 40       		.byte	64
 583 0031 54       		.byte	84
 584 0032 49       		.byte	73
 585 0033 FF       		.byte	-1
 586 0034 4A       		.byte	74
 587 0035 FF       		.byte	-1
 588 0036 4B       		.byte	75
 589 0037 FF       		.byte	-1
 590 0038 4F       		.byte	79
 591 0039 01       		.byte	1
 592 003a 50       		.byte	80
 593 003b 18       		.byte	24
 594 003c 52       		.byte	82
 595 003d 80       		.byte	-128
 596 003e 5A       		.byte	90
 597 003f 04       		.byte	4
ARM GAS  C:\Users\kylep\AppData\Local\Temp\cckaXDuL.s 			page 24


 598 0040 5B       		.byte	91
 599 0041 04       		.byte	4
 600 0042 5D       		.byte	93
 601 0043 33       		.byte	51
 602 0044 5F       		.byte	95
 603 0045 01       		.byte	1
 604 0046 60       		.byte	96
 605 0047 40       		.byte	64
 606 0048 62       		.byte	98
 607 0049 40       		.byte	64
 608 004a 64       		.byte	100
 609 004b 40       		.byte	64
 610 004c 65       		.byte	101
 611 004d 40       		.byte	64
 612 004e 66       		.byte	102
 613 004f 80       		.byte	-128
 614 0050 68       		.byte	104
 615 0051 80       		.byte	-128
 616 0052 6A       		.byte	106
 617 0053 80       		.byte	-128
 618 0054 6C       		.byte	108
 619 0055 80       		.byte	-128
 620 0056 6E       		.byte	110
 621 0057 80       		.byte	-128
 622 0058 82       		.byte	-126
 623 0059 01       		.byte	1
 624 005a 8E       		.byte	-114
 625 005b 02       		.byte	2
 626 005c 92       		.byte	-110
 627 005d 01       		.byte	1
 628 005e A2       		.byte	-94
 629 005f 02       		.byte	2
 630 0060 B0       		.byte	-80
 631 0061 01       		.byte	1
 632 0062 B4       		.byte	-76
 633 0063 02       		.byte	2
 634 0064 BE       		.byte	-66
 635 0065 11       		.byte	17
 636 0066 C0       		.byte	-64
 637 0067 54       		.byte	84
 638 0068 C5       		.byte	-59
 639 0069 EC       		.byte	-20
 640 006a C6       		.byte	-58
 641 006b 02       		.byte	2
 642 006c C8       		.byte	-56
 643 006d 07       		.byte	7
 644 006e C9       		.byte	-55
 645 006f FF       		.byte	-1
 646 0070 CA       		.byte	-54
 647 0071 FF       		.byte	-1
 648 0072 CB       		.byte	-53
 649 0073 FF       		.byte	-1
 650 0074 CD       		.byte	-51
 651 0075 83       		.byte	-125
 652 0076 CE       		.byte	-50
 653 0077 03       		.byte	3
 654 0078 CF       		.byte	-49
ARM GAS  C:\Users\kylep\AppData\Local\Temp\cckaXDuL.s 			page 25


 655 0079 01       		.byte	1
 656 007a D0       		.byte	-48
 657 007b 18       		.byte	24
 658 007c D4       		.byte	-44
 659 007d 01       		.byte	1
 660 007e D6       		.byte	-42
 661 007f 04       		.byte	4
 662 0080 D8       		.byte	-40
 663 0081 04       		.byte	4
 664 0082 DA       		.byte	-38
 665 0083 04       		.byte	4
 666 0084 DB       		.byte	-37
 667 0085 04       		.byte	4
 668 0086 DD       		.byte	-35
 669 0087 33       		.byte	51
 670 0088 DF       		.byte	-33
 671 0089 01       		.byte	1
 672 008a E0       		.byte	-32
 673 008b 40       		.byte	64
 674 008c E2       		.byte	-30
 675 008d 40       		.byte	64
 676 008e E4       		.byte	-28
 677 008f 40       		.byte	64
 678 0090 E5       		.byte	-27
 679 0091 40       		.byte	64
 680 0092 E6       		.byte	-26
 681 0093 80       		.byte	-128
 682 0094 E8       		.byte	-24
 683 0095 80       		.byte	-128
 684 0096 EA       		.byte	-22
 685 0097 80       		.byte	-128
 686 0098 EC       		.byte	-20
 687 0099 80       		.byte	-128
 688 009a EE       		.byte	-18
 689 009b 80       		.byte	-128
 690 009c 06       		.byte	6
 691 009d 80       		.byte	-128
 692 009e 07       		.byte	7
 693 009f 02       		.byte	2
 694 00a0 0C       		.byte	12
 695 00a1 02       		.byte	2
 696 00a2 17       		.byte	23
 697 00a3 01       		.byte	1
 698 00a4 1E       		.byte	30
 699 00a5 80       		.byte	-128
 700 00a6 1F       		.byte	31
 701 00a7 20       		.byte	32
 702 00a8 42       		.byte	66
 703 00a9 80       		.byte	-128
 704 00aa 46       		.byte	70
 705 00ab 80       		.byte	-128
 706 00ac 48       		.byte	72
 707 00ad 02       		.byte	2
 708 00ae 4C       		.byte	76
 709 00af 02       		.byte	2
 710 00b0 4D       		.byte	77
 711 00b1 04       		.byte	4
ARM GAS  C:\Users\kylep\AppData\Local\Temp\cckaXDuL.s 			page 26


 712 00b2 4F       		.byte	79
 713 00b3 01       		.byte	1
 714 00b4 56       		.byte	86
 715 00b5 80       		.byte	-128
 716 00b6 5D       		.byte	93
 717 00b7 04       		.byte	4
 718 00b8 5E       		.byte	94
 719 00b9 80       		.byte	-128
 720 00ba 5F       		.byte	95
 721 00bb 01       		.byte	1
 722 00bc 65       		.byte	101
 723 00bd 01       		.byte	1
 724 00be 6F       		.byte	111
 725 00bf 01       		.byte	1
 726 00c0 70       		.byte	112
 727 00c1 02       		.byte	2
 728 00c2 81       		.byte	-127
 729 00c3 01       		.byte	1
 730 00c4 C0       		.byte	-64
 731 00c5 90       		.byte	-112
 732 00c6 C2       		.byte	-62
 733 00c7 10       		.byte	16
 734 00c8 C4       		.byte	-60
 735 00c9 10       		.byte	16
 736 00ca D0       		.byte	-48
 737 00cb 81       		.byte	-127
 738 00cc D2       		.byte	-46
 739 00cd 18       		.byte	24
 740 00ce D6       		.byte	-42
 741 00cf D0       		.byte	-48
 742 00d0 D8       		.byte	-40
 743 00d1 80       		.byte	-128
 744 00d2 02       		.byte	2
 745 00d3 20       		.byte	32
 746 00d4 04       		.byte	4
 747 00d5 10       		.byte	16
 748 00d6 06       		.byte	6
 749 00d7 04       		.byte	4
 750 00d8 08       		.byte	8
 751 00d9 01       		.byte	1
 752 00da 0A       		.byte	10
 753 00db 12       		.byte	18
 754 00dc 0F       		.byte	15
 755 00dd 04       		.byte	4
 756 00de 13       		.byte	19
 757 00df 03       		.byte	3
 758 00e0 16       		.byte	22
 759 00e1 1F       		.byte	31
 760 00e2 1C       		.byte	28
 761 00e3 18       		.byte	24
 762 00e4 1E       		.byte	30
 763 00e5 03       		.byte	3
 764 00e6 20       		.byte	32
 765 00e7 06       		.byte	6
 766 00e8 22       		.byte	34
 767 00e9 11       		.byte	17
 768 00ea 23       		.byte	35
ARM GAS  C:\Users\kylep\AppData\Local\Temp\cckaXDuL.s 			page 27


 769 00eb 01       		.byte	1
 770 00ec 24       		.byte	36
 771 00ed 07       		.byte	7
 772 00ee 26       		.byte	38
 773 00ef 08       		.byte	8
 774 00f0 27       		.byte	39
 775 00f1 02       		.byte	2
 776 00f2 30       		.byte	48
 777 00f3 1F       		.byte	31
 778 00f4 31       		.byte	49
 779 00f5 04       		.byte	4
 780 00f6 32       		.byte	50
 781 00f7 20       		.byte	32
 782 00f8 37       		.byte	55
 783 00f9 03       		.byte	3
 784 00fa 40       		.byte	64
 785 00fb 30       		.byte	48
 786 00fc 41       		.byte	65
 787 00fd 05       		.byte	5
 788 00fe 45       		.byte	69
 789 00ff 10       		.byte	16
 790 0100 46       		.byte	70
 791 0101 02       		.byte	2
 792 0102 48       		.byte	72
 793 0103 0E       		.byte	14
 794 0104 49       		.byte	73
 795 0105 FF       		.byte	-1
 796 0106 4A       		.byte	74
 797 0107 FF       		.byte	-1
 798 0108 4B       		.byte	75
 799 0109 FF       		.byte	-1
 800 010a 4D       		.byte	77
 801 010b A0       		.byte	-96
 802 010c 4F       		.byte	79
 803 010d 04       		.byte	4
 804 010e 50       		.byte	80
 805 010f 18       		.byte	24
 806 0110 52       		.byte	82
 807 0111 87       		.byte	-121
 808 0112 58       		.byte	88
 809 0113 04       		.byte	4
 810 0114 59       		.byte	89
 811 0115 04       		.byte	4
 812 0116 5A       		.byte	90
 813 0117 04       		.byte	4
 814 0118 5B       		.byte	91
 815 0119 04       		.byte	4
 816 011a 5C       		.byte	92
 817 011b 21       		.byte	33
 818 011c 5D       		.byte	93
 819 011d 11       		.byte	17
 820 011e 5F       		.byte	95
 821 011f 01       		.byte	1
 822 0120 60       		.byte	96
 823 0121 40       		.byte	64
 824 0122 62       		.byte	98
 825 0123 C0       		.byte	-64
ARM GAS  C:\Users\kylep\AppData\Local\Temp\cckaXDuL.s 			page 28


 826 0124 64       		.byte	100
 827 0125 40       		.byte	64
 828 0126 65       		.byte	101
 829 0127 40       		.byte	64
 830 0128 66       		.byte	102
 831 0129 C0       		.byte	-64
 832 012a 68       		.byte	104
 833 012b C0       		.byte	-64
 834 012c 6A       		.byte	106
 835 012d C0       		.byte	-64
 836 012e 6C       		.byte	108
 837 012f C0       		.byte	-64
 838 0130 6E       		.byte	110
 839 0131 C0       		.byte	-64
 840 0132 92       		.byte	-110
 841 0133 04       		.byte	4
 842 0134 98       		.byte	-104
 843 0135 03       		.byte	3
 844 0136 99       		.byte	-103
 845 0137 01       		.byte	1
 846 0138 9D       		.byte	-99
 847 0139 01       		.byte	1
 848 013a A2       		.byte	-94
 849 013b 01       		.byte	1
 850 013c A6       		.byte	-90
 851 013d 02       		.byte	2
 852 013e AA       		.byte	-86
 853 013f 04       		.byte	4
 854 0140 B2       		.byte	-78
 855 0141 04       		.byte	4
 856 0142 B5       		.byte	-75
 857 0143 01       		.byte	1
 858 0144 B6       		.byte	-74
 859 0145 03       		.byte	3
 860 0146 B9       		.byte	-71
 861 0147 20       		.byte	32
 862 0148 BE       		.byte	-66
 863 0149 04       		.byte	4
 864 014a C0       		.byte	-64
 865 014b 40       		.byte	64
 866 014c C1       		.byte	-63
 867 014d 06       		.byte	6
 868 014e C5       		.byte	-59
 869 014f D1       		.byte	-47
 870 0150 C7       		.byte	-57
 871 0151 02       		.byte	2
 872 0152 C8       		.byte	-56
 873 0153 17       		.byte	23
 874 0154 C9       		.byte	-55
 875 0155 FF       		.byte	-1
 876 0156 CA       		.byte	-54
 877 0157 FF       		.byte	-1
 878 0158 CB       		.byte	-53
 879 0159 FF       		.byte	-1
 880 015a CD       		.byte	-51
 881 015b A0       		.byte	-96
 882 015c CF       		.byte	-49
ARM GAS  C:\Users\kylep\AppData\Local\Temp\cckaXDuL.s 			page 29


 883 015d 04       		.byte	4
 884 015e D0       		.byte	-48
 885 015f 18       		.byte	24
 886 0160 D2       		.byte	-46
 887 0161 80       		.byte	-128
 888 0162 D4       		.byte	-44
 889 0163 05       		.byte	5
 890 0164 D8       		.byte	-40
 891 0165 04       		.byte	4
 892 0166 D9       		.byte	-39
 893 0167 04       		.byte	4
 894 0168 DA       		.byte	-38
 895 0169 04       		.byte	4
 896 016a DB       		.byte	-37
 897 016b 04       		.byte	4
 898 016c DC       		.byte	-36
 899 016d 22       		.byte	34
 900 016e DD       		.byte	-35
 901 016f 22       		.byte	34
 902 0170 DF       		.byte	-33
 903 0171 01       		.byte	1
 904 0172 E0       		.byte	-32
 905 0173 40       		.byte	64
 906 0174 E2       		.byte	-30
 907 0175 C0       		.byte	-64
 908 0176 E4       		.byte	-28
 909 0177 40       		.byte	64
 910 0178 E5       		.byte	-27
 911 0179 40       		.byte	64
 912 017a E6       		.byte	-26
 913 017b C0       		.byte	-64
 914 017c E8       		.byte	-24
 915 017d C0       		.byte	-64
 916 017e EA       		.byte	-22
 917 017f C0       		.byte	-64
 918 0180 EC       		.byte	-20
 919 0181 C0       		.byte	-64
 920 0182 EE       		.byte	-18
 921 0183 C0       		.byte	-64
 922 0184 06       		.byte	6
 923 0185 20       		.byte	32
 924 0186 07       		.byte	7
 925 0187 44       		.byte	68
 926 0188 09       		.byte	9
 927 0189 22       		.byte	34
 928 018a 0D       		.byte	13
 929 018b 08       		.byte	8
 930 018c 0F       		.byte	15
 931 018d 02       		.byte	2
 932 018e 10       		.byte	16
 933 018f A8       		.byte	-88
 934 0190 15       		.byte	21
 935 0191 04       		.byte	4
 936 0192 17       		.byte	23
 937 0193 01       		.byte	1
 938 0194 19       		.byte	25
 939 0195 44       		.byte	68
ARM GAS  C:\Users\kylep\AppData\Local\Temp\cckaXDuL.s 			page 30


 940 0196 1D       		.byte	29
 941 0197 08       		.byte	8
 942 0198 1F       		.byte	31
 943 0199 01       		.byte	1
 944 019a 21       		.byte	33
 945 019b 20       		.byte	32
 946 019c 25       		.byte	37
 947 019d 02       		.byte	2
 948 019e 26       		.byte	38
 949 019f 01       		.byte	1
 950 01a0 27       		.byte	39
 951 01a1 02       		.byte	2
 952 01a2 2C       		.byte	44
 953 01a3 A0       		.byte	-96
 954 01a4 30       		.byte	48
 955 01a5 A0       		.byte	-96
 956 01a6 36       		.byte	54
 957 01a7 01       		.byte	1
 958 01a8 3F       		.byte	63
 959 01a9 40       		.byte	64
 960 01aa 41       		.byte	65
 961 01ab 02       		.byte	2
 962 01ac 45       		.byte	69
 963 01ad 08       		.byte	8
 964 01ae 48       		.byte	72
 965 01af 28       		.byte	40
 966 01b0 49       		.byte	73
 967 01b1 01       		.byte	1
 968 01b2 4F       		.byte	79
 969 01b3 82       		.byte	-126
 970 01b4 50       		.byte	80
 971 01b5 88       		.byte	-120
 972 01b6 56       		.byte	86
 973 01b7 20       		.byte	32
 974 01b8 57       		.byte	87
 975 01b9 40       		.byte	64
 976 01ba 59       		.byte	89
 977 01bb 45       		.byte	69
 978 01bc 6D       		.byte	109
 979 01bd 04       		.byte	4
 980 01be 6F       		.byte	111
 981 01bf 05       		.byte	5
 982 01c0 73       		.byte	115
 983 01c1 40       		.byte	64
 984 01c2 77       		.byte	119
 985 01c3 40       		.byte	64
 986 01c4 8F       		.byte	-113
 987 01c5 01       		.byte	1
 988 01c6 9F       		.byte	-97
 989 01c7 02       		.byte	2
 990 01c8 B7       		.byte	-73
 991 01c9 20       		.byte	32
 992 01ca C0       		.byte	-64
 993 01cb 70       		.byte	112
 994 01cc C2       		.byte	-62
 995 01cd AA       		.byte	-86
 996 01ce C4       		.byte	-60
ARM GAS  C:\Users\kylep\AppData\Local\Temp\cckaXDuL.s 			page 31


 997 01cf 3E       		.byte	62
 998 01d0 CA       		.byte	-54
 999 01d1 C0       		.byte	-64
 1000 01d2 CC       		.byte	-52
 1001 01d3 8C       		.byte	-116
 1002 01d4 CE       		.byte	-50
 1003 01d5 10       		.byte	16
 1004 01d6 D0       		.byte	-48
 1005 01d7 41       		.byte	65
 1006 01d8 D2       		.byte	-46
 1007 01d9 14       		.byte	20
 1008 01da D6       		.byte	-42
 1009 01db 0B       		.byte	11
 1010 01dc E2       		.byte	-30
 1011 01dd 40       		.byte	64
 1012 01de EA       		.byte	-22
 1013 01df 40       		.byte	64
 1014 01e0 53       		.byte	83
 1015 01e1 80       		.byte	-128
 1016 01e2 56       		.byte	86
 1017 01e3 02       		.byte	2
 1018 01e4 6F       		.byte	111
 1019 01e5 42       		.byte	66
 1020 01e6 73       		.byte	115
 1021 01e7 08       		.byte	8
 1022 01e8 76       		.byte	118
 1023 01e9 20       		.byte	32
 1024 01ea 79       		.byte	121
 1025 01eb 80       		.byte	-128
 1026 01ec 82       		.byte	-126
 1027 01ed 20       		.byte	32
 1028 01ee D4       		.byte	-44
 1029 01ef 20       		.byte	32
 1030 01f0 D6       		.byte	-42
 1031 01f1 20       		.byte	32
 1032 01f2 DA       		.byte	-38
 1033 01f3 80       		.byte	-128
 1034 01f4 DC       		.byte	-36
 1035 01f5 E0       		.byte	-32
 1036 01f6 DE       		.byte	-34
 1037 01f7 20       		.byte	32
 1038 01f8 E2       		.byte	-30
 1039 01f9 20       		.byte	32
 1040 01fa 21       		.byte	33
 1041 01fb 40       		.byte	64
 1042 01fc 23       		.byte	35
 1043 01fd 10       		.byte	16
 1044 01fe 27       		.byte	39
 1045 01ff 48       		.byte	72
 1046 0200 87       		.byte	-121
 1047 0201 12       		.byte	18
 1048 0202 8E       		.byte	-114
 1049 0203 02       		.byte	2
 1050 0204 95       		.byte	-107
 1051 0205 80       		.byte	-128
 1052 0206 9E       		.byte	-98
 1053 0207 02       		.byte	2
ARM GAS  C:\Users\kylep\AppData\Local\Temp\cckaXDuL.s 			page 32


 1054 0208 9F       		.byte	-97
 1055 0209 48       		.byte	72
 1056 020a A7       		.byte	-89
 1057 020b 02       		.byte	2
 1058 020c B7       		.byte	-73
 1059 020d 80       		.byte	-128
 1060 020e C8       		.byte	-56
 1061 020f F0       		.byte	-16
 1062 0210 01       		.byte	1
 1063 0211 0E       		.byte	14
 1064 0212 10       		.byte	16
 1065 0213 0E       		.byte	14
 1066              		.text
 1067              	.Letext0:
 1068              		.file 2 "c:\\program files (x86)\\cypress\\psoc creator\\3.3\\psoc creator\\import\\gnu\\arm\\4.9.
 1069              		.file 3 ".\\Generated_Source\\PSoC4\\cytypes.h"
 1070              		.file 4 ".\\Generated_Source\\PSoC4\\CyLib.h"