ARM GAS  C:\Users\kylep\AppData\Local\Temp\ccJp8Ryd.s 			page 1


   1              		.cpu cortex-m0
   2              		.fpu softvfp
   3              		.eabi_attribute 20, 1
   4              		.eabi_attribute 21, 1
   5              		.eabi_attribute 23, 3
   6              		.eabi_attribute 24, 1
   7              		.eabi_attribute 25, 1
   8              		.eabi_attribute 26, 1
   9              		.eabi_attribute 30, 1
  10              		.eabi_attribute 34, 0
  11              		.eabi_attribute 18, 4
  12              		.code	16
  13              		.file	"IO_Control.c"
  14              		.text
  15              	.Ltext0:
  16              		.cfi_sections	.debug_frame
  17              		.section	.text.getDriverID,"ax",%progbits
  18              		.align	2
  19              		.global	getDriverID
  20              		.code	16
  21              		.thumb_func
  22              		.type	getDriverID, %function
  23              	getDriverID:
  24              	.LFB34:
  25              		.file 1 ".\\IO_Control.c"
   1:.\IO_Control.c **** /* ========================================
   2:.\IO_Control.c ****  *
   3:.\IO_Control.c ****  * Copyright YOUR COMPANY, THE YEAR
   4:.\IO_Control.c ****  * All Rights Reserved
   5:.\IO_Control.c ****  * UNPUBLISHED, LICENSED SOFTWARE.
   6:.\IO_Control.c ****  *
   7:.\IO_Control.c ****  * CONFIDENTIAL AND PROPRIETARY INFORMATION
   8:.\IO_Control.c ****  * WHICH IS THE PROPERTY OF your company.
   9:.\IO_Control.c ****  *
  10:.\IO_Control.c ****  * ========================================
  11:.\IO_Control.c **** */
  12:.\IO_Control.c **** /**********CHANGE LOG**********/
  13:.\IO_Control.c **** 
  14:.\IO_Control.c **** 
  15:.\IO_Control.c **** /**********PREPROCESSOR DIRECTIVES**********/
  16:.\IO_Control.c **** #include "CommonVariables.h"
  17:.\IO_Control.c **** #include "IO_Control.h"
  18:.\IO_Control.c **** 
  19:.\IO_Control.c **** #define MAX_TEMPERATURE_LIMIT           125 //Should equate to ~130 degrees C
  20:.\IO_Control.c **** #define SAFE_TEMPERATURE_LIMIT          85  //Should equate to ~120 degrees C
  21:.\IO_Control.c **** 
  22:.\IO_Control.c **** #define MAX_ADC_CONVERSION_WAIT_LIMIT   5
  23:.\IO_Control.c **** #define BRIGHTNESS_LEVEL_DIFFERENCE     1//5
  24:.\IO_Control.c **** 
  25:.\IO_Control.c **** #define WAIT_TIME_LIMIT_IN_SECONDS      3000      
  26:.\IO_Control.c **** 
  27:.\IO_Control.c **** enum TemperatureState
  28:.\IO_Control.c **** {
  29:.\IO_Control.c ****     TURBO_READY,
  30:.\IO_Control.c ****     TURBO_ENABLED,
  31:.\IO_Control.c ****     COOL_DOWN,
  32:.\IO_Control.c ****     WAIT_AT_SAFE_TEMPERATURE,
ARM GAS  C:\Users\kylep\AppData\Local\Temp\ccJp8Ryd.s 			page 2


  33:.\IO_Control.c **** };
  34:.\IO_Control.c ****     
  35:.\IO_Control.c **** /**********DEFINED CONSTANTS**********/
  36:.\IO_Control.c **** 
  37:.\IO_Control.c **** 
  38:.\IO_Control.c **** /**********DATA STRUCTURES**********/
  39:.\IO_Control.c ****     
  40:.\IO_Control.c **** 
  41:.\IO_Control.c **** /**********GLOBAL VARIABLES**********/
  42:.\IO_Control.c **** static uint8 ID_Number = 0;
  43:.\IO_Control.c **** static uint8 bLastDriverInChain = TRUE;
  44:.\IO_Control.c **** 
  45:.\IO_Control.c **** static uint8 currentBrightnessLevel = 0;
  46:.\IO_Control.c **** static enum TemperatureState currentState = TURBO_ENABLED;
  47:.\IO_Control.c **** 
  48:.\IO_Control.c **** /**********LOCAL FUNCTION PROTOTYPES**********/
  49:.\IO_Control.c **** 
  50:.\IO_Control.c **** 
  51:.\IO_Control.c **** /**********DEFINED GLOBAL FUNCTIONS**********/
  52:.\IO_Control.c **** /*******************************************************************************
  53:.\IO_Control.c **** * Function Name: getDriverID
  54:.\IO_Control.c **** ********************************************************************************
  55:.\IO_Control.c **** *
  56:.\IO_Control.c **** * Summary:
  57:.\IO_Control.c **** *  Returns the ID number of this driver.
  58:.\IO_Control.c **** *
  59:.\IO_Control.c **** * Parameters:
  60:.\IO_Control.c **** *  None.
  61:.\IO_Control.c **** *
  62:.\IO_Control.c **** * Return:
  63:.\IO_Control.c **** *  None.
  64:.\IO_Control.c **** *
  65:.\IO_Control.c **** *******************************************************************************/
  66:.\IO_Control.c **** uint8 getDriverID(void)
  67:.\IO_Control.c **** {
  26              		.loc 1 67 0
  27              		.cfi_startproc
  68:.\IO_Control.c ****     return ID_Number;
  28              		.loc 1 68 0
  29 0000 014B     		ldr	r3, .L2
  30 0002 1878     		ldrb	r0, [r3]
  69:.\IO_Control.c **** }
  31              		.loc 1 69 0
  32              		@ sp needed
  33 0004 7047     		bx	lr
  34              	.L3:
  35 0006 C046     		.align	2
  36              	.L2:
  37 0008 00000000 		.word	.LANCHOR0
  38              		.cfi_endproc
  39              	.LFE34:
  40              		.size	getDriverID, .-getDriverID
  41              		.section	.text.setIdentityByInput,"ax",%progbits
  42              		.align	2
  43              		.global	setIdentityByInput
  44              		.code	16
  45              		.thumb_func
ARM GAS  C:\Users\kylep\AppData\Local\Temp\ccJp8Ryd.s 			page 3


  46              		.type	setIdentityByInput, %function
  47              	setIdentityByInput:
  48              	.LFB35:
  70:.\IO_Control.c **** 
  71:.\IO_Control.c **** /*******************************************************************************
  72:.\IO_Control.c **** * Function Name: setIdentityByInput
  73:.\IO_Control.c **** ********************************************************************************
  74:.\IO_Control.c **** *
  75:.\IO_Control.c **** * Summary:
  76:.\IO_Control.c **** *  Sets the ID number for this driver based on board input.
  77:.\IO_Control.c **** *
  78:.\IO_Control.c **** * Parameters:
  79:.\IO_Control.c **** *  None.
  80:.\IO_Control.c **** *
  81:.\IO_Control.c **** * Return:
  82:.\IO_Control.c **** *  None.
  83:.\IO_Control.c **** *
  84:.\IO_Control.c **** *******************************************************************************/
  85:.\IO_Control.c **** void setIdentityByInput(void)
  86:.\IO_Control.c **** {
  49              		.loc 1 86 0
  50              		.cfi_startproc
  87:.\IO_Control.c ****     //Read ID
  88:.\IO_Control.c **** 
  89:.\IO_Control.c **** }
  51              		.loc 1 89 0
  52              		@ sp needed
  53 0000 7047     		bx	lr
  54              		.cfi_endproc
  55              	.LFE35:
  56              		.size	setIdentityByInput, .-setIdentityByInput
  57 0002 C046     		.section	.text.setIdentityByComm,"ax",%progbits
  58              		.align	2
  59              		.global	setIdentityByComm
  60              		.code	16
  61              		.thumb_func
  62              		.type	setIdentityByComm, %function
  63              	setIdentityByComm:
  64              	.LFB36:
  90:.\IO_Control.c **** 
  91:.\IO_Control.c **** /*******************************************************************************
  92:.\IO_Control.c **** * Function Name: setIdentityByComm
  93:.\IO_Control.c **** ********************************************************************************
  94:.\IO_Control.c **** *
  95:.\IO_Control.c **** * Summary:
  96:.\IO_Control.c **** *  Sets the ID number for this driver based on UART communication. The number
  97:.\IO_Control.c **** *  assigned is the driver position away from the controller.
  98:.\IO_Control.c **** *
  99:.\IO_Control.c **** * Parameters:
 100:.\IO_Control.c **** *  positionNumber: The ID number based on position in the chain.
 101:.\IO_Control.c **** *
 102:.\IO_Control.c **** * Return:
 103:.\IO_Control.c **** *  SUCCESS for valid input, FAILURE otherwise
 104:.\IO_Control.c **** *
 105:.\IO_Control.c **** *******************************************************************************/
 106:.\IO_Control.c **** uint8 setIdentityByComm(uint8 positionNumber)
 107:.\IO_Control.c **** {
ARM GAS  C:\Users\kylep\AppData\Local\Temp\ccJp8Ryd.s 			page 4


  65              		.loc 1 107 0
  66              		.cfi_startproc
  67              	.LVL0:
 108:.\IO_Control.c ****     if(positionNumber < 1 || positionNumber > MAX_DRVER_COUNT)
  68              		.loc 1 108 0
  69 0000 431E     		sub	r3, r0, #1
  70 0002 072B     		cmp	r3, #7
  71 0004 03D8     		bhi	.L7
 109:.\IO_Control.c ****         return FAILURE;
 110:.\IO_Control.c ****     
 111:.\IO_Control.c ****     ID_Number = positionNumber;
  72              		.loc 1 111 0
  73 0006 034B     		ldr	r3, .L8
  74 0008 1870     		strb	r0, [r3]
 112:.\IO_Control.c ****     
 113:.\IO_Control.c ****     return SUCCESS;
  75              		.loc 1 113 0
  76 000a 0020     		mov	r0, #0
  77              	.LVL1:
  78 000c 00E0     		b	.L6
  79              	.LVL2:
  80              	.L7:
 109:.\IO_Control.c ****         return FAILURE;
  81              		.loc 1 109 0
  82 000e 0120     		mov	r0, #1
  83              	.LVL3:
  84              	.L6:
 114:.\IO_Control.c **** }
  85              		.loc 1 114 0
  86              		@ sp needed
  87 0010 7047     		bx	lr
  88              	.L9:
  89 0012 C046     		.align	2
  90              	.L8:
  91 0014 00000000 		.word	.LANCHOR0
  92              		.cfi_endproc
  93              	.LFE36:
  94              		.size	setIdentityByComm, .-setIdentityByComm
  95              		.section	.text.isLastDriverInChain,"ax",%progbits
  96              		.align	2
  97              		.global	isLastDriverInChain
  98              		.code	16
  99              		.thumb_func
 100              		.type	isLastDriverInChain, %function
 101              	isLastDriverInChain:
 102              	.LFB37:
 115:.\IO_Control.c **** 
 116:.\IO_Control.c **** /*******************************************************************************
 117:.\IO_Control.c **** * Function Name: isLastDriverInChain
 118:.\IO_Control.c **** ********************************************************************************
 119:.\IO_Control.c **** *
 120:.\IO_Control.c **** * Summary:
 121:.\IO_Control.c **** *  Determines if this driver is at the end of the chain.
 122:.\IO_Control.c **** *
 123:.\IO_Control.c **** * Parameters:
 124:.\IO_Control.c **** *  None.
 125:.\IO_Control.c **** *
ARM GAS  C:\Users\kylep\AppData\Local\Temp\ccJp8Ryd.s 			page 5


 126:.\IO_Control.c **** * Return:
 127:.\IO_Control.c **** *  TRUE if last driver in the chain, FALSE if otherwise
 128:.\IO_Control.c **** *
 129:.\IO_Control.c **** *******************************************************************************/
 130:.\IO_Control.c **** uint8 isLastDriverInChain(void)
 131:.\IO_Control.c **** {
 103              		.loc 1 131 0
 104              		.cfi_startproc
 132:.\IO_Control.c ****     return bLastDriverInChain;
 105              		.loc 1 132 0
 106 0000 014B     		ldr	r3, .L11
 107 0002 1878     		ldrb	r0, [r3]
 133:.\IO_Control.c **** }
 108              		.loc 1 133 0
 109              		@ sp needed
 110 0004 7047     		bx	lr
 111              	.L12:
 112 0006 C046     		.align	2
 113              	.L11:
 114 0008 00000000 		.word	.LANCHOR1
 115              		.cfi_endproc
 116              	.LFE37:
 117              		.size	isLastDriverInChain, .-isLastDriverInChain
 118              		.section	.text.setAsNotLastDriverInChain,"ax",%progbits
 119              		.align	2
 120              		.global	setAsNotLastDriverInChain
 121              		.code	16
 122              		.thumb_func
 123              		.type	setAsNotLastDriverInChain, %function
 124              	setAsNotLastDriverInChain:
 125              	.LFB38:
 134:.\IO_Control.c **** 
 135:.\IO_Control.c **** /*******************************************************************************
 136:.\IO_Control.c **** * Function Name: setAsNotLastDriverInChain
 137:.\IO_Control.c **** ********************************************************************************
 138:.\IO_Control.c **** *
 139:.\IO_Control.c **** * Summary:
 140:.\IO_Control.c **** *  At the start of the program, this driver is assumed to the be the last driver
 141:.\IO_Control.c **** *  in the chain. If an ACK packet is received at startup, this function is called
 142:.\IO_Control.c **** *  to update the status for not being in the last driver.
 143:.\IO_Control.c **** *
 144:.\IO_Control.c **** * Parameters:
 145:.\IO_Control.c **** *  None.
 146:.\IO_Control.c **** *
 147:.\IO_Control.c **** * Return:
 148:.\IO_Control.c **** *  None.
 149:.\IO_Control.c **** *
 150:.\IO_Control.c **** *******************************************************************************/
 151:.\IO_Control.c **** void setAsNotLastDriverInChain(void)
 152:.\IO_Control.c **** {
 126              		.loc 1 152 0
 127              		.cfi_startproc
 153:.\IO_Control.c ****     bLastDriverInChain = FALSE;
 128              		.loc 1 153 0
 129 0000 0022     		mov	r2, #0
 130 0002 014B     		ldr	r3, .L14
 131 0004 1A70     		strb	r2, [r3]
ARM GAS  C:\Users\kylep\AppData\Local\Temp\ccJp8Ryd.s 			page 6


 154:.\IO_Control.c **** }
 132              		.loc 1 154 0
 133              		@ sp needed
 134 0006 7047     		bx	lr
 135              	.L15:
 136              		.align	2
 137              	.L14:
 138 0008 00000000 		.word	.LANCHOR1
 139              		.cfi_endproc
 140              	.LFE38:
 141              		.size	setAsNotLastDriverInChain, .-setAsNotLastDriverInChain
 142              		.section	.text.updateBrightnessLevel,"ax",%progbits
 143              		.align	2
 144              		.global	updateBrightnessLevel
 145              		.code	16
 146              		.thumb_func
 147              		.type	updateBrightnessLevel, %function
 148              	updateBrightnessLevel:
 149              	.LFB39:
 155:.\IO_Control.c **** 
 156:.\IO_Control.c **** /*******************************************************************************
 157:.\IO_Control.c **** * Function Name: updateBrightnessLevel
 158:.\IO_Control.c **** ********************************************************************************
 159:.\IO_Control.c **** *
 160:.\IO_Control.c **** * Summary:
 161:.\IO_Control.c **** *  Attempts to update the brightness of the LED. The brightness would not update
 162:.\IO_Control.c **** *  if the temperature exceeded its limit.
 163:.\IO_Control.c **** *
 164:.\IO_Control.c **** * Parameters:
 165:.\IO_Control.c **** *  brightnessLevel: The desired brightness level for the LED.
 166:.\IO_Control.c **** *
 167:.\IO_Control.c **** * Return:
 168:.\IO_Control.c **** *  The resulting brightness level of the LED
 169:.\IO_Control.c **** *
 170:.\IO_Control.c **** *******************************************************************************/
 171:.\IO_Control.c **** uint8 updateBrightnessLevel(uint8 brightnessLevel)
 172:.\IO_Control.c **** {
 150              		.loc 1 172 0
 151              		.cfi_startproc
 152              	.LVL4:
 153 0000 10B5     		push	{r4, lr}
 154              		.cfi_def_cfa_offset 8
 155              		.cfi_offset 4, -8
 156              		.cfi_offset 14, -4
 173:.\IO_Control.c ****     //if(currentState != TURBO_ENABLED)
 174:.\IO_Control.c ****     //    return currentBrightnessLevel;
 175:.\IO_Control.c ****     
 176:.\IO_Control.c ****     currentBrightnessLevel = brightnessLevel;
 157              		.loc 1 176 0
 158 0002 034C     		ldr	r4, .L17
 159 0004 6070     		strb	r0, [r4, #1]
 177:.\IO_Control.c ****     PrISM_WritePulse0(currentBrightnessLevel);
 160              		.loc 1 177 0
 161 0006 FFF7FEFF 		bl	PrISM_WritePulse0
 162              	.LVL5:
 178:.\IO_Control.c ****     
 179:.\IO_Control.c ****     return currentBrightnessLevel;
ARM GAS  C:\Users\kylep\AppData\Local\Temp\ccJp8Ryd.s 			page 7


 163              		.loc 1 179 0
 164 000a 6078     		ldrb	r0, [r4, #1]
 180:.\IO_Control.c **** }
 165              		.loc 1 180 0
 166              		@ sp needed
 167 000c 10BD     		pop	{r4, pc}
 168              	.L18:
 169 000e C046     		.align	2
 170              	.L17:
 171 0010 00000000 		.word	.LANCHOR0
 172              		.cfi_endproc
 173              	.LFE39:
 174              		.size	updateBrightnessLevel, .-updateBrightnessLevel
 175              		.section	.text.getTemperatureSample,"ax",%progbits
 176              		.align	2
 177              		.global	getTemperatureSample
 178              		.code	16
 179              		.thumb_func
 180              		.type	getTemperatureSample, %function
 181              	getTemperatureSample:
 182              	.LFB40:
 181:.\IO_Control.c **** 
 182:.\IO_Control.c **** /*******************************************************************************
 183:.\IO_Control.c **** * Function Name: getTemperatureSample
 184:.\IO_Control.c **** ********************************************************************************
 185:.\IO_Control.c **** *
 186:.\IO_Control.c **** * Summary:
 187:.\IO_Control.c **** *  Obtains the next temperature sample from ADC. If the temperature exceeded its limit,
 188:.\IO_Control.c **** *  this function will reduce the LED brightness to try to reduce the temperature.
 189:.\IO_Control.c **** *
 190:.\IO_Control.c **** * Parameters:
 191:.\IO_Control.c **** *  None.
 192:.\IO_Control.c **** *
 193:.\IO_Control.c **** * Return:
 194:.\IO_Control.c **** *  The next temperature sample from ADC
 195:.\IO_Control.c **** *
 196:.\IO_Control.c **** *******************************************************************************/
 197:.\IO_Control.c **** uint8 getTemperatureSample(void)
 198:.\IO_Control.c **** {  
 183              		.loc 1 198 0
 184              		.cfi_startproc
 185 0000 10B5     		push	{r4, lr}
 186              		.cfi_def_cfa_offset 8
 187              		.cfi_offset 4, -8
 188              		.cfi_offset 14, -4
 189              	.LVL6:
 199:.\IO_Control.c ****     static uint8 bTurboEnabled = FALSE;
 200:.\IO_Control.c ****     static uint8 bPreviousTurboEnabled = FALSE;
 201:.\IO_Control.c ****     static uint16 waitTimeCount = 0;
 202:.\IO_Control.c ****     static uint8 actualBrightnessLevel = 0;
 203:.\IO_Control.c ****     
 204:.\IO_Control.c ****     uint8 ADC_WaitCount = 0;
 190              		.loc 1 204 0
 191 0002 0024     		mov	r4, #0
 205:.\IO_Control.c ****     uint16 temperatureSample = 0;
 206:.\IO_Control.c ****     
 207:.\IO_Control.c ****     while(!ADC_SAR_Seq_IsEndConversion(ADC_SAR_Seq_RETURN_STATUS) 
ARM GAS  C:\Users\kylep\AppData\Local\Temp\ccJp8Ryd.s 			page 8


 192              		.loc 1 207 0
 193 0004 04E0     		b	.L20
 194              	.LVL7:
 195              	.L22:
 208:.\IO_Control.c ****         && (ADC_WaitCount < MAX_ADC_CONVERSION_WAIT_LIMIT))
 209:.\IO_Control.c ****     {
 210:.\IO_Control.c ****         ADC_WaitCount++;
 196              		.loc 1 210 0
 197 0006 0134     		add	r4, r4, #1
 198              	.LVL8:
 199 0008 E4B2     		uxtb	r4, r4
 200              	.LVL9:
 211:.\IO_Control.c ****         CyDelayUs(8);
 201              		.loc 1 211 0
 202 000a 0820     		mov	r0, #8
 203 000c FFF7FEFF 		bl	CyDelayUs
 204              	.LVL10:
 205              	.L20:
 207:.\IO_Control.c ****         && (ADC_WaitCount < MAX_ADC_CONVERSION_WAIT_LIMIT))
 206              		.loc 1 207 0
 207 0010 0120     		mov	r0, #1
 208 0012 FFF7FEFF 		bl	ADC_SAR_Seq_IsEndConversion
 209              	.LVL11:
 210 0016 0028     		cmp	r0, #0
 211 0018 01D1     		bne	.L21
 208:.\IO_Control.c ****         && (ADC_WaitCount < MAX_ADC_CONVERSION_WAIT_LIMIT))
 212              		.loc 1 208 0
 213 001a 042C     		cmp	r4, #4
 214 001c F3D9     		bls	.L22
 215              	.L21:
 212:.\IO_Control.c ****     }
 213:.\IO_Control.c ****     
 214:.\IO_Control.c ****     if(ADC_WaitCount < MAX_ADC_CONVERSION_WAIT_LIMIT)
 216              		.loc 1 214 0
 217 001e 042C     		cmp	r4, #4
 218 0020 04D8     		bhi	.L24
 215:.\IO_Control.c ****     {
 216:.\IO_Control.c ****         temperatureSample = ADC_SAR_Seq_GetResult16(0);
 219              		.loc 1 216 0
 220 0022 0020     		mov	r0, #0
 221 0024 FFF7FEFF 		bl	ADC_SAR_Seq_GetResult16
 222              	.LVL12:
 223 0028 80B2     		uxth	r0, r0
 224              	.LVL13:
 225 002a 00E0     		b	.L23
 226              	.LVL14:
 227              	.L24:
 205:.\IO_Control.c ****     
 228              		.loc 1 205 0
 229 002c 0020     		mov	r0, #0
 230              	.LVL15:
 231              	.L23:
 217:.\IO_Control.c ****         /*
 218:.\IO_Control.c ****         switch(currentState)
 219:.\IO_Control.c ****         {
 220:.\IO_Control.c ****             case TURBO_READY: //Change state at turbo enable or max temperature reached
 221:.\IO_Control.c ****                 if(!bPreviousTurboEnabled && bTurboEnabled)
ARM GAS  C:\Users\kylep\AppData\Local\Temp\ccJp8Ryd.s 			page 9


 222:.\IO_Control.c ****                     currentState = TURBO_ENABLED;               
 223:.\IO_Control.c ****                 bPreviousTurboEnabled = bTurboEnabled;
 224:.\IO_Control.c ****                 
 225:.\IO_Control.c ****                 if(temperatureSample > MAX_TEMPERATURE_LIMIT)
 226:.\IO_Control.c ****                     currentState = COOL_DOWN;
 227:.\IO_Control.c ****                 else
 228:.\IO_Control.c ****                     currentState = TURBO_READY;
 229:.\IO_Control.c ****                 break;
 230:.\IO_Control.c ****             case TURBO_ENABLED: //Change state at max temperature
 231:.\IO_Control.c ****                 if(actualBrightnessLevel < (currentBrightnessLevel - BRIGHTNESS_LEVEL_DIFFERENCE))
 232:.\IO_Control.c ****                     actualBrightnessLevel += BRIGHTNESS_LEVEL_DIFFERENCE;
 233:.\IO_Control.c ****                 else
 234:.\IO_Control.c ****                     actualBrightnessLevel = currentBrightnessLevel;
 235:.\IO_Control.c ****                 
 236:.\IO_Control.c ****                 PrISM_WritePulse0(actualBrightnessLevel);
 237:.\IO_Control.c ****                 
 238:.\IO_Control.c ****                 if(temperatureSample > MAX_TEMPERATURE_LIMIT)
 239:.\IO_Control.c ****                 {
 240:.\IO_Control.c ****                     waitTimeCount = 0;
 241:.\IO_Control.c ****                     currentState = COOL_DOWN;
 242:.\IO_Control.c ****                 }
 243:.\IO_Control.c ****                 else
 244:.\IO_Control.c ****                     currentState = TURBO_ENABLED;
 245:.\IO_Control.c ****                 break;
 246:.\IO_Control.c ****             case COOL_DOWN: //Change state at safe temperature
 247:.\IO_Control.c ****                 if(waitTimeCount < 1000)
 248:.\IO_Control.c ****                 {
 249:.\IO_Control.c ****                     waitTimeCount++;
 250:.\IO_Control.c ****                     currentState = COOL_DOWN;
 251:.\IO_Control.c ****                 }
 252:.\IO_Control.c ****                 else
 253:.\IO_Control.c ****                 {
 254:.\IO_Control.c ****                     waitTimeCount = 0;
 255:.\IO_Control.c ****                     if(actualBrightnessLevel > BRIGHTNESS_LEVEL_DIFFERENCE)
 256:.\IO_Control.c ****                         actualBrightnessLevel -= BRIGHTNESS_LEVEL_DIFFERENCE;
 257:.\IO_Control.c ****                     else
 258:.\IO_Control.c ****                         actualBrightnessLevel = 0;
 259:.\IO_Control.c ****                     
 260:.\IO_Control.c ****                     PrISM_WritePulse0(actualBrightnessLevel);
 261:.\IO_Control.c ****                     
 262:.\IO_Control.c ****                     if(temperatureSample > SAFE_TEMPERATURE_LIMIT)
 263:.\IO_Control.c ****                         currentState = COOL_DOWN;
 264:.\IO_Control.c ****                     else
 265:.\IO_Control.c ****                         currentState = WAIT_AT_SAFE_TEMPERATURE;
 266:.\IO_Control.c ****                 }
 267:.\IO_Control.c ****                 break;
 268:.\IO_Control.c ****             case WAIT_AT_SAFE_TEMPERATURE:
 269:.\IO_Control.c ****                 if(temperatureSample > SAFE_TEMPERATURE_LIMIT)
 270:.\IO_Control.c ****                 {
 271:.\IO_Control.c ****                     waitTimeCount = 0;
 272:.\IO_Control.c ****                     currentState = COOL_DOWN;
 273:.\IO_Control.c ****                 }
 274:.\IO_Control.c ****                 else
 275:.\IO_Control.c ****                 {
 276:.\IO_Control.c ****                     if(waitTimeCount < WAIT_TIME_LIMIT_IN_SECONDS)
 277:.\IO_Control.c ****                     {
 278:.\IO_Control.c ****                         waitTimeCount++;
ARM GAS  C:\Users\kylep\AppData\Local\Temp\ccJp8Ryd.s 			page 10


 279:.\IO_Control.c ****                         currentState = WAIT_AT_SAFE_TEMPERATURE;
 280:.\IO_Control.c ****                     }
 281:.\IO_Control.c ****                     else
 282:.\IO_Control.c ****                         currentState = TURBO_READY;
 283:.\IO_Control.c ****                 }
 284:.\IO_Control.c ****                 break;
 285:.\IO_Control.c ****         };*/
 286:.\IO_Control.c ****     }
 287:.\IO_Control.c ****     
 288:.\IO_Control.c ****     return (uint8)temperatureSample;
 232              		.loc 1 288 0
 233 002e C0B2     		uxtb	r0, r0
 234              	.LVL16:
 289:.\IO_Control.c **** }
 235              		.loc 1 289 0
 236              		@ sp needed
 237              	.LVL17:
 238 0030 10BD     		pop	{r4, pc}
 239              		.cfi_endproc
 240              	.LFE40:
 241              		.size	getTemperatureSample, .-getTemperatureSample
 242 0032 C046     		.data
 243              		.set	.LANCHOR1,. + 0
 244              		.type	bLastDriverInChain, %object
 245              		.size	bLastDriverInChain, 1
 246              	bLastDriverInChain:
 247 0000 01       		.byte	1
 248              		.bss
 249              		.set	.LANCHOR0,. + 0
 250              		.type	ID_Number, %object
 251              		.size	ID_Number, 1
 252              	ID_Number:
 253 0000 00       		.space	1
 254              		.type	currentBrightnessLevel, %object
 255              		.size	currentBrightnessLevel, 1
 256              	currentBrightnessLevel:
 257 0001 00       		.space	1
 258              		.text
 259              	.Letext0:
 260              		.file 2 "Generated_Source\\PSoC4/cytypes.h"
 261              		.file 3 "Generated_Source\\PSoC4/PrISM.h"
 262              		.file 4 "Generated_Source\\PSoC4/CyLib.h"
 263              		.file 5 "Generated_Source\\PSoC4/ADC_SAR_Seq.h"