ARM GAS  C:\Users\kylep\AppData\Local\Temp\ccsEKc1E.s 			page 1


   1              		.cpu cortex-m0
   2              		.fpu softvfp
   3              		.eabi_attribute 20, 1
   4              		.eabi_attribute 21, 1
   5              		.eabi_attribute 23, 3
   6              		.eabi_attribute 24, 1
   7              		.eabi_attribute 25, 1
   8              		.eabi_attribute 26, 1
   9              		.eabi_attribute 30, 1
  10              		.eabi_attribute 34, 0
  11              		.eabi_attribute 18, 4
  12              		.code	16
  13              		.file	"LED_ISR.c"
  14              		.text
  15              	.Ltext0:
  16              		.cfi_sections	.debug_frame
  17              		.section	.text.LED_ISR_Interrupt,"ax",%progbits
  18              		.align	2
  19              		.global	LED_ISR_Interrupt
  20              		.code	16
  21              		.thumb_func
  22              		.type	LED_ISR_Interrupt, %function
  23              	LED_ISR_Interrupt:
  24              	.LFB37:
  25              		.file 1 ".\\Generated_Source\\PSoC4\\LED_ISR.c"
   1:.\Generated_Source\PSoC4/LED_ISR.c **** /*******************************************************************************
   2:.\Generated_Source\PSoC4/LED_ISR.c **** * File Name: LED_ISR.c  
   3:.\Generated_Source\PSoC4/LED_ISR.c **** * Version 1.70
   4:.\Generated_Source\PSoC4/LED_ISR.c **** *
   5:.\Generated_Source\PSoC4/LED_ISR.c **** *  Description:
   6:.\Generated_Source\PSoC4/LED_ISR.c **** *   API for controlling the state of an interrupt.
   7:.\Generated_Source\PSoC4/LED_ISR.c **** *
   8:.\Generated_Source\PSoC4/LED_ISR.c **** *
   9:.\Generated_Source\PSoC4/LED_ISR.c **** *  Note:
  10:.\Generated_Source\PSoC4/LED_ISR.c **** *
  11:.\Generated_Source\PSoC4/LED_ISR.c **** ********************************************************************************
  12:.\Generated_Source\PSoC4/LED_ISR.c **** * Copyright 2008-2015, Cypress Semiconductor Corporation.  All rights reserved.
  13:.\Generated_Source\PSoC4/LED_ISR.c **** * You may use this file only in accordance with the license, terms, conditions, 
  14:.\Generated_Source\PSoC4/LED_ISR.c **** * disclaimers, and limitations in the end user license agreement accompanying 
  15:.\Generated_Source\PSoC4/LED_ISR.c **** * the software package with which this file was provided.
  16:.\Generated_Source\PSoC4/LED_ISR.c **** *******************************************************************************/
  17:.\Generated_Source\PSoC4/LED_ISR.c **** 
  18:.\Generated_Source\PSoC4/LED_ISR.c **** 
  19:.\Generated_Source\PSoC4/LED_ISR.c **** #include <cydevice_trm.h>
  20:.\Generated_Source\PSoC4/LED_ISR.c **** #include <CyLib.h>
  21:.\Generated_Source\PSoC4/LED_ISR.c **** #include <LED_ISR.h>
  22:.\Generated_Source\PSoC4/LED_ISR.c **** 
  23:.\Generated_Source\PSoC4/LED_ISR.c **** 
  24:.\Generated_Source\PSoC4/LED_ISR.c **** #if !defined(LED_ISR__REMOVED) /* Check for removal by optimization */
  25:.\Generated_Source\PSoC4/LED_ISR.c **** 
  26:.\Generated_Source\PSoC4/LED_ISR.c **** /*******************************************************************************
  27:.\Generated_Source\PSoC4/LED_ISR.c **** *  Place your includes, defines and code here 
  28:.\Generated_Source\PSoC4/LED_ISR.c **** ********************************************************************************/
  29:.\Generated_Source\PSoC4/LED_ISR.c **** /* `#START LED_ISR_intc` */
  30:.\Generated_Source\PSoC4/LED_ISR.c **** 
  31:.\Generated_Source\PSoC4/LED_ISR.c **** #include "DriverControl.h"    
  32:.\Generated_Source\PSoC4/LED_ISR.c ****     
ARM GAS  C:\Users\kylep\AppData\Local\Temp\ccsEKc1E.s 			page 2


  33:.\Generated_Source\PSoC4/LED_ISR.c **** /* `#END` */
  34:.\Generated_Source\PSoC4/LED_ISR.c **** 
  35:.\Generated_Source\PSoC4/LED_ISR.c **** extern cyisraddress CyRamVectors[CYINT_IRQ_BASE + CY_NUM_INTERRUPTS];
  36:.\Generated_Source\PSoC4/LED_ISR.c **** 
  37:.\Generated_Source\PSoC4/LED_ISR.c **** /* Declared in startup, used to set unused interrupts to. */
  38:.\Generated_Source\PSoC4/LED_ISR.c **** CY_ISR_PROTO(IntDefaultHandler);
  39:.\Generated_Source\PSoC4/LED_ISR.c **** 
  40:.\Generated_Source\PSoC4/LED_ISR.c **** 
  41:.\Generated_Source\PSoC4/LED_ISR.c **** /*******************************************************************************
  42:.\Generated_Source\PSoC4/LED_ISR.c **** * Function Name: LED_ISR_Start
  43:.\Generated_Source\PSoC4/LED_ISR.c **** ********************************************************************************
  44:.\Generated_Source\PSoC4/LED_ISR.c **** *
  45:.\Generated_Source\PSoC4/LED_ISR.c **** * Summary:
  46:.\Generated_Source\PSoC4/LED_ISR.c **** *  Set up the interrupt and enable it. This function disables the interrupt, 
  47:.\Generated_Source\PSoC4/LED_ISR.c **** *  sets the default interrupt vector, sets the priority from the value in the
  48:.\Generated_Source\PSoC4/LED_ISR.c **** *  Design Wide Resources Interrupt Editor, then enables the interrupt to the 
  49:.\Generated_Source\PSoC4/LED_ISR.c **** *  interrupt controller.
  50:.\Generated_Source\PSoC4/LED_ISR.c **** *
  51:.\Generated_Source\PSoC4/LED_ISR.c **** * Parameters:  
  52:.\Generated_Source\PSoC4/LED_ISR.c **** *   None
  53:.\Generated_Source\PSoC4/LED_ISR.c **** *
  54:.\Generated_Source\PSoC4/LED_ISR.c **** * Return:
  55:.\Generated_Source\PSoC4/LED_ISR.c **** *   None
  56:.\Generated_Source\PSoC4/LED_ISR.c **** *
  57:.\Generated_Source\PSoC4/LED_ISR.c **** *******************************************************************************/
  58:.\Generated_Source\PSoC4/LED_ISR.c **** void LED_ISR_Start(void)
  59:.\Generated_Source\PSoC4/LED_ISR.c **** {
  60:.\Generated_Source\PSoC4/LED_ISR.c ****     /* For all we know the interrupt is active. */
  61:.\Generated_Source\PSoC4/LED_ISR.c ****     LED_ISR_Disable();
  62:.\Generated_Source\PSoC4/LED_ISR.c **** 
  63:.\Generated_Source\PSoC4/LED_ISR.c ****     /* Set the ISR to point to the LED_ISR Interrupt. */
  64:.\Generated_Source\PSoC4/LED_ISR.c ****     LED_ISR_SetVector(&LED_ISR_Interrupt);
  65:.\Generated_Source\PSoC4/LED_ISR.c **** 
  66:.\Generated_Source\PSoC4/LED_ISR.c ****     /* Set the priority. */
  67:.\Generated_Source\PSoC4/LED_ISR.c ****     LED_ISR_SetPriority((uint8)LED_ISR_INTC_PRIOR_NUMBER);
  68:.\Generated_Source\PSoC4/LED_ISR.c **** 
  69:.\Generated_Source\PSoC4/LED_ISR.c ****     /* Enable it. */
  70:.\Generated_Source\PSoC4/LED_ISR.c ****     LED_ISR_Enable();
  71:.\Generated_Source\PSoC4/LED_ISR.c **** }
  72:.\Generated_Source\PSoC4/LED_ISR.c **** 
  73:.\Generated_Source\PSoC4/LED_ISR.c **** 
  74:.\Generated_Source\PSoC4/LED_ISR.c **** /*******************************************************************************
  75:.\Generated_Source\PSoC4/LED_ISR.c **** * Function Name: LED_ISR_StartEx
  76:.\Generated_Source\PSoC4/LED_ISR.c **** ********************************************************************************
  77:.\Generated_Source\PSoC4/LED_ISR.c **** *
  78:.\Generated_Source\PSoC4/LED_ISR.c **** * Summary:
  79:.\Generated_Source\PSoC4/LED_ISR.c **** *  Sets up the interrupt and enables it. This function disables the interrupt,
  80:.\Generated_Source\PSoC4/LED_ISR.c **** *  sets the interrupt vector based on the address passed in, sets the priority 
  81:.\Generated_Source\PSoC4/LED_ISR.c **** *  from the value in the Design Wide Resources Interrupt Editor, then enables 
  82:.\Generated_Source\PSoC4/LED_ISR.c **** *  the interrupt to the interrupt controller.
  83:.\Generated_Source\PSoC4/LED_ISR.c **** *  
  84:.\Generated_Source\PSoC4/LED_ISR.c **** *  When defining ISR functions, the CY_ISR and CY_ISR_PROTO macros should be 
  85:.\Generated_Source\PSoC4/LED_ISR.c **** *  used to provide consistent definition across compilers:
  86:.\Generated_Source\PSoC4/LED_ISR.c **** *  
  87:.\Generated_Source\PSoC4/LED_ISR.c **** *  Function definition example:
  88:.\Generated_Source\PSoC4/LED_ISR.c **** *   CY_ISR(MyISR)
  89:.\Generated_Source\PSoC4/LED_ISR.c **** *   {
ARM GAS  C:\Users\kylep\AppData\Local\Temp\ccsEKc1E.s 			page 3


  90:.\Generated_Source\PSoC4/LED_ISR.c **** *   }
  91:.\Generated_Source\PSoC4/LED_ISR.c **** *   Function prototype example:
  92:.\Generated_Source\PSoC4/LED_ISR.c **** *   CY_ISR_PROTO(MyISR);
  93:.\Generated_Source\PSoC4/LED_ISR.c **** *
  94:.\Generated_Source\PSoC4/LED_ISR.c **** * Parameters:  
  95:.\Generated_Source\PSoC4/LED_ISR.c **** *   address: Address of the ISR to set in the interrupt vector table.
  96:.\Generated_Source\PSoC4/LED_ISR.c **** *
  97:.\Generated_Source\PSoC4/LED_ISR.c **** * Return:
  98:.\Generated_Source\PSoC4/LED_ISR.c **** *   None
  99:.\Generated_Source\PSoC4/LED_ISR.c **** *
 100:.\Generated_Source\PSoC4/LED_ISR.c **** *******************************************************************************/
 101:.\Generated_Source\PSoC4/LED_ISR.c **** void LED_ISR_StartEx(cyisraddress address)
 102:.\Generated_Source\PSoC4/LED_ISR.c **** {
 103:.\Generated_Source\PSoC4/LED_ISR.c ****     /* For all we know the interrupt is active. */
 104:.\Generated_Source\PSoC4/LED_ISR.c ****     LED_ISR_Disable();
 105:.\Generated_Source\PSoC4/LED_ISR.c **** 
 106:.\Generated_Source\PSoC4/LED_ISR.c ****     /* Set the ISR to point to the LED_ISR Interrupt. */
 107:.\Generated_Source\PSoC4/LED_ISR.c ****     LED_ISR_SetVector(address);
 108:.\Generated_Source\PSoC4/LED_ISR.c **** 
 109:.\Generated_Source\PSoC4/LED_ISR.c ****     /* Set the priority. */
 110:.\Generated_Source\PSoC4/LED_ISR.c ****     LED_ISR_SetPriority((uint8)LED_ISR_INTC_PRIOR_NUMBER);
 111:.\Generated_Source\PSoC4/LED_ISR.c **** 
 112:.\Generated_Source\PSoC4/LED_ISR.c ****     /* Enable it. */
 113:.\Generated_Source\PSoC4/LED_ISR.c ****     LED_ISR_Enable();
 114:.\Generated_Source\PSoC4/LED_ISR.c **** }
 115:.\Generated_Source\PSoC4/LED_ISR.c **** 
 116:.\Generated_Source\PSoC4/LED_ISR.c **** 
 117:.\Generated_Source\PSoC4/LED_ISR.c **** /*******************************************************************************
 118:.\Generated_Source\PSoC4/LED_ISR.c **** * Function Name: LED_ISR_Stop
 119:.\Generated_Source\PSoC4/LED_ISR.c **** ********************************************************************************
 120:.\Generated_Source\PSoC4/LED_ISR.c **** *
 121:.\Generated_Source\PSoC4/LED_ISR.c **** * Summary:
 122:.\Generated_Source\PSoC4/LED_ISR.c **** *   Disables and removes the interrupt.
 123:.\Generated_Source\PSoC4/LED_ISR.c **** *
 124:.\Generated_Source\PSoC4/LED_ISR.c **** * Parameters:  
 125:.\Generated_Source\PSoC4/LED_ISR.c **** *   None
 126:.\Generated_Source\PSoC4/LED_ISR.c **** *
 127:.\Generated_Source\PSoC4/LED_ISR.c **** * Return:
 128:.\Generated_Source\PSoC4/LED_ISR.c **** *   None
 129:.\Generated_Source\PSoC4/LED_ISR.c **** *
 130:.\Generated_Source\PSoC4/LED_ISR.c **** *******************************************************************************/
 131:.\Generated_Source\PSoC4/LED_ISR.c **** void LED_ISR_Stop(void)
 132:.\Generated_Source\PSoC4/LED_ISR.c **** {
 133:.\Generated_Source\PSoC4/LED_ISR.c ****     /* Disable this interrupt. */
 134:.\Generated_Source\PSoC4/LED_ISR.c ****     LED_ISR_Disable();
 135:.\Generated_Source\PSoC4/LED_ISR.c **** 
 136:.\Generated_Source\PSoC4/LED_ISR.c ****     /* Set the ISR to point to the passive one. */
 137:.\Generated_Source\PSoC4/LED_ISR.c ****     LED_ISR_SetVector(&IntDefaultHandler);
 138:.\Generated_Source\PSoC4/LED_ISR.c **** }
 139:.\Generated_Source\PSoC4/LED_ISR.c **** 
 140:.\Generated_Source\PSoC4/LED_ISR.c **** 
 141:.\Generated_Source\PSoC4/LED_ISR.c **** /*******************************************************************************
 142:.\Generated_Source\PSoC4/LED_ISR.c **** * Function Name: LED_ISR_Interrupt
 143:.\Generated_Source\PSoC4/LED_ISR.c **** ********************************************************************************
 144:.\Generated_Source\PSoC4/LED_ISR.c **** *
 145:.\Generated_Source\PSoC4/LED_ISR.c **** * Summary:
 146:.\Generated_Source\PSoC4/LED_ISR.c **** *   The default Interrupt Service Routine for LED_ISR.
ARM GAS  C:\Users\kylep\AppData\Local\Temp\ccsEKc1E.s 			page 4


 147:.\Generated_Source\PSoC4/LED_ISR.c **** *
 148:.\Generated_Source\PSoC4/LED_ISR.c **** *   Add custom code between the START and END comments to keep the next version
 149:.\Generated_Source\PSoC4/LED_ISR.c **** *   of this file from over-writing your code.
 150:.\Generated_Source\PSoC4/LED_ISR.c **** *
 151:.\Generated_Source\PSoC4/LED_ISR.c **** *   Note You may use either the default ISR by using this API, or you may define
 152:.\Generated_Source\PSoC4/LED_ISR.c **** *   your own separate ISR through ISR_StartEx().
 153:.\Generated_Source\PSoC4/LED_ISR.c **** *
 154:.\Generated_Source\PSoC4/LED_ISR.c **** * Parameters:  
 155:.\Generated_Source\PSoC4/LED_ISR.c **** *   None
 156:.\Generated_Source\PSoC4/LED_ISR.c **** *
 157:.\Generated_Source\PSoC4/LED_ISR.c **** * Return:
 158:.\Generated_Source\PSoC4/LED_ISR.c **** *   None
 159:.\Generated_Source\PSoC4/LED_ISR.c **** *
 160:.\Generated_Source\PSoC4/LED_ISR.c **** *******************************************************************************/
 161:.\Generated_Source\PSoC4/LED_ISR.c **** CY_ISR(LED_ISR_Interrupt)
 162:.\Generated_Source\PSoC4/LED_ISR.c **** {
  26              		.loc 1 162 0
  27              		.cfi_startproc
  28 0000 08B5     		push	{r3, lr}
  29              		.cfi_def_cfa_offset 8
  30              		.cfi_offset 3, -8
  31              		.cfi_offset 14, -4
 163:.\Generated_Source\PSoC4/LED_ISR.c ****     #ifdef LED_ISR_INTERRUPT_INTERRUPT_CALLBACK
 164:.\Generated_Source\PSoC4/LED_ISR.c ****         LED_ISR_Interrupt_InterruptCallback();
 165:.\Generated_Source\PSoC4/LED_ISR.c ****     #endif /* LED_ISR_INTERRUPT_INTERRUPT_CALLBACK */ 
 166:.\Generated_Source\PSoC4/LED_ISR.c **** 
 167:.\Generated_Source\PSoC4/LED_ISR.c ****     /*  Place your Interrupt code here. */
 168:.\Generated_Source\PSoC4/LED_ISR.c ****     /* `#START LED_ISR_Interrupt` */
 169:.\Generated_Source\PSoC4/LED_ISR.c **** 
 170:.\Generated_Source\PSoC4/LED_ISR.c ****     processSoftStart();
  32              		.loc 1 170 0
  33 0002 FFF7FEFF 		bl	processSoftStart
  34              	.LVL0:
 171:.\Generated_Source\PSoC4/LED_ISR.c ****     
 172:.\Generated_Source\PSoC4/LED_ISR.c ****     /* `#END` */
 173:.\Generated_Source\PSoC4/LED_ISR.c **** }
  35              		.loc 1 173 0
  36              		@ sp needed
  37 0006 08BD     		pop	{r3, pc}
  38              		.cfi_endproc
  39              	.LFE37:
  40              		.size	LED_ISR_Interrupt, .-LED_ISR_Interrupt
  41              		.section	.text.LED_ISR_SetVector,"ax",%progbits
  42              		.align	2
  43              		.global	LED_ISR_SetVector
  44              		.code	16
  45              		.thumb_func
  46              		.type	LED_ISR_SetVector, %function
  47              	LED_ISR_SetVector:
  48              	.LFB38:
 174:.\Generated_Source\PSoC4/LED_ISR.c **** 
 175:.\Generated_Source\PSoC4/LED_ISR.c **** 
 176:.\Generated_Source\PSoC4/LED_ISR.c **** /*******************************************************************************
 177:.\Generated_Source\PSoC4/LED_ISR.c **** * Function Name: LED_ISR_SetVector
 178:.\Generated_Source\PSoC4/LED_ISR.c **** ********************************************************************************
 179:.\Generated_Source\PSoC4/LED_ISR.c **** *
 180:.\Generated_Source\PSoC4/LED_ISR.c **** * Summary:
ARM GAS  C:\Users\kylep\AppData\Local\Temp\ccsEKc1E.s 			page 5


 181:.\Generated_Source\PSoC4/LED_ISR.c **** *   Change the ISR vector for the Interrupt. Note calling LED_ISR_Start
 182:.\Generated_Source\PSoC4/LED_ISR.c **** *   will override any effect this method would have had. To set the vector 
 183:.\Generated_Source\PSoC4/LED_ISR.c **** *   before the component has been started use LED_ISR_StartEx instead.
 184:.\Generated_Source\PSoC4/LED_ISR.c **** * 
 185:.\Generated_Source\PSoC4/LED_ISR.c **** *   When defining ISR functions, the CY_ISR and CY_ISR_PROTO macros should be 
 186:.\Generated_Source\PSoC4/LED_ISR.c **** *   used to provide consistent definition across compilers:
 187:.\Generated_Source\PSoC4/LED_ISR.c **** *
 188:.\Generated_Source\PSoC4/LED_ISR.c **** *   Function definition example:
 189:.\Generated_Source\PSoC4/LED_ISR.c **** *   CY_ISR(MyISR)
 190:.\Generated_Source\PSoC4/LED_ISR.c **** *   {
 191:.\Generated_Source\PSoC4/LED_ISR.c **** *   }
 192:.\Generated_Source\PSoC4/LED_ISR.c **** *
 193:.\Generated_Source\PSoC4/LED_ISR.c **** *   Function prototype example:
 194:.\Generated_Source\PSoC4/LED_ISR.c **** *     CY_ISR_PROTO(MyISR);
 195:.\Generated_Source\PSoC4/LED_ISR.c **** *
 196:.\Generated_Source\PSoC4/LED_ISR.c **** * Parameters:
 197:.\Generated_Source\PSoC4/LED_ISR.c **** *   address: Address of the ISR to set in the interrupt vector table.
 198:.\Generated_Source\PSoC4/LED_ISR.c **** *
 199:.\Generated_Source\PSoC4/LED_ISR.c **** * Return:
 200:.\Generated_Source\PSoC4/LED_ISR.c **** *   None
 201:.\Generated_Source\PSoC4/LED_ISR.c **** *
 202:.\Generated_Source\PSoC4/LED_ISR.c **** *******************************************************************************/
 203:.\Generated_Source\PSoC4/LED_ISR.c **** void LED_ISR_SetVector(cyisraddress address)
 204:.\Generated_Source\PSoC4/LED_ISR.c **** {
  49              		.loc 1 204 0
  50              		.cfi_startproc
  51              	.LVL1:
 205:.\Generated_Source\PSoC4/LED_ISR.c ****     CyRamVectors[CYINT_IRQ_BASE + LED_ISR__INTC_NUMBER] = address;
  52              		.loc 1 205 0
  53 0000 014B     		ldr	r3, .L3
  54 0002 D864     		str	r0, [r3, #76]
 206:.\Generated_Source\PSoC4/LED_ISR.c **** }
  55              		.loc 1 206 0
  56              		@ sp needed
  57 0004 7047     		bx	lr
  58              	.L4:
  59 0006 C046     		.align	2
  60              	.L3:
  61 0008 00000000 		.word	CyRamVectors
  62              		.cfi_endproc
  63              	.LFE38:
  64              		.size	LED_ISR_SetVector, .-LED_ISR_SetVector
  65              		.section	.text.LED_ISR_GetVector,"ax",%progbits
  66              		.align	2
  67              		.global	LED_ISR_GetVector
  68              		.code	16
  69              		.thumb_func
  70              		.type	LED_ISR_GetVector, %function
  71              	LED_ISR_GetVector:
  72              	.LFB39:
 207:.\Generated_Source\PSoC4/LED_ISR.c **** 
 208:.\Generated_Source\PSoC4/LED_ISR.c **** 
 209:.\Generated_Source\PSoC4/LED_ISR.c **** /*******************************************************************************
 210:.\Generated_Source\PSoC4/LED_ISR.c **** * Function Name: LED_ISR_GetVector
 211:.\Generated_Source\PSoC4/LED_ISR.c **** ********************************************************************************
 212:.\Generated_Source\PSoC4/LED_ISR.c **** *
 213:.\Generated_Source\PSoC4/LED_ISR.c **** * Summary:
ARM GAS  C:\Users\kylep\AppData\Local\Temp\ccsEKc1E.s 			page 6


 214:.\Generated_Source\PSoC4/LED_ISR.c **** *   Gets the "address" of the current ISR vector for the Interrupt.
 215:.\Generated_Source\PSoC4/LED_ISR.c **** *
 216:.\Generated_Source\PSoC4/LED_ISR.c **** * Parameters:
 217:.\Generated_Source\PSoC4/LED_ISR.c **** *   None
 218:.\Generated_Source\PSoC4/LED_ISR.c **** *
 219:.\Generated_Source\PSoC4/LED_ISR.c **** * Return:
 220:.\Generated_Source\PSoC4/LED_ISR.c **** *   Address of the ISR in the interrupt vector table.
 221:.\Generated_Source\PSoC4/LED_ISR.c **** *
 222:.\Generated_Source\PSoC4/LED_ISR.c **** *******************************************************************************/
 223:.\Generated_Source\PSoC4/LED_ISR.c **** cyisraddress LED_ISR_GetVector(void)
 224:.\Generated_Source\PSoC4/LED_ISR.c **** {
  73              		.loc 1 224 0
  74              		.cfi_startproc
 225:.\Generated_Source\PSoC4/LED_ISR.c ****     return CyRamVectors[CYINT_IRQ_BASE + LED_ISR__INTC_NUMBER];
  75              		.loc 1 225 0
  76 0000 014B     		ldr	r3, .L6
  77 0002 D86C     		ldr	r0, [r3, #76]
 226:.\Generated_Source\PSoC4/LED_ISR.c **** }
  78              		.loc 1 226 0
  79              		@ sp needed
  80 0004 7047     		bx	lr
  81              	.L7:
  82 0006 C046     		.align	2
  83              	.L6:
  84 0008 00000000 		.word	CyRamVectors
  85              		.cfi_endproc
  86              	.LFE39:
  87              		.size	LED_ISR_GetVector, .-LED_ISR_GetVector
  88              		.section	.text.LED_ISR_SetPriority,"ax",%progbits
  89              		.align	2
  90              		.global	LED_ISR_SetPriority
  91              		.code	16
  92              		.thumb_func
  93              		.type	LED_ISR_SetPriority, %function
  94              	LED_ISR_SetPriority:
  95              	.LFB40:
 227:.\Generated_Source\PSoC4/LED_ISR.c **** 
 228:.\Generated_Source\PSoC4/LED_ISR.c **** 
 229:.\Generated_Source\PSoC4/LED_ISR.c **** /*******************************************************************************
 230:.\Generated_Source\PSoC4/LED_ISR.c **** * Function Name: LED_ISR_SetPriority
 231:.\Generated_Source\PSoC4/LED_ISR.c **** ********************************************************************************
 232:.\Generated_Source\PSoC4/LED_ISR.c **** *
 233:.\Generated_Source\PSoC4/LED_ISR.c **** * Summary:
 234:.\Generated_Source\PSoC4/LED_ISR.c **** *   Sets the Priority of the Interrupt. 
 235:.\Generated_Source\PSoC4/LED_ISR.c **** *
 236:.\Generated_Source\PSoC4/LED_ISR.c **** *   Note calling LED_ISR_Start or LED_ISR_StartEx will 
 237:.\Generated_Source\PSoC4/LED_ISR.c **** *   override any effect this API would have had. This API should only be called
 238:.\Generated_Source\PSoC4/LED_ISR.c **** *   after LED_ISR_Start or LED_ISR_StartEx has been called. 
 239:.\Generated_Source\PSoC4/LED_ISR.c **** *   To set the initial priority for the component, use the Design-Wide Resources
 240:.\Generated_Source\PSoC4/LED_ISR.c **** *   Interrupt Editor.
 241:.\Generated_Source\PSoC4/LED_ISR.c **** *
 242:.\Generated_Source\PSoC4/LED_ISR.c **** *   Note This API has no effect on Non-maskable interrupt NMI).
 243:.\Generated_Source\PSoC4/LED_ISR.c **** *
 244:.\Generated_Source\PSoC4/LED_ISR.c **** * Parameters:
 245:.\Generated_Source\PSoC4/LED_ISR.c **** *   priority: Priority of the interrupt, 0 being the highest priority
 246:.\Generated_Source\PSoC4/LED_ISR.c **** *             PSoC 3 and PSoC 5LP: Priority is from 0 to 7.
 247:.\Generated_Source\PSoC4/LED_ISR.c **** *             PSoC 4: Priority is from 0 to 3.
ARM GAS  C:\Users\kylep\AppData\Local\Temp\ccsEKc1E.s 			page 7


 248:.\Generated_Source\PSoC4/LED_ISR.c **** *
 249:.\Generated_Source\PSoC4/LED_ISR.c **** * Return:
 250:.\Generated_Source\PSoC4/LED_ISR.c **** *   None
 251:.\Generated_Source\PSoC4/LED_ISR.c **** *
 252:.\Generated_Source\PSoC4/LED_ISR.c **** *******************************************************************************/
 253:.\Generated_Source\PSoC4/LED_ISR.c **** void LED_ISR_SetPriority(uint8 priority)
 254:.\Generated_Source\PSoC4/LED_ISR.c **** {
  96              		.loc 1 254 0
  97              		.cfi_startproc
  98              	.LVL2:
  99 0000 10B5     		push	{r4, lr}
 100              		.cfi_def_cfa_offset 8
 101              		.cfi_offset 4, -8
 102              		.cfi_offset 14, -4
 103 0002 041C     		mov	r4, r0
 104              	.LVL3:
 255:.\Generated_Source\PSoC4/LED_ISR.c **** 	uint8 interruptState;
 256:.\Generated_Source\PSoC4/LED_ISR.c ****     uint32 priorityOffset = ((LED_ISR__INTC_NUMBER % 4u) * 8u) + 6u;
 257:.\Generated_Source\PSoC4/LED_ISR.c ****     
 258:.\Generated_Source\PSoC4/LED_ISR.c **** 	interruptState = CyEnterCriticalSection();
 105              		.loc 1 258 0
 106 0004 FFF7FEFF 		bl	CyEnterCriticalSection
 107              	.LVL4:
 259:.\Generated_Source\PSoC4/LED_ISR.c ****     *LED_ISR_INTC_PRIOR = (*LED_ISR_INTC_PRIOR & (uint32)(~LED_ISR__INTC_PRIOR_MASK)) |
 108              		.loc 1 259 0
 109 0008 044A     		ldr	r2, .L9
 110 000a 1368     		ldr	r3, [r2]
 111 000c 9B00     		lsl	r3, r3, #2
 112 000e 9B08     		lsr	r3, r3, #2
 260:.\Generated_Source\PSoC4/LED_ISR.c ****                                     ((uint32)priority << priorityOffset);
 113              		.loc 1 260 0
 114 0010 A407     		lsl	r4, r4, #30
 259:.\Generated_Source\PSoC4/LED_ISR.c ****     *LED_ISR_INTC_PRIOR = (*LED_ISR_INTC_PRIOR & (uint32)(~LED_ISR__INTC_PRIOR_MASK)) |
 115              		.loc 1 259 0
 116 0012 1C43     		orr	r4, r3
 117 0014 1460     		str	r4, [r2]
 261:.\Generated_Source\PSoC4/LED_ISR.c **** 	CyExitCriticalSection(interruptState);
 118              		.loc 1 261 0
 119 0016 FFF7FEFF 		bl	CyExitCriticalSection
 120              	.LVL5:
 262:.\Generated_Source\PSoC4/LED_ISR.c **** }
 121              		.loc 1 262 0
 122              		@ sp needed
 123 001a 10BD     		pop	{r4, pc}
 124              	.L10:
 125              		.align	2
 126              	.L9:
 127 001c 00E400E0 		.word	-536812544
 128              		.cfi_endproc
 129              	.LFE40:
 130              		.size	LED_ISR_SetPriority, .-LED_ISR_SetPriority
 131              		.section	.text.LED_ISR_GetPriority,"ax",%progbits
 132              		.align	2
 133              		.global	LED_ISR_GetPriority
 134              		.code	16
 135              		.thumb_func
 136              		.type	LED_ISR_GetPriority, %function
ARM GAS  C:\Users\kylep\AppData\Local\Temp\ccsEKc1E.s 			page 8


 137              	LED_ISR_GetPriority:
 138              	.LFB41:
 263:.\Generated_Source\PSoC4/LED_ISR.c **** 
 264:.\Generated_Source\PSoC4/LED_ISR.c **** 
 265:.\Generated_Source\PSoC4/LED_ISR.c **** /*******************************************************************************
 266:.\Generated_Source\PSoC4/LED_ISR.c **** * Function Name: LED_ISR_GetPriority
 267:.\Generated_Source\PSoC4/LED_ISR.c **** ********************************************************************************
 268:.\Generated_Source\PSoC4/LED_ISR.c **** *
 269:.\Generated_Source\PSoC4/LED_ISR.c **** * Summary:
 270:.\Generated_Source\PSoC4/LED_ISR.c **** *   Gets the Priority of the Interrupt.
 271:.\Generated_Source\PSoC4/LED_ISR.c **** *
 272:.\Generated_Source\PSoC4/LED_ISR.c **** * Parameters:
 273:.\Generated_Source\PSoC4/LED_ISR.c **** *   None
 274:.\Generated_Source\PSoC4/LED_ISR.c **** *
 275:.\Generated_Source\PSoC4/LED_ISR.c **** * Return:
 276:.\Generated_Source\PSoC4/LED_ISR.c **** *   Priority of the interrupt, 0 being the highest priority
 277:.\Generated_Source\PSoC4/LED_ISR.c **** *    PSoC 3 and PSoC 5LP: Priority is from 0 to 7.
 278:.\Generated_Source\PSoC4/LED_ISR.c **** *    PSoC 4: Priority is from 0 to 3.
 279:.\Generated_Source\PSoC4/LED_ISR.c **** *
 280:.\Generated_Source\PSoC4/LED_ISR.c **** *******************************************************************************/
 281:.\Generated_Source\PSoC4/LED_ISR.c **** uint8 LED_ISR_GetPriority(void)
 282:.\Generated_Source\PSoC4/LED_ISR.c **** {
 139              		.loc 1 282 0
 140              		.cfi_startproc
 141              	.LVL6:
 283:.\Generated_Source\PSoC4/LED_ISR.c ****     uint32 priority;
 284:.\Generated_Source\PSoC4/LED_ISR.c **** 	uint32 priorityOffset = ((LED_ISR__INTC_NUMBER % 4u) * 8u) + 6u;
 285:.\Generated_Source\PSoC4/LED_ISR.c **** 
 286:.\Generated_Source\PSoC4/LED_ISR.c ****     priority = (*LED_ISR_INTC_PRIOR & LED_ISR__INTC_PRIOR_MASK) >> priorityOffset;
 142              		.loc 1 286 0
 143 0000 014B     		ldr	r3, .L12
 144 0002 1868     		ldr	r0, [r3]
 145              	.LVL7:
 287:.\Generated_Source\PSoC4/LED_ISR.c **** 
 288:.\Generated_Source\PSoC4/LED_ISR.c ****     return (uint8)priority;
 146              		.loc 1 288 0
 147 0004 800F     		lsr	r0, r0, #30
 148              	.LVL8:
 289:.\Generated_Source\PSoC4/LED_ISR.c **** }
 149              		.loc 1 289 0
 150              		@ sp needed
 151 0006 7047     		bx	lr
 152              	.L13:
 153              		.align	2
 154              	.L12:
 155 0008 00E400E0 		.word	-536812544
 156              		.cfi_endproc
 157              	.LFE41:
 158              		.size	LED_ISR_GetPriority, .-LED_ISR_GetPriority
 159              		.section	.text.LED_ISR_Enable,"ax",%progbits
 160              		.align	2
 161              		.global	LED_ISR_Enable
 162              		.code	16
 163              		.thumb_func
 164              		.type	LED_ISR_Enable, %function
 165              	LED_ISR_Enable:
 166              	.LFB42:
ARM GAS  C:\Users\kylep\AppData\Local\Temp\ccsEKc1E.s 			page 9


 290:.\Generated_Source\PSoC4/LED_ISR.c **** 
 291:.\Generated_Source\PSoC4/LED_ISR.c **** 
 292:.\Generated_Source\PSoC4/LED_ISR.c **** /*******************************************************************************
 293:.\Generated_Source\PSoC4/LED_ISR.c **** * Function Name: LED_ISR_Enable
 294:.\Generated_Source\PSoC4/LED_ISR.c **** ********************************************************************************
 295:.\Generated_Source\PSoC4/LED_ISR.c **** *
 296:.\Generated_Source\PSoC4/LED_ISR.c **** * Summary:
 297:.\Generated_Source\PSoC4/LED_ISR.c **** *   Enables the interrupt to the interrupt controller. Do not call this function
 298:.\Generated_Source\PSoC4/LED_ISR.c **** *   unless ISR_Start() has been called or the functionality of the ISR_Start() 
 299:.\Generated_Source\PSoC4/LED_ISR.c **** *   function, which sets the vector and the priority, has been called.
 300:.\Generated_Source\PSoC4/LED_ISR.c **** *
 301:.\Generated_Source\PSoC4/LED_ISR.c **** * Parameters:
 302:.\Generated_Source\PSoC4/LED_ISR.c **** *   None
 303:.\Generated_Source\PSoC4/LED_ISR.c **** *
 304:.\Generated_Source\PSoC4/LED_ISR.c **** * Return:
 305:.\Generated_Source\PSoC4/LED_ISR.c **** *   None
 306:.\Generated_Source\PSoC4/LED_ISR.c **** *
 307:.\Generated_Source\PSoC4/LED_ISR.c **** *******************************************************************************/
 308:.\Generated_Source\PSoC4/LED_ISR.c **** void LED_ISR_Enable(void)
 309:.\Generated_Source\PSoC4/LED_ISR.c **** {
 167              		.loc 1 309 0
 168              		.cfi_startproc
 310:.\Generated_Source\PSoC4/LED_ISR.c ****     /* Enable the general interrupt. */
 311:.\Generated_Source\PSoC4/LED_ISR.c ****     *LED_ISR_INTC_SET_EN = LED_ISR__INTC_MASK;
 169              		.loc 1 311 0
 170 0000 0822     		mov	r2, #8
 171 0002 014B     		ldr	r3, .L15
 172 0004 1A60     		str	r2, [r3]
 312:.\Generated_Source\PSoC4/LED_ISR.c **** }
 173              		.loc 1 312 0
 174              		@ sp needed
 175 0006 7047     		bx	lr
 176              	.L16:
 177              		.align	2
 178              	.L15:
 179 0008 00E100E0 		.word	-536813312
 180              		.cfi_endproc
 181              	.LFE42:
 182              		.size	LED_ISR_Enable, .-LED_ISR_Enable
 183              		.section	.text.LED_ISR_GetState,"ax",%progbits
 184              		.align	2
 185              		.global	LED_ISR_GetState
 186              		.code	16
 187              		.thumb_func
 188              		.type	LED_ISR_GetState, %function
 189              	LED_ISR_GetState:
 190              	.LFB43:
 313:.\Generated_Source\PSoC4/LED_ISR.c **** 
 314:.\Generated_Source\PSoC4/LED_ISR.c **** 
 315:.\Generated_Source\PSoC4/LED_ISR.c **** /*******************************************************************************
 316:.\Generated_Source\PSoC4/LED_ISR.c **** * Function Name: LED_ISR_GetState
 317:.\Generated_Source\PSoC4/LED_ISR.c **** ********************************************************************************
 318:.\Generated_Source\PSoC4/LED_ISR.c **** *
 319:.\Generated_Source\PSoC4/LED_ISR.c **** * Summary:
 320:.\Generated_Source\PSoC4/LED_ISR.c **** *   Gets the state (enabled, disabled) of the Interrupt.
 321:.\Generated_Source\PSoC4/LED_ISR.c **** *
 322:.\Generated_Source\PSoC4/LED_ISR.c **** * Parameters:
ARM GAS  C:\Users\kylep\AppData\Local\Temp\ccsEKc1E.s 			page 10


 323:.\Generated_Source\PSoC4/LED_ISR.c **** *   None
 324:.\Generated_Source\PSoC4/LED_ISR.c **** *
 325:.\Generated_Source\PSoC4/LED_ISR.c **** * Return:
 326:.\Generated_Source\PSoC4/LED_ISR.c **** *   1 if enabled, 0 if disabled.
 327:.\Generated_Source\PSoC4/LED_ISR.c **** *
 328:.\Generated_Source\PSoC4/LED_ISR.c **** *******************************************************************************/
 329:.\Generated_Source\PSoC4/LED_ISR.c **** uint8 LED_ISR_GetState(void)
 330:.\Generated_Source\PSoC4/LED_ISR.c **** {
 191              		.loc 1 330 0
 192              		.cfi_startproc
 331:.\Generated_Source\PSoC4/LED_ISR.c ****     /* Get the state of the general interrupt. */
 332:.\Generated_Source\PSoC4/LED_ISR.c ****     return ((*LED_ISR_INTC_SET_EN & (uint32)LED_ISR__INTC_MASK) != 0u) ? 1u:0u;
 193              		.loc 1 332 0
 194 0000 034B     		ldr	r3, .L20
 195 0002 1B68     		ldr	r3, [r3]
 196 0004 1B07     		lsl	r3, r3, #28
 197 0006 01D5     		bpl	.L19
 198 0008 0120     		mov	r0, #1
 199 000a 00E0     		b	.L18
 200              	.L19:
 201 000c 0020     		mov	r0, #0
 202              	.L18:
 333:.\Generated_Source\PSoC4/LED_ISR.c **** }
 203              		.loc 1 333 0 discriminator 4
 204              		@ sp needed
 205 000e 7047     		bx	lr
 206              	.L21:
 207              		.align	2
 208              	.L20:
 209 0010 00E100E0 		.word	-536813312
 210              		.cfi_endproc
 211              	.LFE43:
 212              		.size	LED_ISR_GetState, .-LED_ISR_GetState
 213              		.section	.text.LED_ISR_Disable,"ax",%progbits
 214              		.align	2
 215              		.global	LED_ISR_Disable
 216              		.code	16
 217              		.thumb_func
 218              		.type	LED_ISR_Disable, %function
 219              	LED_ISR_Disable:
 220              	.LFB44:
 334:.\Generated_Source\PSoC4/LED_ISR.c **** 
 335:.\Generated_Source\PSoC4/LED_ISR.c **** 
 336:.\Generated_Source\PSoC4/LED_ISR.c **** /*******************************************************************************
 337:.\Generated_Source\PSoC4/LED_ISR.c **** * Function Name: LED_ISR_Disable
 338:.\Generated_Source\PSoC4/LED_ISR.c **** ********************************************************************************
 339:.\Generated_Source\PSoC4/LED_ISR.c **** *
 340:.\Generated_Source\PSoC4/LED_ISR.c **** * Summary:
 341:.\Generated_Source\PSoC4/LED_ISR.c **** *   Disables the Interrupt in the interrupt controller.
 342:.\Generated_Source\PSoC4/LED_ISR.c **** *
 343:.\Generated_Source\PSoC4/LED_ISR.c **** * Parameters:
 344:.\Generated_Source\PSoC4/LED_ISR.c **** *   None
 345:.\Generated_Source\PSoC4/LED_ISR.c **** *
 346:.\Generated_Source\PSoC4/LED_ISR.c **** * Return:
 347:.\Generated_Source\PSoC4/LED_ISR.c **** *   None
 348:.\Generated_Source\PSoC4/LED_ISR.c **** *
 349:.\Generated_Source\PSoC4/LED_ISR.c **** *******************************************************************************/
ARM GAS  C:\Users\kylep\AppData\Local\Temp\ccsEKc1E.s 			page 11


 350:.\Generated_Source\PSoC4/LED_ISR.c **** void LED_ISR_Disable(void)
 351:.\Generated_Source\PSoC4/LED_ISR.c **** {
 221              		.loc 1 351 0
 222              		.cfi_startproc
 352:.\Generated_Source\PSoC4/LED_ISR.c ****     /* Disable the general interrupt. */
 353:.\Generated_Source\PSoC4/LED_ISR.c ****     *LED_ISR_INTC_CLR_EN = LED_ISR__INTC_MASK;
 223              		.loc 1 353 0
 224 0000 0822     		mov	r2, #8
 225 0002 014B     		ldr	r3, .L23
 226 0004 1A60     		str	r2, [r3]
 354:.\Generated_Source\PSoC4/LED_ISR.c **** }
 227              		.loc 1 354 0
 228              		@ sp needed
 229 0006 7047     		bx	lr
 230              	.L24:
 231              		.align	2
 232              	.L23:
 233 0008 80E100E0 		.word	-536813184
 234              		.cfi_endproc
 235              	.LFE44:
 236              		.size	LED_ISR_Disable, .-LED_ISR_Disable
 237              		.section	.text.LED_ISR_Start,"ax",%progbits
 238              		.align	2
 239              		.global	LED_ISR_Start
 240              		.code	16
 241              		.thumb_func
 242              		.type	LED_ISR_Start, %function
 243              	LED_ISR_Start:
 244              	.LFB34:
  59:.\Generated_Source\PSoC4/LED_ISR.c ****     /* For all we know the interrupt is active. */
 245              		.loc 1 59 0
 246              		.cfi_startproc
 247 0000 08B5     		push	{r3, lr}
 248              		.cfi_def_cfa_offset 8
 249              		.cfi_offset 3, -8
 250              		.cfi_offset 14, -4
  61:.\Generated_Source\PSoC4/LED_ISR.c **** 
 251              		.loc 1 61 0
 252 0002 FFF7FEFF 		bl	LED_ISR_Disable
 253              	.LVL9:
  64:.\Generated_Source\PSoC4/LED_ISR.c **** 
 254              		.loc 1 64 0
 255 0006 0448     		ldr	r0, .L26
 256 0008 FFF7FEFF 		bl	LED_ISR_SetVector
 257              	.LVL10:
  67:.\Generated_Source\PSoC4/LED_ISR.c **** 
 258              		.loc 1 67 0
 259 000c 0320     		mov	r0, #3
 260 000e FFF7FEFF 		bl	LED_ISR_SetPriority
 261              	.LVL11:
  70:.\Generated_Source\PSoC4/LED_ISR.c **** }
 262              		.loc 1 70 0
 263 0012 FFF7FEFF 		bl	LED_ISR_Enable
 264              	.LVL12:
  71:.\Generated_Source\PSoC4/LED_ISR.c **** 
 265              		.loc 1 71 0
 266              		@ sp needed
ARM GAS  C:\Users\kylep\AppData\Local\Temp\ccsEKc1E.s 			page 12


 267 0016 08BD     		pop	{r3, pc}
 268              	.L27:
 269              		.align	2
 270              	.L26:
 271 0018 00000000 		.word	LED_ISR_Interrupt
 272              		.cfi_endproc
 273              	.LFE34:
 274              		.size	LED_ISR_Start, .-LED_ISR_Start
 275              		.section	.text.LED_ISR_StartEx,"ax",%progbits
 276              		.align	2
 277              		.global	LED_ISR_StartEx
 278              		.code	16
 279              		.thumb_func
 280              		.type	LED_ISR_StartEx, %function
 281              	LED_ISR_StartEx:
 282              	.LFB35:
 102:.\Generated_Source\PSoC4/LED_ISR.c ****     /* For all we know the interrupt is active. */
 283              		.loc 1 102 0
 284              		.cfi_startproc
 285              	.LVL13:
 286 0000 10B5     		push	{r4, lr}
 287              		.cfi_def_cfa_offset 8
 288              		.cfi_offset 4, -8
 289              		.cfi_offset 14, -4
 290 0002 041C     		mov	r4, r0
 104:.\Generated_Source\PSoC4/LED_ISR.c **** 
 291              		.loc 1 104 0
 292 0004 FFF7FEFF 		bl	LED_ISR_Disable
 293              	.LVL14:
 107:.\Generated_Source\PSoC4/LED_ISR.c **** 
 294              		.loc 1 107 0
 295 0008 201C     		mov	r0, r4
 296 000a FFF7FEFF 		bl	LED_ISR_SetVector
 297              	.LVL15:
 110:.\Generated_Source\PSoC4/LED_ISR.c **** 
 298              		.loc 1 110 0
 299 000e 0320     		mov	r0, #3
 300 0010 FFF7FEFF 		bl	LED_ISR_SetPriority
 301              	.LVL16:
 113:.\Generated_Source\PSoC4/LED_ISR.c **** }
 302              		.loc 1 113 0
 303 0014 FFF7FEFF 		bl	LED_ISR_Enable
 304              	.LVL17:
 114:.\Generated_Source\PSoC4/LED_ISR.c **** 
 305              		.loc 1 114 0
 306              		@ sp needed
 307              	.LVL18:
 308 0018 10BD     		pop	{r4, pc}
 309              		.cfi_endproc
 310              	.LFE35:
 311              		.size	LED_ISR_StartEx, .-LED_ISR_StartEx
 312 001a C046     		.section	.text.LED_ISR_Stop,"ax",%progbits
 313              		.align	2
 314              		.global	LED_ISR_Stop
 315              		.code	16
 316              		.thumb_func
 317              		.type	LED_ISR_Stop, %function
ARM GAS  C:\Users\kylep\AppData\Local\Temp\ccsEKc1E.s 			page 13


 318              	LED_ISR_Stop:
 319              	.LFB36:
 132:.\Generated_Source\PSoC4/LED_ISR.c ****     /* Disable this interrupt. */
 320              		.loc 1 132 0
 321              		.cfi_startproc
 322 0000 08B5     		push	{r3, lr}
 323              		.cfi_def_cfa_offset 8
 324              		.cfi_offset 3, -8
 325              		.cfi_offset 14, -4
 134:.\Generated_Source\PSoC4/LED_ISR.c **** 
 326              		.loc 1 134 0
 327 0002 FFF7FEFF 		bl	LED_ISR_Disable
 328              	.LVL19:
 137:.\Generated_Source\PSoC4/LED_ISR.c **** }
 329              		.loc 1 137 0
 330 0006 0248     		ldr	r0, .L30
 331 0008 FFF7FEFF 		bl	LED_ISR_SetVector
 332              	.LVL20:
 138:.\Generated_Source\PSoC4/LED_ISR.c **** 
 333              		.loc 1 138 0
 334              		@ sp needed
 335 000c 08BD     		pop	{r3, pc}
 336              	.L31:
 337 000e C046     		.align	2
 338              	.L30:
 339 0010 00000000 		.word	IntDefaultHandler
 340              		.cfi_endproc
 341              	.LFE36:
 342              		.size	LED_ISR_Stop, .-LED_ISR_Stop
 343              		.section	.text.LED_ISR_SetPending,"ax",%progbits
 344              		.align	2
 345              		.global	LED_ISR_SetPending
 346              		.code	16
 347              		.thumb_func
 348              		.type	LED_ISR_SetPending, %function
 349              	LED_ISR_SetPending:
 350              	.LFB45:
 355:.\Generated_Source\PSoC4/LED_ISR.c **** 
 356:.\Generated_Source\PSoC4/LED_ISR.c **** 
 357:.\Generated_Source\PSoC4/LED_ISR.c **** /*******************************************************************************
 358:.\Generated_Source\PSoC4/LED_ISR.c **** * Function Name: LED_ISR_SetPending
 359:.\Generated_Source\PSoC4/LED_ISR.c **** ********************************************************************************
 360:.\Generated_Source\PSoC4/LED_ISR.c **** *
 361:.\Generated_Source\PSoC4/LED_ISR.c **** * Summary:
 362:.\Generated_Source\PSoC4/LED_ISR.c **** *   Causes the Interrupt to enter the pending state, a software method of
 363:.\Generated_Source\PSoC4/LED_ISR.c **** *   generating the interrupt.
 364:.\Generated_Source\PSoC4/LED_ISR.c **** *
 365:.\Generated_Source\PSoC4/LED_ISR.c **** * Parameters:
 366:.\Generated_Source\PSoC4/LED_ISR.c **** *   None
 367:.\Generated_Source\PSoC4/LED_ISR.c **** *
 368:.\Generated_Source\PSoC4/LED_ISR.c **** * Return:
 369:.\Generated_Source\PSoC4/LED_ISR.c **** *   None
 370:.\Generated_Source\PSoC4/LED_ISR.c **** *
 371:.\Generated_Source\PSoC4/LED_ISR.c **** * Side Effects:
 372:.\Generated_Source\PSoC4/LED_ISR.c **** *   If interrupts are enabled and the interrupt is set up properly, the ISR is
 373:.\Generated_Source\PSoC4/LED_ISR.c **** *   entered (depending on the priority of this interrupt and other pending 
 374:.\Generated_Source\PSoC4/LED_ISR.c **** *   interrupts).
ARM GAS  C:\Users\kylep\AppData\Local\Temp\ccsEKc1E.s 			page 14


 375:.\Generated_Source\PSoC4/LED_ISR.c **** *
 376:.\Generated_Source\PSoC4/LED_ISR.c **** *******************************************************************************/
 377:.\Generated_Source\PSoC4/LED_ISR.c **** void LED_ISR_SetPending(void)
 378:.\Generated_Source\PSoC4/LED_ISR.c **** {
 351              		.loc 1 378 0
 352              		.cfi_startproc
 379:.\Generated_Source\PSoC4/LED_ISR.c ****     *LED_ISR_INTC_SET_PD = LED_ISR__INTC_MASK;
 353              		.loc 1 379 0
 354 0000 0822     		mov	r2, #8
 355 0002 014B     		ldr	r3, .L33
 356 0004 1A60     		str	r2, [r3]
 380:.\Generated_Source\PSoC4/LED_ISR.c **** }
 357              		.loc 1 380 0
 358              		@ sp needed
 359 0006 7047     		bx	lr
 360              	.L34:
 361              		.align	2
 362              	.L33:
 363 0008 00E200E0 		.word	-536813056
 364              		.cfi_endproc
 365              	.LFE45:
 366              		.size	LED_ISR_SetPending, .-LED_ISR_SetPending
 367              		.section	.text.LED_ISR_ClearPending,"ax",%progbits
 368              		.align	2
 369              		.global	LED_ISR_ClearPending
 370              		.code	16
 371              		.thumb_func
 372              		.type	LED_ISR_ClearPending, %function
 373              	LED_ISR_ClearPending:
 374              	.LFB46:
 381:.\Generated_Source\PSoC4/LED_ISR.c **** 
 382:.\Generated_Source\PSoC4/LED_ISR.c **** 
 383:.\Generated_Source\PSoC4/LED_ISR.c **** /*******************************************************************************
 384:.\Generated_Source\PSoC4/LED_ISR.c **** * Function Name: LED_ISR_ClearPending
 385:.\Generated_Source\PSoC4/LED_ISR.c **** ********************************************************************************
 386:.\Generated_Source\PSoC4/LED_ISR.c **** *
 387:.\Generated_Source\PSoC4/LED_ISR.c **** * Summary:
 388:.\Generated_Source\PSoC4/LED_ISR.c **** *   Clears a pending interrupt in the interrupt controller.
 389:.\Generated_Source\PSoC4/LED_ISR.c **** *
 390:.\Generated_Source\PSoC4/LED_ISR.c **** *   Note Some interrupt sources are clear-on-read and require the block 
 391:.\Generated_Source\PSoC4/LED_ISR.c **** *   interrupt/status register to be read/cleared with the appropriate block API 
 392:.\Generated_Source\PSoC4/LED_ISR.c **** *   (GPIO, UART, and so on). Otherwise the ISR will continue to remain in 
 393:.\Generated_Source\PSoC4/LED_ISR.c **** *   pending state even though the interrupt itself is cleared using this API.
 394:.\Generated_Source\PSoC4/LED_ISR.c **** *
 395:.\Generated_Source\PSoC4/LED_ISR.c **** * Parameters:
 396:.\Generated_Source\PSoC4/LED_ISR.c **** *   None
 397:.\Generated_Source\PSoC4/LED_ISR.c **** *
 398:.\Generated_Source\PSoC4/LED_ISR.c **** * Return:
 399:.\Generated_Source\PSoC4/LED_ISR.c **** *   None
 400:.\Generated_Source\PSoC4/LED_ISR.c **** *
 401:.\Generated_Source\PSoC4/LED_ISR.c **** *******************************************************************************/
 402:.\Generated_Source\PSoC4/LED_ISR.c **** void LED_ISR_ClearPending(void)
 403:.\Generated_Source\PSoC4/LED_ISR.c **** {
 375              		.loc 1 403 0
 376              		.cfi_startproc
 404:.\Generated_Source\PSoC4/LED_ISR.c ****     *LED_ISR_INTC_CLR_PD = LED_ISR__INTC_MASK;
 377              		.loc 1 404 0
ARM GAS  C:\Users\kylep\AppData\Local\Temp\ccsEKc1E.s 			page 15


 378 0000 0822     		mov	r2, #8
 379 0002 014B     		ldr	r3, .L36
 380 0004 1A60     		str	r2, [r3]
 405:.\Generated_Source\PSoC4/LED_ISR.c **** }
 381              		.loc 1 405 0
 382              		@ sp needed
 383 0006 7047     		bx	lr
 384              	.L37:
 385              		.align	2
 386              	.L36:
 387 0008 80E200E0 		.word	-536812928
 388              		.cfi_endproc
 389              	.LFE46:
 390              		.size	LED_ISR_ClearPending, .-LED_ISR_ClearPending
 391              		.text
 392              	.Letext0:
 393              		.file 2 "Generated_Source\\PSoC4/cytypes.h"
 394              		.file 3 "./DriverControl.h"
 395              		.file 4 "Generated_Source\\PSoC4/CyLib.h"