ARM GAS  C:\Users\kylep\AppData\Local\Temp\cc4c7iKf.s 			page 1


   1              		.cpu cortex-m0
   2              		.fpu softvfp
   3              		.eabi_attribute 20, 1
   4              		.eabi_attribute 21, 1
   5              		.eabi_attribute 23, 3
   6              		.eabi_attribute 24, 1
   7              		.eabi_attribute 25, 1
   8              		.eabi_attribute 26, 1
   9              		.eabi_attribute 30, 1
  10              		.eabi_attribute 34, 0
  11              		.eabi_attribute 18, 4
  12              		.code	16
  13              		.file	"main.c"
  14              		.text
  15              	.Ltext0:
  16              		.cfi_sections	.debug_frame
  17              		.section	.text.initializePeripherals,"ax",%progbits
  18              		.align	2
  19              		.code	16
  20              		.thumb_func
  21              		.type	initializePeripherals, %function
  22              	initializePeripherals:
  23              	.LFB38:
  24              		.file 1 ".\\main.c"
   1:.\main.c      **** /* ========================================
   2:.\main.c      ****  *
   3:.\main.c      ****  * Copyright YOUR COMPANY, THE YEAR
   4:.\main.c      ****  * All Rights Reserved
   5:.\main.c      ****  * UNPUBLISHED, LICENSED SOFTWARE.
   6:.\main.c      ****  *
   7:.\main.c      ****  * CONFIDENTIAL AND PROPRIETARY INFORMATION
   8:.\main.c      ****  * WHICH IS THE PROPERTY OF your company.
   9:.\main.c      ****  *
  10:.\main.c      ****  * ========================================
  11:.\main.c      **** */
  12:.\main.c      **** /**********CHANGE LOG**********/
  13:.\main.c      **** 
  14:.\main.c      **** 
  15:.\main.c      **** /**********PREPROCESSOR DIRECTIVES**********/
  16:.\main.c      **** #include "CommonVariables.h"
  17:.\main.c      **** #include "BrightnessCommManager.h"
  18:.\main.c      **** #include "TemperatureCommManager.h"
  19:.\main.c      **** #include "DriverControl.h"
  20:.\main.c      **** #include "motorControl.h"
  21:.\main.c      ****     
  22:.\main.c      **** /**********DEFINED CONSTANTS**********/
  23:.\main.c      ****     
  24:.\main.c      **** 
  25:.\main.c      **** /**********DATA STRUCTURES**********/
  26:.\main.c      **** 
  27:.\main.c      **** 
  28:.\main.c      **** /**********GLOBAL VARIABLES**********/
  29:.\main.c      **** static const uint8 CYCODE eepromBrightnessMotorPosition[5] = {0xFF, 0x00, 0x00, 0x00,0x00};   //Bri
  30:.\main.c      **** static uint8 ramBrightnessMotorPosition[5] ={0x00,0x00,0x00,0x00,00};
  31:.\main.c      **** static const uint8 bSetInitializedAlready = 1;
  32:.\main.c      **** static uint8 beepromCountAlreadyReset = 0;
  33:.\main.c      **** static const uint8 *peepromMemory;
ARM GAS  C:\Users\kylep\AppData\Local\Temp\cc4c7iKf.s 			page 2


  34:.\main.c      **** extern MotorIO *pMotor;
  35:.\main.c      **** /**********LOCAL FUNCTION PROTOTYPES**********/
  36:.\main.c      **** static void initializePeripherals(void);
  37:.\main.c      **** /**********DEFINED GLOBAL FUNCTIONS**********/
  38:.\main.c      **** 
  39:.\main.c      **** /*******************************************************************************
  40:.\main.c      **** * Function Name: main
  41:.\main.c      **** ********************************************************************************
  42:.\main.c      **** *
  43:.\main.c      **** * Summary:
  44:.\main.c      **** *  Start of program
  45:.\main.c      **** *
  46:.\main.c      **** * Parameters:
  47:.\main.c      **** *  None.
  48:.\main.c      **** *
  49:.\main.c      **** * Return:
  50:.\main.c      **** *  Never returns.
  51:.\main.c      **** *
  52:.\main.c      **** *******************************************************************************/
  53:.\main.c      **** int main()
  54:.\main.c      **** {   
  55:.\main.c      ****     {
  56:.\main.c      ****     CyGlobalIntEnable;
  57:.\main.c      ****     initializePeripherals();
  58:.\main.c      ****     
  59:.\main.c      ****      if(*(volatile uint8 *) &eepromBrightnessMotorPosition[3] == 0)
  60:.\main.c      ****     {
  61:.\main.c      ****         calibrateMotor();
  62:.\main.c      ****         ramBrightnessMotorPosition[3] = 1;
  63:.\main.c      ****         ramBrightnessMotorPosition[2] = 0;
  64:.\main.c      ****         ramBrightnessMotorPosition[1] = 0xFF;
  65:.\main.c      ****         ramBrightnessMotorPosition[4] = pMotor->forwardLimitCS;
  66:.\main.c      ****         EmEEPROM_Write(&ramBrightnessMotorPosition[1],&eepromBrightnessMotorPosition[1],4);
  67:.\main.c      ****     }
  68:.\main.c      ****     else
  69:.\main.c      ****     {
  70:.\main.c      ****         loadLimitSwitchValue();
  71:.\main.c      ****     }
  72:.\main.c      ****     
  73:.\main.c      ****     //#if(HEAD_BOARD)
  74:.\main.c      ****     //        CyDelay(200);
  75:.\main.c      ****     //    #else
  76:.\main.c      ****     //        CyDelay(50);  
  77:.\main.c      ****     //#endif
  78:.\main.c      ****     /*
  79:.\main.c      ****     if(*(volatile uint8 *) &eepromBrightnessMotorPosition[3] == 0)
  80:.\main.c      ****     {
  81:.\main.c      ****         
  82:.\main.c      ****         UART_LED_Control_Write(TRUE);
  83:.\main.c      ****         
  84:.\main.c      ****         #if(HEAD_BOARD)
  85:.\main.c      ****             CyDelay(2000);
  86:.\main.c      ****         #else
  87:.\main.c      ****             CyDelay(50);  
  88:.\main.c      ****         #endif
  89:.\main.c      **** 
  90:.\main.c      ****         #if(HEAD_BOARD)
ARM GAS  C:\Users\kylep\AppData\Local\Temp\cc4c7iKf.s 			page 3


  91:.\main.c      ****             setIdentityByComm(HEAD_MODULE_ID);
  92:.\main.c      ****             assignDriverIDs();
  93:.\main.c      ****             setDriverCountReceived();
  94:.\main.c      ****         #endif
  95:.\main.c      ****         
  96:.\main.c      ****         while(!isDriverCountReceived())
  97:.\main.c      ****         {
  98:.\main.c      ****         } 
  99:.\main.c      ****         
 100:.\main.c      ****         ramBrightnessMotorPosition[3] = 1;
 101:.\main.c      ****         ramBrightnessMotorPosition[2] = getDriverID();
 102:.\main.c      ****         EmEEPROM_Write(&ramBrightnessMotorPosition[2],&eepromBrightnessMotorPosition[2],2);
 103:.\main.c      ****     }
 104:.\main.c      ****     */
 105:.\main.c      ****     //else
 106:.\main.c      ****     {
 107:.\main.c      ****         //peepromMemory = &eepromBrightnessMotorPosition[2];
 108:.\main.c      ****         setIdentityByComm(HEAD_MODULE_ID);
 109:.\main.c      ****         if(getDriverID()==HEAD_MODULE_ID)
 110:.\main.c      ****         {
 111:.\main.c      ****             //UART_LED_Control_Write(TRUE);
 112:.\main.c      ****         }
 113:.\main.c      ****         else
 114:.\main.c      ****         {
 115:.\main.c      ****             //UART_LED_Control_Write(FALSE);
 116:.\main.c      ****         }
 117:.\main.c      ****     }
 118:.\main.c      ****     }    
 119:.\main.c      **** 
 120:.\main.c      ****     for(;;)
 121:.\main.c      ****     {
 122:.\main.c      ****        //PWM_Enable_Write(TRUE);
 123:.\main.c      ****        //PWM_WriteCompare(0xFF);
 124:.\main.c      ****         
 125:.\main.c      ****         //setMotorOutputs(FORWARD,0xFF);
 126:.\main.c      ****         //CyDelay(5000);
 127:.\main.c      ****         //setMotorOutputs(BACKWARDS,0xFF);
 128:.\main.c      ****         //CyDelay(5000);
 129:.\main.c      ****         timeOutStateMachine(&eepromBrightnessMotorPosition[0]);
 130:.\main.c      ****         motorControlLoop(0);
 131:.\main.c      ****     }
 132:.\main.c      **** }
 133:.\main.c      **** 
 134:.\main.c      **** /**********DEFINED GLOBAL FUNCTIONS**********/
 135:.\main.c      **** 
 136:.\main.c      **** /*******************************************************************************
 137:.\main.c      **** * Function Name: initializePeripherals
 138:.\main.c      **** ********************************************************************************
 139:.\main.c      **** *
 140:.\main.c      **** * Summary:
 141:.\main.c      **** *  Sets up all peripherals needed for the project.
 142:.\main.c      **** *
 143:.\main.c      **** * Parameters:
 144:.\main.c      **** *  None.
 145:.\main.c      **** *
 146:.\main.c      **** * Return:
 147:.\main.c      **** *  None.
ARM GAS  C:\Users\kylep\AppData\Local\Temp\cc4c7iKf.s 			page 4


 148:.\main.c      **** *
 149:.\main.c      **** *******************************************************************************/
 150:.\main.c      **** 
 151:.\main.c      **** void clearInitializeAlreadyEEPROM(void)
 152:.\main.c      **** {
 153:.\main.c      ****     static const uint8 detectedAlready = 0;
 154:.\main.c      ****     //if(beepromCountAlreadyReset == 0)
 155:.\main.c      ****     //{
 156:.\main.c      ****         beepromCountAlreadyReset =1;
 157:.\main.c      ****         EmEEPROM_Write(&detectedAlready,&eepromBrightnessMotorPosition[3],1);
 158:.\main.c      ****     //}
 159:.\main.c      **** }
 160:.\main.c      **** 
 161:.\main.c      **** const uint8 * getNonVolatileBarStateMemory(void)
 162:.\main.c      **** {
 163:.\main.c      ****     return &eepromBrightnessMotorPosition[0];
 164:.\main.c      **** }
 165:.\main.c      **** 
 166:.\main.c      **** uint8 * getVolatileBarStateMemory(void)
 167:.\main.c      **** {
 168:.\main.c      ****     return &ramBrightnessMotorPosition[0];
 169:.\main.c      **** }
 170:.\main.c      **** 
 171:.\main.c      **** /**********DEFINED LOCAL FUNCTIONS**********/
 172:.\main.c      **** 
 173:.\main.c      **** static void initializePeripherals(void)
 174:.\main.c      **** {
  25              		.loc 1 174 0
  26              		.cfi_startproc
  27 0000 08B5     		push	{r3, lr}
  28              		.cfi_def_cfa_offset 8
  29              		.cfi_offset 3, -8
  30              		.cfi_offset 14, -4
 175:.\main.c      ****     //UART_LED_Control_Write(TRUE);
 176:.\main.c      ****     PWM_Enable_Write(FALSE);
  31              		.loc 1 176 0
  32 0002 0020     		mov	r0, #0
  33 0004 FFF7FEFF 		bl	PWM_Enable_Write
  34              	.LVL0:
 177:.\main.c      ****     
 178:.\main.c      ****     PWM_Start();
  35              		.loc 1 178 0
  36 0008 FFF7FEFF 		bl	PWM_Start
  37              	.LVL1:
 179:.\main.c      ****     PWM_WriteCompare(0);
  38              		.loc 1 179 0
  39 000c 0020     		mov	r0, #0
  40 000e FFF7FEFF 		bl	PWM_WriteCompare
  41              	.LVL2:
 180:.\main.c      **** 
 181:.\main.c      ****     CommTimeoutISR_Start();
  42              		.loc 1 181 0
  43 0012 FFF7FEFF 		bl	CommTimeoutISR_Start
  44              	.LVL3:
 182:.\main.c      ****     AckTimeoutISR_Start();
  45              		.loc 1 182 0
  46 0016 FFF7FEFF 		bl	AckTimeoutISR_Start
ARM GAS  C:\Users\kylep\AppData\Local\Temp\cc4c7iKf.s 			page 5


  47              	.LVL4:
 183:.\main.c      ****     
 184:.\main.c      ****     SamplingTimerISR_Start();
  48              		.loc 1 184 0
  49 001a FFF7FEFF 		bl	SamplingTimerISR_Start
  50              	.LVL5:
 185:.\main.c      ****     ADC_SAR_Seq_Start();
  51              		.loc 1 185 0
  52 001e FFF7FEFF 		bl	ADC_SAR_Seq_Start
  53              	.LVL6:
 186:.\main.c      ****     ADC_SAR_Seq_StartConvert();
  54              		.loc 1 186 0
  55 0022 FFF7FEFF 		bl	ADC_SAR_Seq_StartConvert
  56              	.LVL7:
 187:.\main.c      ****     
 188:.\main.c      ****     UART_LED_ISR_Start();
  57              		.loc 1 188 0
  58 0026 FFF7FEFF 		bl	UART_LED_ISR_Start
  59              	.LVL8:
 189:.\main.c      ****     UART_LED_Start();
  60              		.loc 1 189 0
  61 002a FFF7FEFF 		bl	UART_LED_Start
  62              	.LVL9:
 190:.\main.c      ****     
 191:.\main.c      ****     //UART_LED_ISR_Start();
 192:.\main.c      ****     
 193:.\main.c      ****     //UART_LED_Start();
 194:.\main.c      ****     //WakeupISR_Start();
 195:.\main.c      ****     
 196:.\main.c      ****     LED_ISR_Start(); 
  63              		.loc 1 196 0
  64 002e FFF7FEFF 		bl	LED_ISR_Start
  65              	.LVL10:
 197:.\main.c      ****     
 198:.\main.c      ****     SamplingTimer_Start();
  66              		.loc 1 198 0
  67 0032 FFF7FEFF 		bl	SamplingTimer_Start
  68              	.LVL11:
 199:.\main.c      ****     TimeoutTimer_Start();
  69              		.loc 1 199 0
  70 0036 FFF7FEFF 		bl	TimeoutTimer_Start
  71              	.LVL12:
 200:.\main.c      ****     
 201:.\main.c      ****     EmEEPROM_Start();
  72              		.loc 1 201 0
  73 003a FFF7FEFF 		bl	EmEEPROM_Start
  74              	.LVL13:
 202:.\main.c      ****     
 203:.\main.c      ****     initializeMotor();
  75              		.loc 1 203 0
  76 003e FFF7FEFF 		bl	initializeMotor
  77              	.LVL14:
 204:.\main.c      ****     //CyDelay(250);
 205:.\main.c      ****     //LED_Output_Write(FALSE);
 206:.\main.c      ****     //UART_LED_Control_Write(FALSE);
 207:.\main.c      **** }
  78              		.loc 1 207 0
ARM GAS  C:\Users\kylep\AppData\Local\Temp\cc4c7iKf.s 			page 6


  79              		@ sp needed
  80 0042 08BD     		pop	{r3, pc}
  81              		.cfi_endproc
  82              	.LFE38:
  83              		.size	initializePeripherals, .-initializePeripherals
  84              		.section	.text.main,"ax",%progbits
  85              		.align	2
  86              		.global	main
  87              		.code	16
  88              		.thumb_func
  89              		.type	main, %function
  90              	main:
  91              	.LFB34:
  54:.\main.c      ****     {
  92              		.loc 1 54 0
  93              		.cfi_startproc
  94 0000 08B5     		push	{r3, lr}
  95              		.cfi_def_cfa_offset 8
  96              		.cfi_offset 3, -8
  97              		.cfi_offset 14, -4
  56:.\main.c      ****     initializePeripherals();
  98              		.loc 1 56 0
  99              	@ 56 ".\main.c" 1
 100 0002 62B6     		CPSIE   i
 101              	@ 0 "" 2
  57:.\main.c      ****     
 102              		.loc 1 57 0
 103              		.code	16
 104 0004 FFF7FEFF 		bl	initializePeripherals
 105              	.LVL15:
  59:.\main.c      ****     {
 106              		.loc 1 59 0
 107 0008 124B     		ldr	r3, .L6
 108 000a DB78     		ldrb	r3, [r3, #3]
 109 000c 002B     		cmp	r3, #0
 110 000e 13D1     		bne	.L3
  61:.\main.c      ****         ramBrightnessMotorPosition[3] = 1;
 111              		.loc 1 61 0
 112 0010 FFF7FEFF 		bl	calibrateMotor
 113              	.LVL16:
  62:.\main.c      ****         ramBrightnessMotorPosition[2] = 0;
 114              		.loc 1 62 0
 115 0014 1048     		ldr	r0, .L6+4
 116 0016 0123     		mov	r3, #1
 117 0018 C370     		strb	r3, [r0, #3]
  63:.\main.c      ****         ramBrightnessMotorPosition[1] = 0xFF;
 118              		.loc 1 63 0
 119 001a 0023     		mov	r3, #0
 120 001c 8370     		strb	r3, [r0, #2]
  64:.\main.c      ****         ramBrightnessMotorPosition[4] = pMotor->forwardLimitCS;
 121              		.loc 1 64 0
 122 001e FF33     		add	r3, r3, #255
 123 0020 4370     		strb	r3, [r0, #1]
  65:.\main.c      ****         EmEEPROM_Write(&ramBrightnessMotorPosition[1],&eepromBrightnessMotorPosition[1],4);
 124              		.loc 1 65 0
 125 0022 0E4B     		ldr	r3, .L6+8
 126 0024 1B68     		ldr	r3, [r3]
ARM GAS  C:\Users\kylep\AppData\Local\Temp\cc4c7iKf.s 			page 7


 127 0026 5B88     		ldrh	r3, [r3, #2]
 128 0028 0371     		strb	r3, [r0, #4]
  66:.\main.c      ****     }
 129              		.loc 1 66 0
 130 002a 0130     		add	r0, r0, #1
 131 002c 0949     		ldr	r1, .L6
 132 002e 0131     		add	r1, r1, #1
 133 0030 0422     		mov	r2, #4
 134 0032 FFF7FEFF 		bl	EmEEPROM_Write
 135              	.LVL17:
 136 0036 01E0     		b	.L4
 137              	.L3:
  70:.\main.c      ****     }
 138              		.loc 1 70 0
 139 0038 FFF7FEFF 		bl	loadLimitSwitchValue
 140              	.LVL18:
 141              	.L4:
 108:.\main.c      ****         if(getDriverID()==HEAD_MODULE_ID)
 142              		.loc 1 108 0
 143 003c 0120     		mov	r0, #1
 144 003e FFF7FEFF 		bl	setIdentityByComm
 145              	.LVL19:
 109:.\main.c      ****         {
 146              		.loc 1 109 0
 147 0042 FFF7FEFF 		bl	getDriverID
 148              	.LVL20:
 149              	.L5:
 129:.\main.c      ****         motorControlLoop(0);
 150              		.loc 1 129 0 discriminator 1
 151 0046 0348     		ldr	r0, .L6
 152 0048 FFF7FEFF 		bl	timeOutStateMachine
 153              	.LVL21:
 130:.\main.c      ****     }
 154              		.loc 1 130 0 discriminator 1
 155 004c 0020     		mov	r0, #0
 156 004e FFF7FEFF 		bl	motorControlLoop
 157              	.LVL22:
 131:.\main.c      **** }
 158              		.loc 1 131 0 discriminator 1
 159 0052 F8E7     		b	.L5
 160              	.L7:
 161              		.align	2
 162              	.L6:
 163 0054 00000000 		.word	.LANCHOR0
 164 0058 00000000 		.word	.LANCHOR1
 165 005c 00000000 		.word	pMotor
 166              		.cfi_endproc
 167              	.LFE34:
 168              		.size	main, .-main
 169              		.section	.text.clearInitializeAlreadyEEPROM,"ax",%progbits
 170              		.align	2
 171              		.global	clearInitializeAlreadyEEPROM
 172              		.code	16
 173              		.thumb_func
 174              		.type	clearInitializeAlreadyEEPROM, %function
 175              	clearInitializeAlreadyEEPROM:
 176              	.LFB35:
ARM GAS  C:\Users\kylep\AppData\Local\Temp\cc4c7iKf.s 			page 8


 152:.\main.c      ****     static const uint8 detectedAlready = 0;
 177              		.loc 1 152 0
 178              		.cfi_startproc
 179 0000 08B5     		push	{r3, lr}
 180              		.cfi_def_cfa_offset 8
 181              		.cfi_offset 3, -8
 182              		.cfi_offset 14, -4
 156:.\main.c      ****         EmEEPROM_Write(&detectedAlready,&eepromBrightnessMotorPosition[3],1);
 183              		.loc 1 156 0
 184 0002 0122     		mov	r2, #1
 185 0004 034B     		ldr	r3, .L9
 186 0006 5A71     		strb	r2, [r3, #5]
 157:.\main.c      ****     //}
 187              		.loc 1 157 0
 188 0008 0349     		ldr	r1, .L9+4
 189 000a 481D     		add	r0, r1, #5
 190 000c 0331     		add	r1, r1, #3
 191 000e FFF7FEFF 		bl	EmEEPROM_Write
 192              	.LVL23:
 159:.\main.c      **** 
 193              		.loc 1 159 0
 194              		@ sp needed
 195 0012 08BD     		pop	{r3, pc}
 196              	.L10:
 197              		.align	2
 198              	.L9:
 199 0014 00000000 		.word	.LANCHOR1
 200 0018 00000000 		.word	.LANCHOR0
 201              		.cfi_endproc
 202              	.LFE35:
 203              		.size	clearInitializeAlreadyEEPROM, .-clearInitializeAlreadyEEPROM
 204              		.section	.text.getNonVolatileBarStateMemory,"ax",%progbits
 205              		.align	2
 206              		.global	getNonVolatileBarStateMemory
 207              		.code	16
 208              		.thumb_func
 209              		.type	getNonVolatileBarStateMemory, %function
 210              	getNonVolatileBarStateMemory:
 211              	.LFB36:
 162:.\main.c      ****     return &eepromBrightnessMotorPosition[0];
 212              		.loc 1 162 0
 213              		.cfi_startproc
 164:.\main.c      **** 
 214              		.loc 1 164 0
 215 0000 0048     		ldr	r0, .L12
 216              		@ sp needed
 217 0002 7047     		bx	lr
 218              	.L13:
 219              		.align	2
 220              	.L12:
 221 0004 00000000 		.word	.LANCHOR0
 222              		.cfi_endproc
 223              	.LFE36:
 224              		.size	getNonVolatileBarStateMemory, .-getNonVolatileBarStateMemory
 225              		.section	.text.getVolatileBarStateMemory,"ax",%progbits
 226              		.align	2
 227              		.global	getVolatileBarStateMemory
ARM GAS  C:\Users\kylep\AppData\Local\Temp\cc4c7iKf.s 			page 9


 228              		.code	16
 229              		.thumb_func
 230              		.type	getVolatileBarStateMemory, %function
 231              	getVolatileBarStateMemory:
 232              	.LFB37:
 167:.\main.c      ****     return &ramBrightnessMotorPosition[0];
 233              		.loc 1 167 0
 234              		.cfi_startproc
 169:.\main.c      **** 
 235              		.loc 1 169 0
 236 0000 0048     		ldr	r0, .L15
 237              		@ sp needed
 238 0002 7047     		bx	lr
 239              	.L16:
 240              		.align	2
 241              	.L15:
 242 0004 00000000 		.word	.LANCHOR1
 243              		.cfi_endproc
 244              	.LFE37:
 245              		.size	getVolatileBarStateMemory, .-getVolatileBarStateMemory
 246              		.section	.rodata
 247              		.align	2
 248              		.set	.LANCHOR0,. + 0
 249              		.type	eepromBrightnessMotorPosition, %object
 250              		.size	eepromBrightnessMotorPosition, 5
 251              	eepromBrightnessMotorPosition:
 252 0000 FF       		.byte	-1
 253 0001 00       		.byte	0
 254 0002 00       		.byte	0
 255 0003 00       		.byte	0
 256 0004 00       		.byte	0
 257              		.type	detectedAlready.6385, %object
 258              		.size	detectedAlready.6385, 1
 259              	detectedAlready.6385:
 260 0005 00       		.space	1
 261 0006 0000     		.bss
 262              		.align	2
 263              		.set	.LANCHOR1,. + 0
 264              		.type	ramBrightnessMotorPosition, %object
 265              		.size	ramBrightnessMotorPosition, 5
 266              	ramBrightnessMotorPosition:
 267 0000 00000000 		.space	5
 267      00
 268              		.type	beepromCountAlreadyReset, %object
 269              		.size	beepromCountAlreadyReset, 1
 270              	beepromCountAlreadyReset:
 271 0005 00       		.space	1
 272 0006 0000     		.text
 273              	.Letext0:
 274              		.file 2 "Generated_Source\\PSoC4/cytypes.h"
 275              		.file 3 ".\\motorControl.h"
 276              		.file 4 "Generated_Source\\PSoC4/PWM_Enable.h"
 277              		.file 5 "Generated_Source\\PSoC4/PWM.h"
 278              		.file 6 "Generated_Source\\PSoC4/CommTimeoutISR.h"
 279              		.file 7 "Generated_Source\\PSoC4/AckTimeoutISR.h"
 280              		.file 8 "Generated_Source\\PSoC4/SamplingTimerISR.h"
 281              		.file 9 "Generated_Source\\PSoC4/ADC_SAR_Seq.h"
ARM GAS  C:\Users\kylep\AppData\Local\Temp\cc4c7iKf.s 			page 10


 282              		.file 10 "Generated_Source\\PSoC4/UART_LED_ISR.h"
 283              		.file 11 "Generated_Source\\PSoC4/UART_LED.h"
 284              		.file 12 "Generated_Source\\PSoC4/LED_ISR.h"
 285              		.file 13 "Generated_Source\\PSoC4/SamplingTimer.h"
 286              		.file 14 "Generated_Source\\PSoC4/TimeoutTimer.h"
 287              		.file 15 "Generated_Source\\PSoC4/EmEEPROM.h"
 288              		.file 16 ".\\DriverControl.h"
 289              		.file 17 ".\\BrightnessCommManager.h"