ARM GAS  C:\Users\kylep\AppData\Local\Temp\ccEgY6oq.s 			page 1


   1              		.cpu cortex-m0
   2              		.fpu softvfp
   3              		.eabi_attribute 20, 1
   4              		.eabi_attribute 21, 1
   5              		.eabi_attribute 23, 3
   6              		.eabi_attribute 24, 1
   7              		.eabi_attribute 25, 1
   8              		.eabi_attribute 26, 1
   9              		.eabi_attribute 30, 1
  10              		.eabi_attribute 34, 0
  11              		.eabi_attribute 18, 4
  12              		.code	16
  13              		.file	"motorControl.c"
  14              		.text
  15              	.Ltext0:
  16              		.cfi_sections	.debug_frame
  17              		.section	.text.loadLimitSwitchValue,"ax",%progbits
  18              		.align	2
  19              		.global	loadLimitSwitchValue
  20              		.code	16
  21              		.thumb_func
  22              		.type	loadLimitSwitchValue, %function
  23              	loadLimitSwitchValue:
  24              	.LFB38:
  25              		.file 1 ".\\motorControl.c"
   1:.\motorControl.c **** /* ========================================
   2:.\motorControl.c ****  *
   3:.\motorControl.c ****  * Copyright YOUR COMPANY, THE YEAR
   4:.\motorControl.c ****  * All Rights Reserved
   5:.\motorControl.c ****  * UNPUBLISHED, LICENSED SOFTWARE.
   6:.\motorControl.c ****  *
   7:.\motorControl.c ****  * CONFIDENTIAL AND PROPRIETARY INFORMATION
   8:.\motorControl.c ****  * WHICH IS THE PROPERTY OF your company.
   9:.\motorControl.c ****  *
  10:.\motorControl.c ****  * ========================================
  11:.\motorControl.c **** */
  12:.\motorControl.c **** 
  13:.\motorControl.c **** #include "motorControl.h"
  14:.\motorControl.c **** #include "BrightnessCommManager.h"
  15:.\motorControl.c **** 
  16:.\motorControl.c **** MotorIO *pMotor;
  17:.\motorControl.c **** RxPacket * rxPacketLocal;
  18:.\motorControl.c **** MotorIO motorStatus = 
  19:.\motorControl.c **** {0, 0, 0, FALSE, 0, 0, 0, 0, 0, 0, 0, 0, 0, 0, 0, 0, 0};
  20:.\motorControl.c **** MotorIO *pMotor;
  21:.\motorControl.c **** 
  22:.\motorControl.c **** uint8 bDoneMovingCalibrate = FALSE;
  23:.\motorControl.c **** static uint32 timeOutCalibrate = 0;
  24:.\motorControl.c **** uint16 checkMotorCurrent(void);
  25:.\motorControl.c **** 
  26:.\motorControl.c **** /*******************************************************************************
  27:.\motorControl.c **** * ISR Name: HALL_EFFECT_EDGE_DETECT_INTERRUPT
  28:.\motorControl.c **** ********************************************************************************
  29:.\motorControl.c **** *
  30:.\motorControl.c **** * Summary:
  31:.\motorControl.c **** *  Executes whenever an edge is detected from the hall effect sensor.
  32:.\motorControl.c **** *
ARM GAS  C:\Users\kylep\AppData\Local\Temp\ccEgY6oq.s 			page 2


  33:.\motorControl.c **** * Parameters:  
  34:.\motorControl.c **** *   None
  35:.\motorControl.c **** *
  36:.\motorControl.c **** * Return:
  37:.\motorControl.c **** *   None
  38:.\motorControl.c **** *
  39:.\motorControl.c **** *******************************************************************************/
  40:.\motorControl.c **** CY_ISR(HALL_EFFECT_EDGE_DETECT_INTERRUPT)
  41:.\motorControl.c **** {    
  42:.\motorControl.c ****     //static uint16 testPotValue = 0;
  43:.\motorControl.c ****     pMotor->hallEffectEdgeDetect = TRUE;
  44:.\motorControl.c ****     setMotorOutputs(BRAKE,0xFF);
  45:.\motorControl.c ****     CyDelay(10);
  46:.\motorControl.c ****     pMotor->forwardLimitCS = ADC_SAR_Seq_GetResult16(POT_FEEDBACK);
  47:.\motorControl.c ****     pMotor->forwardLimitCS = pMotor->forwardLimitCS>>3;
  48:.\motorControl.c ****     pMotor->calibrated = DONE_CALIBRATING;
  49:.\motorControl.c ****     limitSwitch_ClearInterrupt();
  50:.\motorControl.c **** }
  51:.\motorControl.c **** 
  52:.\motorControl.c **** CY_ISR(OVER_CURRENT_ISR)
  53:.\motorControl.c **** {
  54:.\motorControl.c ****     if(ADC_SAR_Seq_IsEndConversion(ADC_SAR_Seq_RETURN_STATUS) !=0)
  55:.\motorControl.c ****     {
  56:.\motorControl.c ****         pMotor->motorCurrent[pMotor->motorCurrentSamplesIterator] = checkMotorCurrent();
  57:.\motorControl.c ****         pMotor->motorCurrentSamplesIterator++;
  58:.\motorControl.c ****     }
  59:.\motorControl.c ****     
  60:.\motorControl.c **** 
  61:.\motorControl.c ****     if(pMotor->motorCurrent[0]>= OVER_CURRENT_VALUE && pMotor->motorCurrent[1]>= OVER_CURRENT_VALUE
  62:.\motorControl.c ****     {
  63:.\motorControl.c ****             setMotorOutputs(BRAKE,0xFF);
  64:.\motorControl.c ****             for(pMotor->motorCurrentSamplesIterator = 0; pMotor->motorCurrentSamplesIterator<12; pM
  65:.\motorControl.c ****             {
  66:.\motorControl.c ****                 pMotor->motorCurrent[pMotor->motorCurrentSamplesIterator] = 0;
  67:.\motorControl.c ****             }
  68:.\motorControl.c ****             pMotor->motorCurrentSamplesIterator = 0;
  69:.\motorControl.c ****             pMotor->bOverCurrentStart = TRUE;
  70:.\motorControl.c ****     }
  71:.\motorControl.c ****     if( pMotor->bOverCurrentStart == TRUE)
  72:.\motorControl.c ****     {
  73:.\motorControl.c ****         pMotor->overCurrentTimerOutCounter++;
  74:.\motorControl.c ****         if(pMotor->overCurrentTimerOutCounter>=OVER_CURRENT_TIMER_THRESHOLD)
  75:.\motorControl.c ****         {
  76:.\motorControl.c ****             pMotor->overCurrentTimerOutCounter=0;
  77:.\motorControl.c ****             pMotor->bOverCurrentStart = FALSE;
  78:.\motorControl.c ****         }
  79:.\motorControl.c ****     }
  80:.\motorControl.c ****     if(pMotor->motorCurrentSamplesIterator>=12)
  81:.\motorControl.c ****     {
  82:.\motorControl.c ****         pMotor->motorCurrentSamplesIterator = 0;
  83:.\motorControl.c ****     }
  84:.\motorControl.c ****     overCurrentTimerISR_ClearPending();
  85:.\motorControl.c ****     overCurrentTimer_ReadStatusRegister();
  86:.\motorControl.c ****     //overCurrentTimer_ClearInterrupt(overCurrentTimer_INTR_MASK_TC);
  87:.\motorControl.c **** }
  88:.\motorControl.c **** 
  89:.\motorControl.c **** /*******************************************************************************
ARM GAS  C:\Users\kylep\AppData\Local\Temp\ccEgY6oq.s 			page 3


  90:.\motorControl.c **** * Function Name: initializeMotor
  91:.\motorControl.c **** ********************************************************************************
  92:.\motorControl.c **** *
  93:.\motorControl.c **** * Summary:
  94:.\motorControl.c **** *  Inititates the motor PWM module
  95:.\motorControl.c **** *
  96:.\motorControl.c **** * Parameters:  
  97:.\motorControl.c **** *   None
  98:.\motorControl.c **** *
  99:.\motorControl.c **** * Return:
 100:.\motorControl.c **** *   None
 101:.\motorControl.c **** *
 102:.\motorControl.c **** *******************************************************************************/
 103:.\motorControl.c **** void initializeMotor(void)
 104:.\motorControl.c **** {  
 105:.\motorControl.c ****     static const uint8 * pNonVolatileMotorPosition = 0;
 106:.\motorControl.c ****     pwmClock_Enable();
 107:.\motorControl.c ****     motorControlPWM_Start();
 108:.\motorControl.c ****     motorControlPWM_SetCompareMode(motorControlPWM__B_PWM__LESS_THAN);
 109:.\motorControl.c ****     motorControlPWM_WriteCompare(0x00);
 110:.\motorControl.c ****     pMotor = &motorStatus;
 111:.\motorControl.c ****     rxPacketLocal = getRxPacket();
 112:.\motorControl.c ****     pNonVolatileMotorPosition = getNonVolatileBarStateMemory();
 113:.\motorControl.c ****     rxPacketLocal->Payload.endMotorPosition = pNonVolatileMotorPosition[1];
 114:.\motorControl.c ****     pMotor->forwardLimitCS = 255;
 115:.\motorControl.c ****     setMotorOutputs(BRAKE,0xFF);
 116:.\motorControl.c ****     overCurrentTimerISR_StartEx(OVER_CURRENT_ISR);
 117:.\motorControl.c ****     overCurrentTimer_Start();
 118:.\motorControl.c ****     //aMux_Start();
 119:.\motorControl.c **** }
 120:.\motorControl.c **** 
 121:.\motorControl.c **** /*******************************************************************************
 122:.\motorControl.c **** * Function Name: setMotorOutputs
 123:.\motorControl.c **** ********************************************************************************
 124:.\motorControl.c **** *
 125:.\motorControl.c **** * Summary:
 126:.\motorControl.c **** *  Inititates the calibration sequence for the motor
 127:.\motorControl.c **** *
 128:.\motorControl.c **** * Parameters:  
 129:.\motorControl.c **** *   Direction: 00 BRAKE
 130:.\motorControl.c **** *              01 Forward
 131:.\motorControl.c **** *              10 Reverse
 132:.\motorControl.c **** *   Speed:     0-255 Steps of control
 133:.\motorControl.c **** *
 134:.\motorControl.c **** * Return:
 135:.\motorControl.c **** *   None
 136:.\motorControl.c **** *
 137:.\motorControl.c **** *******************************************************************************/
 138:.\motorControl.c **** 
 139:.\motorControl.c **** 
 140:.\motorControl.c **** /*******************************************************************************
 141:.\motorControl.c **** * Function Name: calibrateMotor
 142:.\motorControl.c **** ********************************************************************************
 143:.\motorControl.c **** *
 144:.\motorControl.c **** * Summary:
 145:.\motorControl.c **** *  Inititates the calibration sequence for the motor
 146:.\motorControl.c **** *
ARM GAS  C:\Users\kylep\AppData\Local\Temp\ccEgY6oq.s 			page 4


 147:.\motorControl.c **** * Parameters:  
 148:.\motorControl.c **** *   None
 149:.\motorControl.c **** *
 150:.\motorControl.c **** * Return:
 151:.\motorControl.c **** *   None
 152:.\motorControl.c **** *
 153:.\motorControl.c **** *******************************************************************************/
 154:.\motorControl.c **** 
 155:.\motorControl.c **** int16 calibrateMotor(void)
 156:.\motorControl.c **** {
 157:.\motorControl.c ****     pMotor->calibrated = START_CALIBRATING;
 158:.\motorControl.c ****     
 159:.\motorControl.c ****     while(pMotor->calibrated!=1)
 160:.\motorControl.c ****     {
 161:.\motorControl.c ****        while(bDoneMovingCalibrate == FALSE)
 162:.\motorControl.c ****        {
 163:.\motorControl.c ****             motorControlLoop(1);
 164:.\motorControl.c ****        }
 165:.\motorControl.c ****        hallEffectISR_StartEx(HALL_EFFECT_EDGE_DETECT_INTERRUPT);
 166:.\motorControl.c ****        CyDelay(5000);
 167:.\motorControl.c ****        bDoneMovingCalibrate = FALSE;
 168:.\motorControl.c ****        while(bDoneMovingCalibrate == FALSE)
 169:.\motorControl.c ****        {
 170:.\motorControl.c ****             if(pMotor->calibrated == 1)
 171:.\motorControl.c ****             {
 172:.\motorControl.c ****                 timeOutCalibrate = 0;
 173:.\motorControl.c ****                 CyDelay(1);
 174:.\motorControl.c ****                 break;
 175:.\motorControl.c ****             }
 176:.\motorControl.c ****      
 177:.\motorControl.c ****             motorControlLoop(252);
 178:.\motorControl.c ****        };
 179:.\motorControl.c ****        // CyDelay(5000);
 180:.\motorControl.c ****        //bDoneMovingCalibrate = FALSE;
 181:.\motorControl.c ****        timeOutCalibrate++;
 182:.\motorControl.c ****        if(timeOutCalibrate >= 6)
 183:.\motorControl.c ****        {
 184:.\motorControl.c ****             timeOutCalibrate = 0;
 185:.\motorControl.c ****             break;
 186:.\motorControl.c ****        }
 187:.\motorControl.c ****     }
 188:.\motorControl.c ****     setMotorOutputs(BRAKE,0xFF);
 189:.\motorControl.c ****     hallEffectISR_Stop();
 190:.\motorControl.c ****     CyDelay(10);
 191:.\motorControl.c ****     return pMotor->forwardLimitCS;
 192:.\motorControl.c **** }
 193:.\motorControl.c **** 
 194:.\motorControl.c **** void loadLimitSwitchValue(void)
 195:.\motorControl.c **** {
  26              		.loc 1 195 0
  27              		.cfi_startproc
  28 0000 08B5     		push	{r3, lr}
  29              		.cfi_def_cfa_offset 8
  30              		.cfi_offset 3, -8
  31              		.cfi_offset 14, -4
 196:.\motorControl.c ****     static const uint8 * pLocalNonVolatileMemory;
 197:.\motorControl.c ****     pLocalNonVolatileMemory = getNonVolatileBarStateMemory();
ARM GAS  C:\Users\kylep\AppData\Local\Temp\ccEgY6oq.s 			page 5


  32              		.loc 1 197 0
  33 0002 FFF7FEFF 		bl	getNonVolatileBarStateMemory
  34              	.LVL0:
  35 0006 034B     		ldr	r3, .L2
  36 0008 1860     		str	r0, [r3]
 198:.\motorControl.c ****     pMotor->forwardLimitCS = pLocalNonVolatileMemory[4];
  37              		.loc 1 198 0
  38 000a 034B     		ldr	r3, .L2+4
  39 000c 1B68     		ldr	r3, [r3]
  40 000e 0279     		ldrb	r2, [r0, #4]
  41 0010 5A80     		strh	r2, [r3, #2]
 199:.\motorControl.c **** }
  42              		.loc 1 199 0
  43              		@ sp needed
  44 0012 08BD     		pop	{r3, pc}
  45              	.L3:
  46              		.align	2
  47              	.L2:
  48 0014 00000000 		.word	.LANCHOR0
  49 0018 00000000 		.word	pMotor
  50              		.cfi_endproc
  51              	.LFE38:
  52              		.size	loadLimitSwitchValue, .-loadLimitSwitchValue
  53              		.section	.text.setMotorOutputs,"ax",%progbits
  54              		.align	2
  55              		.global	setMotorOutputs
  56              		.code	16
  57              		.thumb_func
  58              		.type	setMotorOutputs, %function
  59              	setMotorOutputs:
  60              	.LFB39:
 200:.\motorControl.c **** 
 201:.\motorControl.c **** void setMotorOutputs(Direction direction, Speed speed)
 202:.\motorControl.c **** {
  61              		.loc 1 202 0
  62              		.cfi_startproc
  63              	.LVL1:
  64 0000 08B5     		push	{r3, lr}
  65              		.cfi_def_cfa_offset 8
  66              		.cfi_offset 3, -8
  67              		.cfi_offset 14, -4
 203:.\motorControl.c ****     if(direction == FORWARD)
  68              		.loc 1 203 0
  69 0002 0128     		cmp	r0, #1
  70 0004 09D1     		bne	.L5
 204:.\motorControl.c ****     {
 205:.\motorControl.c ****         MOTOR_OUTB_LOW;
  71              		.loc 1 205 0
  72 0006 184B     		ldr	r3, .L9
  73 0008 1A68     		ldr	r2, [r3]
  74 000a 3F30     		add	r0, r0, #63
  75              	.LVL2:
  76 000c 8243     		bic	r2, r0
  77 000e 1A60     		str	r2, [r3]
 206:.\motorControl.c ****         MOTOR_OUTA_HIGH;
  78              		.loc 1 206 0
  79 0010 1868     		ldr	r0, [r3]
ARM GAS  C:\Users\kylep\AppData\Local\Temp\ccEgY6oq.s 			page 6


  80 0012 0422     		mov	r2, #4
  81 0014 0243     		orr	r2, r0
  82 0016 1A60     		str	r2, [r3]
  83 0018 22E0     		b	.L6
  84              	.LVL3:
  85              	.L5:
 207:.\motorControl.c ****     }
 208:.\motorControl.c ****     else if(direction == BACKWARDS)
  86              		.loc 1 208 0
  87 001a 0A28     		cmp	r0, #10
  88 001c 09D1     		bne	.L7
 209:.\motorControl.c ****     {
 210:.\motorControl.c ****         MOTOR_OUTB_HIGH;
  89              		.loc 1 210 0
  90 001e 124B     		ldr	r3, .L9
  91 0020 1868     		ldr	r0, [r3]
  92              	.LVL4:
  93 0022 4022     		mov	r2, #64
  94 0024 0243     		orr	r2, r0
  95 0026 1A60     		str	r2, [r3]
 211:.\motorControl.c ****         MOTOR_OUTA_LOW;
  96              		.loc 1 211 0
  97 0028 1A68     		ldr	r2, [r3]
  98 002a 0420     		mov	r0, #4
  99 002c 8243     		bic	r2, r0
 100 002e 1A60     		str	r2, [r3]
 101 0030 16E0     		b	.L6
 102              	.LVL5:
 103              	.L7:
 212:.\motorControl.c ****     }
 213:.\motorControl.c ****     else if(direction == BRAKE)
 104              		.loc 1 213 0
 105 0032 0028     		cmp	r0, #0
 106 0034 09D1     		bne	.L8
 214:.\motorControl.c ****     {
 215:.\motorControl.c ****         MOTOR_OUTB_LOW;
 107              		.loc 1 215 0
 108 0036 0C4B     		ldr	r3, .L9
 109 0038 1A68     		ldr	r2, [r3]
 110 003a 4030     		add	r0, r0, #64
 111              	.LVL6:
 112 003c 8243     		bic	r2, r0
 113 003e 1A60     		str	r2, [r3]
 216:.\motorControl.c ****         MOTOR_OUTA_LOW;
 114              		.loc 1 216 0
 115 0040 1A68     		ldr	r2, [r3]
 116 0042 3C38     		sub	r0, r0, #60
 117 0044 8243     		bic	r2, r0
 118 0046 1A60     		str	r2, [r3]
 119 0048 0AE0     		b	.L6
 120              	.LVL7:
 121              	.L8:
 217:.\motorControl.c ****     }
 218:.\motorControl.c ****     else if(direction == OFF_NOTHING)
 122              		.loc 1 218 0
 123 004a 0328     		cmp	r0, #3
 124 004c 08D1     		bne	.L6
ARM GAS  C:\Users\kylep\AppData\Local\Temp\ccEgY6oq.s 			page 7


 219:.\motorControl.c ****     {
 220:.\motorControl.c ****         MOTOR_OUTB_HIGH;
 125              		.loc 1 220 0
 126 004e 064B     		ldr	r3, .L9
 127 0050 1868     		ldr	r0, [r3]
 128              	.LVL8:
 129 0052 4022     		mov	r2, #64
 130 0054 0243     		orr	r2, r0
 131 0056 1A60     		str	r2, [r3]
 221:.\motorControl.c ****         MOTOR_OUTA_HIGH;
 132              		.loc 1 221 0
 133 0058 1868     		ldr	r0, [r3]
 134 005a 0422     		mov	r2, #4
 135 005c 0243     		orr	r2, r0
 136 005e 1A60     		str	r2, [r3]
 137              	.L6:
 222:.\motorControl.c ****     }
 223:.\motorControl.c ****     
 224:.\motorControl.c ****     motorControlPWM_WriteCompare(speed);
 138              		.loc 1 224 0
 139 0060 081C     		mov	r0, r1
 140 0062 FFF7FEFF 		bl	motorControlPWM_WriteCompare
 141              	.LVL9:
 225:.\motorControl.c **** }
 142              		.loc 1 225 0
 143              		@ sp needed
 144 0066 08BD     		pop	{r3, pc}
 145              	.L10:
 146              		.align	2
 147              	.L9:
 148 0068 00000440 		.word	1074003968
 149              		.cfi_endproc
 150              	.LFE39:
 151              		.size	setMotorOutputs, .-setMotorOutputs
 152              		.section	.text.HALL_EFFECT_EDGE_DETECT_INTERRUPT,"ax",%progbits
 153              		.align	2
 154              		.global	HALL_EFFECT_EDGE_DETECT_INTERRUPT
 155              		.code	16
 156              		.thumb_func
 157              		.type	HALL_EFFECT_EDGE_DETECT_INTERRUPT, %function
 158              	HALL_EFFECT_EDGE_DETECT_INTERRUPT:
 159              	.LFB34:
  41:.\motorControl.c ****     //static uint16 testPotValue = 0;
 160              		.loc 1 41 0
 161              		.cfi_startproc
 162 0000 70B5     		push	{r4, r5, r6, lr}
 163              		.cfi_def_cfa_offset 16
 164              		.cfi_offset 4, -16
 165              		.cfi_offset 5, -12
 166              		.cfi_offset 6, -8
 167              		.cfi_offset 14, -4
  43:.\motorControl.c ****     setMotorOutputs(BRAKE,0xFF);
 168              		.loc 1 43 0
 169 0002 0D4C     		ldr	r4, .L12
 170 0004 0125     		mov	r5, #1
 171 0006 2368     		ldr	r3, [r4]
 172 0008 5D73     		strb	r5, [r3, #13]
ARM GAS  C:\Users\kylep\AppData\Local\Temp\ccEgY6oq.s 			page 8


  44:.\motorControl.c ****     CyDelay(10);
 173              		.loc 1 44 0
 174 000a 0020     		mov	r0, #0
 175 000c FF21     		mov	r1, #255
 176 000e FFF7FEFF 		bl	setMotorOutputs
 177              	.LVL10:
  45:.\motorControl.c ****     pMotor->forwardLimitCS = ADC_SAR_Seq_GetResult16(POT_FEEDBACK);
 178              		.loc 1 45 0
 179 0012 0A20     		mov	r0, #10
 180 0014 FFF7FEFF 		bl	CyDelay
 181              	.LVL11:
  46:.\motorControl.c ****     pMotor->forwardLimitCS = pMotor->forwardLimitCS>>3;
 182              		.loc 1 46 0
 183 0018 2668     		ldr	r6, [r4]
 184 001a 0320     		mov	r0, #3
 185 001c FFF7FEFF 		bl	ADC_SAR_Seq_GetResult16
 186              	.LVL12:
 187 0020 7080     		strh	r0, [r6, #2]
  47:.\motorControl.c ****     pMotor->calibrated = DONE_CALIBRATING;
 188              		.loc 1 47 0
 189 0022 2268     		ldr	r2, [r4]
 190 0024 5388     		ldrh	r3, [r2, #2]
 191 0026 DB08     		lsr	r3, r3, #3
 192 0028 5380     		strh	r3, [r2, #2]
  48:.\motorControl.c ****     limitSwitch_ClearInterrupt();
 193              		.loc 1 48 0
 194 002a 2268     		ldr	r2, [r4]
 195 002c 3023     		mov	r3, #48
 196 002e D554     		strb	r5, [r2, r3]
  49:.\motorControl.c **** }
 197              		.loc 1 49 0
 198 0030 FFF7FEFF 		bl	limitSwitch_ClearInterrupt
 199              	.LVL13:
  50:.\motorControl.c **** 
 200              		.loc 1 50 0
 201              		@ sp needed
 202 0034 70BD     		pop	{r4, r5, r6, pc}
 203              	.L13:
 204 0036 C046     		.align	2
 205              	.L12:
 206 0038 00000000 		.word	pMotor
 207              		.cfi_endproc
 208              	.LFE34:
 209              		.size	HALL_EFFECT_EDGE_DETECT_INTERRUPT, .-HALL_EFFECT_EDGE_DETECT_INTERRUPT
 210              		.section	.text.initializeMotor,"ax",%progbits
 211              		.align	2
 212              		.global	initializeMotor
 213              		.code	16
 214              		.thumb_func
 215              		.type	initializeMotor, %function
 216              	initializeMotor:
 217              	.LFB36:
 104:.\motorControl.c ****     static const uint8 * pNonVolatileMotorPosition = 0;
 218              		.loc 1 104 0
 219              		.cfi_startproc
 220 0000 70B5     		push	{r4, r5, r6, lr}
 221              		.cfi_def_cfa_offset 16
ARM GAS  C:\Users\kylep\AppData\Local\Temp\ccEgY6oq.s 			page 9


 222              		.cfi_offset 4, -16
 223              		.cfi_offset 5, -12
 224              		.cfi_offset 6, -8
 225              		.cfi_offset 14, -4
 106:.\motorControl.c ****     motorControlPWM_Start();
 226              		.loc 1 106 0
 227 0002 FFF7FEFF 		bl	pwmClock_Start
 228              	.LVL14:
 107:.\motorControl.c ****     motorControlPWM_SetCompareMode(motorControlPWM__B_PWM__LESS_THAN);
 229              		.loc 1 107 0
 230 0006 FFF7FEFF 		bl	motorControlPWM_Start
 231              	.LVL15:
 108:.\motorControl.c ****     motorControlPWM_WriteCompare(0x00);
 232              		.loc 1 108 0
 233 000a 0120     		mov	r0, #1
 234 000c FFF7FEFF 		bl	motorControlPWM_SetCompareMode
 235              	.LVL16:
 109:.\motorControl.c ****     pMotor = &motorStatus;
 236              		.loc 1 109 0
 237 0010 0020     		mov	r0, #0
 238 0012 FFF7FEFF 		bl	motorControlPWM_WriteCompare
 239              	.LVL17:
 110:.\motorControl.c ****     rxPacketLocal = getRxPacket();
 240              		.loc 1 110 0
 241 0016 0D4C     		ldr	r4, .L15
 242 0018 0D4E     		ldr	r6, .L15+4
 243 001a 331D     		add	r3, r6, #4
 244 001c 2360     		str	r3, [r4]
 111:.\motorControl.c ****     pNonVolatileMotorPosition = getNonVolatileBarStateMemory();
 245              		.loc 1 111 0
 246 001e FFF7FEFF 		bl	getRxPacket
 247              	.LVL18:
 248 0022 0C4D     		ldr	r5, .L15+8
 249 0024 2860     		str	r0, [r5]
 112:.\motorControl.c ****     rxPacketLocal->Payload.endMotorPosition = pNonVolatileMotorPosition[1];
 250              		.loc 1 112 0
 251 0026 FFF7FEFF 		bl	getNonVolatileBarStateMemory
 252              	.LVL19:
 253 002a B065     		str	r0, [r6, #88]
 113:.\motorControl.c ****     pMotor->forwardLimitCS = 255;
 254              		.loc 1 113 0
 255 002c 2B68     		ldr	r3, [r5]
 256 002e 4278     		ldrb	r2, [r0, #1]
 257 0030 5A80     		strh	r2, [r3, #2]
 114:.\motorControl.c ****     setMotorOutputs(BRAKE,0xFF);
 258              		.loc 1 114 0
 259 0032 2368     		ldr	r3, [r4]
 260 0034 FF22     		mov	r2, #255
 261 0036 5A80     		strh	r2, [r3, #2]
 115:.\motorControl.c ****     overCurrentTimerISR_StartEx(OVER_CURRENT_ISR);
 262              		.loc 1 115 0
 263 0038 0020     		mov	r0, #0
 264 003a FF21     		mov	r1, #255
 265 003c FFF7FEFF 		bl	setMotorOutputs
 266              	.LVL20:
 116:.\motorControl.c ****     overCurrentTimer_Start();
 267              		.loc 1 116 0
ARM GAS  C:\Users\kylep\AppData\Local\Temp\ccEgY6oq.s 			page 10


 268 0040 0548     		ldr	r0, .L15+12
 269 0042 FFF7FEFF 		bl	overCurrentTimerISR_StartEx
 270              	.LVL21:
 117:.\motorControl.c ****     //aMux_Start();
 271              		.loc 1 117 0
 272 0046 FFF7FEFF 		bl	overCurrentTimer_Start
 273              	.LVL22:
 119:.\motorControl.c **** 
 274              		.loc 1 119 0
 275              		@ sp needed
 276 004a 70BD     		pop	{r4, r5, r6, pc}
 277              	.L16:
 278              		.align	2
 279              	.L15:
 280 004c 00000000 		.word	pMotor
 281 0050 00000000 		.word	.LANCHOR0
 282 0054 00000000 		.word	rxPacketLocal
 283 0058 00000000 		.word	OVER_CURRENT_ISR
 284              		.cfi_endproc
 285              	.LFE36:
 286              		.size	initializeMotor, .-initializeMotor
 287              		.global	__aeabi_ui2f
 288              		.global	__aeabi_fdiv
 289              		.global	__aeabi_i2f
 290              		.global	__aeabi_f2iz
 291              		.global	__aeabi_fmul
 292              		.global	__aeabi_i2d
 293              		.global	__aeabi_dmul
 294              		.global	__aeabi_d2f
 295              		.global	__aeabi_f2d
 296              		.global	__aeabi_dadd
 297              		.global	__aeabi_fadd
 298              		.section	.text.motorControlLoop,"ax",%progbits
 299              		.align	2
 300              		.global	motorControlLoop
 301              		.code	16
 302              		.thumb_func
 303              		.type	motorControlLoop, %function
 304              	motorControlLoop:
 305              	.LFB40:
 226:.\motorControl.c **** 
 227:.\motorControl.c **** MotorIO * motorControlLoop(int16 manualDesiredPostion)
 228:.\motorControl.c **** {   
 306              		.loc 1 228 0
 307              		.cfi_startproc
 308              	.LVL23:
 309 0000 F0B5     		push	{r4, r5, r6, r7, lr}
 310              		.cfi_def_cfa_offset 20
 311              		.cfi_offset 4, -20
 312              		.cfi_offset 5, -16
 313              		.cfi_offset 6, -12
 314              		.cfi_offset 7, -8
 315              		.cfi_offset 14, -4
 316 0002 85B0     		sub	sp, sp, #20
 317              		.cfi_def_cfa_offset 40
 318 0004 071C     		mov	r7, r0
 229:.\motorControl.c ****     if(pMotor->bOverCurrentStart == FALSE)
ARM GAS  C:\Users\kylep\AppData\Local\Temp\ccEgY6oq.s 			page 11


 319              		.loc 1 229 0
 320 0006 7B4B     		ldr	r3, .L33
 321 0008 1B68     		ldr	r3, [r3]
 322 000a 4E22     		mov	r2, #78
 323 000c 9A5C     		ldrb	r2, [r3, r2]
 324 000e 002A     		cmp	r2, #0
 325 0010 00D0     		beq	.LCB251
 326 0012 DFE0     		b	.L18	@long jump
 327              	.LCB251:
 230:.\motorControl.c ****     {
 231:.\motorControl.c ****     //pMotor->motorCurrent = checkMotorCurrent();
 232:.\motorControl.c ****     //pMotor->busVoltage = checkBusVoltage();   
 233:.\motorControl.c ****     //setMotorOutputs(BACKWARDS,0xFF);
 234:.\motorControl.c ****     //if(checkMotorCurrent()< MAX_CURRENT || checkBusVoltage() > MIN_VOLTAGE)
 235:.\motorControl.c ****     {
 236:.\motorControl.c ****         if(manualDesiredPostion!=0)
 328              		.loc 1 236 0
 329 0014 0028     		cmp	r0, #0
 330 0016 01D0     		beq	.L19
 237:.\motorControl.c ****         {
 238:.\motorControl.c ****             pMotor->desiredPot = manualDesiredPostion;
 331              		.loc 1 238 0
 332 0018 1883     		strh	r0, [r3, #24]
 333 001a 35E0     		b	.L20
 334              	.L19:
 239:.\motorControl.c ****         }
 240:.\motorControl.c ****         else
 241:.\motorControl.c ****         {
 242:.\motorControl.c ****             if(getStateOfBar() == 1)
 335              		.loc 1 242 0
 336 001c FFF7FEFF 		bl	getStateOfBar
 337              	.LVL24:
 338 0020 0128     		cmp	r0, #1
 339 0022 05D1     		bne	.L21
 243:.\motorControl.c ****             {
 244:.\motorControl.c ****                 pMotor->desiredPot = (int16)getDegaultPosition();
 340              		.loc 1 244 0
 341 0024 734B     		ldr	r3, .L33
 342 0026 1C68     		ldr	r4, [r3]
 343 0028 FFF7FEFF 		bl	getDegaultPosition
 344              	.LVL25:
 345 002c 2083     		strh	r0, [r4, #24]
 346 002e 2BE0     		b	.L20
 347              	.L21:
 245:.\motorControl.c ****             }
 246:.\motorControl.c ****             else if(pMotor->desiredPot != rxPacketLocal->Payload.endMotorPosition && getStateOfBar(
 348              		.loc 1 246 0
 349 0030 704B     		ldr	r3, .L33
 350 0032 1B68     		ldr	r3, [r3]
 351 0034 1822     		mov	r2, #24
 352 0036 9A5E     		ldrsh	r2, [r3, r2]
 353 0038 6F4B     		ldr	r3, .L33+4
 354 003a 1B68     		ldr	r3, [r3]
 355 003c 5B88     		ldrh	r3, [r3, #2]
 356 003e 9A42     		cmp	r2, r3
 357 0040 22D0     		beq	.L20
 358              		.loc 1 246 0 is_stmt 0 discriminator 1
ARM GAS  C:\Users\kylep\AppData\Local\Temp\ccEgY6oq.s 			page 12


 359 0042 FFF7FEFF 		bl	getStateOfBar
 360              	.LVL26:
 361 0046 0028     		cmp	r0, #0
 362 0048 1ED1     		bne	.L20
 247:.\motorControl.c ****             {
 248:.\motorControl.c ****                 pMotor->desiredPot = rxPacketLocal->Payload.endMotorPosition;
 363              		.loc 1 248 0 is_stmt 1
 364 004a 6A4B     		ldr	r3, .L33
 365 004c 1C68     		ldr	r4, [r3]
 366 004e 6A4B     		ldr	r3, .L33+4
 367 0050 1B68     		ldr	r3, [r3]
 368 0052 5D88     		ldrh	r5, [r3, #2]
 369 0054 2583     		strh	r5, [r4, #24]
 249:.\motorControl.c ****                 pMotor->calculatePercentageOfRange = pMotor->forwardLimitCS;
 370              		.loc 1 249 0
 371 0056 6088     		ldrh	r0, [r4, #2]
 372 0058 FFF7FEFF 		bl	__aeabi_ui2f
 373              	.LVL27:
 374 005c A060     		str	r0, [r4, #8]
 250:.\motorControl.c ****                 pMotor->calculatePercentageOfRange = pMotor->calculatePercentageOfRange/255;
 375              		.loc 1 250 0
 376 005e 6749     		ldr	r1, .L33+8
 377 0060 FFF7FEFF 		bl	__aeabi_fdiv
 378              	.LVL28:
 379 0064 061C     		add	r6, r0, #0
 380 0066 A060     		str	r0, [r4, #8]
 251:.\motorControl.c ****                 pMotor->desiredPotFloat = pMotor->desiredPot;
 381              		.loc 1 251 0
 382 0068 28B2     		sxth	r0, r5
 383 006a FFF7FEFF 		bl	__aeabi_i2f
 384              	.LVL29:
 385 006e 6061     		str	r0, [r4, #20]
 252:.\motorControl.c ****                 pMotor->desiredPot = (int16)pMotor->desiredPotFloat*(pMotor->calculatePercentageOfR
 386              		.loc 1 252 0
 387 0070 FFF7FEFF 		bl	__aeabi_f2iz
 388              	.LVL30:
 389 0074 00B2     		sxth	r0, r0
 390 0076 FFF7FEFF 		bl	__aeabi_i2f
 391              	.LVL31:
 392 007a 011C     		add	r1, r0, #0
 393 007c 301C     		add	r0, r6, #0
 394 007e FFF7FEFF 		bl	__aeabi_fmul
 395              	.LVL32:
 396 0082 FFF7FEFF 		bl	__aeabi_f2iz
 397              	.LVL33:
 398 0086 2083     		strh	r0, [r4, #24]
 399              	.L20:
 253:.\motorControl.c ****             }
 254:.\motorControl.c ****         }
 255:.\motorControl.c **** 
 256:.\motorControl.c ****             //Account for endian change from PSOC 5 to PSOC 3 architectures
 257:.\motorControl.c ****         //pMotor->desiredPot = pMotor->desiredPot*2;
 258:.\motorControl.c ****         //pMotor->desiredPot = 0xFF;
 259:.\motorControl.c **** 
 260:.\motorControl.c **** 
 261:.\motorControl.c ****         if(pMotor->desiredPot>=pMotor->forwardLimitCS)//if(pMotor->desiredPot>=255)
 400              		.loc 1 261 0
ARM GAS  C:\Users\kylep\AppData\Local\Temp\ccEgY6oq.s 			page 13


 401 0088 5A4B     		ldr	r3, .L33
 402 008a 1C68     		ldr	r4, [r3]
 403 008c 1823     		mov	r3, #24
 404 008e E25E     		ldrsh	r2, [r4, r3]
 405 0090 6388     		ldrh	r3, [r4, #2]
 406 0092 9A42     		cmp	r2, r3
 407 0094 00DB     		blt	.L22
 262:.\motorControl.c ****         {
 263:.\motorControl.c ****             pMotor->desiredPot = pMotor->forwardLimitCS;
 408              		.loc 1 263 0
 409 0096 2383     		strh	r3, [r4, #24]
 410              	.L22:
 264:.\motorControl.c **** 
 265:.\motorControl.c ****         }
 266:.\motorControl.c ****         
 267:.\motorControl.c ****         if(pMotor->desiredPot>=HARDWARE_LIMIT_MAX)//if(pMotor->desiredPot>=255)
 411              		.loc 1 267 0
 412 0098 1822     		mov	r2, #24
 413 009a A35E     		ldrsh	r3, [r4, r2]
 414 009c FE2B     		cmp	r3, #254
 415 009e 01DD     		ble	.L23
 268:.\motorControl.c ****         {
 269:.\motorControl.c ****             pMotor->desiredPot = HARDWARE_LIMIT_MAX;
 416              		.loc 1 269 0
 417 00a0 FF23     		mov	r3, #255
 418 00a2 2383     		strh	r3, [r4, #24]
 419              	.L23:
 270:.\motorControl.c ****             //pMotor->calculatePercentageOfRange = pMotor->forwardLimitCS/255;
 271:.\motorControl.c ****             //pMotor->desiredPot = pMotor->desiredPot*(pMotor->calculatePercentageOfRange);
 272:.\motorControl.c ****             //pMotor->desiredPot = 255;
 273:.\motorControl.c ****         }
 274:.\motorControl.c ****         
 275:.\motorControl.c ****         if(pMotor->desiredPot<=HARDWARE_LIMIT_MIN)
 420              		.loc 1 275 0
 421 00a4 1822     		mov	r2, #24
 422 00a6 A35E     		ldrsh	r3, [r4, r2]
 423 00a8 002B     		cmp	r3, #0
 424 00aa 01DC     		bgt	.L24
 276:.\motorControl.c ****         {
 277:.\motorControl.c ****             pMotor->desiredPot = HARDWARE_LIMIT_MIN;
 425              		.loc 1 277 0
 426 00ac 0023     		mov	r3, #0
 427 00ae 2383     		strh	r3, [r4, #24]
 428              	.L24:
 278:.\motorControl.c ****         }
 279:.\motorControl.c ****        
 280:.\motorControl.c ****         //previous_error = error or 0 if undefined
 281:.\motorControl.c ****         //error = setpoint - actual_position
 282:.\motorControl.c ****         //P = Kp * error
 283:.\motorControl.c ****         //I = I + Ki * error * dt
 284:.\motorControl.c ****         //D = Kd * (error - previous_error) / dt
 285:.\motorControl.c ****         //output = P + I + D
 286:.\motorControl.c ****         //wait(dt) 
 287:.\motorControl.c ****         //aMux_Select(0x01);
 288:.\motorControl.c ****         
 289:.\motorControl.c ****         pMotor->currentPot = ADC_SAR_Seq_GetResult16(POT_FEEDBACK);
 429              		.loc 1 289 0
ARM GAS  C:\Users\kylep\AppData\Local\Temp\ccEgY6oq.s 			page 14


 430 00b0 0320     		mov	r0, #3
 431 00b2 FFF7FEFF 		bl	ADC_SAR_Seq_GetResult16
 432              	.LVL34:
 433 00b6 6082     		strh	r0, [r4, #18]
 290:.\motorControl.c ****         pMotor->currentPot = pMotor->currentPot>>3;
 434              		.loc 1 290 0
 435 00b8 4E4B     		ldr	r3, .L33
 436 00ba 1D68     		ldr	r5, [r3]
 437 00bc 1223     		mov	r3, #18
 438 00be EC5E     		ldrsh	r4, [r5, r3]
 439 00c0 E410     		asr	r4, r4, #3
 440 00c2 A4B2     		uxth	r4, r4
 441 00c4 6C82     		strh	r4, [r5, #18]
 291:.\motorControl.c ****         
 292:.\motorControl.c ****         pMotor->errorPot = pMotor->desiredPot - pMotor->currentPot;
 442              		.loc 1 292 0
 443 00c6 2B8B     		ldrh	r3, [r5, #24]
 444 00c8 1C1B     		sub	r4, r3, r4
 445 00ca A4B2     		uxth	r4, r4
 446 00cc 6C83     		strh	r4, [r5, #26]
 293:.\motorControl.c ****         pMotor->Proportional = Kp * pMotor->errorPot;
 447              		.loc 1 293 0
 448 00ce 24B2     		sxth	r4, r4
 449 00d0 201C     		mov	r0, r4
 450 00d2 FFF7FEFF 		bl	__aeabi_i2d
 451              	.LVL35:
 452 00d6 0090     		str	r0, [sp]
 453 00d8 0191     		str	r1, [sp, #4]
 454 00da 0022     		mov	r2, #0
 455 00dc 484B     		ldr	r3, .L33+12
 456 00de FFF7FEFF 		bl	__aeabi_dmul
 457              	.LVL36:
 458 00e2 FFF7FEFF 		bl	__aeabi_d2f
 459              	.LVL37:
 460 00e6 0390     		str	r0, [sp, #12]
 461 00e8 2862     		str	r0, [r5, #32]
 294:.\motorControl.c ****         pMotor->Integral =Ki * pMotor->Integral + pMotor->errorPot;
 462              		.loc 1 294 0
 463 00ea 686A     		ldr	r0, [r5, #36]
 464 00ec FFF7FEFF 		bl	__aeabi_f2d
 465              	.LVL38:
 466 00f0 444A     		ldr	r2, .L33+16
 467 00f2 454B     		ldr	r3, .L33+20
 468 00f4 FFF7FEFF 		bl	__aeabi_dmul
 469              	.LVL39:
 470 00f8 021C     		mov	r2, r0
 471 00fa 0B1C     		mov	r3, r1
 472 00fc 0098     		ldr	r0, [sp]
 473 00fe 0199     		ldr	r1, [sp, #4]
 474 0100 FFF7FEFF 		bl	__aeabi_dadd
 475              	.LVL40:
 476 0104 FFF7FEFF 		bl	__aeabi_d2f
 477              	.LVL41:
 478 0108 061C     		add	r6, r0, #0
 479 010a 6862     		str	r0, [r5, #36]
 295:.\motorControl.c ****         pMotor->Derivative = Kd*pMotor->errorPot - pMotor->previousErrorPot;
 480              		.loc 1 295 0
ARM GAS  C:\Users\kylep\AppData\Local\Temp\ccEgY6oq.s 			page 15


 481 010c A400     		lsl	r4, r4, #2
 482 010e 1C22     		mov	r2, #28
 483 0110 A85E     		ldrsh	r0, [r5, r2]
 484 0112 201A     		sub	r0, r4, r0
 485 0114 FFF7FEFF 		bl	__aeabi_i2f
 486              	.LVL42:
 487 0118 041C     		add	r4, r0, #0
 488 011a A862     		str	r0, [r5, #40]
 296:.\motorControl.c ****         pMotor->MotorOutput = pMotor->Proportional + pMotor->Integral + pMotor->Derivative;
 489              		.loc 1 296 0
 490 011c 0398     		ldr	r0, [sp, #12]
 491 011e 311C     		add	r1, r6, #0
 492 0120 FFF7FEFF 		bl	__aeabi_fadd
 493              	.LVL43:
 494 0124 011C     		add	r1, r0, #0
 495 0126 201C     		add	r0, r4, #0
 496 0128 FFF7FEFF 		bl	__aeabi_fadd
 497              	.LVL44:
 498 012c FFF7FEFF 		bl	__aeabi_f2iz
 499              	.LVL45:
 500 0130 80B2     		uxth	r0, r0
 501 0132 A885     		strh	r0, [r5, #44]
 297:.\motorControl.c ****         
 298:.\motorControl.c ****         
 299:.\motorControl.c ****         
 300:.\motorControl.c ****         if(pMotor->MotorOutput>=255)
 502              		.loc 1 300 0
 503 0134 03B2     		sxth	r3, r0
 504 0136 FE2B     		cmp	r3, #254
 505 0138 02DD     		ble	.L25
 301:.\motorControl.c ****         {
 302:.\motorControl.c ****             pMotor->MotorOutput=255;
 506              		.loc 1 302 0
 507 013a FF23     		mov	r3, #255
 508 013c AB85     		strh	r3, [r5, #44]
 509 013e 05E0     		b	.L26
 510              	.L25:
 303:.\motorControl.c ****         }
 304:.\motorControl.c ****         else if(pMotor->MotorOutput<=-255)
 511              		.loc 1 304 0
 512 0140 00B2     		sxth	r0, r0
 513 0142 FE30     		add	r0, r0, #254
 514 0144 02DA     		bge	.L26
 305:.\motorControl.c ****         {
 306:.\motorControl.c ****             pMotor->MotorOutput=-255;
 515              		.loc 1 306 0
 516 0146 FF23     		mov	r3, #255
 517 0148 5B42     		neg	r3, r3
 518 014a AB85     		strh	r3, [r5, #44]
 519              	.L26:
 307:.\motorControl.c ****         }
 308:.\motorControl.c ****         
 309:.\motorControl.c ****         //pMotor->currentCS = getCurrentSense();
 310:.\motorControl.c ****         
 311:.\motorControl.c ****         
 312:.\motorControl.c ****         if(pMotor->MotorOutput >= DESIRED_POSITION-20 && pMotor->MotorOutput<= DESIRED_POSITION+20)
 520              		.loc 1 312 0
ARM GAS  C:\Users\kylep\AppData\Local\Temp\ccEgY6oq.s 			page 16


 521 014c A98D     		ldrh	r1, [r5, #44]
 522 014e 0B1C     		mov	r3, r1
 523 0150 1433     		add	r3, r3, #20
 524 0152 9BB2     		uxth	r3, r3
 525 0154 282B     		cmp	r3, #40
 526 0156 0BD8     		bhi	.L27
 313:.\motorControl.c ****         {
 314:.\motorControl.c ****             setMotorOutputs(BRAKE,0xFF);
 527              		.loc 1 314 0
 528 0158 0020     		mov	r0, #0
 529 015a FF21     		mov	r1, #255
 530 015c FFF7FEFF 		bl	setMotorOutputs
 531              	.LVL46:
 315:.\motorControl.c ****             CyDelay(50);
 532              		.loc 1 315 0
 533 0160 3220     		mov	r0, #50
 534 0162 FFF7FEFF 		bl	CyDelay
 535              	.LVL47:
 316:.\motorControl.c ****             bDoneMovingCalibrate = TRUE;
 536              		.loc 1 316 0
 537 0166 0121     		mov	r1, #1
 538 0168 5C23     		mov	r3, #92
 539 016a 284A     		ldr	r2, .L33+24
 540 016c D154     		strb	r1, [r2, r3]
 541 016e 2CE0     		b	.L28
 542              	.L27:
 317:.\motorControl.c ****         }
 318:.\motorControl.c ****         else if(pMotor->MotorOutput>DESIRED_POSITION+20)
 543              		.loc 1 318 0
 544 0170 0BB2     		sxth	r3, r1
 545 0172 142B     		cmp	r3, #20
 546 0174 16DD     		ble	.L29
 319:.\motorControl.c ****         {
 320:.\motorControl.c ****                 bDoneMovingCalibrate = FALSE;
 547              		.loc 1 320 0
 548 0176 0020     		mov	r0, #0
 549 0178 5C23     		mov	r3, #92
 550 017a 244A     		ldr	r2, .L33+24
 551 017c D054     		strb	r0, [r2, r3]
 321:.\motorControl.c ****                 setMotorOutputs(FORWARD,pMotor->MotorOutput);
 552              		.loc 1 321 0
 553 017e C9B2     		uxtb	r1, r1
 554 0180 0130     		add	r0, r0, #1
 555 0182 FFF7FEFF 		bl	setMotorOutputs
 556              	.LVL48:
 322:.\motorControl.c ****                 if(manualDesiredPostion!=0)
 557              		.loc 1 322 0
 558 0186 002F     		cmp	r7, #0
 559 0188 04D0     		beq	.L30
 323:.\motorControl.c ****                 {
 324:.\motorControl.c ****                     setMotorOutputs(FORWARD,0xFF);
 560              		.loc 1 324 0
 561 018a 0120     		mov	r0, #1
 562 018c FF21     		mov	r1, #255
 563 018e FFF7FEFF 		bl	setMotorOutputs
 564              	.LVL49:
 565 0192 1AE0     		b	.L28
ARM GAS  C:\Users\kylep\AppData\Local\Temp\ccEgY6oq.s 			page 17


 566              	.L30:
 325:.\motorControl.c ****                 }
 326:.\motorControl.c ****                 else
 327:.\motorControl.c ****                 {
 328:.\motorControl.c ****                     setMotorOutputs(FORWARD,pMotor->MotorOutput);
 567              		.loc 1 328 0
 568 0194 174B     		ldr	r3, .L33
 569 0196 1B68     		ldr	r3, [r3]
 570 0198 998D     		ldrh	r1, [r3, #44]
 571 019a C9B2     		uxtb	r1, r1
 572 019c 0120     		mov	r0, #1
 573 019e FFF7FEFF 		bl	setMotorOutputs
 574              	.LVL50:
 575 01a2 12E0     		b	.L28
 576              	.L29:
 329:.\motorControl.c ****                 }
 330:.\motorControl.c ****         }
 331:.\motorControl.c ****         else if(pMotor->MotorOutput<DESIRED_POSITION-20)
 577              		.loc 1 331 0
 578 01a4 0BB2     		sxth	r3, r1
 579 01a6 1433     		add	r3, r3, #20
 580 01a8 0FDA     		bge	.L28
 332:.\motorControl.c ****         {
 333:.\motorControl.c ****             bDoneMovingCalibrate = FALSE;
 581              		.loc 1 333 0
 582 01aa 0020     		mov	r0, #0
 583 01ac 5C23     		mov	r3, #92
 584 01ae 174A     		ldr	r2, .L33+24
 585 01b0 D054     		strb	r0, [r2, r3]
 334:.\motorControl.c ****             if(manualDesiredPostion!=0)
 586              		.loc 1 334 0
 587 01b2 002F     		cmp	r7, #0
 588 01b4 04D0     		beq	.L31
 335:.\motorControl.c ****             {
 336:.\motorControl.c ****                 setMotorOutputs(BACKWARDS,0xFF);
 589              		.loc 1 336 0
 590 01b6 0A30     		add	r0, r0, #10
 591 01b8 FF21     		mov	r1, #255
 592 01ba FFF7FEFF 		bl	setMotorOutputs
 593              	.LVL51:
 594 01be 04E0     		b	.L28
 595              	.L31:
 337:.\motorControl.c ****             }
 338:.\motorControl.c ****             else
 339:.\motorControl.c ****             {
 340:.\motorControl.c ****                 setMotorOutputs(BACKWARDS,-1*pMotor->MotorOutput);
 596              		.loc 1 340 0
 597 01c0 4942     		neg	r1, r1
 598 01c2 C9B2     		uxtb	r1, r1
 599 01c4 0A20     		mov	r0, #10
 600 01c6 FFF7FEFF 		bl	setMotorOutputs
 601              	.LVL52:
 602              	.L28:
 341:.\motorControl.c ****             }
 342:.\motorControl.c ****         }
 343:.\motorControl.c ****         
 344:.\motorControl.c ****         pMotor->previousErrorPot = pMotor->errorPot;
ARM GAS  C:\Users\kylep\AppData\Local\Temp\ccEgY6oq.s 			page 18


 603              		.loc 1 344 0
 604 01ca 0A4B     		ldr	r3, .L33
 605 01cc 1B68     		ldr	r3, [r3]
 606 01ce 5A8B     		ldrh	r2, [r3, #26]
 607 01d0 9A83     		strh	r2, [r3, #28]
 608 01d2 0AE0     		b	.L32
 609              	.LVL53:
 610              	.L18:
 345:.\motorControl.c ****     }
 346:.\motorControl.c ****     }
 347:.\motorControl.c ****     else
 348:.\motorControl.c ****     {
 349:.\motorControl.c ****         setMotorOutputs(BRAKE,0xFF);
 611              		.loc 1 349 0
 612 01d4 0020     		mov	r0, #0
 613              	.LVL54:
 614 01d6 FF21     		mov	r1, #255
 615 01d8 FFF7FEFF 		bl	setMotorOutputs
 616              	.LVL55:
 350:.\motorControl.c ****         CyDelay(50);
 617              		.loc 1 350 0
 618 01dc 3220     		mov	r0, #50
 619 01de FFF7FEFF 		bl	CyDelay
 620              	.LVL56:
 351:.\motorControl.c ****         setMotorOutputs(OFF_NOTHING,0x00);
 621              		.loc 1 351 0
 622 01e2 0320     		mov	r0, #3
 623 01e4 0021     		mov	r1, #0
 624 01e6 FFF7FEFF 		bl	setMotorOutputs
 625              	.LVL57:
 626              	.L32:
 352:.\motorControl.c ****     }
 353:.\motorControl.c ****     
 354:.\motorControl.c ****     return pMotor;
 627              		.loc 1 354 0
 628 01ea 024B     		ldr	r3, .L33
 629 01ec 1868     		ldr	r0, [r3]
 355:.\motorControl.c **** }
 630              		.loc 1 355 0
 631 01ee 05B0     		add	sp, sp, #20
 632              		@ sp needed
 633 01f0 F0BD     		pop	{r4, r5, r6, r7, pc}
 634              	.L34:
 635 01f2 C046     		.align	2
 636              	.L33:
 637 01f4 00000000 		.word	pMotor
 638 01f8 00000000 		.word	rxPacketLocal
 639 01fc 00007F43 		.word	1132396544
 640 0200 0000E83F 		.word	1072168960
 641 0204 FCA9F1D2 		.word	-755914244
 642 0208 4D62503F 		.word	1062232653
 643 020c 00000000 		.word	.LANCHOR0
 644              		.cfi_endproc
 645              	.LFE40:
 646              		.size	motorControlLoop, .-motorControlLoop
 647              		.section	.text.calibrateMotor,"ax",%progbits
 648              		.align	2
ARM GAS  C:\Users\kylep\AppData\Local\Temp\ccEgY6oq.s 			page 19


 649              		.global	calibrateMotor
 650              		.code	16
 651              		.thumb_func
 652              		.type	calibrateMotor, %function
 653              	calibrateMotor:
 654              	.LFB37:
 156:.\motorControl.c ****     pMotor->calibrated = START_CALIBRATING;
 655              		.loc 1 156 0
 656              		.cfi_startproc
 657 0000 08B5     		push	{r3, lr}
 658              		.cfi_def_cfa_offset 8
 659              		.cfi_offset 3, -8
 660              		.cfi_offset 14, -4
 157:.\motorControl.c ****     
 661              		.loc 1 157 0
 662 0002 264B     		ldr	r3, .L44
 663 0004 1A68     		ldr	r2, [r3]
 664 0006 0021     		mov	r1, #0
 665 0008 3023     		mov	r3, #48
 666 000a D154     		strb	r1, [r2, r3]
 159:.\motorControl.c ****     {
 667              		.loc 1 159 0
 668 000c 31E0     		b	.L36
 669              	.L37:
 163:.\motorControl.c ****        }
 670              		.loc 1 163 0
 671 000e 0120     		mov	r0, #1
 672 0010 FFF7FEFF 		bl	motorControlLoop
 673              	.LVL58:
 674              	.L43:
 161:.\motorControl.c ****        {
 675              		.loc 1 161 0
 676 0014 5C23     		mov	r3, #92
 677 0016 224A     		ldr	r2, .L44+4
 678 0018 D35C     		ldrb	r3, [r2, r3]
 679 001a 002B     		cmp	r3, #0
 680 001c F7D0     		beq	.L37
 165:.\motorControl.c ****        CyDelay(5000);
 681              		.loc 1 165 0
 682 001e 2148     		ldr	r0, .L44+8
 683 0020 FFF7FEFF 		bl	hallEffectISR_StartEx
 684              	.LVL59:
 166:.\motorControl.c ****        bDoneMovingCalibrate = FALSE;
 685              		.loc 1 166 0
 686 0024 2048     		ldr	r0, .L44+12
 687 0026 FFF7FEFF 		bl	CyDelay
 688              	.LVL60:
 167:.\motorControl.c ****        while(bDoneMovingCalibrate == FALSE)
 689              		.loc 1 167 0
 690 002a 0021     		mov	r1, #0
 691 002c 5C23     		mov	r3, #92
 692 002e 1C4A     		ldr	r2, .L44+4
 693 0030 D154     		strb	r1, [r2, r3]
 168:.\motorControl.c ****        {
 694              		.loc 1 168 0
 695 0032 0FE0     		b	.L38
 696              	.L41:
ARM GAS  C:\Users\kylep\AppData\Local\Temp\ccEgY6oq.s 			page 20


 170:.\motorControl.c ****             {
 697              		.loc 1 170 0
 698 0034 194B     		ldr	r3, .L44
 699 0036 1A68     		ldr	r2, [r3]
 700 0038 3023     		mov	r3, #48
 701 003a D35C     		ldrb	r3, [r2, r3]
 702 003c 012B     		cmp	r3, #1
 703 003e 06D1     		bne	.L39
 172:.\motorControl.c ****                 CyDelay(1);
 704              		.loc 1 172 0
 705 0040 0022     		mov	r2, #0
 706 0042 174B     		ldr	r3, .L44+4
 707 0044 1A66     		str	r2, [r3, #96]
 173:.\motorControl.c ****                 break;
 708              		.loc 1 173 0
 709 0046 0120     		mov	r0, #1
 710 0048 FFF7FEFF 		bl	CyDelay
 711              	.LVL61:
 174:.\motorControl.c ****             }
 712              		.loc 1 174 0
 713 004c 07E0     		b	.L40
 714              	.L39:
 177:.\motorControl.c ****        };
 715              		.loc 1 177 0
 716 004e FC20     		mov	r0, #252
 717 0050 FFF7FEFF 		bl	motorControlLoop
 718              	.LVL62:
 719              	.L38:
 168:.\motorControl.c ****        {
 720              		.loc 1 168 0
 721 0054 5C23     		mov	r3, #92
 722 0056 124A     		ldr	r2, .L44+4
 723 0058 D35C     		ldrb	r3, [r2, r3]
 724 005a 002B     		cmp	r3, #0
 725 005c EAD0     		beq	.L41
 726              	.L40:
 181:.\motorControl.c ****        if(timeOutCalibrate >= 6)
 727              		.loc 1 181 0
 728 005e 104A     		ldr	r2, .L44+4
 729 0060 136E     		ldr	r3, [r2, #96]
 730 0062 0133     		add	r3, r3, #1
 731 0064 1366     		str	r3, [r2, #96]
 182:.\motorControl.c ****        {
 732              		.loc 1 182 0
 733 0066 052B     		cmp	r3, #5
 734 0068 03D9     		bls	.L36
 184:.\motorControl.c ****             break;
 735              		.loc 1 184 0
 736 006a 0022     		mov	r2, #0
 737 006c 0C4B     		ldr	r3, .L44+4
 738 006e 1A66     		str	r2, [r3, #96]
 185:.\motorControl.c ****        }
 739              		.loc 1 185 0
 740 0070 05E0     		b	.L42
 741              	.L36:
 159:.\motorControl.c ****     {
 742              		.loc 1 159 0
ARM GAS  C:\Users\kylep\AppData\Local\Temp\ccEgY6oq.s 			page 21


 743 0072 0A4B     		ldr	r3, .L44
 744 0074 1A68     		ldr	r2, [r3]
 745 0076 3023     		mov	r3, #48
 746 0078 D35C     		ldrb	r3, [r2, r3]
 747 007a 012B     		cmp	r3, #1
 748 007c CAD1     		bne	.L43
 749              	.L42:
 188:.\motorControl.c ****     hallEffectISR_Stop();
 750              		.loc 1 188 0
 751 007e 0020     		mov	r0, #0
 752 0080 FF21     		mov	r1, #255
 753 0082 FFF7FEFF 		bl	setMotorOutputs
 754              	.LVL63:
 189:.\motorControl.c ****     CyDelay(10);
 755              		.loc 1 189 0
 756 0086 FFF7FEFF 		bl	hallEffectISR_Stop
 757              	.LVL64:
 190:.\motorControl.c ****     return pMotor->forwardLimitCS;
 758              		.loc 1 190 0
 759 008a 0A20     		mov	r0, #10
 760 008c FFF7FEFF 		bl	CyDelay
 761              	.LVL65:
 191:.\motorControl.c **** }
 762              		.loc 1 191 0
 763 0090 024B     		ldr	r3, .L44
 764 0092 1B68     		ldr	r3, [r3]
 765 0094 0220     		mov	r0, #2
 766 0096 185E     		ldrsh	r0, [r3, r0]
 192:.\motorControl.c **** 
 767              		.loc 1 192 0
 768              		@ sp needed
 769 0098 08BD     		pop	{r3, pc}
 770              	.L45:
 771 009a C046     		.align	2
 772              	.L44:
 773 009c 00000000 		.word	pMotor
 774 00a0 00000000 		.word	.LANCHOR0
 775 00a4 00000000 		.word	HALL_EFFECT_EDGE_DETECT_INTERRUPT
 776 00a8 88130000 		.word	5000
 777              		.cfi_endproc
 778              	.LFE37:
 779              		.size	calibrateMotor, .-calibrateMotor
 780              		.section	.text.checkMotorCurrent,"ax",%progbits
 781              		.align	2
 782              		.global	checkMotorCurrent
 783              		.code	16
 784              		.thumb_func
 785              		.type	checkMotorCurrent, %function
 786              	checkMotorCurrent:
 787              	.LFB41:
 356:.\motorControl.c **** 
 357:.\motorControl.c **** uint16 checkMotorCurrent(void)
 358:.\motorControl.c **** {
 788              		.loc 1 358 0
 789              		.cfi_startproc
 790 0000 08B5     		push	{r3, lr}
 791              		.cfi_def_cfa_offset 8
ARM GAS  C:\Users\kylep\AppData\Local\Temp\ccEgY6oq.s 			page 22


 792              		.cfi_offset 3, -8
 793              		.cfi_offset 14, -4
 794              	.LVL66:
 359:.\motorControl.c ****     uint16 motorCurrentValue = 0;
 360:.\motorControl.c ****     motorCurrentValue = ADC_SAR_Seq_GetResult16(HBridge_CS);
 795              		.loc 1 360 0
 796 0002 0220     		mov	r0, #2
 797 0004 FFF7FEFF 		bl	ADC_SAR_Seq_GetResult16
 798              	.LVL67:
 799 0008 80B2     		uxth	r0, r0
 800              	.LVL68:
 361:.\motorControl.c ****     return motorCurrentValue;
 362:.\motorControl.c **** }...
 801              		.loc 1 362 0
 802              		@ sp needed
 803 000a 08BD     		pop	{r3, pc}
 804              		.cfi_endproc
 805              	.LFE41:
 806              		.size	checkMotorCurrent, .-checkMotorCurrent
 807              		.section	.text.OVER_CURRENT_ISR,"ax",%progbits
 808              		.align	2
 809              		.global	OVER_CURRENT_ISR
 810              		.code	16
 811              		.thumb_func
 812              		.type	OVER_CURRENT_ISR, %function
 813              	OVER_CURRENT_ISR:
 814              	.LFB35:
  53:.\motorControl.c **** {
 815              		.loc 1 53 0
 816              		.cfi_startproc
 817 0000 F8B5     		push	{r3, r4, r5, r6, r7, lr}
 818              		.cfi_def_cfa_offset 24
 819              		.cfi_offset 3, -24
 820              		.cfi_offset 4, -20
 821              		.cfi_offset 5, -16
 822              		.cfi_offset 6, -12
 823              		.cfi_offset 7, -8
 824              		.cfi_offset 14, -4
  54:.\motorControl.c ****     if(ADC_SAR_Seq_IsEndConversion(ADC_SAR_Seq_RETURN_STATUS) !=0)
 825              		.loc 1 54 0
 826 0002 0120     		mov	r0, #1
 827 0004 FFF7FEFF 		bl	ADC_SAR_Seq_IsEndConversion
 828              	.LVL69:
 829 0008 0028     		cmp	r0, #0
 830 000a 0DD0     		beq	.L48
  56:.\motorControl.c ****         pMotor->motorCurrent[pMotor->motorCurrentSamplesIterator] = checkMotorCurrent();
 831              		.loc 1 56 0
 832 000c 434E     		ldr	r6, .L54
 833 000e 3768     		ldr	r7, [r6]
 834 0010 4A25     		mov	r5, #74
 835 0012 7C5D     		ldrb	r4, [r7, r5]
 836 0014 FFF7FEFF 		bl	checkMotorCurrent
 837              	.LVL70:
 838 0018 1834     		add	r4, r4, #24
 839 001a 6400     		lsl	r4, r4, #1
 840 001c 3C19     		add	r4, r7, r4
 841 001e 6080     		strh	r0, [r4, #2]
ARM GAS  C:\Users\kylep\AppData\Local\Temp\ccEgY6oq.s 			page 23


  57:.\motorControl.c ****         pMotor->motorCurrentSamplesIterator++;
 842              		.loc 1 57 0
 843 0020 3268     		ldr	r2, [r6]
 844 0022 535D     		ldrb	r3, [r2, r5]
 845 0024 0133     		add	r3, r3, #1
 846 0026 5355     		strb	r3, [r2, r5]
 847              	.L48:
  61:.\motorControl.c ****     if(pMotor->motorCurrent[0]>= OVER_CURRENT_VALUE && pMotor->motorCurrent[1]>= OVER_CURRENT_VALUE
 848              		.loc 1 61 0
 849 0028 3C4B     		ldr	r3, .L54
 850 002a 1B68     		ldr	r3, [r3]
 851 002c 598E     		ldrh	r1, [r3, #50]
 852 002e F422     		mov	r2, #244
 853 0030 FF32     		add	r2, r2, #255
 854 0032 9142     		cmp	r1, r2
 855 0034 51D9     		bls	.L49
  61:.\motorControl.c ****     if(pMotor->motorCurrent[0]>= OVER_CURRENT_VALUE && pMotor->motorCurrent[1]>= OVER_CURRENT_VALUE
 856              		.loc 1 61 0 is_stmt 0 discriminator 1
 857 0036 998E     		ldrh	r1, [r3, #52]
 858 0038 9142     		cmp	r1, r2
 859 003a 4ED9     		bls	.L49
  61:.\motorControl.c ****     if(pMotor->motorCurrent[0]>= OVER_CURRENT_VALUE && pMotor->motorCurrent[1]>= OVER_CURRENT_VALUE
 860              		.loc 1 61 0 discriminator 2
 861 003c D98E     		ldrh	r1, [r3, #54]
 862 003e 9142     		cmp	r1, r2
 863 0040 4BD9     		bls	.L49
  61:.\motorControl.c ****     if(pMotor->motorCurrent[0]>= OVER_CURRENT_VALUE && pMotor->motorCurrent[1]>= OVER_CURRENT_VALUE
 864              		.loc 1 61 0 discriminator 3
 865 0042 198F     		ldrh	r1, [r3, #56]
 866 0044 9142     		cmp	r1, r2
 867 0046 48D9     		bls	.L49
  61:.\motorControl.c ****     if(pMotor->motorCurrent[0]>= OVER_CURRENT_VALUE && pMotor->motorCurrent[1]>= OVER_CURRENT_VALUE
 868              		.loc 1 61 0 discriminator 4
 869 0048 598F     		ldrh	r1, [r3, #58]
 870 004a 9142     		cmp	r1, r2
 871 004c 45D9     		bls	.L49
  61:.\motorControl.c ****     if(pMotor->motorCurrent[0]>= OVER_CURRENT_VALUE && pMotor->motorCurrent[1]>= OVER_CURRENT_VALUE
 872              		.loc 1 61 0 discriminator 5
 873 004e 998F     		ldrh	r1, [r3, #60]
 874 0050 9142     		cmp	r1, r2
 875 0052 42D9     		bls	.L49
  61:.\motorControl.c ****     if(pMotor->motorCurrent[0]>= OVER_CURRENT_VALUE && pMotor->motorCurrent[1]>= OVER_CURRENT_VALUE
 876              		.loc 1 61 0 discriminator 6
 877 0054 D98F     		ldrh	r1, [r3, #62]
 878 0056 9142     		cmp	r1, r2
 879 0058 3FD9     		bls	.L49
  61:.\motorControl.c ****     if(pMotor->motorCurrent[0]>= OVER_CURRENT_VALUE && pMotor->motorCurrent[1]>= OVER_CURRENT_VALUE
 880              		.loc 1 61 0 discriminator 7
 881 005a B43A     		sub	r2, r2, #180
 882 005c FF3A     		sub	r2, r2, #255
 883 005e 995A     		ldrh	r1, [r3, r2]
 884 0060 F422     		mov	r2, #244
 885 0062 FF32     		add	r2, r2, #255
 886 0064 9142     		cmp	r1, r2
 887 0066 38D9     		bls	.L49
  61:.\motorControl.c ****     if(pMotor->motorCurrent[0]>= OVER_CURRENT_VALUE && pMotor->motorCurrent[1]>= OVER_CURRENT_VALUE
 888              		.loc 1 61 0 discriminator 8
ARM GAS  C:\Users\kylep\AppData\Local\Temp\ccEgY6oq.s 			page 24


 889 0068 B23A     		sub	r2, r2, #178
 890 006a FF3A     		sub	r2, r2, #255
 891 006c 995A     		ldrh	r1, [r3, r2]
 892 006e F422     		mov	r2, #244
 893 0070 FF32     		add	r2, r2, #255
 894 0072 9142     		cmp	r1, r2
 895 0074 31D9     		bls	.L49
  61:.\motorControl.c ****     if(pMotor->motorCurrent[0]>= OVER_CURRENT_VALUE && pMotor->motorCurrent[1]>= OVER_CURRENT_VALUE
 896              		.loc 1 61 0 discriminator 9
 897 0076 B03A     		sub	r2, r2, #176
 898 0078 FF3A     		sub	r2, r2, #255
 899 007a 995A     		ldrh	r1, [r3, r2]
 900 007c F422     		mov	r2, #244
 901 007e FF32     		add	r2, r2, #255
 902 0080 9142     		cmp	r1, r2
 903 0082 2AD9     		bls	.L49
  61:.\motorControl.c ****     if(pMotor->motorCurrent[0]>= OVER_CURRENT_VALUE && pMotor->motorCurrent[1]>= OVER_CURRENT_VALUE
 904              		.loc 1 61 0 discriminator 10
 905 0084 AE3A     		sub	r2, r2, #174
 906 0086 FF3A     		sub	r2, r2, #255
 907 0088 995A     		ldrh	r1, [r3, r2]
 908 008a F422     		mov	r2, #244
 909 008c FF32     		add	r2, r2, #255
 910 008e 9142     		cmp	r1, r2
 911 0090 23D9     		bls	.L49
  61:.\motorControl.c ****     if(pMotor->motorCurrent[0]>= OVER_CURRENT_VALUE && pMotor->motorCurrent[1]>= OVER_CURRENT_VALUE
 912              		.loc 1 61 0 discriminator 11
 913 0092 AC3A     		sub	r2, r2, #172
 914 0094 FF3A     		sub	r2, r2, #255
 915 0096 9A5A     		ldrh	r2, [r3, r2]
 916 0098 F423     		mov	r3, #244
 917 009a FF33     		add	r3, r3, #255
 918 009c 9A42     		cmp	r2, r3
 919 009e 1CD9     		bls	.L49
  63:.\motorControl.c ****             setMotorOutputs(BRAKE,0xFF);
 920              		.loc 1 63 0 is_stmt 1
 921 00a0 0020     		mov	r0, #0
 922 00a2 FF21     		mov	r1, #255
 923 00a4 FFF7FEFF 		bl	setMotorOutputs
 924              	.LVL71:
  64:.\motorControl.c ****             for(pMotor->motorCurrentSamplesIterator = 0; pMotor->motorCurrentSamplesIterator<12; pM
 925              		.loc 1 64 0
 926 00a8 1C4B     		ldr	r3, .L54
 927 00aa 1A68     		ldr	r2, [r3]
 928 00ac 0021     		mov	r1, #0
 929 00ae 4A23     		mov	r3, #74
 930 00b0 D154     		strb	r1, [r2, r3]
 931 00b2 08E0     		b	.L50
 932              	.L51:
  66:.\motorControl.c ****                 pMotor->motorCurrent[pMotor->motorCurrentSamplesIterator] = 0;
 933              		.loc 1 66 0 discriminator 3
 934 00b4 1833     		add	r3, r3, #24
 935 00b6 5B00     		lsl	r3, r3, #1
 936 00b8 D318     		add	r3, r2, r3
 937 00ba 0021     		mov	r1, #0
 938 00bc 5980     		strh	r1, [r3, #2]
  64:.\motorControl.c ****             for(pMotor->motorCurrentSamplesIterator = 0; pMotor->motorCurrentSamplesIterator<12; pM
ARM GAS  C:\Users\kylep\AppData\Local\Temp\ccEgY6oq.s 			page 25


 939              		.loc 1 64 0 discriminator 3
 940 00be 4A31     		add	r1, r1, #74
 941 00c0 535C     		ldrb	r3, [r2, r1]
 942 00c2 0133     		add	r3, r3, #1
 943 00c4 5354     		strb	r3, [r2, r1]
 944              	.L50:
  64:.\motorControl.c ****             for(pMotor->motorCurrentSamplesIterator = 0; pMotor->motorCurrentSamplesIterator<12; pM
 945              		.loc 1 64 0 is_stmt 0 discriminator 1
 946 00c6 4A23     		mov	r3, #74
 947 00c8 D35C     		ldrb	r3, [r2, r3]
 948 00ca 0B2B     		cmp	r3, #11
 949 00cc F2D9     		bls	.L51
  68:.\motorControl.c ****             pMotor->motorCurrentSamplesIterator = 0;
 950              		.loc 1 68 0 is_stmt 1
 951 00ce 0021     		mov	r1, #0
 952 00d0 4A23     		mov	r3, #74
 953 00d2 D154     		strb	r1, [r2, r3]
  69:.\motorControl.c ****             pMotor->bOverCurrentStart = TRUE;
 954              		.loc 1 69 0
 955 00d4 0131     		add	r1, r1, #1
 956 00d6 0433     		add	r3, r3, #4
 957 00d8 D154     		strb	r1, [r2, r3]
 958              	.L49:
  71:.\motorControl.c ****     if( pMotor->bOverCurrentStart == TRUE)
 959              		.loc 1 71 0
 960 00da 104B     		ldr	r3, .L54
 961 00dc 1B68     		ldr	r3, [r3]
 962 00de 4E22     		mov	r2, #78
 963 00e0 9A5C     		ldrb	r2, [r3, r2]
 964 00e2 012A     		cmp	r2, #1
 965 00e4 0DD1     		bne	.L52
  73:.\motorControl.c ****         pMotor->overCurrentTimerOutCounter++;
 966              		.loc 1 73 0
 967 00e6 5021     		mov	r1, #80
 968 00e8 5A5A     		ldrh	r2, [r3, r1]
 969 00ea 0132     		add	r2, r2, #1
 970 00ec 92B2     		uxth	r2, r2
 971 00ee 5A52     		strh	r2, [r3, r1]
  74:.\motorControl.c ****         if(pMotor->overCurrentTimerOutCounter>=OVER_CURRENT_TIMER_THRESHOLD)
 972              		.loc 1 74 0
 973 00f0 F421     		mov	r1, #244
 974 00f2 FF31     		add	r1, r1, #255
 975 00f4 8A42     		cmp	r2, r1
 976 00f6 04D9     		bls	.L52
  76:.\motorControl.c ****             pMotor->overCurrentTimerOutCounter=0;
 977              		.loc 1 76 0
 978 00f8 0021     		mov	r1, #0
 979 00fa 5022     		mov	r2, #80
 980 00fc 9952     		strh	r1, [r3, r2]
  77:.\motorControl.c ****             pMotor->bOverCurrentStart = FALSE;
 981              		.loc 1 77 0
 982 00fe 023A     		sub	r2, r2, #2
 983 0100 9954     		strb	r1, [r3, r2]
 984              	.L52:
  80:.\motorControl.c ****     if(pMotor->motorCurrentSamplesIterator>=12)
 985              		.loc 1 80 0
 986 0102 4A22     		mov	r2, #74
ARM GAS  C:\Users\kylep\AppData\Local\Temp\ccEgY6oq.s 			page 26


 987 0104 9A5C     		ldrb	r2, [r3, r2]
 988 0106 0B2A     		cmp	r2, #11
 989 0108 02D9     		bls	.L53
  82:.\motorControl.c ****         pMotor->motorCurrentSamplesIterator = 0;
 990              		.loc 1 82 0
 991 010a 0021     		mov	r1, #0
 992 010c 4A22     		mov	r2, #74
 993 010e 9954     		strb	r1, [r3, r2]
 994              	.L53:
  84:.\motorControl.c ****     overCurrentTimerISR_ClearPending();
 995              		.loc 1 84 0
 996 0110 FFF7FEFF 		bl	overCurrentTimerISR_ClearPending
 997              	.LVL72:
  85:.\motorControl.c ****     overCurrentTimer_ReadStatusRegister();
 998              		.loc 1 85 0
 999 0114 FFF7FEFF 		bl	overCurrentTimer_ReadStatusRegister
 1000              	.LVL73:
  87:.\motorControl.c **** }
 1001              		.loc 1 87 0
 1002              		@ sp needed
 1003 0118 F8BD     		pop	{r3, r4, r5, r6, r7, pc}
 1004              	.L55:
 1005 011a C046     		.align	2
 1006              	.L54:
 1007 011c 00000000 		.word	pMotor
 1008              		.cfi_endproc
 1009              	.LFE35:
 1010              		.size	OVER_CURRENT_ISR, .-OVER_CURRENT_ISR
 1011              		.global	bDoneMovingCalibrate
 1012              		.global	motorStatus
 1013              		.comm	rxPacketLocal,4,4
 1014              		.comm	pMotor,4,4
 1015              		.bss
 1016              		.align	2
 1017              		.set	.LANCHOR0,. + 0
 1018              		.type	pLocalNonVolatileMemory.6355, %object
 1019              		.size	pLocalNonVolatileMemory.6355, 4
 1020              	pLocalNonVolatileMemory.6355:
 1021 0000 00000000 		.space	4
 1022              		.type	motorStatus, %object
 1023              		.size	motorStatus, 84
 1024              	motorStatus:
 1025 0004 00000000 		.space	84
 1025      00000000 
 1025      00000000 
 1025      00000000 
 1025      00000000 
 1026              		.type	pNonVolatileMotorPosition.6339, %object
 1027              		.size	pNonVolatileMotorPosition.6339, 4
 1028              	pNonVolatileMotorPosition.6339:
 1029 0058 00000000 		.space	4
 1030              		.type	bDoneMovingCalibrate, %object
 1031              		.size	bDoneMovingCalibrate, 1
 1032              	bDoneMovingCalibrate:
 1033 005c 00       		.space	1
 1034 005d 000000   		.space	3
 1035              		.type	timeOutCalibrate, %object
ARM GAS  C:\Users\kylep\AppData\Local\Temp\ccEgY6oq.s 			page 27


 1036              		.size	timeOutCalibrate, 4
 1037              	timeOutCalibrate:
 1038 0060 00000000 		.space	4
 1039              		.text
 1040              	.Letext0:
 1041              		.file 2 "Generated_Source\\PSoC4/cytypes.h"
 1042              		.file 3 ".\\motorControl.h"
 1043              		.file 4 ".\\BrightnessCommManager.h"
 1044              		.file 5 "Generated_Source\\PSoC4/motorControlPWM.h"
 1045              		.file 6 "Generated_Source\\PSoC4/CyLib.h"
 1046              		.file 7 ".\\commonVariables.h"
 1047              		.file 8 "Generated_Source\\PSoC4/limitSwitch.h"
 1048              		.file 9 "Generated_Source\\PSoC4/pwmClock.h"
 1049              		.file 10 "Generated_Source\\PSoC4/overCurrentTimerISR.h"
 1050              		.file 11 "Generated_Source\\PSoC4/overCurrentTimer.h"
 1051              		.file 12 "Generated_Source\\PSoC4/hallEffectISR.h"
 1052              		.file 13 "Generated_Source\\PSoC4/ADC_SAR_Seq.h"