ARM GAS  C:\Users\kylep\AppData\Local\Temp\ccb0cbug.s 			page 1


   1              		.cpu cortex-m0
   2              		.fpu softvfp
   3              		.eabi_attribute 20, 1
   4              		.eabi_attribute 21, 1
   5              		.eabi_attribute 23, 3
   6              		.eabi_attribute 24, 1
   7              		.eabi_attribute 25, 1
   8              		.eabi_attribute 26, 1
   9              		.eabi_attribute 30, 1
  10              		.eabi_attribute 34, 0
  11              		.eabi_attribute 18, 4
  12              		.code	16
  13              		.file	"motorControlPWM_PM.c"
  14              		.text
  15              	.Ltext0:
  16              		.cfi_sections	.debug_frame
  17              		.section	.text.motorControlPWM_SaveConfig,"ax",%progbits
  18              		.align	2
  19              		.global	motorControlPWM_SaveConfig
  20              		.code	16
  21              		.thumb_func
  22              		.type	motorControlPWM_SaveConfig, %function
  23              	motorControlPWM_SaveConfig:
  24              	.LFB0:
  25              		.file 1 ".\\Generated_Source\\PSoC4\\motorControlPWM_PM.c"
   1:.\Generated_Source\PSoC4/motorControlPWM_PM.c **** /*******************************************************************************
   2:.\Generated_Source\PSoC4/motorControlPWM_PM.c **** * File Name: motorControlPWM_PM.c
   3:.\Generated_Source\PSoC4/motorControlPWM_PM.c **** * Version 3.30
   4:.\Generated_Source\PSoC4/motorControlPWM_PM.c **** *
   5:.\Generated_Source\PSoC4/motorControlPWM_PM.c **** * Description:
   6:.\Generated_Source\PSoC4/motorControlPWM_PM.c **** *  This file provides the power management source code to API for the
   7:.\Generated_Source\PSoC4/motorControlPWM_PM.c **** *  PWM.
   8:.\Generated_Source\PSoC4/motorControlPWM_PM.c **** *
   9:.\Generated_Source\PSoC4/motorControlPWM_PM.c **** * Note:
  10:.\Generated_Source\PSoC4/motorControlPWM_PM.c **** *
  11:.\Generated_Source\PSoC4/motorControlPWM_PM.c **** ********************************************************************************
  12:.\Generated_Source\PSoC4/motorControlPWM_PM.c **** * Copyright 2008-2014, Cypress Semiconductor Corporation.  All rights reserved.
  13:.\Generated_Source\PSoC4/motorControlPWM_PM.c **** * You may use this file only in accordance with the license, terms, conditions,
  14:.\Generated_Source\PSoC4/motorControlPWM_PM.c **** * disclaimers, and limitations in the end user license agreement accompanying
  15:.\Generated_Source\PSoC4/motorControlPWM_PM.c **** * the software package with which this file was provided.
  16:.\Generated_Source\PSoC4/motorControlPWM_PM.c **** *******************************************************************************/
  17:.\Generated_Source\PSoC4/motorControlPWM_PM.c **** 
  18:.\Generated_Source\PSoC4/motorControlPWM_PM.c **** #include "motorControlPWM.h"
  19:.\Generated_Source\PSoC4/motorControlPWM_PM.c **** 
  20:.\Generated_Source\PSoC4/motorControlPWM_PM.c **** static motorControlPWM_backupStruct motorControlPWM_backup;
  21:.\Generated_Source\PSoC4/motorControlPWM_PM.c **** 
  22:.\Generated_Source\PSoC4/motorControlPWM_PM.c **** 
  23:.\Generated_Source\PSoC4/motorControlPWM_PM.c **** /*******************************************************************************
  24:.\Generated_Source\PSoC4/motorControlPWM_PM.c **** * Function Name: motorControlPWM_SaveConfig
  25:.\Generated_Source\PSoC4/motorControlPWM_PM.c **** ********************************************************************************
  26:.\Generated_Source\PSoC4/motorControlPWM_PM.c **** *
  27:.\Generated_Source\PSoC4/motorControlPWM_PM.c **** * Summary:
  28:.\Generated_Source\PSoC4/motorControlPWM_PM.c **** *  Saves the current user configuration of the component.
  29:.\Generated_Source\PSoC4/motorControlPWM_PM.c **** *
  30:.\Generated_Source\PSoC4/motorControlPWM_PM.c **** * Parameters:
  31:.\Generated_Source\PSoC4/motorControlPWM_PM.c **** *  None
  32:.\Generated_Source\PSoC4/motorControlPWM_PM.c **** *
ARM GAS  C:\Users\kylep\AppData\Local\Temp\ccb0cbug.s 			page 2


  33:.\Generated_Source\PSoC4/motorControlPWM_PM.c **** * Return:
  34:.\Generated_Source\PSoC4/motorControlPWM_PM.c **** *  None
  35:.\Generated_Source\PSoC4/motorControlPWM_PM.c **** *
  36:.\Generated_Source\PSoC4/motorControlPWM_PM.c **** * Global variables:
  37:.\Generated_Source\PSoC4/motorControlPWM_PM.c **** *  motorControlPWM_backup:  Variables of this global structure are modified to
  38:.\Generated_Source\PSoC4/motorControlPWM_PM.c **** *  store the values of non retention configuration registers when Sleep() API is
  39:.\Generated_Source\PSoC4/motorControlPWM_PM.c **** *  called.
  40:.\Generated_Source\PSoC4/motorControlPWM_PM.c **** *
  41:.\Generated_Source\PSoC4/motorControlPWM_PM.c **** *******************************************************************************/
  42:.\Generated_Source\PSoC4/motorControlPWM_PM.c **** void motorControlPWM_SaveConfig(void) 
  43:.\Generated_Source\PSoC4/motorControlPWM_PM.c **** {
  26              		.loc 1 43 0
  27              		.cfi_startproc
  28 0000 10B5     		push	{r4, lr}
  29              		.cfi_def_cfa_offset 8
  30              		.cfi_offset 4, -8
  31              		.cfi_offset 14, -4
  44:.\Generated_Source\PSoC4/motorControlPWM_PM.c **** 
  45:.\Generated_Source\PSoC4/motorControlPWM_PM.c ****     #if(!motorControlPWM_UsingFixedFunction)
  46:.\Generated_Source\PSoC4/motorControlPWM_PM.c ****         #if(!motorControlPWM_PWMModeIsCenterAligned)
  47:.\Generated_Source\PSoC4/motorControlPWM_PM.c ****             motorControlPWM_backup.PWMPeriod = motorControlPWM_ReadPeriod();
  32              		.loc 1 47 0
  33 0002 FFF7FEFF 		bl	motorControlPWM_ReadPeriod
  34              	.LVL0:
  35 0006 044C     		ldr	r4, .L2
  36 0008 A070     		strb	r0, [r4, #2]
  48:.\Generated_Source\PSoC4/motorControlPWM_PM.c ****         #endif /* (!motorControlPWM_PWMModeIsCenterAligned) */
  49:.\Generated_Source\PSoC4/motorControlPWM_PM.c ****         motorControlPWM_backup.PWMUdb = motorControlPWM_ReadCounter();
  37              		.loc 1 49 0
  38 000a FFF7FEFF 		bl	motorControlPWM_ReadCounter
  39              	.LVL1:
  40 000e 6070     		strb	r0, [r4, #1]
  50:.\Generated_Source\PSoC4/motorControlPWM_PM.c ****         #if (motorControlPWM_UseStatus)
  51:.\Generated_Source\PSoC4/motorControlPWM_PM.c ****             motorControlPWM_backup.InterruptMaskValue = motorControlPWM_STATUS_MASK;
  52:.\Generated_Source\PSoC4/motorControlPWM_PM.c ****         #endif /* (motorControlPWM_UseStatus) */
  53:.\Generated_Source\PSoC4/motorControlPWM_PM.c **** 
  54:.\Generated_Source\PSoC4/motorControlPWM_PM.c ****         #if(motorControlPWM_DeadBandMode == motorControlPWM__B_PWM__DBM_256_CLOCKS || \
  55:.\Generated_Source\PSoC4/motorControlPWM_PM.c ****             motorControlPWM_DeadBandMode == motorControlPWM__B_PWM__DBM_2_4_CLOCKS)
  56:.\Generated_Source\PSoC4/motorControlPWM_PM.c ****             motorControlPWM_backup.PWMdeadBandValue = motorControlPWM_ReadDeadTime();
  57:.\Generated_Source\PSoC4/motorControlPWM_PM.c ****         #endif /*  deadband count is either 2-4 clocks or 256 clocks */
  58:.\Generated_Source\PSoC4/motorControlPWM_PM.c **** 
  59:.\Generated_Source\PSoC4/motorControlPWM_PM.c ****         #if(motorControlPWM_KillModeMinTime)
  60:.\Generated_Source\PSoC4/motorControlPWM_PM.c ****              motorControlPWM_backup.PWMKillCounterPeriod = motorControlPWM_ReadKillTime();
  61:.\Generated_Source\PSoC4/motorControlPWM_PM.c ****         #endif /* (motorControlPWM_KillModeMinTime) */
  62:.\Generated_Source\PSoC4/motorControlPWM_PM.c **** 
  63:.\Generated_Source\PSoC4/motorControlPWM_PM.c ****         #if(motorControlPWM_UseControl)
  64:.\Generated_Source\PSoC4/motorControlPWM_PM.c ****             motorControlPWM_backup.PWMControlRegister = motorControlPWM_ReadControlRegister();
  41              		.loc 1 64 0
  42 0010 FFF7FEFF 		bl	motorControlPWM_ReadControlRegister
  43              	.LVL2:
  44 0014 E070     		strb	r0, [r4, #3]
  65:.\Generated_Source\PSoC4/motorControlPWM_PM.c ****         #endif /* (motorControlPWM_UseControl) */
  66:.\Generated_Source\PSoC4/motorControlPWM_PM.c ****     #endif  /* (!motorControlPWM_UsingFixedFunction) */
  67:.\Generated_Source\PSoC4/motorControlPWM_PM.c **** }
  45              		.loc 1 67 0
  46              		@ sp needed
  47 0016 10BD     		pop	{r4, pc}
ARM GAS  C:\Users\kylep\AppData\Local\Temp\ccb0cbug.s 			page 3


  48              	.L3:
  49              		.align	2
  50              	.L2:
  51 0018 00000000 		.word	.LANCHOR0
  52              		.cfi_endproc
  53              	.LFE0:
  54              		.size	motorControlPWM_SaveConfig, .-motorControlPWM_SaveConfig
  55              		.section	.text.motorControlPWM_RestoreConfig,"ax",%progbits
  56              		.align	2
  57              		.global	motorControlPWM_RestoreConfig
  58              		.code	16
  59              		.thumb_func
  60              		.type	motorControlPWM_RestoreConfig, %function
  61              	motorControlPWM_RestoreConfig:
  62              	.LFB1:
  68:.\Generated_Source\PSoC4/motorControlPWM_PM.c **** 
  69:.\Generated_Source\PSoC4/motorControlPWM_PM.c **** 
  70:.\Generated_Source\PSoC4/motorControlPWM_PM.c **** /*******************************************************************************
  71:.\Generated_Source\PSoC4/motorControlPWM_PM.c **** * Function Name: motorControlPWM_RestoreConfig
  72:.\Generated_Source\PSoC4/motorControlPWM_PM.c **** ********************************************************************************
  73:.\Generated_Source\PSoC4/motorControlPWM_PM.c **** *
  74:.\Generated_Source\PSoC4/motorControlPWM_PM.c **** * Summary:
  75:.\Generated_Source\PSoC4/motorControlPWM_PM.c **** *  Restores the current user configuration of the component.
  76:.\Generated_Source\PSoC4/motorControlPWM_PM.c **** *
  77:.\Generated_Source\PSoC4/motorControlPWM_PM.c **** * Parameters:
  78:.\Generated_Source\PSoC4/motorControlPWM_PM.c **** *  None
  79:.\Generated_Source\PSoC4/motorControlPWM_PM.c **** *
  80:.\Generated_Source\PSoC4/motorControlPWM_PM.c **** * Return:
  81:.\Generated_Source\PSoC4/motorControlPWM_PM.c **** *  None
  82:.\Generated_Source\PSoC4/motorControlPWM_PM.c **** *
  83:.\Generated_Source\PSoC4/motorControlPWM_PM.c **** * Global variables:
  84:.\Generated_Source\PSoC4/motorControlPWM_PM.c **** *  motorControlPWM_backup:  Variables of this global structure are used to
  85:.\Generated_Source\PSoC4/motorControlPWM_PM.c **** *  restore the values of non retention registers on wakeup from sleep mode.
  86:.\Generated_Source\PSoC4/motorControlPWM_PM.c **** *
  87:.\Generated_Source\PSoC4/motorControlPWM_PM.c **** *******************************************************************************/
  88:.\Generated_Source\PSoC4/motorControlPWM_PM.c **** void motorControlPWM_RestoreConfig(void) 
  89:.\Generated_Source\PSoC4/motorControlPWM_PM.c **** {
  63              		.loc 1 89 0
  64              		.cfi_startproc
  65 0000 10B5     		push	{r4, lr}
  66              		.cfi_def_cfa_offset 8
  67              		.cfi_offset 4, -8
  68              		.cfi_offset 14, -4
  90:.\Generated_Source\PSoC4/motorControlPWM_PM.c ****         #if(!motorControlPWM_UsingFixedFunction)
  91:.\Generated_Source\PSoC4/motorControlPWM_PM.c ****             #if(!motorControlPWM_PWMModeIsCenterAligned)
  92:.\Generated_Source\PSoC4/motorControlPWM_PM.c ****                 motorControlPWM_WritePeriod(motorControlPWM_backup.PWMPeriod);
  69              		.loc 1 92 0
  70 0002 054C     		ldr	r4, .L5
  71 0004 A078     		ldrb	r0, [r4, #2]
  72 0006 FFF7FEFF 		bl	motorControlPWM_WritePeriod
  73              	.LVL3:
  93:.\Generated_Source\PSoC4/motorControlPWM_PM.c ****             #endif /* (!motorControlPWM_PWMModeIsCenterAligned) */
  94:.\Generated_Source\PSoC4/motorControlPWM_PM.c **** 
  95:.\Generated_Source\PSoC4/motorControlPWM_PM.c ****             motorControlPWM_WriteCounter(motorControlPWM_backup.PWMUdb);
  74              		.loc 1 95 0
  75 000a 6078     		ldrb	r0, [r4, #1]
  76 000c FFF7FEFF 		bl	motorControlPWM_WriteCounter
ARM GAS  C:\Users\kylep\AppData\Local\Temp\ccb0cbug.s 			page 4


  77              	.LVL4:
  96:.\Generated_Source\PSoC4/motorControlPWM_PM.c **** 
  97:.\Generated_Source\PSoC4/motorControlPWM_PM.c ****             #if (motorControlPWM_UseStatus)
  98:.\Generated_Source\PSoC4/motorControlPWM_PM.c ****                 motorControlPWM_STATUS_MASK = motorControlPWM_backup.InterruptMaskValue;
  99:.\Generated_Source\PSoC4/motorControlPWM_PM.c ****             #endif /* (motorControlPWM_UseStatus) */
 100:.\Generated_Source\PSoC4/motorControlPWM_PM.c **** 
 101:.\Generated_Source\PSoC4/motorControlPWM_PM.c ****             #if(motorControlPWM_DeadBandMode == motorControlPWM__B_PWM__DBM_256_CLOCKS || \
 102:.\Generated_Source\PSoC4/motorControlPWM_PM.c ****                 motorControlPWM_DeadBandMode == motorControlPWM__B_PWM__DBM_2_4_CLOCKS)
 103:.\Generated_Source\PSoC4/motorControlPWM_PM.c ****                 motorControlPWM_WriteDeadTime(motorControlPWM_backup.PWMdeadBandValue);
 104:.\Generated_Source\PSoC4/motorControlPWM_PM.c ****             #endif /* deadband count is either 2-4 clocks or 256 clocks */
 105:.\Generated_Source\PSoC4/motorControlPWM_PM.c **** 
 106:.\Generated_Source\PSoC4/motorControlPWM_PM.c ****             #if(motorControlPWM_KillModeMinTime)
 107:.\Generated_Source\PSoC4/motorControlPWM_PM.c ****                 motorControlPWM_WriteKillTime(motorControlPWM_backup.PWMKillCounterPeriod);
 108:.\Generated_Source\PSoC4/motorControlPWM_PM.c ****             #endif /* (motorControlPWM_KillModeMinTime) */
 109:.\Generated_Source\PSoC4/motorControlPWM_PM.c **** 
 110:.\Generated_Source\PSoC4/motorControlPWM_PM.c ****             #if(motorControlPWM_UseControl)
 111:.\Generated_Source\PSoC4/motorControlPWM_PM.c ****                 motorControlPWM_WriteControlRegister(motorControlPWM_backup.PWMControlRegister);
  78              		.loc 1 111 0
  79 0010 E078     		ldrb	r0, [r4, #3]
  80 0012 FFF7FEFF 		bl	motorControlPWM_WriteControlRegister
  81              	.LVL5:
 112:.\Generated_Source\PSoC4/motorControlPWM_PM.c ****             #endif /* (motorControlPWM_UseControl) */
 113:.\Generated_Source\PSoC4/motorControlPWM_PM.c ****         #endif  /* (!motorControlPWM_UsingFixedFunction) */
 114:.\Generated_Source\PSoC4/motorControlPWM_PM.c ****     }
  82              		.loc 1 114 0
  83              		@ sp needed
  84 0016 10BD     		pop	{r4, pc}
  85              	.L6:
  86              		.align	2
  87              	.L5:
  88 0018 00000000 		.word	.LANCHOR0
  89              		.cfi_endproc
  90              	.LFE1:
  91              		.size	motorControlPWM_RestoreConfig, .-motorControlPWM_RestoreConfig
  92              		.section	.text.motorControlPWM_Sleep,"ax",%progbits
  93              		.align	2
  94              		.global	motorControlPWM_Sleep
  95              		.code	16
  96              		.thumb_func
  97              		.type	motorControlPWM_Sleep, %function
  98              	motorControlPWM_Sleep:
  99              	.LFB2:
 115:.\Generated_Source\PSoC4/motorControlPWM_PM.c **** 
 116:.\Generated_Source\PSoC4/motorControlPWM_PM.c **** 
 117:.\Generated_Source\PSoC4/motorControlPWM_PM.c **** /*******************************************************************************
 118:.\Generated_Source\PSoC4/motorControlPWM_PM.c **** * Function Name: motorControlPWM_Sleep
 119:.\Generated_Source\PSoC4/motorControlPWM_PM.c **** ********************************************************************************
 120:.\Generated_Source\PSoC4/motorControlPWM_PM.c **** *
 121:.\Generated_Source\PSoC4/motorControlPWM_PM.c **** * Summary:
 122:.\Generated_Source\PSoC4/motorControlPWM_PM.c **** *  Disables block's operation and saves the user configuration. Should be called
 123:.\Generated_Source\PSoC4/motorControlPWM_PM.c **** *  just prior to entering sleep.
 124:.\Generated_Source\PSoC4/motorControlPWM_PM.c **** *
 125:.\Generated_Source\PSoC4/motorControlPWM_PM.c **** * Parameters:
 126:.\Generated_Source\PSoC4/motorControlPWM_PM.c **** *  None
 127:.\Generated_Source\PSoC4/motorControlPWM_PM.c **** *
 128:.\Generated_Source\PSoC4/motorControlPWM_PM.c **** * Return:
 129:.\Generated_Source\PSoC4/motorControlPWM_PM.c **** *  None
ARM GAS  C:\Users\kylep\AppData\Local\Temp\ccb0cbug.s 			page 5


 130:.\Generated_Source\PSoC4/motorControlPWM_PM.c **** *
 131:.\Generated_Source\PSoC4/motorControlPWM_PM.c **** * Global variables:
 132:.\Generated_Source\PSoC4/motorControlPWM_PM.c **** *  motorControlPWM_backup.PWMEnableState:  Is modified depending on the enable
 133:.\Generated_Source\PSoC4/motorControlPWM_PM.c **** *  state of the block before entering sleep mode.
 134:.\Generated_Source\PSoC4/motorControlPWM_PM.c **** *
 135:.\Generated_Source\PSoC4/motorControlPWM_PM.c **** *******************************************************************************/
 136:.\Generated_Source\PSoC4/motorControlPWM_PM.c **** void motorControlPWM_Sleep(void) 
 137:.\Generated_Source\PSoC4/motorControlPWM_PM.c **** {
 100              		.loc 1 137 0
 101              		.cfi_startproc
 102 0000 08B5     		push	{r3, lr}
 103              		.cfi_def_cfa_offset 8
 104              		.cfi_offset 3, -8
 105              		.cfi_offset 14, -4
 138:.\Generated_Source\PSoC4/motorControlPWM_PM.c ****     #if(motorControlPWM_UseControl)
 139:.\Generated_Source\PSoC4/motorControlPWM_PM.c ****         if(motorControlPWM_CTRL_ENABLE == (motorControlPWM_CONTROL & motorControlPWM_CTRL_ENABLE))
 106              		.loc 1 139 0
 107 0002 084B     		ldr	r3, .L10
 108 0004 1B78     		ldrb	r3, [r3]
 109 0006 5BB2     		sxtb	r3, r3
 110 0008 002B     		cmp	r3, #0
 111 000a 03DA     		bge	.L8
 140:.\Generated_Source\PSoC4/motorControlPWM_PM.c ****         {
 141:.\Generated_Source\PSoC4/motorControlPWM_PM.c ****             /*Component is enabled */
 142:.\Generated_Source\PSoC4/motorControlPWM_PM.c ****             motorControlPWM_backup.PWMEnableState = 1u;
 112              		.loc 1 142 0
 113 000c 0122     		mov	r2, #1
 114 000e 064B     		ldr	r3, .L10+4
 115 0010 1A70     		strb	r2, [r3]
 116 0012 02E0     		b	.L9
 117              	.L8:
 143:.\Generated_Source\PSoC4/motorControlPWM_PM.c ****         }
 144:.\Generated_Source\PSoC4/motorControlPWM_PM.c ****         else
 145:.\Generated_Source\PSoC4/motorControlPWM_PM.c ****         {
 146:.\Generated_Source\PSoC4/motorControlPWM_PM.c ****             /* Component is disabled */
 147:.\Generated_Source\PSoC4/motorControlPWM_PM.c ****             motorControlPWM_backup.PWMEnableState = 0u;
 118              		.loc 1 147 0
 119 0014 0022     		mov	r2, #0
 120 0016 044B     		ldr	r3, .L10+4
 121 0018 1A70     		strb	r2, [r3]
 122              	.L9:
 148:.\Generated_Source\PSoC4/motorControlPWM_PM.c ****         }
 149:.\Generated_Source\PSoC4/motorControlPWM_PM.c ****     #endif /* (motorControlPWM_UseControl) */
 150:.\Generated_Source\PSoC4/motorControlPWM_PM.c **** 
 151:.\Generated_Source\PSoC4/motorControlPWM_PM.c ****     /* Stop component */
 152:.\Generated_Source\PSoC4/motorControlPWM_PM.c ****     motorControlPWM_Stop();
 123              		.loc 1 152 0
 124 001a FFF7FEFF 		bl	motorControlPWM_Stop
 125              	.LVL6:
 153:.\Generated_Source\PSoC4/motorControlPWM_PM.c **** 
 154:.\Generated_Source\PSoC4/motorControlPWM_PM.c ****     /* Save registers configuration */
 155:.\Generated_Source\PSoC4/motorControlPWM_PM.c ****     motorControlPWM_SaveConfig();
 126              		.loc 1 155 0
 127 001e FFF7FEFF 		bl	motorControlPWM_SaveConfig
 128              	.LVL7:
 156:.\Generated_Source\PSoC4/motorControlPWM_PM.c **** }
 129              		.loc 1 156 0
ARM GAS  C:\Users\kylep\AppData\Local\Temp\ccb0cbug.s 			page 6


 130              		@ sp needed
 131 0022 08BD     		pop	{r3, pc}
 132              	.L11:
 133              		.align	2
 134              	.L10:
 135 0024 72000F40 		.word	1074724978
 136 0028 00000000 		.word	.LANCHOR0
 137              		.cfi_endproc
 138              	.LFE2:
 139              		.size	motorControlPWM_Sleep, .-motorControlPWM_Sleep
 140              		.section	.text.motorControlPWM_Wakeup,"ax",%progbits
 141              		.align	2
 142              		.global	motorControlPWM_Wakeup
 143              		.code	16
 144              		.thumb_func
 145              		.type	motorControlPWM_Wakeup, %function
 146              	motorControlPWM_Wakeup:
 147              	.LFB3:
 157:.\Generated_Source\PSoC4/motorControlPWM_PM.c **** 
 158:.\Generated_Source\PSoC4/motorControlPWM_PM.c **** 
 159:.\Generated_Source\PSoC4/motorControlPWM_PM.c **** /*******************************************************************************
 160:.\Generated_Source\PSoC4/motorControlPWM_PM.c **** * Function Name: motorControlPWM_Wakeup
 161:.\Generated_Source\PSoC4/motorControlPWM_PM.c **** ********************************************************************************
 162:.\Generated_Source\PSoC4/motorControlPWM_PM.c **** *
 163:.\Generated_Source\PSoC4/motorControlPWM_PM.c **** * Summary:
 164:.\Generated_Source\PSoC4/motorControlPWM_PM.c **** *  Restores and enables the user configuration. Should be called just after
 165:.\Generated_Source\PSoC4/motorControlPWM_PM.c **** *  awaking from sleep.
 166:.\Generated_Source\PSoC4/motorControlPWM_PM.c **** *
 167:.\Generated_Source\PSoC4/motorControlPWM_PM.c **** * Parameters:
 168:.\Generated_Source\PSoC4/motorControlPWM_PM.c **** *  None
 169:.\Generated_Source\PSoC4/motorControlPWM_PM.c **** *
 170:.\Generated_Source\PSoC4/motorControlPWM_PM.c **** * Return:
 171:.\Generated_Source\PSoC4/motorControlPWM_PM.c **** *  None
 172:.\Generated_Source\PSoC4/motorControlPWM_PM.c **** *
 173:.\Generated_Source\PSoC4/motorControlPWM_PM.c **** * Global variables:
 174:.\Generated_Source\PSoC4/motorControlPWM_PM.c **** *  motorControlPWM_backup.pwmEnable:  Is used to restore the enable state of
 175:.\Generated_Source\PSoC4/motorControlPWM_PM.c **** *  block on wakeup from sleep mode.
 176:.\Generated_Source\PSoC4/motorControlPWM_PM.c **** *
 177:.\Generated_Source\PSoC4/motorControlPWM_PM.c **** *******************************************************************************/
 178:.\Generated_Source\PSoC4/motorControlPWM_PM.c **** void motorControlPWM_Wakeup(void) 
 179:.\Generated_Source\PSoC4/motorControlPWM_PM.c **** {
 148              		.loc 1 179 0
 149              		.cfi_startproc
 150 0000 08B5     		push	{r3, lr}
 151              		.cfi_def_cfa_offset 8
 152              		.cfi_offset 3, -8
 153              		.cfi_offset 14, -4
 180:.\Generated_Source\PSoC4/motorControlPWM_PM.c ****      /* Restore registers values */
 181:.\Generated_Source\PSoC4/motorControlPWM_PM.c ****     motorControlPWM_RestoreConfig();
 154              		.loc 1 181 0
 155 0002 FFF7FEFF 		bl	motorControlPWM_RestoreConfig
 156              	.LVL8:
 182:.\Generated_Source\PSoC4/motorControlPWM_PM.c **** 
 183:.\Generated_Source\PSoC4/motorControlPWM_PM.c ****     if(motorControlPWM_backup.PWMEnableState != 0u)
 157              		.loc 1 183 0
 158 0006 034B     		ldr	r3, .L14
 159 0008 1B78     		ldrb	r3, [r3]
ARM GAS  C:\Users\kylep\AppData\Local\Temp\ccb0cbug.s 			page 7


 160 000a 002B     		cmp	r3, #0
 161 000c 01D0     		beq	.L12
 184:.\Generated_Source\PSoC4/motorControlPWM_PM.c ****     {
 185:.\Generated_Source\PSoC4/motorControlPWM_PM.c ****         /* Enable component's operation */
 186:.\Generated_Source\PSoC4/motorControlPWM_PM.c ****         motorControlPWM_Enable();
 162              		.loc 1 186 0
 163 000e FFF7FEFF 		bl	motorControlPWM_Enable
 164              	.LVL9:
 165              	.L12:
 187:.\Generated_Source\PSoC4/motorControlPWM_PM.c ****     } /* Do nothing if component's block was disabled before */
 188:.\Generated_Source\PSoC4/motorControlPWM_PM.c **** 
 189:.\Generated_Source\PSoC4/motorControlPWM_PM.c **** }
 166              		.loc 1 189 0
 167              		@ sp needed
 168 0012 08BD     		pop	{r3, pc}
 169              	.L15:
 170              		.align	2
 171              	.L14:
 172 0014 00000000 		.word	.LANCHOR0
 173              		.cfi_endproc
 174              	.LFE3:
 175              		.size	motorControlPWM_Wakeup, .-motorControlPWM_Wakeup
 176              		.bss
 177              		.align	2
 178              		.set	.LANCHOR0,. + 0
 179              		.type	motorControlPWM_backup, %object
 180              		.size	motorControlPWM_backup, 4
 181              	motorControlPWM_backup:
 182 0000 00000000 		.space	4
 183              		.text
 184              	.Letext0:
 185              		.file 2 ".\\Generated_Source\\PSoC4\\cytypes.h"
 186              		.file 3 ".\\Generated_Source\\PSoC4\\motorControlPWM.h"