ARM GAS  C:\Users\kylep\AppData\Local\Temp\ccMYoqcU.s 			page 1


   1              		.cpu cortex-m0
   2              		.fpu softvfp
   3              		.eabi_attribute 20, 1
   4              		.eabi_attribute 21, 1
   5              		.eabi_attribute 23, 3
   6              		.eabi_attribute 24, 1
   7              		.eabi_attribute 25, 1
   8              		.eabi_attribute 26, 1
   9              		.eabi_attribute 30, 1
  10              		.eabi_attribute 34, 0
  11              		.eabi_attribute 18, 4
  12              		.code	16
  13              		.file	"SamplingTimerISR.c"
  14              		.text
  15              	.Ltext0:
  16              		.cfi_sections	.debug_frame
  17              		.section	.text.SamplingTimerISR_Interrupt,"ax",%progbits
  18              		.align	2
  19              		.global	SamplingTimerISR_Interrupt
  20              		.code	16
  21              		.thumb_func
  22              		.type	SamplingTimerISR_Interrupt, %function
  23              	SamplingTimerISR_Interrupt:
  24              	.LFB37:
  25              		.file 1 ".\\Generated_Source\\PSoC4\\SamplingTimerISR.c"
   1:.\Generated_Source\PSoC4/SamplingTimerISR.c **** /*******************************************************************************
   2:.\Generated_Source\PSoC4/SamplingTimerISR.c **** * File Name: SamplingTimerISR.c  
   3:.\Generated_Source\PSoC4/SamplingTimerISR.c **** * Version 1.70
   4:.\Generated_Source\PSoC4/SamplingTimerISR.c **** *
   5:.\Generated_Source\PSoC4/SamplingTimerISR.c **** *  Description:
   6:.\Generated_Source\PSoC4/SamplingTimerISR.c **** *   API for controlling the state of an interrupt.
   7:.\Generated_Source\PSoC4/SamplingTimerISR.c **** *
   8:.\Generated_Source\PSoC4/SamplingTimerISR.c **** *
   9:.\Generated_Source\PSoC4/SamplingTimerISR.c **** *  Note:
  10:.\Generated_Source\PSoC4/SamplingTimerISR.c **** *
  11:.\Generated_Source\PSoC4/SamplingTimerISR.c **** ********************************************************************************
  12:.\Generated_Source\PSoC4/SamplingTimerISR.c **** * Copyright 2008-2015, Cypress Semiconductor Corporation.  All rights reserved.
  13:.\Generated_Source\PSoC4/SamplingTimerISR.c **** * You may use this file only in accordance with the license, terms, conditions, 
  14:.\Generated_Source\PSoC4/SamplingTimerISR.c **** * disclaimers, and limitations in the end user license agreement accompanying 
  15:.\Generated_Source\PSoC4/SamplingTimerISR.c **** * the software package with which this file was provided.
  16:.\Generated_Source\PSoC4/SamplingTimerISR.c **** *******************************************************************************/
  17:.\Generated_Source\PSoC4/SamplingTimerISR.c **** 
  18:.\Generated_Source\PSoC4/SamplingTimerISR.c **** 
  19:.\Generated_Source\PSoC4/SamplingTimerISR.c **** #include <cydevice_trm.h>
  20:.\Generated_Source\PSoC4/SamplingTimerISR.c **** #include <CyLib.h>
  21:.\Generated_Source\PSoC4/SamplingTimerISR.c **** #include <SamplingTimerISR.h>
  22:.\Generated_Source\PSoC4/SamplingTimerISR.c **** 
  23:.\Generated_Source\PSoC4/SamplingTimerISR.c **** 
  24:.\Generated_Source\PSoC4/SamplingTimerISR.c **** #if !defined(SamplingTimerISR__REMOVED) /* Check for removal by optimization */
  25:.\Generated_Source\PSoC4/SamplingTimerISR.c **** 
  26:.\Generated_Source\PSoC4/SamplingTimerISR.c **** /*******************************************************************************
  27:.\Generated_Source\PSoC4/SamplingTimerISR.c **** *  Place your includes, defines and code here 
  28:.\Generated_Source\PSoC4/SamplingTimerISR.c **** ********************************************************************************/
  29:.\Generated_Source\PSoC4/SamplingTimerISR.c **** /* `#START SamplingTimerISR_intc` */
  30:.\Generated_Source\PSoC4/SamplingTimerISR.c **** 
  31:.\Generated_Source\PSoC4/SamplingTimerISR.c **** #include "TemperatureCommManager.h"
  32:.\Generated_Source\PSoC4/SamplingTimerISR.c **** 
ARM GAS  C:\Users\kylep\AppData\Local\Temp\ccMYoqcU.s 			page 2


  33:.\Generated_Source\PSoC4/SamplingTimerISR.c **** /* `#END` */
  34:.\Generated_Source\PSoC4/SamplingTimerISR.c **** 
  35:.\Generated_Source\PSoC4/SamplingTimerISR.c **** extern cyisraddress CyRamVectors[CYINT_IRQ_BASE + CY_NUM_INTERRUPTS];
  36:.\Generated_Source\PSoC4/SamplingTimerISR.c **** 
  37:.\Generated_Source\PSoC4/SamplingTimerISR.c **** /* Declared in startup, used to set unused interrupts to. */
  38:.\Generated_Source\PSoC4/SamplingTimerISR.c **** CY_ISR_PROTO(IntDefaultHandler);
  39:.\Generated_Source\PSoC4/SamplingTimerISR.c **** 
  40:.\Generated_Source\PSoC4/SamplingTimerISR.c **** 
  41:.\Generated_Source\PSoC4/SamplingTimerISR.c **** /*******************************************************************************
  42:.\Generated_Source\PSoC4/SamplingTimerISR.c **** * Function Name: SamplingTimerISR_Start
  43:.\Generated_Source\PSoC4/SamplingTimerISR.c **** ********************************************************************************
  44:.\Generated_Source\PSoC4/SamplingTimerISR.c **** *
  45:.\Generated_Source\PSoC4/SamplingTimerISR.c **** * Summary:
  46:.\Generated_Source\PSoC4/SamplingTimerISR.c **** *  Set up the interrupt and enable it. This function disables the interrupt, 
  47:.\Generated_Source\PSoC4/SamplingTimerISR.c **** *  sets the default interrupt vector, sets the priority from the value in the
  48:.\Generated_Source\PSoC4/SamplingTimerISR.c **** *  Design Wide Resources Interrupt Editor, then enables the interrupt to the 
  49:.\Generated_Source\PSoC4/SamplingTimerISR.c **** *  interrupt controller.
  50:.\Generated_Source\PSoC4/SamplingTimerISR.c **** *
  51:.\Generated_Source\PSoC4/SamplingTimerISR.c **** * Parameters:  
  52:.\Generated_Source\PSoC4/SamplingTimerISR.c **** *   None
  53:.\Generated_Source\PSoC4/SamplingTimerISR.c **** *
  54:.\Generated_Source\PSoC4/SamplingTimerISR.c **** * Return:
  55:.\Generated_Source\PSoC4/SamplingTimerISR.c **** *   None
  56:.\Generated_Source\PSoC4/SamplingTimerISR.c **** *
  57:.\Generated_Source\PSoC4/SamplingTimerISR.c **** *******************************************************************************/
  58:.\Generated_Source\PSoC4/SamplingTimerISR.c **** void SamplingTimerISR_Start(void)
  59:.\Generated_Source\PSoC4/SamplingTimerISR.c **** {
  60:.\Generated_Source\PSoC4/SamplingTimerISR.c ****     /* For all we know the interrupt is active. */
  61:.\Generated_Source\PSoC4/SamplingTimerISR.c ****     SamplingTimerISR_Disable();
  62:.\Generated_Source\PSoC4/SamplingTimerISR.c **** 
  63:.\Generated_Source\PSoC4/SamplingTimerISR.c ****     /* Set the ISR to point to the SamplingTimerISR Interrupt. */
  64:.\Generated_Source\PSoC4/SamplingTimerISR.c ****     SamplingTimerISR_SetVector(&SamplingTimerISR_Interrupt);
  65:.\Generated_Source\PSoC4/SamplingTimerISR.c **** 
  66:.\Generated_Source\PSoC4/SamplingTimerISR.c ****     /* Set the priority. */
  67:.\Generated_Source\PSoC4/SamplingTimerISR.c ****     SamplingTimerISR_SetPriority((uint8)SamplingTimerISR_INTC_PRIOR_NUMBER);
  68:.\Generated_Source\PSoC4/SamplingTimerISR.c **** 
  69:.\Generated_Source\PSoC4/SamplingTimerISR.c ****     /* Enable it. */
  70:.\Generated_Source\PSoC4/SamplingTimerISR.c ****     SamplingTimerISR_Enable();
  71:.\Generated_Source\PSoC4/SamplingTimerISR.c **** }
  72:.\Generated_Source\PSoC4/SamplingTimerISR.c **** 
  73:.\Generated_Source\PSoC4/SamplingTimerISR.c **** 
  74:.\Generated_Source\PSoC4/SamplingTimerISR.c **** /*******************************************************************************
  75:.\Generated_Source\PSoC4/SamplingTimerISR.c **** * Function Name: SamplingTimerISR_StartEx
  76:.\Generated_Source\PSoC4/SamplingTimerISR.c **** ********************************************************************************
  77:.\Generated_Source\PSoC4/SamplingTimerISR.c **** *
  78:.\Generated_Source\PSoC4/SamplingTimerISR.c **** * Summary:
  79:.\Generated_Source\PSoC4/SamplingTimerISR.c **** *  Sets up the interrupt and enables it. This function disables the interrupt,
  80:.\Generated_Source\PSoC4/SamplingTimerISR.c **** *  sets the interrupt vector based on the address passed in, sets the priority 
  81:.\Generated_Source\PSoC4/SamplingTimerISR.c **** *  from the value in the Design Wide Resources Interrupt Editor, then enables 
  82:.\Generated_Source\PSoC4/SamplingTimerISR.c **** *  the interrupt to the interrupt controller.
  83:.\Generated_Source\PSoC4/SamplingTimerISR.c **** *  
  84:.\Generated_Source\PSoC4/SamplingTimerISR.c **** *  When defining ISR functions, the CY_ISR and CY_ISR_PROTO macros should be 
  85:.\Generated_Source\PSoC4/SamplingTimerISR.c **** *  used to provide consistent definition across compilers:
  86:.\Generated_Source\PSoC4/SamplingTimerISR.c **** *  
  87:.\Generated_Source\PSoC4/SamplingTimerISR.c **** *  Function definition example:
  88:.\Generated_Source\PSoC4/SamplingTimerISR.c **** *   CY_ISR(MyISR)
  89:.\Generated_Source\PSoC4/SamplingTimerISR.c **** *   {
ARM GAS  C:\Users\kylep\AppData\Local\Temp\ccMYoqcU.s 			page 3


  90:.\Generated_Source\PSoC4/SamplingTimerISR.c **** *   }
  91:.\Generated_Source\PSoC4/SamplingTimerISR.c **** *   Function prototype example:
  92:.\Generated_Source\PSoC4/SamplingTimerISR.c **** *   CY_ISR_PROTO(MyISR);
  93:.\Generated_Source\PSoC4/SamplingTimerISR.c **** *
  94:.\Generated_Source\PSoC4/SamplingTimerISR.c **** * Parameters:  
  95:.\Generated_Source\PSoC4/SamplingTimerISR.c **** *   address: Address of the ISR to set in the interrupt vector table.
  96:.\Generated_Source\PSoC4/SamplingTimerISR.c **** *
  97:.\Generated_Source\PSoC4/SamplingTimerISR.c **** * Return:
  98:.\Generated_Source\PSoC4/SamplingTimerISR.c **** *   None
  99:.\Generated_Source\PSoC4/SamplingTimerISR.c **** *
 100:.\Generated_Source\PSoC4/SamplingTimerISR.c **** *******************************************************************************/
 101:.\Generated_Source\PSoC4/SamplingTimerISR.c **** void SamplingTimerISR_StartEx(cyisraddress address)
 102:.\Generated_Source\PSoC4/SamplingTimerISR.c **** {
 103:.\Generated_Source\PSoC4/SamplingTimerISR.c ****     /* For all we know the interrupt is active. */
 104:.\Generated_Source\PSoC4/SamplingTimerISR.c ****     SamplingTimerISR_Disable();
 105:.\Generated_Source\PSoC4/SamplingTimerISR.c **** 
 106:.\Generated_Source\PSoC4/SamplingTimerISR.c ****     /* Set the ISR to point to the SamplingTimerISR Interrupt. */
 107:.\Generated_Source\PSoC4/SamplingTimerISR.c ****     SamplingTimerISR_SetVector(address);
 108:.\Generated_Source\PSoC4/SamplingTimerISR.c **** 
 109:.\Generated_Source\PSoC4/SamplingTimerISR.c ****     /* Set the priority. */
 110:.\Generated_Source\PSoC4/SamplingTimerISR.c ****     SamplingTimerISR_SetPriority((uint8)SamplingTimerISR_INTC_PRIOR_NUMBER);
 111:.\Generated_Source\PSoC4/SamplingTimerISR.c **** 
 112:.\Generated_Source\PSoC4/SamplingTimerISR.c ****     /* Enable it. */
 113:.\Generated_Source\PSoC4/SamplingTimerISR.c ****     SamplingTimerISR_Enable();
 114:.\Generated_Source\PSoC4/SamplingTimerISR.c **** }
 115:.\Generated_Source\PSoC4/SamplingTimerISR.c **** 
 116:.\Generated_Source\PSoC4/SamplingTimerISR.c **** 
 117:.\Generated_Source\PSoC4/SamplingTimerISR.c **** /*******************************************************************************
 118:.\Generated_Source\PSoC4/SamplingTimerISR.c **** * Function Name: SamplingTimerISR_Stop
 119:.\Generated_Source\PSoC4/SamplingTimerISR.c **** ********************************************************************************
 120:.\Generated_Source\PSoC4/SamplingTimerISR.c **** *
 121:.\Generated_Source\PSoC4/SamplingTimerISR.c **** * Summary:
 122:.\Generated_Source\PSoC4/SamplingTimerISR.c **** *   Disables and removes the interrupt.
 123:.\Generated_Source\PSoC4/SamplingTimerISR.c **** *
 124:.\Generated_Source\PSoC4/SamplingTimerISR.c **** * Parameters:  
 125:.\Generated_Source\PSoC4/SamplingTimerISR.c **** *   None
 126:.\Generated_Source\PSoC4/SamplingTimerISR.c **** *
 127:.\Generated_Source\PSoC4/SamplingTimerISR.c **** * Return:
 128:.\Generated_Source\PSoC4/SamplingTimerISR.c **** *   None
 129:.\Generated_Source\PSoC4/SamplingTimerISR.c **** *
 130:.\Generated_Source\PSoC4/SamplingTimerISR.c **** *******************************************************************************/
 131:.\Generated_Source\PSoC4/SamplingTimerISR.c **** void SamplingTimerISR_Stop(void)
 132:.\Generated_Source\PSoC4/SamplingTimerISR.c **** {
 133:.\Generated_Source\PSoC4/SamplingTimerISR.c ****     /* Disable this interrupt. */
 134:.\Generated_Source\PSoC4/SamplingTimerISR.c ****     SamplingTimerISR_Disable();
 135:.\Generated_Source\PSoC4/SamplingTimerISR.c **** 
 136:.\Generated_Source\PSoC4/SamplingTimerISR.c ****     /* Set the ISR to point to the passive one. */
 137:.\Generated_Source\PSoC4/SamplingTimerISR.c ****     SamplingTimerISR_SetVector(&IntDefaultHandler);
 138:.\Generated_Source\PSoC4/SamplingTimerISR.c **** }
 139:.\Generated_Source\PSoC4/SamplingTimerISR.c **** 
 140:.\Generated_Source\PSoC4/SamplingTimerISR.c **** 
 141:.\Generated_Source\PSoC4/SamplingTimerISR.c **** /*******************************************************************************
 142:.\Generated_Source\PSoC4/SamplingTimerISR.c **** * Function Name: SamplingTimerISR_Interrupt
 143:.\Generated_Source\PSoC4/SamplingTimerISR.c **** ********************************************************************************
 144:.\Generated_Source\PSoC4/SamplingTimerISR.c **** *
 145:.\Generated_Source\PSoC4/SamplingTimerISR.c **** * Summary:
 146:.\Generated_Source\PSoC4/SamplingTimerISR.c **** *   The default Interrupt Service Routine for SamplingTimerISR.
ARM GAS  C:\Users\kylep\AppData\Local\Temp\ccMYoqcU.s 			page 4


 147:.\Generated_Source\PSoC4/SamplingTimerISR.c **** *
 148:.\Generated_Source\PSoC4/SamplingTimerISR.c **** *   Add custom code between the START and END comments to keep the next version
 149:.\Generated_Source\PSoC4/SamplingTimerISR.c **** *   of this file from over-writing your code.
 150:.\Generated_Source\PSoC4/SamplingTimerISR.c **** *
 151:.\Generated_Source\PSoC4/SamplingTimerISR.c **** *   Note You may use either the default ISR by using this API, or you may define
 152:.\Generated_Source\PSoC4/SamplingTimerISR.c **** *   your own separate ISR through ISR_StartEx().
 153:.\Generated_Source\PSoC4/SamplingTimerISR.c **** *
 154:.\Generated_Source\PSoC4/SamplingTimerISR.c **** * Parameters:  
 155:.\Generated_Source\PSoC4/SamplingTimerISR.c **** *   None
 156:.\Generated_Source\PSoC4/SamplingTimerISR.c **** *
 157:.\Generated_Source\PSoC4/SamplingTimerISR.c **** * Return:
 158:.\Generated_Source\PSoC4/SamplingTimerISR.c **** *   None
 159:.\Generated_Source\PSoC4/SamplingTimerISR.c **** *
 160:.\Generated_Source\PSoC4/SamplingTimerISR.c **** *******************************************************************************/
 161:.\Generated_Source\PSoC4/SamplingTimerISR.c **** CY_ISR(SamplingTimerISR_Interrupt)
 162:.\Generated_Source\PSoC4/SamplingTimerISR.c **** {
  26              		.loc 1 162 0
  27              		.cfi_startproc
  28 0000 08B5     		push	{r3, lr}
  29              		.cfi_def_cfa_offset 8
  30              		.cfi_offset 3, -8
  31              		.cfi_offset 14, -4
 163:.\Generated_Source\PSoC4/SamplingTimerISR.c ****     #ifdef SamplingTimerISR_INTERRUPT_INTERRUPT_CALLBACK
 164:.\Generated_Source\PSoC4/SamplingTimerISR.c ****         SamplingTimerISR_Interrupt_InterruptCallback();
 165:.\Generated_Source\PSoC4/SamplingTimerISR.c ****     #endif /* SamplingTimerISR_INTERRUPT_INTERRUPT_CALLBACK */ 
 166:.\Generated_Source\PSoC4/SamplingTimerISR.c **** 
 167:.\Generated_Source\PSoC4/SamplingTimerISR.c ****     /*  Place your Interrupt code here. */
 168:.\Generated_Source\PSoC4/SamplingTimerISR.c ****     /* `#START SamplingTimerISR_Interrupt` */
 169:.\Generated_Source\PSoC4/SamplingTimerISR.c **** 
 170:.\Generated_Source\PSoC4/SamplingTimerISR.c ****     
 171:.\Generated_Source\PSoC4/SamplingTimerISR.c ****     
 172:.\Generated_Source\PSoC4/SamplingTimerISR.c ****     processSamplingTimerRoutine();
  32              		.loc 1 172 0
  33 0002 FFF7FEFF 		bl	processSamplingTimerRoutine
  34              	.LVL0:
 173:.\Generated_Source\PSoC4/SamplingTimerISR.c ****     
 174:.\Generated_Source\PSoC4/SamplingTimerISR.c ****     /* `#END` */
 175:.\Generated_Source\PSoC4/SamplingTimerISR.c **** }
  35              		.loc 1 175 0
  36              		@ sp needed
  37 0006 08BD     		pop	{r3, pc}
  38              		.cfi_endproc
  39              	.LFE37:
  40              		.size	SamplingTimerISR_Interrupt, .-SamplingTimerISR_Interrupt
  41              		.section	.text.SamplingTimerISR_SetVector,"ax",%progbits
  42              		.align	2
  43              		.global	SamplingTimerISR_SetVector
  44              		.code	16
  45              		.thumb_func
  46              		.type	SamplingTimerISR_SetVector, %function
  47              	SamplingTimerISR_SetVector:
  48              	.LFB38:
 176:.\Generated_Source\PSoC4/SamplingTimerISR.c **** 
 177:.\Generated_Source\PSoC4/SamplingTimerISR.c **** 
 178:.\Generated_Source\PSoC4/SamplingTimerISR.c **** /*******************************************************************************
 179:.\Generated_Source\PSoC4/SamplingTimerISR.c **** * Function Name: SamplingTimerISR_SetVector
 180:.\Generated_Source\PSoC4/SamplingTimerISR.c **** ********************************************************************************
ARM GAS  C:\Users\kylep\AppData\Local\Temp\ccMYoqcU.s 			page 5


 181:.\Generated_Source\PSoC4/SamplingTimerISR.c **** *
 182:.\Generated_Source\PSoC4/SamplingTimerISR.c **** * Summary:
 183:.\Generated_Source\PSoC4/SamplingTimerISR.c **** *   Change the ISR vector for the Interrupt. Note calling SamplingTimerISR_Start
 184:.\Generated_Source\PSoC4/SamplingTimerISR.c **** *   will override any effect this method would have had. To set the vector 
 185:.\Generated_Source\PSoC4/SamplingTimerISR.c **** *   before the component has been started use SamplingTimerISR_StartEx instead.
 186:.\Generated_Source\PSoC4/SamplingTimerISR.c **** * 
 187:.\Generated_Source\PSoC4/SamplingTimerISR.c **** *   When defining ISR functions, the CY_ISR and CY_ISR_PROTO macros should be 
 188:.\Generated_Source\PSoC4/SamplingTimerISR.c **** *   used to provide consistent definition across compilers:
 189:.\Generated_Source\PSoC4/SamplingTimerISR.c **** *
 190:.\Generated_Source\PSoC4/SamplingTimerISR.c **** *   Function definition example:
 191:.\Generated_Source\PSoC4/SamplingTimerISR.c **** *   CY_ISR(MyISR)
 192:.\Generated_Source\PSoC4/SamplingTimerISR.c **** *   {
 193:.\Generated_Source\PSoC4/SamplingTimerISR.c **** *   }
 194:.\Generated_Source\PSoC4/SamplingTimerISR.c **** *
 195:.\Generated_Source\PSoC4/SamplingTimerISR.c **** *   Function prototype example:
 196:.\Generated_Source\PSoC4/SamplingTimerISR.c **** *     CY_ISR_PROTO(MyISR);
 197:.\Generated_Source\PSoC4/SamplingTimerISR.c **** *
 198:.\Generated_Source\PSoC4/SamplingTimerISR.c **** * Parameters:
 199:.\Generated_Source\PSoC4/SamplingTimerISR.c **** *   address: Address of the ISR to set in the interrupt vector table.
 200:.\Generated_Source\PSoC4/SamplingTimerISR.c **** *
 201:.\Generated_Source\PSoC4/SamplingTimerISR.c **** * Return:
 202:.\Generated_Source\PSoC4/SamplingTimerISR.c **** *   None
 203:.\Generated_Source\PSoC4/SamplingTimerISR.c **** *
 204:.\Generated_Source\PSoC4/SamplingTimerISR.c **** *******************************************************************************/
 205:.\Generated_Source\PSoC4/SamplingTimerISR.c **** void SamplingTimerISR_SetVector(cyisraddress address)
 206:.\Generated_Source\PSoC4/SamplingTimerISR.c **** {
  49              		.loc 1 206 0
  50              		.cfi_startproc
  51              	.LVL1:
 207:.\Generated_Source\PSoC4/SamplingTimerISR.c ****     CyRamVectors[CYINT_IRQ_BASE + SamplingTimerISR__INTC_NUMBER] = address;
  52              		.loc 1 207 0
  53 0000 014B     		ldr	r3, .L3
  54 0002 1865     		str	r0, [r3, #80]
 208:.\Generated_Source\PSoC4/SamplingTimerISR.c **** }
  55              		.loc 1 208 0
  56              		@ sp needed
  57 0004 7047     		bx	lr
  58              	.L4:
  59 0006 C046     		.align	2
  60              	.L3:
  61 0008 00000000 		.word	CyRamVectors
  62              		.cfi_endproc
  63              	.LFE38:
  64              		.size	SamplingTimerISR_SetVector, .-SamplingTimerISR_SetVector
  65              		.section	.text.SamplingTimerISR_GetVector,"ax",%progbits
  66              		.align	2
  67              		.global	SamplingTimerISR_GetVector
  68              		.code	16
  69              		.thumb_func
  70              		.type	SamplingTimerISR_GetVector, %function
  71              	SamplingTimerISR_GetVector:
  72              	.LFB39:
 209:.\Generated_Source\PSoC4/SamplingTimerISR.c **** 
 210:.\Generated_Source\PSoC4/SamplingTimerISR.c **** 
 211:.\Generated_Source\PSoC4/SamplingTimerISR.c **** /*******************************************************************************
 212:.\Generated_Source\PSoC4/SamplingTimerISR.c **** * Function Name: SamplingTimerISR_GetVector
 213:.\Generated_Source\PSoC4/SamplingTimerISR.c **** ********************************************************************************
ARM GAS  C:\Users\kylep\AppData\Local\Temp\ccMYoqcU.s 			page 6


 214:.\Generated_Source\PSoC4/SamplingTimerISR.c **** *
 215:.\Generated_Source\PSoC4/SamplingTimerISR.c **** * Summary:
 216:.\Generated_Source\PSoC4/SamplingTimerISR.c **** *   Gets the "address" of the current ISR vector for the Interrupt.
 217:.\Generated_Source\PSoC4/SamplingTimerISR.c **** *
 218:.\Generated_Source\PSoC4/SamplingTimerISR.c **** * Parameters:
 219:.\Generated_Source\PSoC4/SamplingTimerISR.c **** *   None
 220:.\Generated_Source\PSoC4/SamplingTimerISR.c **** *
 221:.\Generated_Source\PSoC4/SamplingTimerISR.c **** * Return:
 222:.\Generated_Source\PSoC4/SamplingTimerISR.c **** *   Address of the ISR in the interrupt vector table.
 223:.\Generated_Source\PSoC4/SamplingTimerISR.c **** *
 224:.\Generated_Source\PSoC4/SamplingTimerISR.c **** *******************************************************************************/
 225:.\Generated_Source\PSoC4/SamplingTimerISR.c **** cyisraddress SamplingTimerISR_GetVector(void)
 226:.\Generated_Source\PSoC4/SamplingTimerISR.c **** {
  73              		.loc 1 226 0
  74              		.cfi_startproc
 227:.\Generated_Source\PSoC4/SamplingTimerISR.c ****     return CyRamVectors[CYINT_IRQ_BASE + SamplingTimerISR__INTC_NUMBER];
  75              		.loc 1 227 0
  76 0000 014B     		ldr	r3, .L6
  77 0002 186D     		ldr	r0, [r3, #80]
 228:.\Generated_Source\PSoC4/SamplingTimerISR.c **** }
  78              		.loc 1 228 0
  79              		@ sp needed
  80 0004 7047     		bx	lr
  81              	.L7:
  82 0006 C046     		.align	2
  83              	.L6:
  84 0008 00000000 		.word	CyRamVectors
  85              		.cfi_endproc
  86              	.LFE39:
  87              		.size	SamplingTimerISR_GetVector, .-SamplingTimerISR_GetVector
  88              		.section	.text.SamplingTimerISR_SetPriority,"ax",%progbits
  89              		.align	2
  90              		.global	SamplingTimerISR_SetPriority
  91              		.code	16
  92              		.thumb_func
  93              		.type	SamplingTimerISR_SetPriority, %function
  94              	SamplingTimerISR_SetPriority:
  95              	.LFB40:
 229:.\Generated_Source\PSoC4/SamplingTimerISR.c **** 
 230:.\Generated_Source\PSoC4/SamplingTimerISR.c **** 
 231:.\Generated_Source\PSoC4/SamplingTimerISR.c **** /*******************************************************************************
 232:.\Generated_Source\PSoC4/SamplingTimerISR.c **** * Function Name: SamplingTimerISR_SetPriority
 233:.\Generated_Source\PSoC4/SamplingTimerISR.c **** ********************************************************************************
 234:.\Generated_Source\PSoC4/SamplingTimerISR.c **** *
 235:.\Generated_Source\PSoC4/SamplingTimerISR.c **** * Summary:
 236:.\Generated_Source\PSoC4/SamplingTimerISR.c **** *   Sets the Priority of the Interrupt. 
 237:.\Generated_Source\PSoC4/SamplingTimerISR.c **** *
 238:.\Generated_Source\PSoC4/SamplingTimerISR.c **** *   Note calling SamplingTimerISR_Start or SamplingTimerISR_StartEx will 
 239:.\Generated_Source\PSoC4/SamplingTimerISR.c **** *   override any effect this API would have had. This API should only be called
 240:.\Generated_Source\PSoC4/SamplingTimerISR.c **** *   after SamplingTimerISR_Start or SamplingTimerISR_StartEx has been called. 
 241:.\Generated_Source\PSoC4/SamplingTimerISR.c **** *   To set the initial priority for the component, use the Design-Wide Resources
 242:.\Generated_Source\PSoC4/SamplingTimerISR.c **** *   Interrupt Editor.
 243:.\Generated_Source\PSoC4/SamplingTimerISR.c **** *
 244:.\Generated_Source\PSoC4/SamplingTimerISR.c **** *   Note This API has no effect on Non-maskable interrupt NMI).
 245:.\Generated_Source\PSoC4/SamplingTimerISR.c **** *
 246:.\Generated_Source\PSoC4/SamplingTimerISR.c **** * Parameters:
 247:.\Generated_Source\PSoC4/SamplingTimerISR.c **** *   priority: Priority of the interrupt, 0 being the highest priority
ARM GAS  C:\Users\kylep\AppData\Local\Temp\ccMYoqcU.s 			page 7


 248:.\Generated_Source\PSoC4/SamplingTimerISR.c **** *             PSoC 3 and PSoC 5LP: Priority is from 0 to 7.
 249:.\Generated_Source\PSoC4/SamplingTimerISR.c **** *             PSoC 4: Priority is from 0 to 3.
 250:.\Generated_Source\PSoC4/SamplingTimerISR.c **** *
 251:.\Generated_Source\PSoC4/SamplingTimerISR.c **** * Return:
 252:.\Generated_Source\PSoC4/SamplingTimerISR.c **** *   None
 253:.\Generated_Source\PSoC4/SamplingTimerISR.c **** *
 254:.\Generated_Source\PSoC4/SamplingTimerISR.c **** *******************************************************************************/
 255:.\Generated_Source\PSoC4/SamplingTimerISR.c **** void SamplingTimerISR_SetPriority(uint8 priority)
 256:.\Generated_Source\PSoC4/SamplingTimerISR.c **** {
  96              		.loc 1 256 0
  97              		.cfi_startproc
  98              	.LVL2:
  99 0000 10B5     		push	{r4, lr}
 100              		.cfi_def_cfa_offset 8
 101              		.cfi_offset 4, -8
 102              		.cfi_offset 14, -4
 103 0002 041C     		mov	r4, r0
 104              	.LVL3:
 257:.\Generated_Source\PSoC4/SamplingTimerISR.c **** 	uint8 interruptState;
 258:.\Generated_Source\PSoC4/SamplingTimerISR.c ****     uint32 priorityOffset = ((SamplingTimerISR__INTC_NUMBER % 4u) * 8u) + 6u;
 259:.\Generated_Source\PSoC4/SamplingTimerISR.c ****     
 260:.\Generated_Source\PSoC4/SamplingTimerISR.c **** 	interruptState = CyEnterCriticalSection();
 105              		.loc 1 260 0
 106 0004 FFF7FEFF 		bl	CyEnterCriticalSection
 107              	.LVL4:
 261:.\Generated_Source\PSoC4/SamplingTimerISR.c ****     *SamplingTimerISR_INTC_PRIOR = (*SamplingTimerISR_INTC_PRIOR & (uint32)(~SamplingTimerISR__INTC
 108              		.loc 1 261 0
 109 0008 044A     		ldr	r2, .L9
 110 000a 1368     		ldr	r3, [r2]
 111 000c C021     		mov	r1, #192
 112 000e 8B43     		bic	r3, r1
 262:.\Generated_Source\PSoC4/SamplingTimerISR.c ****                                     ((uint32)priority << priorityOffset);
 113              		.loc 1 262 0
 114 0010 A401     		lsl	r4, r4, #6
 261:.\Generated_Source\PSoC4/SamplingTimerISR.c ****     *SamplingTimerISR_INTC_PRIOR = (*SamplingTimerISR_INTC_PRIOR & (uint32)(~SamplingTimerISR__INTC
 115              		.loc 1 261 0
 116 0012 1C43     		orr	r4, r3
 117 0014 1460     		str	r4, [r2]
 263:.\Generated_Source\PSoC4/SamplingTimerISR.c **** 	CyExitCriticalSection(interruptState);
 118              		.loc 1 263 0
 119 0016 FFF7FEFF 		bl	CyExitCriticalSection
 120              	.LVL5:
 264:.\Generated_Source\PSoC4/SamplingTimerISR.c **** }
 121              		.loc 1 264 0
 122              		@ sp needed
 123 001a 10BD     		pop	{r4, pc}
 124              	.L10:
 125              		.align	2
 126              	.L9:
 127 001c 04E400E0 		.word	-536812540
 128              		.cfi_endproc
 129              	.LFE40:
 130              		.size	SamplingTimerISR_SetPriority, .-SamplingTimerISR_SetPriority
 131              		.section	.text.SamplingTimerISR_GetPriority,"ax",%progbits
 132              		.align	2
 133              		.global	SamplingTimerISR_GetPriority
 134              		.code	16
ARM GAS  C:\Users\kylep\AppData\Local\Temp\ccMYoqcU.s 			page 8


 135              		.thumb_func
 136              		.type	SamplingTimerISR_GetPriority, %function
 137              	SamplingTimerISR_GetPriority:
 138              	.LFB41:
 265:.\Generated_Source\PSoC4/SamplingTimerISR.c **** 
 266:.\Generated_Source\PSoC4/SamplingTimerISR.c **** 
 267:.\Generated_Source\PSoC4/SamplingTimerISR.c **** /*******************************************************************************
 268:.\Generated_Source\PSoC4/SamplingTimerISR.c **** * Function Name: SamplingTimerISR_GetPriority
 269:.\Generated_Source\PSoC4/SamplingTimerISR.c **** ********************************************************************************
 270:.\Generated_Source\PSoC4/SamplingTimerISR.c **** *
 271:.\Generated_Source\PSoC4/SamplingTimerISR.c **** * Summary:
 272:.\Generated_Source\PSoC4/SamplingTimerISR.c **** *   Gets the Priority of the Interrupt.
 273:.\Generated_Source\PSoC4/SamplingTimerISR.c **** *
 274:.\Generated_Source\PSoC4/SamplingTimerISR.c **** * Parameters:
 275:.\Generated_Source\PSoC4/SamplingTimerISR.c **** *   None
 276:.\Generated_Source\PSoC4/SamplingTimerISR.c **** *
 277:.\Generated_Source\PSoC4/SamplingTimerISR.c **** * Return:
 278:.\Generated_Source\PSoC4/SamplingTimerISR.c **** *   Priority of the interrupt, 0 being the highest priority
 279:.\Generated_Source\PSoC4/SamplingTimerISR.c **** *    PSoC 3 and PSoC 5LP: Priority is from 0 to 7.
 280:.\Generated_Source\PSoC4/SamplingTimerISR.c **** *    PSoC 4: Priority is from 0 to 3.
 281:.\Generated_Source\PSoC4/SamplingTimerISR.c **** *
 282:.\Generated_Source\PSoC4/SamplingTimerISR.c **** *******************************************************************************/
 283:.\Generated_Source\PSoC4/SamplingTimerISR.c **** uint8 SamplingTimerISR_GetPriority(void)
 284:.\Generated_Source\PSoC4/SamplingTimerISR.c **** {
 139              		.loc 1 284 0
 140              		.cfi_startproc
 141              	.LVL6:
 285:.\Generated_Source\PSoC4/SamplingTimerISR.c ****     uint32 priority;
 286:.\Generated_Source\PSoC4/SamplingTimerISR.c **** 	uint32 priorityOffset = ((SamplingTimerISR__INTC_NUMBER % 4u) * 8u) + 6u;
 287:.\Generated_Source\PSoC4/SamplingTimerISR.c **** 
 288:.\Generated_Source\PSoC4/SamplingTimerISR.c ****     priority = (*SamplingTimerISR_INTC_PRIOR & SamplingTimerISR__INTC_PRIOR_MASK) >> priorityOffset
 142              		.loc 1 288 0
 143 0000 024B     		ldr	r3, .L12
 144 0002 1868     		ldr	r0, [r3]
 145 0004 0006     		lsl	r0, r0, #24
 146              	.LVL7:
 289:.\Generated_Source\PSoC4/SamplingTimerISR.c **** 
 290:.\Generated_Source\PSoC4/SamplingTimerISR.c ****     return (uint8)priority;
 147              		.loc 1 290 0
 148 0006 800F     		lsr	r0, r0, #30
 149              	.LVL8:
 291:.\Generated_Source\PSoC4/SamplingTimerISR.c **** }
 150              		.loc 1 291 0
 151              		@ sp needed
 152 0008 7047     		bx	lr
 153              	.L13:
 154 000a C046     		.align	2
 155              	.L12:
 156 000c 04E400E0 		.word	-536812540
 157              		.cfi_endproc
 158              	.LFE41:
 159              		.size	SamplingTimerISR_GetPriority, .-SamplingTimerISR_GetPriority
 160              		.section	.text.SamplingTimerISR_Enable,"ax",%progbits
 161              		.align	2
 162              		.global	SamplingTimerISR_Enable
 163              		.code	16
 164              		.thumb_func
ARM GAS  C:\Users\kylep\AppData\Local\Temp\ccMYoqcU.s 			page 9


 165              		.type	SamplingTimerISR_Enable, %function
 166              	SamplingTimerISR_Enable:
 167              	.LFB42:
 292:.\Generated_Source\PSoC4/SamplingTimerISR.c **** 
 293:.\Generated_Source\PSoC4/SamplingTimerISR.c **** 
 294:.\Generated_Source\PSoC4/SamplingTimerISR.c **** /*******************************************************************************
 295:.\Generated_Source\PSoC4/SamplingTimerISR.c **** * Function Name: SamplingTimerISR_Enable
 296:.\Generated_Source\PSoC4/SamplingTimerISR.c **** ********************************************************************************
 297:.\Generated_Source\PSoC4/SamplingTimerISR.c **** *
 298:.\Generated_Source\PSoC4/SamplingTimerISR.c **** * Summary:
 299:.\Generated_Source\PSoC4/SamplingTimerISR.c **** *   Enables the interrupt to the interrupt controller. Do not call this function
 300:.\Generated_Source\PSoC4/SamplingTimerISR.c **** *   unless ISR_Start() has been called or the functionality of the ISR_Start() 
 301:.\Generated_Source\PSoC4/SamplingTimerISR.c **** *   function, which sets the vector and the priority, has been called.
 302:.\Generated_Source\PSoC4/SamplingTimerISR.c **** *
 303:.\Generated_Source\PSoC4/SamplingTimerISR.c **** * Parameters:
 304:.\Generated_Source\PSoC4/SamplingTimerISR.c **** *   None
 305:.\Generated_Source\PSoC4/SamplingTimerISR.c **** *
 306:.\Generated_Source\PSoC4/SamplingTimerISR.c **** * Return:
 307:.\Generated_Source\PSoC4/SamplingTimerISR.c **** *   None
 308:.\Generated_Source\PSoC4/SamplingTimerISR.c **** *
 309:.\Generated_Source\PSoC4/SamplingTimerISR.c **** *******************************************************************************/
 310:.\Generated_Source\PSoC4/SamplingTimerISR.c **** void SamplingTimerISR_Enable(void)
 311:.\Generated_Source\PSoC4/SamplingTimerISR.c **** {
 168              		.loc 1 311 0
 169              		.cfi_startproc
 312:.\Generated_Source\PSoC4/SamplingTimerISR.c ****     /* Enable the general interrupt. */
 313:.\Generated_Source\PSoC4/SamplingTimerISR.c ****     *SamplingTimerISR_INTC_SET_EN = SamplingTimerISR__INTC_MASK;
 170              		.loc 1 313 0
 171 0000 1022     		mov	r2, #16
 172 0002 014B     		ldr	r3, .L15
 173 0004 1A60     		str	r2, [r3]
 314:.\Generated_Source\PSoC4/SamplingTimerISR.c **** }
 174              		.loc 1 314 0
 175              		@ sp needed
 176 0006 7047     		bx	lr
 177              	.L16:
 178              		.align	2
 179              	.L15:
 180 0008 00E100E0 		.word	-536813312
 181              		.cfi_endproc
 182              	.LFE42:
 183              		.size	SamplingTimerISR_Enable, .-SamplingTimerISR_Enable
 184              		.section	.text.SamplingTimerISR_GetState,"ax",%progbits
 185              		.align	2
 186              		.global	SamplingTimerISR_GetState
 187              		.code	16
 188              		.thumb_func
 189              		.type	SamplingTimerISR_GetState, %function
 190              	SamplingTimerISR_GetState:
 191              	.LFB43:
 315:.\Generated_Source\PSoC4/SamplingTimerISR.c **** 
 316:.\Generated_Source\PSoC4/SamplingTimerISR.c **** 
 317:.\Generated_Source\PSoC4/SamplingTimerISR.c **** /*******************************************************************************
 318:.\Generated_Source\PSoC4/SamplingTimerISR.c **** * Function Name: SamplingTimerISR_GetState
 319:.\Generated_Source\PSoC4/SamplingTimerISR.c **** ********************************************************************************
 320:.\Generated_Source\PSoC4/SamplingTimerISR.c **** *
 321:.\Generated_Source\PSoC4/SamplingTimerISR.c **** * Summary:
ARM GAS  C:\Users\kylep\AppData\Local\Temp\ccMYoqcU.s 			page 10


 322:.\Generated_Source\PSoC4/SamplingTimerISR.c **** *   Gets the state (enabled, disabled) of the Interrupt.
 323:.\Generated_Source\PSoC4/SamplingTimerISR.c **** *
 324:.\Generated_Source\PSoC4/SamplingTimerISR.c **** * Parameters:
 325:.\Generated_Source\PSoC4/SamplingTimerISR.c **** *   None
 326:.\Generated_Source\PSoC4/SamplingTimerISR.c **** *
 327:.\Generated_Source\PSoC4/SamplingTimerISR.c **** * Return:
 328:.\Generated_Source\PSoC4/SamplingTimerISR.c **** *   1 if enabled, 0 if disabled.
 329:.\Generated_Source\PSoC4/SamplingTimerISR.c **** *
 330:.\Generated_Source\PSoC4/SamplingTimerISR.c **** *******************************************************************************/
 331:.\Generated_Source\PSoC4/SamplingTimerISR.c **** uint8 SamplingTimerISR_GetState(void)
 332:.\Generated_Source\PSoC4/SamplingTimerISR.c **** {
 192              		.loc 1 332 0
 193              		.cfi_startproc
 333:.\Generated_Source\PSoC4/SamplingTimerISR.c ****     /* Get the state of the general interrupt. */
 334:.\Generated_Source\PSoC4/SamplingTimerISR.c ****     return ((*SamplingTimerISR_INTC_SET_EN & (uint32)SamplingTimerISR__INTC_MASK) != 0u) ? 1u:0u;
 194              		.loc 1 334 0
 195 0000 034B     		ldr	r3, .L20
 196 0002 1B68     		ldr	r3, [r3]
 197 0004 DB06     		lsl	r3, r3, #27
 198 0006 01D5     		bpl	.L19
 199 0008 0120     		mov	r0, #1
 200 000a 00E0     		b	.L18
 201              	.L19:
 202 000c 0020     		mov	r0, #0
 203              	.L18:
 335:.\Generated_Source\PSoC4/SamplingTimerISR.c **** }
 204              		.loc 1 335 0 discriminator 4
 205              		@ sp needed
 206 000e 7047     		bx	lr
 207              	.L21:
 208              		.align	2
 209              	.L20:
 210 0010 00E100E0 		.word	-536813312
 211              		.cfi_endproc
 212              	.LFE43:
 213              		.size	SamplingTimerISR_GetState, .-SamplingTimerISR_GetState
 214              		.section	.text.SamplingTimerISR_Disable,"ax",%progbits
 215              		.align	2
 216              		.global	SamplingTimerISR_Disable
 217              		.code	16
 218              		.thumb_func
 219              		.type	SamplingTimerISR_Disable, %function
 220              	SamplingTimerISR_Disable:
 221              	.LFB44:
 336:.\Generated_Source\PSoC4/SamplingTimerISR.c **** 
 337:.\Generated_Source\PSoC4/SamplingTimerISR.c **** 
 338:.\Generated_Source\PSoC4/SamplingTimerISR.c **** /*******************************************************************************
 339:.\Generated_Source\PSoC4/SamplingTimerISR.c **** * Function Name: SamplingTimerISR_Disable
 340:.\Generated_Source\PSoC4/SamplingTimerISR.c **** ********************************************************************************
 341:.\Generated_Source\PSoC4/SamplingTimerISR.c **** *
 342:.\Generated_Source\PSoC4/SamplingTimerISR.c **** * Summary:
 343:.\Generated_Source\PSoC4/SamplingTimerISR.c **** *   Disables the Interrupt in the interrupt controller.
 344:.\Generated_Source\PSoC4/SamplingTimerISR.c **** *
 345:.\Generated_Source\PSoC4/SamplingTimerISR.c **** * Parameters:
 346:.\Generated_Source\PSoC4/SamplingTimerISR.c **** *   None
 347:.\Generated_Source\PSoC4/SamplingTimerISR.c **** *
 348:.\Generated_Source\PSoC4/SamplingTimerISR.c **** * Return:
ARM GAS  C:\Users\kylep\AppData\Local\Temp\ccMYoqcU.s 			page 11


 349:.\Generated_Source\PSoC4/SamplingTimerISR.c **** *   None
 350:.\Generated_Source\PSoC4/SamplingTimerISR.c **** *
 351:.\Generated_Source\PSoC4/SamplingTimerISR.c **** *******************************************************************************/
 352:.\Generated_Source\PSoC4/SamplingTimerISR.c **** void SamplingTimerISR_Disable(void)
 353:.\Generated_Source\PSoC4/SamplingTimerISR.c **** {
 222              		.loc 1 353 0
 223              		.cfi_startproc
 354:.\Generated_Source\PSoC4/SamplingTimerISR.c ****     /* Disable the general interrupt. */
 355:.\Generated_Source\PSoC4/SamplingTimerISR.c ****     *SamplingTimerISR_INTC_CLR_EN = SamplingTimerISR__INTC_MASK;
 224              		.loc 1 355 0
 225 0000 1022     		mov	r2, #16
 226 0002 014B     		ldr	r3, .L23
 227 0004 1A60     		str	r2, [r3]
 356:.\Generated_Source\PSoC4/SamplingTimerISR.c **** }
 228              		.loc 1 356 0
 229              		@ sp needed
 230 0006 7047     		bx	lr
 231              	.L24:
 232              		.align	2
 233              	.L23:
 234 0008 80E100E0 		.word	-536813184
 235              		.cfi_endproc
 236              	.LFE44:
 237              		.size	SamplingTimerISR_Disable, .-SamplingTimerISR_Disable
 238              		.section	.text.SamplingTimerISR_Start,"ax",%progbits
 239              		.align	2
 240              		.global	SamplingTimerISR_Start
 241              		.code	16
 242              		.thumb_func
 243              		.type	SamplingTimerISR_Start, %function
 244              	SamplingTimerISR_Start:
 245              	.LFB34:
  59:.\Generated_Source\PSoC4/SamplingTimerISR.c ****     /* For all we know the interrupt is active. */
 246              		.loc 1 59 0
 247              		.cfi_startproc
 248 0000 08B5     		push	{r3, lr}
 249              		.cfi_def_cfa_offset 8
 250              		.cfi_offset 3, -8
 251              		.cfi_offset 14, -4
  61:.\Generated_Source\PSoC4/SamplingTimerISR.c **** 
 252              		.loc 1 61 0
 253 0002 FFF7FEFF 		bl	SamplingTimerISR_Disable
 254              	.LVL9:
  64:.\Generated_Source\PSoC4/SamplingTimerISR.c **** 
 255              		.loc 1 64 0
 256 0006 0448     		ldr	r0, .L26
 257 0008 FFF7FEFF 		bl	SamplingTimerISR_SetVector
 258              	.LVL10:
  67:.\Generated_Source\PSoC4/SamplingTimerISR.c **** 
 259              		.loc 1 67 0
 260 000c 0320     		mov	r0, #3
 261 000e FFF7FEFF 		bl	SamplingTimerISR_SetPriority
 262              	.LVL11:
  70:.\Generated_Source\PSoC4/SamplingTimerISR.c **** }
 263              		.loc 1 70 0
 264 0012 FFF7FEFF 		bl	SamplingTimerISR_Enable
 265              	.LVL12:
ARM GAS  C:\Users\kylep\AppData\Local\Temp\ccMYoqcU.s 			page 12


  71:.\Generated_Source\PSoC4/SamplingTimerISR.c **** 
 266              		.loc 1 71 0
 267              		@ sp needed
 268 0016 08BD     		pop	{r3, pc}
 269              	.L27:
 270              		.align	2
 271              	.L26:
 272 0018 00000000 		.word	SamplingTimerISR_Interrupt
 273              		.cfi_endproc
 274              	.LFE34:
 275              		.size	SamplingTimerISR_Start, .-SamplingTimerISR_Start
 276              		.section	.text.SamplingTimerISR_StartEx,"ax",%progbits
 277              		.align	2
 278              		.global	SamplingTimerISR_StartEx
 279              		.code	16
 280              		.thumb_func
 281              		.type	SamplingTimerISR_StartEx, %function
 282              	SamplingTimerISR_StartEx:
 283              	.LFB35:
 102:.\Generated_Source\PSoC4/SamplingTimerISR.c ****     /* For all we know the interrupt is active. */
 284              		.loc 1 102 0
 285              		.cfi_startproc
 286              	.LVL13:
 287 0000 10B5     		push	{r4, lr}
 288              		.cfi_def_cfa_offset 8
 289              		.cfi_offset 4, -8
 290              		.cfi_offset 14, -4
 291 0002 041C     		mov	r4, r0
 104:.\Generated_Source\PSoC4/SamplingTimerISR.c **** 
 292              		.loc 1 104 0
 293 0004 FFF7FEFF 		bl	SamplingTimerISR_Disable
 294              	.LVL14:
 107:.\Generated_Source\PSoC4/SamplingTimerISR.c **** 
 295              		.loc 1 107 0
 296 0008 201C     		mov	r0, r4
 297 000a FFF7FEFF 		bl	SamplingTimerISR_SetVector
 298              	.LVL15:
 110:.\Generated_Source\PSoC4/SamplingTimerISR.c **** 
 299              		.loc 1 110 0
 300 000e 0320     		mov	r0, #3
 301 0010 FFF7FEFF 		bl	SamplingTimerISR_SetPriority
 302              	.LVL16:
 113:.\Generated_Source\PSoC4/SamplingTimerISR.c **** }
 303              		.loc 1 113 0
 304 0014 FFF7FEFF 		bl	SamplingTimerISR_Enable
 305              	.LVL17:
 114:.\Generated_Source\PSoC4/SamplingTimerISR.c **** 
 306              		.loc 1 114 0
 307              		@ sp needed
 308              	.LVL18:
 309 0018 10BD     		pop	{r4, pc}
 310              		.cfi_endproc
 311              	.LFE35:
 312              		.size	SamplingTimerISR_StartEx, .-SamplingTimerISR_StartEx
 313 001a C046     		.section	.text.SamplingTimerISR_Stop,"ax",%progbits
 314              		.align	2
 315              		.global	SamplingTimerISR_Stop
ARM GAS  C:\Users\kylep\AppData\Local\Temp\ccMYoqcU.s 			page 13


 316              		.code	16
 317              		.thumb_func
 318              		.type	SamplingTimerISR_Stop, %function
 319              	SamplingTimerISR_Stop:
 320              	.LFB36:
 132:.\Generated_Source\PSoC4/SamplingTimerISR.c ****     /* Disable this interrupt. */
 321              		.loc 1 132 0
 322              		.cfi_startproc
 323 0000 08B5     		push	{r3, lr}
 324              		.cfi_def_cfa_offset 8
 325              		.cfi_offset 3, -8
 326              		.cfi_offset 14, -4
 134:.\Generated_Source\PSoC4/SamplingTimerISR.c **** 
 327              		.loc 1 134 0
 328 0002 FFF7FEFF 		bl	SamplingTimerISR_Disable
 329              	.LVL19:
 137:.\Generated_Source\PSoC4/SamplingTimerISR.c **** }
 330              		.loc 1 137 0
 331 0006 0248     		ldr	r0, .L30
 332 0008 FFF7FEFF 		bl	SamplingTimerISR_SetVector
 333              	.LVL20:
 138:.\Generated_Source\PSoC4/SamplingTimerISR.c **** 
 334              		.loc 1 138 0
 335              		@ sp needed
 336 000c 08BD     		pop	{r3, pc}
 337              	.L31:
 338 000e C046     		.align	2
 339              	.L30:
 340 0010 00000000 		.word	IntDefaultHandler
 341              		.cfi_endproc
 342              	.LFE36:
 343              		.size	SamplingTimerISR_Stop, .-SamplingTimerISR_Stop
 344              		.section	.text.SamplingTimerISR_SetPending,"ax",%progbits
 345              		.align	2
 346              		.global	SamplingTimerISR_SetPending
 347              		.code	16
 348              		.thumb_func
 349              		.type	SamplingTimerISR_SetPending, %function
 350              	SamplingTimerISR_SetPending:
 351              	.LFB45:
 357:.\Generated_Source\PSoC4/SamplingTimerISR.c **** 
 358:.\Generated_Source\PSoC4/SamplingTimerISR.c **** 
 359:.\Generated_Source\PSoC4/SamplingTimerISR.c **** /*******************************************************************************
 360:.\Generated_Source\PSoC4/SamplingTimerISR.c **** * Function Name: SamplingTimerISR_SetPending
 361:.\Generated_Source\PSoC4/SamplingTimerISR.c **** ********************************************************************************
 362:.\Generated_Source\PSoC4/SamplingTimerISR.c **** *
 363:.\Generated_Source\PSoC4/SamplingTimerISR.c **** * Summary:
 364:.\Generated_Source\PSoC4/SamplingTimerISR.c **** *   Causes the Interrupt to enter the pending state, a software method of
 365:.\Generated_Source\PSoC4/SamplingTimerISR.c **** *   generating the interrupt.
 366:.\Generated_Source\PSoC4/SamplingTimerISR.c **** *
 367:.\Generated_Source\PSoC4/SamplingTimerISR.c **** * Parameters:
 368:.\Generated_Source\PSoC4/SamplingTimerISR.c **** *   None
 369:.\Generated_Source\PSoC4/SamplingTimerISR.c **** *
 370:.\Generated_Source\PSoC4/SamplingTimerISR.c **** * Return:
 371:.\Generated_Source\PSoC4/SamplingTimerISR.c **** *   None
 372:.\Generated_Source\PSoC4/SamplingTimerISR.c **** *
 373:.\Generated_Source\PSoC4/SamplingTimerISR.c **** * Side Effects:
ARM GAS  C:\Users\kylep\AppData\Local\Temp\ccMYoqcU.s 			page 14


 374:.\Generated_Source\PSoC4/SamplingTimerISR.c **** *   If interrupts are enabled and the interrupt is set up properly, the ISR is
 375:.\Generated_Source\PSoC4/SamplingTimerISR.c **** *   entered (depending on the priority of this interrupt and other pending 
 376:.\Generated_Source\PSoC4/SamplingTimerISR.c **** *   interrupts).
 377:.\Generated_Source\PSoC4/SamplingTimerISR.c **** *
 378:.\Generated_Source\PSoC4/SamplingTimerISR.c **** *******************************************************************************/
 379:.\Generated_Source\PSoC4/SamplingTimerISR.c **** void SamplingTimerISR_SetPending(void)
 380:.\Generated_Source\PSoC4/SamplingTimerISR.c **** {
 352              		.loc 1 380 0
 353              		.cfi_startproc
 381:.\Generated_Source\PSoC4/SamplingTimerISR.c ****     *SamplingTimerISR_INTC_SET_PD = SamplingTimerISR__INTC_MASK;
 354              		.loc 1 381 0
 355 0000 1022     		mov	r2, #16
 356 0002 014B     		ldr	r3, .L33
 357 0004 1A60     		str	r2, [r3]
 382:.\Generated_Source\PSoC4/SamplingTimerISR.c **** }
 358              		.loc 1 382 0
 359              		@ sp needed
 360 0006 7047     		bx	lr
 361              	.L34:
 362              		.align	2
 363              	.L33:
 364 0008 00E200E0 		.word	-536813056
 365              		.cfi_endproc
 366              	.LFE45:
 367              		.size	SamplingTimerISR_SetPending, .-SamplingTimerISR_SetPending
 368              		.section	.text.SamplingTimerISR_ClearPending,"ax",%progbits
 369              		.align	2
 370              		.global	SamplingTimerISR_ClearPending
 371              		.code	16
 372              		.thumb_func
 373              		.type	SamplingTimerISR_ClearPending, %function
 374              	SamplingTimerISR_ClearPending:
 375              	.LFB46:
 383:.\Generated_Source\PSoC4/SamplingTimerISR.c **** 
 384:.\Generated_Source\PSoC4/SamplingTimerISR.c **** 
 385:.\Generated_Source\PSoC4/SamplingTimerISR.c **** /*******************************************************************************
 386:.\Generated_Source\PSoC4/SamplingTimerISR.c **** * Function Name: SamplingTimerISR_ClearPending
 387:.\Generated_Source\PSoC4/SamplingTimerISR.c **** ********************************************************************************
 388:.\Generated_Source\PSoC4/SamplingTimerISR.c **** *
 389:.\Generated_Source\PSoC4/SamplingTimerISR.c **** * Summary:
 390:.\Generated_Source\PSoC4/SamplingTimerISR.c **** *   Clears a pending interrupt in the interrupt controller.
 391:.\Generated_Source\PSoC4/SamplingTimerISR.c **** *
 392:.\Generated_Source\PSoC4/SamplingTimerISR.c **** *   Note Some interrupt sources are clear-on-read and require the block 
 393:.\Generated_Source\PSoC4/SamplingTimerISR.c **** *   interrupt/status register to be read/cleared with the appropriate block API 
 394:.\Generated_Source\PSoC4/SamplingTimerISR.c **** *   (GPIO, UART, and so on). Otherwise the ISR will continue to remain in 
 395:.\Generated_Source\PSoC4/SamplingTimerISR.c **** *   pending state even though the interrupt itself is cleared using this API.
 396:.\Generated_Source\PSoC4/SamplingTimerISR.c **** *
 397:.\Generated_Source\PSoC4/SamplingTimerISR.c **** * Parameters:
 398:.\Generated_Source\PSoC4/SamplingTimerISR.c **** *   None
 399:.\Generated_Source\PSoC4/SamplingTimerISR.c **** *
 400:.\Generated_Source\PSoC4/SamplingTimerISR.c **** * Return:
 401:.\Generated_Source\PSoC4/SamplingTimerISR.c **** *   None
 402:.\Generated_Source\PSoC4/SamplingTimerISR.c **** *
 403:.\Generated_Source\PSoC4/SamplingTimerISR.c **** *******************************************************************************/
 404:.\Generated_Source\PSoC4/SamplingTimerISR.c **** void SamplingTimerISR_ClearPending(void)
 405:.\Generated_Source\PSoC4/SamplingTimerISR.c **** {
 376              		.loc 1 405 0
ARM GAS  C:\Users\kylep\AppData\Local\Temp\ccMYoqcU.s 			page 15


 377              		.cfi_startproc
 406:.\Generated_Source\PSoC4/SamplingTimerISR.c ****     *SamplingTimerISR_INTC_CLR_PD = SamplingTimerISR__INTC_MASK;
 378              		.loc 1 406 0
 379 0000 1022     		mov	r2, #16
 380 0002 014B     		ldr	r3, .L36
 381 0004 1A60     		str	r2, [r3]
 407:.\Generated_Source\PSoC4/SamplingTimerISR.c **** }
 382              		.loc 1 407 0
 383              		@ sp needed
 384 0006 7047     		bx	lr
 385              	.L37:
 386              		.align	2
 387              	.L36:
 388 0008 80E200E0 		.word	-536812928
 389              		.cfi_endproc
 390              	.LFE46:
 391              		.size	SamplingTimerISR_ClearPending, .-SamplingTimerISR_ClearPending
 392              		.text
 393              	.Letext0:
 394              		.file 2 "Generated_Source\\PSoC4/cytypes.h"
 395              		.file 3 "./TemperatureCommManager.h"
 396              		.file 4 "Generated_Source\\PSoC4/CyLib.h"