ARM GAS  C:\Users\kylep\AppData\Local\Temp\cc7tCmDj.s 			page 1


   1              		.cpu cortex-m0
   2              		.fpu softvfp
   3              		.eabi_attribute 20, 1
   4              		.eabi_attribute 21, 1
   5              		.eabi_attribute 23, 3
   6              		.eabi_attribute 24, 1
   7              		.eabi_attribute 25, 1
   8              		.eabi_attribute 26, 1
   9              		.eabi_attribute 30, 1
  10              		.eabi_attribute 34, 0
  11              		.eabi_attribute 18, 4
  12              		.code	16
  13              		.file	"TemperatureCommManager.c"
  14              		.text
  15              	.Ltext0:
  16              		.cfi_sections	.debug_frame
  17              		.section	.text.getHighestTemperature,"ax",%progbits
  18              		.align	2
  19              		.code	16
  20              		.thumb_func
  21              		.type	getHighestTemperature, %function
  22              	getHighestTemperature:
  23              	.LFB45:
  24              		.file 1 ".\\TemperatureCommManager.c"
   1:.\TemperatureCommManager.c **** /* ========================================
   2:.\TemperatureCommManager.c ****  *
   3:.\TemperatureCommManager.c ****  * Copyright YOUR COMPANY, THE YEAR
   4:.\TemperatureCommManager.c ****  * All Rights Reserved
   5:.\TemperatureCommManager.c ****  * UNPUBLISHED, LICENSED SOFTWARE.
   6:.\TemperatureCommManager.c ****  *
   7:.\TemperatureCommManager.c ****  * CONFIDENTIAL AND PROPRIETARY INFORMATION
   8:.\TemperatureCommManager.c ****  * WHICH IS THE PROPERTY OF your company.
   9:.\TemperatureCommManager.c ****  *
  10:.\TemperatureCommManager.c ****  * ========================================
  11:.\TemperatureCommManager.c **** */
  12:.\TemperatureCommManager.c **** /**********CHANGE LOG**********/
  13:.\TemperatureCommManager.c **** 
  14:.\TemperatureCommManager.c **** 
  15:.\TemperatureCommManager.c **** /**********PREPROCESSOR DIRECTIVES**********/
  16:.\TemperatureCommManager.c **** #include "CommonVariables.h"
  17:.\TemperatureCommManager.c **** #include "TemperatureCommManager.h"
  18:.\TemperatureCommManager.c **** #include "DriverControl.h"
  19:.\TemperatureCommManager.c **** 
  20:.\TemperatureCommManager.c **** #define MAX_PAYLOAD_BYTE_COUNT  MAX_DRIVER_COUNT * 2 + 2
  21:.\TemperatureCommManager.c **** #define HEADER_BYTE_COUNT       2
  22:.\TemperatureCommManager.c **** #define EOP_BYTE_COUNT          2
  23:.\TemperatureCommManager.c **** #define MAX_PACKET_SIZE         HEADER_BYTE_COUNT + MAX_PAYLOAD_BYTE_COUNT + EOP_BYTE_COUNT
  24:.\TemperatureCommManager.c **** 
  25:.\TemperatureCommManager.c **** #define PACKET_TYPE_COUNT       6
  26:.\TemperatureCommManager.c **** #define HEADER_START_INDEX      0
  27:.\TemperatureCommManager.c **** #define PAYLOAD_START_INDEX     HEADER_BYTE_COUNT
  28:.\TemperatureCommManager.c **** 
  29:.\TemperatureCommManager.c **** #define TIMEOUT_LIMIT_IN_MILLISECONDS   30
  30:.\TemperatureCommManager.c ****     
  31:.\TemperatureCommManager.c **** /**********DEFINED CONSTANTS**********/
  32:.\TemperatureCommManager.c **** enum PacketState
  33:.\TemperatureCommManager.c **** {
ARM GAS  C:\Users\kylep\AppData\Local\Temp\cc7tCmDj.s 			page 2


  34:.\TemperatureCommManager.c ****     HEADER_STATE,
  35:.\TemperatureCommManager.c ****     PAYLOAD_STATE,
  36:.\TemperatureCommManager.c ****     EOP_STATE
  37:.\TemperatureCommManager.c **** };
  38:.\TemperatureCommManager.c **** 
  39:.\TemperatureCommManager.c **** /**********DATA STRUCTURES**********/
  40:.\TemperatureCommManager.c **** typedef struct
  41:.\TemperatureCommManager.c **** {
  42:.\TemperatureCommManager.c ****     const uint8 HEADER_BYTE;
  43:.\TemperatureCommManager.c ****     const uint8 PACKET_TYPE;
  44:.\TemperatureCommManager.c ****     const uint8 PAYLOAD_SIZE;
  45:.\TemperatureCommManager.c ****     const uint8 EOP_CARRIAGE_RETURN;
  46:.\TemperatureCommManager.c ****     const uint8 EOP_LINE_FEED;
  47:.\TemperatureCommManager.c **** }Packet;
  48:.\TemperatureCommManager.c **** 
  49:.\TemperatureCommManager.c **** static Packet PacketList[PACKET_TYPE_COUNT] = 
  50:.\TemperatureCommManager.c **** {
  51:.\TemperatureCommManager.c ****     {'~', 'C', 9, '\r', '\n'},          //Definition: Driver Count
  52:.\TemperatureCommManager.c ****                                         //Payload:
  53:.\TemperatureCommManager.c ****                                         //Byte 0: Number of Drivers, Value Range:1-8
  54:.\TemperatureCommManager.c ****                                         //Byte1-Byte8:Driver ID, Value Range:1-8
  55:.\TemperatureCommManager.c ****     {'~', 'A', 9, '\r', '\n'},          //Definition: Acknowledgement Packet
  56:.\TemperatureCommManager.c ****                                         //Payload:
  57:.\TemperatureCommManager.c ****                                         //Byte 0: Number of Drivers, Value Range:1-8
  58:.\TemperatureCommManager.c ****                                         //Byte1-Byte8:Driver ID, Value Range:1-8
  59:.\TemperatureCommManager.c ****     {'~', 'T', 18, '\r', '\n'},         //T for LED Temp, Modules 0(head)-7(Kaboose), Value Range: 
  60:.\TemperatureCommManager.c ****     {'~', 'U', 18, '\r', '\n'},         //U for Switch Node Temp, Modules 0(head)-7(Kaboose), Value
  61:.\TemperatureCommManager.c ****     {'~', 'W', 18, '\r', '\n'},         //W for Micro Temp, Modules 0(head)-7(Kaboose), Value Range
  62:.\TemperatureCommManager.c ****     {'~', 'V', 18, '\r', '\n'}          //V for Ambient Temp, Modules 0(head)-7(Kaboose), Value Ran
  63:.\TemperatureCommManager.c **** };   
  64:.\TemperatureCommManager.c **** 
  65:.\TemperatureCommManager.c **** static uint8 lastDriverPacket[MAX_PACKET_SIZE - 9];
  66:.\TemperatureCommManager.c **** static uint8 temperaturePayload[ADC_SAMPLE_COUNT - 1][MAX_PAYLOAD_BYTE_COUNT];
  67:.\TemperatureCommManager.c **** 
  68:.\TemperatureCommManager.c **** /**********GLOBAL VARIABLES**********/
  69:.\TemperatureCommManager.c **** static uint16 timerCount = 0;
  70:.\TemperatureCommManager.c **** 
  71:.\TemperatureCommManager.c **** static uint8 bLastDriverInChain = FALSE;
  72:.\TemperatureCommManager.c **** 
  73:.\TemperatureCommManager.c **** uint8 bReadyToSendNextBrightnessTimeoutPacket = FALSE;
  74:.\TemperatureCommManager.c **** uint8 readyToSendThresholdCounter = 0;
  75:.\TemperatureCommManager.c **** 
  76:.\TemperatureCommManager.c **** 
  77:.\TemperatureCommManager.c **** uint8 sendTempPacketBack = 0;
  78:.\TemperatureCommManager.c **** /**********LOCAL FUNCTION PROTOTYPES**********/
  79:.\TemperatureCommManager.c **** static void detectPacket(uint8 dataByte);
  80:.\TemperatureCommManager.c **** static uint8 processTemperaturePacket(uint8* packet, uint8 length);
  81:.\TemperatureCommManager.c **** static uint8 processFinalDriverCountPacket(uint8* packet, uint8 length);
  82:.\TemperatureCommManager.c **** static uint8 processAckPacket(uint8* packet, uint8 length);
  83:.\TemperatureCommManager.c **** static int16 getHighestTemperature(uint8* packet, uint8 length);
  84:.\TemperatureCommManager.c **** 
  85:.\TemperatureCommManager.c **** /**********DEFINED GLOBAL FUNCTIONS**********/
  86:.\TemperatureCommManager.c **** 
  87:.\TemperatureCommManager.c **** uint8 isReadyToSendNextBrightnessPacket(void)
  88:.\TemperatureCommManager.c **** {
  89:.\TemperatureCommManager.c ****    return bReadyToSendNextBrightnessTimeoutPacket;
  90:.\TemperatureCommManager.c **** }
ARM GAS  C:\Users\kylep\AppData\Local\Temp\cc7tCmDj.s 			page 3


  91:.\TemperatureCommManager.c **** 
  92:.\TemperatureCommManager.c **** void clearIsReadyToSendNextBrightnessPacket(void)
  93:.\TemperatureCommManager.c **** {
  94:.\TemperatureCommManager.c ****     bReadyToSendNextBrightnessTimeoutPacket = FALSE;
  95:.\TemperatureCommManager.c **** }
  96:.\TemperatureCommManager.c **** 
  97:.\TemperatureCommManager.c **** /*******************************************************************************
  98:.\TemperatureCommManager.c **** * Function Name: isLastDriver
  99:.\TemperatureCommManager.c **** ********************************************************************************
 100:.\TemperatureCommManager.c **** *
 101:.\TemperatureCommManager.c **** * Summary:
 102:.\TemperatureCommManager.c **** *  Returns if the current module is last driver in packet based on a ACK timeout.
 103:.\TemperatureCommManager.c **** *  An ACK timeout is when there is no ACK packet sent from the next module within 
 104:.\TemperatureCommManager.c **** *  the timeout perioud.
 105:.\TemperatureCommManager.c **** * Parameters:
 106:.\TemperatureCommManager.c **** *  None.
 107:.\TemperatureCommManager.c **** *
 108:.\TemperatureCommManager.c **** * Return:
 109:.\TemperatureCommManager.c **** *  TRUE if the module is the last in the chain.
 110:.\TemperatureCommManager.c **** *
 111:.\TemperatureCommManager.c **** *******************************************************************************/
 112:.\TemperatureCommManager.c **** uint8 isLastDriver(void)
 113:.\TemperatureCommManager.c **** {
 114:.\TemperatureCommManager.c ****     return bLastDriverInChain;
 115:.\TemperatureCommManager.c **** }
 116:.\TemperatureCommManager.c **** 
 117:.\TemperatureCommManager.c **** 
 118:.\TemperatureCommManager.c **** /*******************************************************************************
 119:.\TemperatureCommManager.c **** * Function Name: processTemperatureByteReceivedHandler
 120:.\TemperatureCommManager.c **** ********************************************************************************
 121:.\TemperatureCommManager.c **** *
 122:.\TemperatureCommManager.c **** * Summary:
 123:.\TemperatureCommManager.c **** *  Called in UART_In_ISR(), triggers when a byte is received from the end driver.
 124:.\TemperatureCommManager.c **** *
 125:.\TemperatureCommManager.c **** * Parameters:
 126:.\TemperatureCommManager.c **** *  None.
 127:.\TemperatureCommManager.c **** *
 128:.\TemperatureCommManager.c **** * Return:
 129:.\TemperatureCommManager.c **** *  None.
 130:.\TemperatureCommManager.c **** *
 131:.\TemperatureCommManager.c **** *******************************************************************************/
 132:.\TemperatureCommManager.c **** void processTemperatureByteReceivedHandler(void)
 133:.\TemperatureCommManager.c **** {
 134:.\TemperatureCommManager.c ****     //uint8 dataByte = 0;
 135:.\TemperatureCommManager.c ****     //uint32 interruptSource = 0;
 136:.\TemperatureCommManager.c ****     
 137:.\TemperatureCommManager.c ****     //do
 138:.\TemperatureCommManager.c ****     //{
 139:.\TemperatureCommManager.c ****     //    dataByte = (uint8)(UART_Temperature_UartGetByte() & 0xFF);
 140:.\TemperatureCommManager.c ****     //    detectPacket(dataByte);
 141:.\TemperatureCommManager.c ****     //}while(UART_Temperature_SpiUartGetRxBufferSize() > 0);
 142:.\TemperatureCommManager.c ****     
 143:.\TemperatureCommManager.c ****     //interruptSource = UART_Temperature_GetRxInterruptSourceMasked();
 144:.\TemperatureCommManager.c ****     //UART_Temperature_ClearRxInterruptSource(interruptSource);
 145:.\TemperatureCommManager.c **** }
 146:.\TemperatureCommManager.c **** 
 147:.\TemperatureCommManager.c **** 
ARM GAS  C:\Users\kylep\AppData\Local\Temp\cc7tCmDj.s 			page 4


 148:.\TemperatureCommManager.c **** 
 149:.\TemperatureCommManager.c **** /*******************************************************************************
 150:.\TemperatureCommManager.c **** * Function Name: setLastDriverPacket
 151:.\TemperatureCommManager.c **** ********************************************************************************
 152:.\TemperatureCommManager.c **** *
 153:.\TemperatureCommManager.c **** * Summary:
 154:.\TemperatureCommManager.c **** *  Passes the Count packet from BrightnessCommManager to TemperatureCommManager.
 155:.\TemperatureCommManager.c **** *  This should only be called in the last driver of the chain.
 156:.\TemperatureCommManager.c **** *
 157:.\TemperatureCommManager.c **** * Parameters:
 158:.\TemperatureCommManager.c **** *  dataPacket: The reference to the packet being passed
 159:.\TemperatureCommManager.c **** *  length: The length of the packet in bytes
 160:.\TemperatureCommManager.c **** *
 161:.\TemperatureCommManager.c **** * Return:
 162:.\TemperatureCommManager.c **** *  SUCCESS for valid parameters, FAILURE otherwise
 163:.\TemperatureCommManager.c **** *
 164:.\TemperatureCommManager.c **** *******************************************************************************/
 165:.\TemperatureCommManager.c **** uint8 setLastDriverPacket(uint8* dataPacket, uint8 length)
 166:.\TemperatureCommManager.c **** {
 167:.\TemperatureCommManager.c ****     if((dataPacket == NULL) || (length != (MAX_PACKET_SIZE - 9)))
 168:.\TemperatureCommManager.c ****         return FAILURE;
 169:.\TemperatureCommManager.c ****     
 170:.\TemperatureCommManager.c ****     memcpy(lastDriverPacket, dataPacket, length);
 171:.\TemperatureCommManager.c ****     
 172:.\TemperatureCommManager.c ****     return SUCCESS;
 173:.\TemperatureCommManager.c **** }
 174:.\TemperatureCommManager.c **** 
 175:.\TemperatureCommManager.c **** /*******************************************************************************
 176:.\TemperatureCommManager.c **** * Function Name: processAckTimeoutRoutine
 177:.\TemperatureCommManager.c **** ********************************************************************************
 178:.\TemperatureCommManager.c **** *
 179:.\TemperatureCommManager.c **** * Summary:
 180:.\TemperatureCommManager.c **** *  Called in AckTimeoutISR(), counts up while waiting for an ACK from the next
 181:.\TemperatureCommManager.c **** *  driver in the chain. If the timer limit is reached, it is assumed that this
 182:.\TemperatureCommManager.c **** *  driver is the last driver of the chain.
 183:.\TemperatureCommManager.c **** *
 184:.\TemperatureCommManager.c **** * Parameters:
 185:.\TemperatureCommManager.c **** *  None.
 186:.\TemperatureCommManager.c **** *
 187:.\TemperatureCommManager.c **** * Return:
 188:.\TemperatureCommManager.c **** *  None.
 189:.\TemperatureCommManager.c **** *
 190:.\TemperatureCommManager.c **** *******************************************************************************/
 191:.\TemperatureCommManager.c **** void processAckTimeoutRoutine(void)
 192:.\TemperatureCommManager.c **** {
 193:.\TemperatureCommManager.c ****     AckTimer_ClearInterrupt(AckTimer_INTR_MASK_TC);
 194:.\TemperatureCommManager.c ****     
 195:.\TemperatureCommManager.c ****     if(timerCount < TIMEOUT_LIMIT_IN_MILLISECONDS)
 196:.\TemperatureCommManager.c ****     {
 197:.\TemperatureCommManager.c ****         
 198:.\TemperatureCommManager.c ****         //UART_LED_PutArray(lastDriverPacket, MAX_PACKET_SIZE - 9);
 199:.\TemperatureCommManager.c ****         timerCount++;
 200:.\TemperatureCommManager.c ****     }
 201:.\TemperatureCommManager.c ****     else
 202:.\TemperatureCommManager.c ****     {
 203:.\TemperatureCommManager.c ****         bLastDriverInChain = TRUE;
 204:.\TemperatureCommManager.c ****         //UART_LED_Control_Write(FALSE);
ARM GAS  C:\Users\kylep\AppData\Local\Temp\cc7tCmDj.s 			page 5


 205:.\TemperatureCommManager.c ****         AckTimer_Stop();
 206:.\TemperatureCommManager.c ****         timerCount = 0;
 207:.\TemperatureCommManager.c ****         setDriverCount(lastDriverPacket[PAYLOAD_START_INDEX]);
 208:.\TemperatureCommManager.c ****         //UART_Temperature_SpiUartPutArray(lastDriverPacket, MAX_PACKET_SIZE - 9);
 209:.\TemperatureCommManager.c ****         memset(lastDriverPacket, 0, MAX_PACKET_SIZE - 9);
 210:.\TemperatureCommManager.c ****     }
 211:.\TemperatureCommManager.c **** }
 212:.\TemperatureCommManager.c **** 
 213:.\TemperatureCommManager.c **** /*******************************************************************************
 214:.\TemperatureCommManager.c **** * Function Name: processSamplingTimerRoutine
 215:.\TemperatureCommManager.c **** ********************************************************************************
 216:.\TemperatureCommManager.c **** *
 217:.\TemperatureCommManager.c **** * Summary:
 218:.\TemperatureCommManager.c **** *  Called in SamplingTimerISR(), samples temperatures at a periodic rate. This timer
 219:.\TemperatureCommManager.c **** *  should only run in the last driver of the chain, since the last board drives
 220:.\TemperatureCommManager.c **** *  the sampling rate throughout the chain.
 221:.\TemperatureCommManager.c **** *
 222:.\TemperatureCommManager.c **** * Parameters:
 223:.\TemperatureCommManager.c **** *  None.
 224:.\TemperatureCommManager.c **** *
 225:.\TemperatureCommManager.c **** * Return:
 226:.\TemperatureCommManager.c **** *  None.
 227:.\TemperatureCommManager.c **** *
 228:.\TemperatureCommManager.c **** *******************************************************************************/
 229:.\TemperatureCommManager.c **** void processSamplingTimerRoutine(void)
 230:.\TemperatureCommManager.c **** {
 231:.\TemperatureCommManager.c ****     static int16 ADC_Data[ADC_SAMPLE_COUNT] = {0, 0, 0, 0};
 232:.\TemperatureCommManager.c ****     static int16 HighestTemperatures[ADC_SAMPLE_COUNT - 1] = {0, 0, 0};
 233:.\TemperatureCommManager.c ****     static enum TemperaturePoint channelNumber = LED;
 234:.\TemperatureCommManager.c ****     static uint8 temporaryPacket[5] = {'~', 'B', 0, '\r', '\n'};
 235:.\TemperatureCommManager.c ****     
 236:.\TemperatureCommManager.c ****     uint8 packet[MAX_PACKET_SIZE];
 237:.\TemperatureCommManager.c ****     uint8 driverID = 0;
 238:.\TemperatureCommManager.c ****     uint16 temperatureSample = 0;
 239:.\TemperatureCommManager.c ****     
 240:.\TemperatureCommManager.c ****     SamplingTimer_ClearInterrupt(SamplingTimer_INTR_MASK_TC);   
 241:.\TemperatureCommManager.c ****     
 242:.\TemperatureCommManager.c ****     readyToSendThresholdCounter++;
 243:.\TemperatureCommManager.c ****     
 244:.\TemperatureCommManager.c ****     if(readyToSendThresholdCounter>=4)
 245:.\TemperatureCommManager.c ****     {
 246:.\TemperatureCommManager.c ****         readyToSendThresholdCounter = 0;
 247:.\TemperatureCommManager.c ****         bReadyToSendNextBrightnessTimeoutPacket = TRUE;
 248:.\TemperatureCommManager.c ****     }
 249:.\TemperatureCommManager.c ****     
 250:.\TemperatureCommManager.c **** 
 251:.\TemperatureCommManager.c ****     //Get next temperature sample to add to array
 252:.\TemperatureCommManager.c ****     getTemperatureSample(FALSE, 0, ADC_Data, ADC_SAMPLE_COUNT);
 253:.\TemperatureCommManager.c ****     temperatureSample = ADC_Data[channelNumber];    
 254:.\TemperatureCommManager.c ****     driverID = getDriverID();
 255:.\TemperatureCommManager.c ****     
 256:.\TemperatureCommManager.c ****     //Create packet for temperature data
 257:.\TemperatureCommManager.c ****     memset(packet, 0, MAX_PACKET_SIZE);
 258:.\TemperatureCommManager.c ****     packet[HEADER_START_INDEX] = PacketList[channelNumber + 2].HEADER_BYTE;
 259:.\TemperatureCommManager.c ****     packet[HEADER_START_INDEX + 1] = PacketList[channelNumber + 2].PACKET_TYPE;
 260:.\TemperatureCommManager.c ****     packet[PAYLOAD_START_INDEX + PacketList[channelNumber + 2].PAYLOAD_SIZE] 
 261:.\TemperatureCommManager.c ****         = PacketList[channelNumber + 2].EOP_CARRIAGE_RETURN;
ARM GAS  C:\Users\kylep\AppData\Local\Temp\cc7tCmDj.s 			page 6


 262:.\TemperatureCommManager.c ****     packet[PAYLOAD_START_INDEX + PacketList[channelNumber + 2].PAYLOAD_SIZE + 1]
 263:.\TemperatureCommManager.c ****         = PacketList[channelNumber + 2].EOP_LINE_FEED;
 264:.\TemperatureCommManager.c ****         
 265:.\TemperatureCommManager.c ****     memcpy(&packet[PAYLOAD_START_INDEX], temperaturePayload[channelNumber],
 266:.\TemperatureCommManager.c ****         MAX_PAYLOAD_BYTE_COUNT);
 267:.\TemperatureCommManager.c ****     packet[PAYLOAD_START_INDEX + driverID * 2] = (temperatureSample >> 8) & 0xFF;
 268:.\TemperatureCommManager.c ****     packet[PAYLOAD_START_INDEX + driverID * 2 + 1] = temperatureSample & 0xFF;
 269:.\TemperatureCommManager.c ****     
 270:.\TemperatureCommManager.c ****     if(driverID == HEAD_MODULE_ID)
 271:.\TemperatureCommManager.c ****     {   //Add max temperature to packet if this is the head module
 272:.\TemperatureCommManager.c ****         //checkForUnderVoltage(ADC_Data[VOLTAGE_SENSE]);
 273:.\TemperatureCommManager.c ****         temperatureSample = (uint16)(getMaxTemperature(channelNumber));
 274:.\TemperatureCommManager.c ****         packet[PAYLOAD_START_INDEX] = (temperatureSample >> 8) & 0xFF;
 275:.\TemperatureCommManager.c ****         packet[PAYLOAD_START_INDEX + 1] = temperatureSample & 0xFF;
 276:.\TemperatureCommManager.c ****     }
 277:.\TemperatureCommManager.c ****     
 278:.\TemperatureCommManager.c ****     //Send off temperature packet
 279:.\TemperatureCommManager.c ****     //packet[getDriverID()+2] = getDriverID();
 280:.\TemperatureCommManager.c ****     
 281:.\TemperatureCommManager.c ****     sendTempPacketBack++;
 282:.\TemperatureCommManager.c ****     if(sendTempPacketBack>2)
 283:.\TemperatureCommManager.c ****     {
 284:.\TemperatureCommManager.c ****         sendTempPacketBack = 0;
 285:.\TemperatureCommManager.c ****         //UART_Temperature_SpiUartPutArray(packet, MAX_PACKET_SIZE);
 286:.\TemperatureCommManager.c ****     }
 287:.\TemperatureCommManager.c ****     HighestTemperatures[channelNumber] =
 288:.\TemperatureCommManager.c ****         getHighestTemperature(&packet[PAYLOAD_START_INDEX + 2], MAX_PAYLOAD_BYTE_COUNT);
 289:.\TemperatureCommManager.c ****     
 290:.\TemperatureCommManager.c ****     if((driverID == HEAD_MODULE_ID) && (channelNumber == SWITCH_NODE))
 291:.\TemperatureCommManager.c ****     {   //Adjust brightness based on temp and send new brightness
 292:.\TemperatureCommManager.c ****         regulateBrightness(HighestTemperatures, ADC_SAMPLE_COUNT - 1);             
 293:.\TemperatureCommManager.c ****         temporaryPacket[PAYLOAD_START_INDEX] = getNewMaxBrightness();
 294:.\TemperatureCommManager.c ****         //UART_Temperature_SpiUartPutArray(temporaryPacket, 5);
 295:.\TemperatureCommManager.c ****     }
 296:.\TemperatureCommManager.c ****     
 297:.\TemperatureCommManager.c ****     //Enable injection before obtaining the micro temp in the next iteration
 298:.\TemperatureCommManager.c ****     if(channelNumber == (MICRO - 1))
 299:.\TemperatureCommManager.c ****         ADC_SAR_Seq_EnableInjection();
 300:.\TemperatureCommManager.c ****     
 301:.\TemperatureCommManager.c ****     channelNumber = (channelNumber + 1) % (ADC_SAMPLE_COUNT - 1);
 302:.\TemperatureCommManager.c ****     
 303:.\TemperatureCommManager.c **** }
 304:.\TemperatureCommManager.c **** 
 305:.\TemperatureCommManager.c **** /**********DEFINED LOCAL FUNCTIONS**********/
 306:.\TemperatureCommManager.c **** /*******************************************************************************
 307:.\TemperatureCommManager.c **** * Function Name: detectPacket
 308:.\TemperatureCommManager.c **** ********************************************************************************
 309:.\TemperatureCommManager.c **** *
 310:.\TemperatureCommManager.c **** * Summary:
 311:.\TemperatureCommManager.c **** *  Determines if the incoming byte belongs to a valid packet. If the packet is
 312:.\TemperatureCommManager.c **** *  valid, then the payload is processed.
 313:.\TemperatureCommManager.c **** *
 314:.\TemperatureCommManager.c **** * Parameters:
 315:.\TemperatureCommManager.c **** *  dataByte: The next byte to check in the packet
 316:.\TemperatureCommManager.c **** *
 317:.\TemperatureCommManager.c **** * Return:
 318:.\TemperatureCommManager.c **** *  None.
ARM GAS  C:\Users\kylep\AppData\Local\Temp\cc7tCmDj.s 			page 7


 319:.\TemperatureCommManager.c **** *
 320:.\TemperatureCommManager.c **** *******************************************************************************/
 321:.\TemperatureCommManager.c **** static void detectPacket(uint8 dataByte)
 322:.\TemperatureCommManager.c **** {
 323:.\TemperatureCommManager.c ****     static uint8 packet[MAX_PACKET_SIZE];   
 324:.\TemperatureCommManager.c ****     static enum PacketState currentState = HEADER_STATE;
 325:.\TemperatureCommManager.c ****     static uint8 currentPacketIndex = HEADER_START_INDEX;
 326:.\TemperatureCommManager.c ****     static uint8 dataTypeIndex = 0;    
 327:.\TemperatureCommManager.c ****     uint8 loopIndex = 0;
 328:.\TemperatureCommManager.c ****     
 329:.\TemperatureCommManager.c ****     switch(currentState)
 330:.\TemperatureCommManager.c ****     {
 331:.\TemperatureCommManager.c ****         case HEADER_STATE:
 332:.\TemperatureCommManager.c ****             if((currentPacketIndex == HEADER_START_INDEX) &&
 333:.\TemperatureCommManager.c ****                 (dataByte == PacketList[dataTypeIndex].HEADER_BYTE))
 334:.\TemperatureCommManager.c ****             {
 335:.\TemperatureCommManager.c ****                 packet[currentPacketIndex] = dataByte;
 336:.\TemperatureCommManager.c ****                 currentPacketIndex++;
 337:.\TemperatureCommManager.c ****             }
 338:.\TemperatureCommManager.c ****             else if(currentPacketIndex == (HEADER_START_INDEX + 1))
 339:.\TemperatureCommManager.c ****             {
 340:.\TemperatureCommManager.c ****                 for(loopIndex = 0; loopIndex < PACKET_TYPE_COUNT; loopIndex++)
 341:.\TemperatureCommManager.c ****                 {
 342:.\TemperatureCommManager.c ****                     if(dataByte == PacketList[loopIndex].PACKET_TYPE)
 343:.\TemperatureCommManager.c ****                     {
 344:.\TemperatureCommManager.c ****                         dataTypeIndex = loopIndex;                        
 345:.\TemperatureCommManager.c ****                         packet[currentPacketIndex] = dataByte;
 346:.\TemperatureCommManager.c ****                         currentPacketIndex++;
 347:.\TemperatureCommManager.c ****                         currentState = PAYLOAD_STATE;
 348:.\TemperatureCommManager.c ****                         break;
 349:.\TemperatureCommManager.c ****                     }
 350:.\TemperatureCommManager.c ****                 }
 351:.\TemperatureCommManager.c ****                 
 352:.\TemperatureCommManager.c ****                 if(loopIndex >= PACKET_TYPE_COUNT)
 353:.\TemperatureCommManager.c ****                 {
 354:.\TemperatureCommManager.c ****                     currentPacketIndex = HEADER_START_INDEX;
 355:.\TemperatureCommManager.c ****                     dataTypeIndex = 0;
 356:.\TemperatureCommManager.c ****                 }
 357:.\TemperatureCommManager.c ****             }
 358:.\TemperatureCommManager.c ****             else
 359:.\TemperatureCommManager.c ****             {
 360:.\TemperatureCommManager.c ****                 currentPacketIndex = HEADER_START_INDEX;
 361:.\TemperatureCommManager.c ****                 dataTypeIndex = 0;
 362:.\TemperatureCommManager.c ****             }
 363:.\TemperatureCommManager.c ****             break;
 364:.\TemperatureCommManager.c ****         case PAYLOAD_STATE:
 365:.\TemperatureCommManager.c ****             packet[currentPacketIndex] = dataByte;
 366:.\TemperatureCommManager.c ****             currentPacketIndex++;
 367:.\TemperatureCommManager.c ****             
 368:.\TemperatureCommManager.c ****             if(currentPacketIndex >= (PAYLOAD_START_INDEX + PacketList[dataTypeIndex].PAYLOAD_SIZE)
 369:.\TemperatureCommManager.c ****                 currentState = EOP_STATE;
 370:.\TemperatureCommManager.c ****             break;
 371:.\TemperatureCommManager.c ****         case EOP_STATE:
 372:.\TemperatureCommManager.c ****             if((currentPacketIndex == (PAYLOAD_START_INDEX + PacketList[dataTypeIndex].PAYLOAD_SIZE
 373:.\TemperatureCommManager.c ****                 (dataByte == PacketList[dataTypeIndex].EOP_CARRIAGE_RETURN))
 374:.\TemperatureCommManager.c ****             {
 375:.\TemperatureCommManager.c ****                 packet[currentPacketIndex] = dataByte;
ARM GAS  C:\Users\kylep\AppData\Local\Temp\cc7tCmDj.s 			page 8


 376:.\TemperatureCommManager.c ****                 currentPacketIndex++;
 377:.\TemperatureCommManager.c ****             }
 378:.\TemperatureCommManager.c ****             else if((currentPacketIndex == (PAYLOAD_START_INDEX + PacketList[dataTypeIndex].PAYLOAD
 379:.\TemperatureCommManager.c ****                     && (dataByte == PacketList[dataTypeIndex].EOP_LINE_FEED))
 380:.\TemperatureCommManager.c ****             {
 381:.\TemperatureCommManager.c ****                 packet[currentPacketIndex] = dataByte;
 382:.\TemperatureCommManager.c **** 				
 383:.\TemperatureCommManager.c **** 				if(dataTypeIndex == 0)
 384:.\TemperatureCommManager.c ****                     processFinalDriverCountPacket(packet, MAX_PACKET_SIZE - 9);                   
 385:.\TemperatureCommManager.c **** 				else if(dataTypeIndex == 1)
 386:.\TemperatureCommManager.c ****                     processAckPacket(packet, MAX_PACKET_SIZE - 9);
 387:.\TemperatureCommManager.c ****                 else
 388:.\TemperatureCommManager.c ****                     processTemperaturePacket(packet, MAX_PACKET_SIZE);
 389:.\TemperatureCommManager.c ****     	        
 390:.\TemperatureCommManager.c ****                 currentPacketIndex = HEADER_START_INDEX;
 391:.\TemperatureCommManager.c ****                 currentState = HEADER_STATE;
 392:.\TemperatureCommManager.c ****                 dataTypeIndex = 0;
 393:.\TemperatureCommManager.c ****             }
 394:.\TemperatureCommManager.c ****             else
 395:.\TemperatureCommManager.c ****             {
 396:.\TemperatureCommManager.c ****                 currentPacketIndex = HEADER_START_INDEX;
 397:.\TemperatureCommManager.c ****                 currentState = HEADER_STATE;
 398:.\TemperatureCommManager.c ****                 dataTypeIndex = 0;
 399:.\TemperatureCommManager.c ****             }
 400:.\TemperatureCommManager.c ****             break;
 401:.\TemperatureCommManager.c ****     }
 402:.\TemperatureCommManager.c **** }
 403:.\TemperatureCommManager.c **** 
 404:.\TemperatureCommManager.c **** /*******************************************************************************
 405:.\TemperatureCommManager.c **** * Function Name: processTemperaturePacket
 406:.\TemperatureCommManager.c **** ********************************************************************************
 407:.\TemperatureCommManager.c **** *
 408:.\TemperatureCommManager.c **** * Summary:
 409:.\TemperatureCommManager.c **** *  Obtains the temperature for this module, adds the temperature to this packet, and
 410:.\TemperatureCommManager.c **** *  sends the packet to the previous module.
 411:.\TemperatureCommManager.c **** *
 412:.\TemperatureCommManager.c **** * Parameters:
 413:.\TemperatureCommManager.c **** *  packet: The reference to the temperature packet to process.
 414:.\TemperatureCommManager.c **** *  length: The byte count for this packet.
 415:.\TemperatureCommManager.c **** *
 416:.\TemperatureCommManager.c **** * Return:
 417:.\TemperatureCommManager.c **** *  SUCCESS for valid inputs, FAILURE otherwise
 418:.\TemperatureCommManager.c **** *
 419:.\TemperatureCommManager.c **** *******************************************************************************/
 420:.\TemperatureCommManager.c **** static uint8 processTemperaturePacket(uint8* packet, uint8 length)
 421:.\TemperatureCommManager.c **** {
 422:.\TemperatureCommManager.c ****     uint8 driverID = 0;
 423:.\TemperatureCommManager.c ****     uint8 channelNumber;
 424:.\TemperatureCommManager.c ****     
 425:.\TemperatureCommManager.c ****     if(packet == NULL || length != MAX_PACKET_SIZE)
 426:.\TemperatureCommManager.c ****         return FAILURE;
 427:.\TemperatureCommManager.c ****     
 428:.\TemperatureCommManager.c ****     driverID = getDriverID();
 429:.\TemperatureCommManager.c ****     if((driverID < HEAD_MODULE_ID) || (driverID > MAX_DRIVER_COUNT))
 430:.\TemperatureCommManager.c ****         return FAILURE;
 431:.\TemperatureCommManager.c ****     
 432:.\TemperatureCommManager.c ****     for(channelNumber = 0; channelNumber < ADC_SAMPLE_COUNT; channelNumber++)
ARM GAS  C:\Users\kylep\AppData\Local\Temp\cc7tCmDj.s 			page 9


 433:.\TemperatureCommManager.c ****     {   //Determining ADC channel number based on packet type
 434:.\TemperatureCommManager.c ****         if(packet[HEADER_START_INDEX + 1] == PacketList[channelNumber + 2].PACKET_TYPE)
 435:.\TemperatureCommManager.c ****             break;
 436:.\TemperatureCommManager.c ****     }
 437:.\TemperatureCommManager.c ****     
 438:.\TemperatureCommManager.c ****     memcpy(temperaturePayload[channelNumber],
 439:.\TemperatureCommManager.c ****         &packet[PAYLOAD_START_INDEX], MAX_PAYLOAD_BYTE_COUNT);
 440:.\TemperatureCommManager.c ****     
 441:.\TemperatureCommManager.c ****     return SUCCESS; //Return here if this is a head module
 442:.\TemperatureCommManager.c **** }
 443:.\TemperatureCommManager.c **** 
 444:.\TemperatureCommManager.c **** /*******************************************************************************
 445:.\TemperatureCommManager.c **** * Function Name: processFinalDriverCountPacket
 446:.\TemperatureCommManager.c **** ********************************************************************************
 447:.\TemperatureCommManager.c **** *
 448:.\TemperatureCommManager.c **** * Summary:
 449:.\TemperatureCommManager.c **** *  Sends the complete driver count packet to the previous module without modification.
 450:.\TemperatureCommManager.c **** *
 451:.\TemperatureCommManager.c **** * Parameters:
 452:.\TemperatureCommManager.c **** *  packet: The reference to the complete driver count packet.
 453:.\TemperatureCommManager.c **** *  length: The byte count for this packet.
 454:.\TemperatureCommManager.c **** *
 455:.\TemperatureCommManager.c **** * Return:
 456:.\TemperatureCommManager.c **** *  SUCCESS for valid inputs, FAILURE otherwise
 457:.\TemperatureCommManager.c **** *
 458:.\TemperatureCommManager.c **** *******************************************************************************/
 459:.\TemperatureCommManager.c **** static uint8 processFinalDriverCountPacket(uint8* packet, uint8 length)
 460:.\TemperatureCommManager.c **** {
 461:.\TemperatureCommManager.c ****     if(packet == NULL || (length != MAX_PACKET_SIZE - 9))
 462:.\TemperatureCommManager.c ****         return FAILURE;
 463:.\TemperatureCommManager.c ****     
 464:.\TemperatureCommManager.c ****     setDriverCount(packet[PAYLOAD_START_INDEX]);
 465:.\TemperatureCommManager.c ****     //UART_Temperature_SpiUartPutArray(packet, MAX_PACKET_SIZE - 9);
 466:.\TemperatureCommManager.c ****     
 467:.\TemperatureCommManager.c ****     
 468:.\TemperatureCommManager.c ****     if(getDriverID() == HEAD_MODULE_ID)
 469:.\TemperatureCommManager.c ****     {
 470:.\TemperatureCommManager.c ****         //UART_LED_Control_Write(TRUE); 
 471:.\TemperatureCommManager.c ****     }
 472:.\TemperatureCommManager.c ****     else
 473:.\TemperatureCommManager.c ****     {
 474:.\TemperatureCommManager.c ****         //UART_LED_Control_Write(FALSE);
 475:.\TemperatureCommManager.c ****     }
 476:.\TemperatureCommManager.c ****     return SUCCESS;
 477:.\TemperatureCommManager.c **** }
 478:.\TemperatureCommManager.c **** 
 479:.\TemperatureCommManager.c **** /*******************************************************************************
 480:.\TemperatureCommManager.c **** * Function Name: processAckPacket
 481:.\TemperatureCommManager.c **** ********************************************************************************
 482:.\TemperatureCommManager.c **** *
 483:.\TemperatureCommManager.c **** * Summary:
 484:.\TemperatureCommManager.c **** *  Receiving the ack packet indicates that there is a module appended to this one.
 485:.\TemperatureCommManager.c **** *
 486:.\TemperatureCommManager.c **** * Parameters:
 487:.\TemperatureCommManager.c **** *  packet: The reference to the ack packet.
 488:.\TemperatureCommManager.c **** *  length: The byte count for this packet.
 489:.\TemperatureCommManager.c **** *
ARM GAS  C:\Users\kylep\AppData\Local\Temp\cc7tCmDj.s 			page 10


 490:.\TemperatureCommManager.c **** * Return:
 491:.\TemperatureCommManager.c **** *  SUCCESS for valid inputs, FAILURE otherwise
 492:.\TemperatureCommManager.c **** *
 493:.\TemperatureCommManager.c **** *******************************************************************************/
 494:.\TemperatureCommManager.c **** static uint8 processAckPacket(uint8* packet, uint8 length)
 495:.\TemperatureCommManager.c **** {
 496:.\TemperatureCommManager.c ****     if(packet == NULL || length != (MAX_PACKET_SIZE - 9))
 497:.\TemperatureCommManager.c ****         return FAILURE;
 498:.\TemperatureCommManager.c ****     
 499:.\TemperatureCommManager.c ****     AckTimer_Stop();
 500:.\TemperatureCommManager.c ****     timerCount = 0;
 501:.\TemperatureCommManager.c ****     setAsNotLastDriverInChain();
 502:.\TemperatureCommManager.c ****     return SUCCESS;
 503:.\TemperatureCommManager.c **** }
 504:.\TemperatureCommManager.c **** 
 505:.\TemperatureCommManager.c **** /*******************************************************************************
 506:.\TemperatureCommManager.c **** * Function Name: getHighestTemperature
 507:.\TemperatureCommManager.c **** ********************************************************************************
 508:.\TemperatureCommManager.c **** *
 509:.\TemperatureCommManager.c **** * Summary:
 510:.\TemperatureCommManager.c **** *  Returns the highest temperature detected out of all modules.
 511:.\TemperatureCommManager.c **** *
 512:.\TemperatureCommManager.c **** * Parameters:
 513:.\TemperatureCommManager.c **** *  packet: The reference to the temperature packet to process.
 514:.\TemperatureCommManager.c **** *  length: The byte count for this packet.
 515:.\TemperatureCommManager.c **** *
 516:.\TemperatureCommManager.c **** * Return:
 517:.\TemperatureCommManager.c **** *  The highest temperature detected out of all modules, 0 if there is an input error
 518:.\TemperatureCommManager.c **** *
 519:.\TemperatureCommManager.c **** *******************************************************************************/
 520:.\TemperatureCommManager.c **** static int16 getHighestTemperature(uint8* packet, uint8 length)
 521:.\TemperatureCommManager.c **** {
  25              		.loc 1 521 0
  26              		.cfi_startproc
  27              	.LVL0:
  28 0000 30B5     		push	{r4, r5, lr}
  29              		.cfi_def_cfa_offset 12
  30              		.cfi_offset 4, -12
  31              		.cfi_offset 5, -8
  32              		.cfi_offset 14, -4
  33              	.LVL1:
 522:.\TemperatureCommManager.c ****     int16 highestTemperature = 0;
 523:.\TemperatureCommManager.c ****     int16 temperatureToCheck = 0;
 524:.\TemperatureCommManager.c ****     uint8 moduleIndex = 0;
 525:.\TemperatureCommManager.c ****     
 526:.\TemperatureCommManager.c ****     if(packet == NULL || length != MAX_PAYLOAD_BYTE_COUNT)
  34              		.loc 1 526 0
  35 0002 0028     		cmp	r0, #0
  36 0004 15D0     		beq	.L6
  37              		.loc 1 526 0 is_stmt 0 discriminator 1
  38 0006 1229     		cmp	r1, #18
  39 0008 15D1     		bne	.L7
  40 000a 0022     		mov	r2, #0
  41 000c 0024     		mov	r4, #0
  42 000e 0CE0     		b	.L3
  43              	.LVL2:
  44              	.L5:
ARM GAS  C:\Users\kylep\AppData\Local\Temp\cc7tCmDj.s 			page 11


 527:.\TemperatureCommManager.c ****         return 0;
 528:.\TemperatureCommManager.c ****     
 529:.\TemperatureCommManager.c ****     for(moduleIndex = 0; moduleIndex < MAX_DRIVER_COUNT; moduleIndex++)
 530:.\TemperatureCommManager.c ****     {
 531:.\TemperatureCommManager.c ****         temperatureToCheck = 0;
 532:.\TemperatureCommManager.c ****         temperatureToCheck = (int16)(packet[moduleIndex * 2] << 8);
  45              		.loc 1 532 0 is_stmt 1
  46 0010 5100     		lsl	r1, r2, #1
  47 0012 435C     		ldrb	r3, [r0, r1]
  48 0014 1B02     		lsl	r3, r3, #8
  49              	.LVL3:
 533:.\TemperatureCommManager.c ****         temperatureToCheck |= (int16)(packet[moduleIndex * 2 + 1]);
  50              		.loc 1 533 0
  51 0016 4118     		add	r1, r0, r1
  52 0018 4978     		ldrb	r1, [r1, #1]
  53 001a 0B43     		orr	r3, r1
  54              	.LVL4:
 534:.\TemperatureCommManager.c ****         
 535:.\TemperatureCommManager.c ****         if(temperatureToCheck > highestTemperature)
  55              		.loc 1 535 0
  56 001c 1DB2     		sxth	r5, r3
  57 001e 21B2     		sxth	r1, r4
  58 0020 8D42     		cmp	r5, r1
  59 0022 00DD     		ble	.L4
 536:.\TemperatureCommManager.c ****             highestTemperature = temperatureToCheck;
  60              		.loc 1 536 0
  61 0024 1C1C     		mov	r4, r3
  62              	.LVL5:
  63              	.L4:
 529:.\TemperatureCommManager.c ****     {
  64              		.loc 1 529 0 discriminator 2
  65 0026 0132     		add	r2, r2, #1
  66              	.LVL6:
  67 0028 D2B2     		uxtb	r2, r2
  68              	.LVL7:
  69              	.L3:
 529:.\TemperatureCommManager.c ****     {
  70              		.loc 1 529 0 is_stmt 0 discriminator 1
  71 002a 072A     		cmp	r2, #7
  72 002c F0D9     		bls	.L5
 537:.\TemperatureCommManager.c ****     }
 538:.\TemperatureCommManager.c ****     
 539:.\TemperatureCommManager.c ****     return highestTemperature;
  73              		.loc 1 539 0 is_stmt 1
  74 002e A0B2     		uxth	r0, r4
  75              	.LVL8:
  76 0030 02E0     		b	.L2
  77              	.LVL9:
  78              	.L6:
 527:.\TemperatureCommManager.c ****     
  79              		.loc 1 527 0
  80 0032 0020     		mov	r0, #0
  81              	.LVL10:
  82 0034 00E0     		b	.L2
  83              	.LVL11:
  84              	.L7:
  85 0036 0020     		mov	r0, #0
ARM GAS  C:\Users\kylep\AppData\Local\Temp\cc7tCmDj.s 			page 12


  86              	.LVL12:
  87              	.L2:
  88 0038 00B2     		sxth	r0, r0
 540:.\TemperatureCommManager.c **** }
  89              		.loc 1 540 0
  90              		@ sp needed
  91 003a 30BD     		pop	{r4, r5, pc}
  92              		.cfi_endproc
  93              	.LFE45:
  94              		.size	getHighestTemperature, .-getHighestTemperature
  95              		.section	.text.isReadyToSendNextBrightnessPacket,"ax",%progbits
  96              		.align	2
  97              		.global	isReadyToSendNextBrightnessPacket
  98              		.code	16
  99              		.thumb_func
 100              		.type	isReadyToSendNextBrightnessPacket, %function
 101              	isReadyToSendNextBrightnessPacket:
 102              	.LFB34:
  88:.\TemperatureCommManager.c ****    return bReadyToSendNextBrightnessTimeoutPacket;
 103              		.loc 1 88 0
 104              		.cfi_startproc
  89:.\TemperatureCommManager.c **** }
 105              		.loc 1 89 0
 106 0000 014B     		ldr	r3, .L10
 107 0002 1878     		ldrb	r0, [r3]
  90:.\TemperatureCommManager.c **** 
 108              		.loc 1 90 0
 109              		@ sp needed
 110 0004 7047     		bx	lr
 111              	.L11:
 112 0006 C046     		.align	2
 113              	.L10:
 114 0008 00000000 		.word	.LANCHOR0
 115              		.cfi_endproc
 116              	.LFE34:
 117              		.size	isReadyToSendNextBrightnessPacket, .-isReadyToSendNextBrightnessPacket
 118              		.section	.text.clearIsReadyToSendNextBrightnessPacket,"ax",%progbits
 119              		.align	2
 120              		.global	clearIsReadyToSendNextBrightnessPacket
 121              		.code	16
 122              		.thumb_func
 123              		.type	clearIsReadyToSendNextBrightnessPacket, %function
 124              	clearIsReadyToSendNextBrightnessPacket:
 125              	.LFB35:
  93:.\TemperatureCommManager.c ****     bReadyToSendNextBrightnessTimeoutPacket = FALSE;
 126              		.loc 1 93 0
 127              		.cfi_startproc
  94:.\TemperatureCommManager.c **** }
 128              		.loc 1 94 0
 129 0000 0022     		mov	r2, #0
 130 0002 014B     		ldr	r3, .L13
 131 0004 1A70     		strb	r2, [r3]
  95:.\TemperatureCommManager.c **** 
 132              		.loc 1 95 0
 133              		@ sp needed
 134 0006 7047     		bx	lr
 135              	.L14:
ARM GAS  C:\Users\kylep\AppData\Local\Temp\cc7tCmDj.s 			page 13


 136              		.align	2
 137              	.L13:
 138 0008 00000000 		.word	.LANCHOR0
 139              		.cfi_endproc
 140              	.LFE35:
 141              		.size	clearIsReadyToSendNextBrightnessPacket, .-clearIsReadyToSendNextBrightnessPacket
 142              		.section	.text.isLastDriver,"ax",%progbits
 143              		.align	2
 144              		.global	isLastDriver
 145              		.code	16
 146              		.thumb_func
 147              		.type	isLastDriver, %function
 148              	isLastDriver:
 149              	.LFB36:
 113:.\TemperatureCommManager.c ****     return bLastDriverInChain;
 150              		.loc 1 113 0
 151              		.cfi_startproc
 114:.\TemperatureCommManager.c **** }
 152              		.loc 1 114 0
 153 0000 014B     		ldr	r3, .L16
 154 0002 5878     		ldrb	r0, [r3, #1]
 115:.\TemperatureCommManager.c **** 
 155              		.loc 1 115 0
 156              		@ sp needed
 157 0004 7047     		bx	lr
 158              	.L17:
 159 0006 C046     		.align	2
 160              	.L16:
 161 0008 00000000 		.word	.LANCHOR0
 162              		.cfi_endproc
 163              	.LFE36:
 164              		.size	isLastDriver, .-isLastDriver
 165              		.section	.text.processTemperatureByteReceivedHandler,"ax",%progbits
 166              		.align	2
 167              		.global	processTemperatureByteReceivedHandler
 168              		.code	16
 169              		.thumb_func
 170              		.type	processTemperatureByteReceivedHandler, %function
 171              	processTemperatureByteReceivedHandler:
 172              	.LFB37:
 133:.\TemperatureCommManager.c ****     //uint8 dataByte = 0;
 173              		.loc 1 133 0
 174              		.cfi_startproc
 145:.\TemperatureCommManager.c **** 
 175              		.loc 1 145 0
 176              		@ sp needed
 177 0000 7047     		bx	lr
 178              		.cfi_endproc
 179              	.LFE37:
 180              		.size	processTemperatureByteReceivedHandler, .-processTemperatureByteReceivedHandler
 181 0002 C046     		.section	.text.setLastDriverPacket,"ax",%progbits
 182              		.align	2
 183              		.global	setLastDriverPacket
 184              		.code	16
 185              		.thumb_func
 186              		.type	setLastDriverPacket, %function
 187              	setLastDriverPacket:
ARM GAS  C:\Users\kylep\AppData\Local\Temp\cc7tCmDj.s 			page 14


 188              	.LFB38:
 166:.\TemperatureCommManager.c ****     if((dataPacket == NULL) || (length != (MAX_PACKET_SIZE - 9)))
 189              		.loc 1 166 0
 190              		.cfi_startproc
 191              	.LVL13:
 192 0000 08B5     		push	{r3, lr}
 193              		.cfi_def_cfa_offset 8
 194              		.cfi_offset 3, -8
 195              		.cfi_offset 14, -4
 167:.\TemperatureCommManager.c ****         return FAILURE;
 196              		.loc 1 167 0
 197 0002 0028     		cmp	r0, #0
 198 0004 09D0     		beq	.L21
 167:.\TemperatureCommManager.c ****         return FAILURE;
 199              		.loc 1 167 0 is_stmt 0 discriminator 1
 200 0006 0D29     		cmp	r1, #13
 201 0008 09D1     		bne	.L22
 202 000a 0A1C     		mov	r2, r1
 203 000c 011C     		mov	r1, r0
 204              	.LVL14:
 170:.\TemperatureCommManager.c ****     
 205              		.loc 1 170 0 is_stmt 1
 206 000e 0548     		ldr	r0, .L23
 207              	.LVL15:
 208 0010 0430     		add	r0, r0, #4
 209 0012 FFF7FEFF 		bl	memcpy
 210              	.LVL16:
 172:.\TemperatureCommManager.c **** }
 211              		.loc 1 172 0
 212 0016 0020     		mov	r0, #0
 213 0018 02E0     		b	.L20
 214              	.LVL17:
 215              	.L21:
 168:.\TemperatureCommManager.c ****     
 216              		.loc 1 168 0
 217 001a 0120     		mov	r0, #1
 218              	.LVL18:
 219 001c 00E0     		b	.L20
 220              	.LVL19:
 221              	.L22:
 222 001e 0120     		mov	r0, #1
 223              	.LVL20:
 224              	.L20:
 173:.\TemperatureCommManager.c **** 
 225              		.loc 1 173 0
 226              		@ sp needed
 227 0020 08BD     		pop	{r3, pc}
 228              	.L24:
 229 0022 C046     		.align	2
 230              	.L23:
 231 0024 00000000 		.word	.LANCHOR0
 232              		.cfi_endproc
 233              	.LFE38:
 234              		.size	setLastDriverPacket, .-setLastDriverPacket
 235              		.section	.text.processAckTimeoutRoutine,"ax",%progbits
 236              		.align	2
 237              		.global	processAckTimeoutRoutine
ARM GAS  C:\Users\kylep\AppData\Local\Temp\cc7tCmDj.s 			page 15


 238              		.code	16
 239              		.thumb_func
 240              		.type	processAckTimeoutRoutine, %function
 241              	processAckTimeoutRoutine:
 242              	.LFB39:
 192:.\TemperatureCommManager.c ****     AckTimer_ClearInterrupt(AckTimer_INTR_MASK_TC);
 243              		.loc 1 192 0
 244              		.cfi_startproc
 245 0000 38B5     		push	{r3, r4, r5, lr}
 246              		.cfi_def_cfa_offset 16
 247              		.cfi_offset 3, -16
 248              		.cfi_offset 4, -12
 249              		.cfi_offset 5, -8
 250              		.cfi_offset 14, -4
 193:.\TemperatureCommManager.c ****     
 251              		.loc 1 193 0
 252 0002 0120     		mov	r0, #1
 253 0004 FFF7FEFF 		bl	AckTimer_ClearInterrupt
 254              	.LVL21:
 195:.\TemperatureCommManager.c ****     {
 255              		.loc 1 195 0
 256 0008 0B4B     		ldr	r3, .L28
 257 000a 5B8A     		ldrh	r3, [r3, #18]
 258 000c 1D2B     		cmp	r3, #29
 259 000e 03D8     		bhi	.L26
 199:.\TemperatureCommManager.c ****     }
 260              		.loc 1 199 0
 261 0010 0133     		add	r3, r3, #1
 262 0012 094A     		ldr	r2, .L28
 263 0014 5382     		strh	r3, [r2, #18]
 264 0016 0EE0     		b	.L25
 265              	.L26:
 203:.\TemperatureCommManager.c ****         //UART_LED_Control_Write(FALSE);
 266              		.loc 1 203 0
 267 0018 074C     		ldr	r4, .L28
 268 001a 0123     		mov	r3, #1
 269 001c 6370     		strb	r3, [r4, #1]
 205:.\TemperatureCommManager.c ****         timerCount = 0;
 270              		.loc 1 205 0
 271 001e FFF7FEFF 		bl	AckTimer_Stop
 272              	.LVL22:
 206:.\TemperatureCommManager.c ****         setDriverCount(lastDriverPacket[PAYLOAD_START_INDEX]);
 273              		.loc 1 206 0
 274 0022 0025     		mov	r5, #0
 275 0024 6582     		strh	r5, [r4, #18]
 207:.\TemperatureCommManager.c ****         //UART_Temperature_SpiUartPutArray(lastDriverPacket, MAX_PACKET_SIZE - 9);
 276              		.loc 1 207 0
 277 0026 A079     		ldrb	r0, [r4, #6]
 278 0028 FFF7FEFF 		bl	setDriverCount
 279              	.LVL23:
 209:.\TemperatureCommManager.c ****     }
 280              		.loc 1 209 0
 281 002c 6560     		str	r5, [r4, #4]
 282 002e A560     		str	r5, [r4, #8]
 283 0030 E560     		str	r5, [r4, #12]
 284 0032 0022     		mov	r2, #0
 285 0034 2274     		strb	r2, [r4, #16]
ARM GAS  C:\Users\kylep\AppData\Local\Temp\cc7tCmDj.s 			page 16


 286              	.L25:
 211:.\TemperatureCommManager.c **** 
 287              		.loc 1 211 0
 288              		@ sp needed
 289 0036 38BD     		pop	{r3, r4, r5, pc}
 290              	.L29:
 291              		.align	2
 292              	.L28:
 293 0038 00000000 		.word	.LANCHOR0
 294              		.cfi_endproc
 295              	.LFE39:
 296              		.size	processAckTimeoutRoutine, .-processAckTimeoutRoutine
 297              		.global	__aeabi_idivmod
 298              		.section	.text.processSamplingTimerRoutine,"ax",%progbits
 299              		.align	2
 300              		.global	processSamplingTimerRoutine
 301              		.code	16
 302              		.thumb_func
 303              		.type	processSamplingTimerRoutine, %function
 304              	processSamplingTimerRoutine:
 305              	.LFB40:
 230:.\TemperatureCommManager.c ****     static int16 ADC_Data[ADC_SAMPLE_COUNT] = {0, 0, 0, 0};
 306              		.loc 1 230 0
 307              		.cfi_startproc
 308 0000 F0B5     		push	{r4, r5, r6, r7, lr}
 309              		.cfi_def_cfa_offset 20
 310              		.cfi_offset 4, -20
 311              		.cfi_offset 5, -16
 312              		.cfi_offset 6, -12
 313              		.cfi_offset 7, -8
 314              		.cfi_offset 14, -4
 315 0002 5746     		mov	r7, r10
 316 0004 4E46     		mov	r6, r9
 317 0006 4546     		mov	r5, r8
 318 0008 E0B4     		push	{r5, r6, r7}
 319              		.cfi_def_cfa_offset 32
 320              		.cfi_offset 8, -32
 321              		.cfi_offset 9, -28
 322              		.cfi_offset 10, -24
 323 000a 88B0     		sub	sp, sp, #32
 324              		.cfi_def_cfa_offset 64
 325              	.LVL24:
 240:.\TemperatureCommManager.c ****     
 326              		.loc 1 240 0
 327 000c 0120     		mov	r0, #1
 328 000e FFF7FEFF 		bl	SamplingTimer_ClearInterrupt
 329              	.LVL25:
 242:.\TemperatureCommManager.c ****     
 330              		.loc 1 242 0
 331 0012 494A     		ldr	r2, .L36
 332 0014 137D     		ldrb	r3, [r2, #20]
 333 0016 0133     		add	r3, r3, #1
 334 0018 DBB2     		uxtb	r3, r3
 335 001a 1375     		strb	r3, [r2, #20]
 244:.\TemperatureCommManager.c ****     {
 336              		.loc 1 244 0
 337 001c 032B     		cmp	r3, #3
ARM GAS  C:\Users\kylep\AppData\Local\Temp\cc7tCmDj.s 			page 17


 338 001e 04D9     		bls	.L31
 246:.\TemperatureCommManager.c ****         bReadyToSendNextBrightnessTimeoutPacket = TRUE;
 339              		.loc 1 246 0
 340 0020 131C     		mov	r3, r2
 341 0022 0022     		mov	r2, #0
 342 0024 1A75     		strb	r2, [r3, #20]
 247:.\TemperatureCommManager.c ****     }
 343              		.loc 1 247 0
 344 0026 0132     		add	r2, r2, #1
 345 0028 1A70     		strb	r2, [r3]
 346              	.L31:
 252:.\TemperatureCommManager.c ****     temperatureSample = ADC_Data[channelNumber];    
 347              		.loc 1 252 0
 348 002a 434D     		ldr	r5, .L36
 349 002c 2A1C     		mov	r2, r5
 350 002e 1832     		add	r2, r2, #24
 351 0030 0020     		mov	r0, #0
 352 0032 0021     		mov	r1, #0
 353 0034 0423     		mov	r3, #4
 354 0036 FFF7FEFF 		bl	getTemperatureSample
 355              	.LVL26:
 253:.\TemperatureCommManager.c ****     driverID = getDriverID();
 356              		.loc 1 253 0
 357 003a 2026     		mov	r6, #32
 358 003c AB5D     		ldrb	r3, [r5, r6]
 359 003e 5B00     		lsl	r3, r3, #1
 360 0040 EB18     		add	r3, r5, r3
 361 0042 1B8B     		ldrh	r3, [r3, #24]
 362 0044 9946     		mov	r9, r3
 363 0046 6A46     		mov	r2, sp
 364 0048 D380     		strh	r3, [r2, #6]
 365 004a D388     		ldrh	r3, [r2, #6]
 366 004c 9A46     		mov	r10, r3
 367              	.LVL27:
 254:.\TemperatureCommManager.c ****     
 368              		.loc 1 254 0
 369 004e FFF7FEFF 		bl	getDriverID
 370              	.LVL28:
 371 0052 041C     		mov	r4, r0
 372 0054 8046     		mov	r8, r0
 373              	.LVL29:
 257:.\TemperatureCommManager.c ****     packet[HEADER_START_INDEX] = PacketList[channelNumber + 2].HEADER_BYTE;
 374              		.loc 1 257 0
 375 0056 0023     		mov	r3, #0
 376 0058 0293     		str	r3, [sp, #8]
 377 005a 0393     		str	r3, [sp, #12]
 378 005c 0493     		str	r3, [sp, #16]
 379 005e 0593     		str	r3, [sp, #20]
 380 0060 0693     		str	r3, [sp, #24]
 381 0062 02AA     		add	r2, sp, #8
 382 0064 9382     		strh	r3, [r2, #20]
 258:.\TemperatureCommManager.c ****     packet[HEADER_START_INDEX + 1] = PacketList[channelNumber + 2].PACKET_TYPE;
 383              		.loc 1 258 0
 384 0066 AE5D     		ldrb	r6, [r5, r6]
 385 0068 B21C     		add	r2, r6, #2
 386 006a 3449     		ldr	r1, .L36+4
 387 006c 9300     		lsl	r3, r2, #2
ARM GAS  C:\Users\kylep\AppData\Local\Temp\cc7tCmDj.s 			page 18


 388 006e 9B18     		add	r3, r3, r2
 389 0070 5A5C     		ldrb	r2, [r3, r1]
 390 0072 02A8     		add	r0, sp, #8
 391 0074 0270     		strb	r2, [r0]
 259:.\TemperatureCommManager.c ****     packet[PAYLOAD_START_INDEX + PacketList[channelNumber + 2].PAYLOAD_SIZE] 
 392              		.loc 1 259 0
 393 0076 CB18     		add	r3, r1, r3
 394 0078 5A78     		ldrb	r2, [r3, #1]
 395 007a 4270     		strb	r2, [r0, #1]
 260:.\TemperatureCommManager.c ****         = PacketList[channelNumber + 2].EOP_CARRIAGE_RETURN;
 396              		.loc 1 260 0
 397 007c 9A78     		ldrb	r2, [r3, #2]
 398 007e 911C     		add	r1, r2, #2
 261:.\TemperatureCommManager.c ****     packet[PAYLOAD_START_INDEX + PacketList[channelNumber + 2].PAYLOAD_SIZE + 1]
 399              		.loc 1 261 0
 400 0080 D878     		ldrb	r0, [r3, #3]
 401 0082 02AF     		add	r7, sp, #8
 402 0084 7854     		strb	r0, [r7, r1]
 262:.\TemperatureCommManager.c ****         = PacketList[channelNumber + 2].EOP_LINE_FEED;
 403              		.loc 1 262 0
 404 0086 0332     		add	r2, r2, #3
 263:.\TemperatureCommManager.c ****         
 405              		.loc 1 263 0
 406 0088 1B79     		ldrb	r3, [r3, #4]
 407 008a BB54     		strb	r3, [r7, r2]
 265:.\TemperatureCommManager.c ****         MAX_PAYLOAD_BYTE_COUNT);
 408              		.loc 1 265 0
 409 008c F100     		lsl	r1, r6, #3
 410 008e 8919     		add	r1, r1, r6
 411 0090 4900     		lsl	r1, r1, #1
 412 0092 6918     		add	r1, r5, r1
 413 0094 2431     		add	r1, r1, #36
 414 0096 B81C     		add	r0, r7, #2
 415 0098 1222     		mov	r2, #18
 416 009a FFF7FEFF 		bl	memcpy
 417              	.LVL30:
 267:.\TemperatureCommManager.c ****     packet[PAYLOAD_START_INDEX + driverID * 2 + 1] = temperatureSample & 0xFF;
 418              		.loc 1 267 0
 419 009e 0134     		add	r4, r4, #1
 420              	.LVL31:
 421 00a0 6400     		lsl	r4, r4, #1
 422 00a2 5346     		mov	r3, r10
 423 00a4 1F0A     		lsr	r7, r3, #8
 424 00a6 02AB     		add	r3, sp, #8
 425 00a8 1F55     		strb	r7, [r3, r4]
 268:.\TemperatureCommManager.c ****     
 426              		.loc 1 268 0
 427 00aa 0134     		add	r4, r4, #1
 428 00ac 4A46     		mov	r2, r9
 429 00ae 1A55     		strb	r2, [r3, r4]
 270:.\TemperatureCommManager.c ****     {   //Add max temperature to packet if this is the head module
 430              		.loc 1 270 0
 431 00b0 4346     		mov	r3, r8
 432 00b2 012B     		cmp	r3, #1
 433 00b4 06D1     		bne	.L32
 273:.\TemperatureCommManager.c ****         packet[PAYLOAD_START_INDEX] = (temperatureSample >> 8) & 0xFF;
 434              		.loc 1 273 0
ARM GAS  C:\Users\kylep\AppData\Local\Temp\cc7tCmDj.s 			page 19


 435 00b6 301C     		mov	r0, r6
 436 00b8 FFF7FEFF 		bl	getMaxTemperature
 437              	.LVL32:
 274:.\TemperatureCommManager.c ****         packet[PAYLOAD_START_INDEX + 1] = temperatureSample & 0xFF;
 438              		.loc 1 274 0
 439 00bc 030A     		lsr	r3, r0, #8
 440 00be 02AA     		add	r2, sp, #8
 441 00c0 9370     		strb	r3, [r2, #2]
 275:.\TemperatureCommManager.c ****     }
 442              		.loc 1 275 0
 443 00c2 D070     		strb	r0, [r2, #3]
 444              	.LVL33:
 445              	.L32:
 281:.\TemperatureCommManager.c ****     if(sendTempPacketBack>2)
 446              		.loc 1 281 0
 447 00c4 1C49     		ldr	r1, .L36
 448 00c6 5A22     		mov	r2, #90
 449 00c8 8B5C     		ldrb	r3, [r1, r2]
 450 00ca 0133     		add	r3, r3, #1
 451 00cc DBB2     		uxtb	r3, r3
 452 00ce 8B54     		strb	r3, [r1, r2]
 282:.\TemperatureCommManager.c ****     {
 453              		.loc 1 282 0
 454 00d0 022B     		cmp	r3, #2
 455 00d2 03D9     		bls	.L33
 284:.\TemperatureCommManager.c ****         //UART_Temperature_SpiUartPutArray(packet, MAX_PACKET_SIZE);
 456              		.loc 1 284 0
 457 00d4 0021     		mov	r1, #0
 458 00d6 5A23     		mov	r3, #90
 459 00d8 174A     		ldr	r2, .L36
 460 00da D154     		strb	r1, [r2, r3]
 461              	.L33:
 287:.\TemperatureCommManager.c ****         getHighestTemperature(&packet[PAYLOAD_START_INDEX + 2], MAX_PAYLOAD_BYTE_COUNT);
 462              		.loc 1 287 0
 463 00dc 164C     		ldr	r4, .L36
 464 00de 2023     		mov	r3, #32
 465 00e0 E55C     		ldrb	r5, [r4, r3]
 288:.\TemperatureCommManager.c ****     
 466              		.loc 1 288 0
 467 00e2 03A8     		add	r0, sp, #12
 468 00e4 1221     		mov	r1, #18
 469 00e6 FFF7FEFF 		bl	getHighestTemperature
 470              	.LVL34:
 287:.\TemperatureCommManager.c ****         getHighestTemperature(&packet[PAYLOAD_START_INDEX + 2], MAX_PAYLOAD_BYTE_COUNT);
 471              		.loc 1 287 0
 472 00ea 6B00     		lsl	r3, r5, #1
 473 00ec E318     		add	r3, r4, r3
 474 00ee 5C22     		mov	r2, #92
 475 00f0 9852     		strh	r0, [r3, r2]
 290:.\TemperatureCommManager.c ****     {   //Adjust brightness based on temp and send new brightness
 476              		.loc 1 290 0
 477 00f2 4346     		mov	r3, r8
 478 00f4 012B     		cmp	r3, #1
 479 00f6 0AD1     		bne	.L34
 290:.\TemperatureCommManager.c ****     {   //Adjust brightness based on temp and send new brightness
 480              		.loc 1 290 0 is_stmt 0 discriminator 1
 481 00f8 012D     		cmp	r5, #1
ARM GAS  C:\Users\kylep\AppData\Local\Temp\cc7tCmDj.s 			page 20


 482 00fa 08D1     		bne	.L34
 292:.\TemperatureCommManager.c ****         temporaryPacket[PAYLOAD_START_INDEX] = getNewMaxBrightness();
 483              		.loc 1 292 0 is_stmt 1
 484 00fc 201C     		mov	r0, r4
 485 00fe 5C30     		add	r0, r0, #92
 486 0100 0321     		mov	r1, #3
 487 0102 FFF7FEFF 		bl	regulateBrightness
 488              	.LVL35:
 293:.\TemperatureCommManager.c ****         //UART_Temperature_SpiUartPutArray(temporaryPacket, 5);
 489              		.loc 1 293 0
 490 0106 FFF7FEFF 		bl	getNewMaxBrightness
 491              	.LVL36:
 492 010a 0D4B     		ldr	r3, .L36+8
 493 010c 9870     		strb	r0, [r3, #2]
 494              	.L34:
 298:.\TemperatureCommManager.c ****         ADC_SAR_Seq_EnableInjection();
 495              		.loc 1 298 0
 496 010e 2023     		mov	r3, #32
 497 0110 094A     		ldr	r2, .L36
 498 0112 D35C     		ldrb	r3, [r2, r3]
 499 0114 032B     		cmp	r3, #3
 500 0116 01D1     		bne	.L35
 299:.\TemperatureCommManager.c ****     
 501              		.loc 1 299 0
 502 0118 FFF7FEFF 		bl	ADC_SAR_Seq_EnableInjection
 503              	.LVL37:
 504              	.L35:
 301:.\TemperatureCommManager.c ****     
 505              		.loc 1 301 0
 506 011c 064D     		ldr	r5, .L36
 507 011e 2024     		mov	r4, #32
 508 0120 285D     		ldrb	r0, [r5, r4]
 509 0122 0130     		add	r0, r0, #1
 510 0124 0321     		mov	r1, #3
 511 0126 FFF7FEFF 		bl	__aeabi_idivmod
 512              	.LVL38:
 513 012a 2955     		strb	r1, [r5, r4]
 303:.\TemperatureCommManager.c **** 
 514              		.loc 1 303 0
 515 012c 08B0     		add	sp, sp, #32
 516              		@ sp needed
 517 012e 1CBC     		pop	{r2, r3, r4}
 518 0130 9046     		mov	r8, r2
 519 0132 9946     		mov	r9, r3
 520 0134 A246     		mov	r10, r4
 521 0136 F0BD     		pop	{r4, r5, r6, r7, pc}
 522              	.L37:
 523              		.align	2
 524              	.L36:
 525 0138 00000000 		.word	.LANCHOR0
 526 013c 00000000 		.word	.LANCHOR1
 527 0140 00000000 		.word	.LANCHOR2
 528              		.cfi_endproc
 529              	.LFE40:
 530              		.size	processSamplingTimerRoutine, .-processSamplingTimerRoutine
 531              		.global	sendTempPacketBack
 532              		.global	readyToSendThresholdCounter
ARM GAS  C:\Users\kylep\AppData\Local\Temp\cc7tCmDj.s 			page 21


 533              		.global	bReadyToSendNextBrightnessTimeoutPacket
 534              		.section	.rodata
 535              		.align	2
 536              		.set	.LANCHOR1,. + 0
 537              		.type	PacketList, %object
 538              		.size	PacketList, 30
 539              	PacketList:
 540 0000 7E       		.byte	126
 541 0001 43       		.byte	67
 542 0002 09       		.byte	9
 543 0003 0D       		.byte	13
 544 0004 0A       		.byte	10
 545 0005 7E       		.byte	126
 546 0006 41       		.byte	65
 547 0007 09       		.byte	9
 548 0008 0D       		.byte	13
 549 0009 0A       		.byte	10
 550 000a 7E       		.byte	126
 551 000b 54       		.byte	84
 552 000c 12       		.byte	18
 553 000d 0D       		.byte	13
 554 000e 0A       		.byte	10
 555 000f 7E       		.byte	126
 556 0010 55       		.byte	85
 557 0011 12       		.byte	18
 558 0012 0D       		.byte	13
 559 0013 0A       		.byte	10
 560 0014 7E       		.byte	126
 561 0015 57       		.byte	87
 562 0016 12       		.byte	18
 563 0017 0D       		.byte	13
 564 0018 0A       		.byte	10
 565 0019 7E       		.byte	126
 566 001a 56       		.byte	86
 567 001b 12       		.byte	18
 568 001c 0D       		.byte	13
 569 001d 0A       		.byte	10
 570 001e 0000     		.data
 571              		.align	2
 572              		.set	.LANCHOR2,. + 0
 573              		.type	temporaryPacket.6332, %object
 574              		.size	temporaryPacket.6332, 5
 575              	temporaryPacket.6332:
 576 0000 7E       		.byte	126
 577 0001 42       		.byte	66
 578 0002 00       		.byte	0
 579 0003 0D       		.byte	13
 580 0004 0A       		.byte	10
 581 0005 000000   		.bss
 582              		.align	2
 583              		.set	.LANCHOR0,. + 0
 584              		.type	bReadyToSendNextBrightnessTimeoutPacket, %object
 585              		.size	bReadyToSendNextBrightnessTimeoutPacket, 1
 586              	bReadyToSendNextBrightnessTimeoutPacket:
 587 0000 00       		.space	1
 588              		.type	bLastDriverInChain, %object
 589              		.size	bLastDriverInChain, 1
ARM GAS  C:\Users\kylep\AppData\Local\Temp\cc7tCmDj.s 			page 22


 590              	bLastDriverInChain:
 591 0001 00       		.space	1
 592 0002 0000     		.space	2
 593              		.type	lastDriverPacket, %object
 594              		.size	lastDriverPacket, 13
 595              	lastDriverPacket:
 596 0004 00000000 		.space	13
 596      00000000 
 596      00000000 
 596      00
 597 0011 00       		.space	1
 598              		.type	timerCount, %object
 599              		.size	timerCount, 2
 600              	timerCount:
 601 0012 0000     		.space	2
 602              		.type	readyToSendThresholdCounter, %object
 603              		.size	readyToSendThresholdCounter, 1
 604              	readyToSendThresholdCounter:
 605 0014 00       		.space	1
 606 0015 000000   		.space	3
 607              		.type	ADC_Data.6329, %object
 608              		.size	ADC_Data.6329, 8
 609              	ADC_Data.6329:
 610 0018 00000000 		.space	8
 610      00000000 
 611              		.type	channelNumber.6331, %object
 612              		.size	channelNumber.6331, 1
 613              	channelNumber.6331:
 614 0020 00       		.space	1
 615 0021 000000   		.space	3
 616              		.type	temperaturePayload, %object
 617              		.size	temperaturePayload, 54
 618              	temperaturePayload:
 619 0024 00000000 		.space	54
 619      00000000 
 619      00000000 
 619      00000000 
 619      00000000 
 620              		.type	sendTempPacketBack, %object
 621              		.size	sendTempPacketBack, 1
 622              	sendTempPacketBack:
 623 005a 00       		.space	1
 624 005b 00       		.space	1
 625              		.type	HighestTemperatures.6330, %object
 626              		.size	HighestTemperatures.6330, 6
 627              	HighestTemperatures.6330:
 628 005c 00000000 		.space	6
 628      0000
 629 0062 0000     		.text
 630              	.Letext0:
 631              		.file 2 "Generated_Source\\PSoC4/cytypes.h"
 632              		.file 3 "Generated_Source\\PSoC4/AckTimer.h"
 633              		.file 4 "Generated_Source\\PSoC4/SamplingTimer.h"
 634              		.file 5 ".\\DriverControl.h"
 635              		.file 6 "Generated_Source\\PSoC4/ADC_SAR_Seq.h"