ARM GAS  C:\Users\kylep\AppData\Local\Temp\ccjdzy7r.s 			page 1


   1              		.cpu cortex-m0
   2              		.fpu softvfp
   3              		.eabi_attribute 20, 1
   4              		.eabi_attribute 21, 1
   5              		.eabi_attribute 23, 3
   6              		.eabi_attribute 24, 1
   7              		.eabi_attribute 25, 1
   8              		.eabi_attribute 26, 1
   9              		.eabi_attribute 30, 1
  10              		.eabi_attribute 34, 0
  11              		.eabi_attribute 18, 4
  12              		.code	16
  13              		.file	"UART_LED_ISR.c"
  14              		.text
  15              	.Ltext0:
  16              		.cfi_sections	.debug_frame
  17              		.section	.text.UART_LED_ISR_Interrupt,"ax",%progbits
  18              		.align	2
  19              		.global	UART_LED_ISR_Interrupt
  20              		.code	16
  21              		.thumb_func
  22              		.type	UART_LED_ISR_Interrupt, %function
  23              	UART_LED_ISR_Interrupt:
  24              	.LFB37:
  25              		.file 1 ".\\Generated_Source\\PSoC4\\UART_LED_ISR.c"
   1:.\Generated_Source\PSoC4/UART_LED_ISR.c **** /*******************************************************************************
   2:.\Generated_Source\PSoC4/UART_LED_ISR.c **** * File Name: UART_LED_ISR.c  
   3:.\Generated_Source\PSoC4/UART_LED_ISR.c **** * Version 1.70
   4:.\Generated_Source\PSoC4/UART_LED_ISR.c **** *
   5:.\Generated_Source\PSoC4/UART_LED_ISR.c **** *  Description:
   6:.\Generated_Source\PSoC4/UART_LED_ISR.c **** *   API for controlling the state of an interrupt.
   7:.\Generated_Source\PSoC4/UART_LED_ISR.c **** *
   8:.\Generated_Source\PSoC4/UART_LED_ISR.c **** *
   9:.\Generated_Source\PSoC4/UART_LED_ISR.c **** *  Note:
  10:.\Generated_Source\PSoC4/UART_LED_ISR.c **** *
  11:.\Generated_Source\PSoC4/UART_LED_ISR.c **** ********************************************************************************
  12:.\Generated_Source\PSoC4/UART_LED_ISR.c **** * Copyright 2008-2015, Cypress Semiconductor Corporation.  All rights reserved.
  13:.\Generated_Source\PSoC4/UART_LED_ISR.c **** * You may use this file only in accordance with the license, terms, conditions, 
  14:.\Generated_Source\PSoC4/UART_LED_ISR.c **** * disclaimers, and limitations in the end user license agreement accompanying 
  15:.\Generated_Source\PSoC4/UART_LED_ISR.c **** * the software package with which this file was provided.
  16:.\Generated_Source\PSoC4/UART_LED_ISR.c **** *******************************************************************************/
  17:.\Generated_Source\PSoC4/UART_LED_ISR.c **** 
  18:.\Generated_Source\PSoC4/UART_LED_ISR.c **** 
  19:.\Generated_Source\PSoC4/UART_LED_ISR.c **** #include <cydevice_trm.h>
  20:.\Generated_Source\PSoC4/UART_LED_ISR.c **** #include <CyLib.h>
  21:.\Generated_Source\PSoC4/UART_LED_ISR.c **** #include <UART_LED_ISR.h>
  22:.\Generated_Source\PSoC4/UART_LED_ISR.c **** 
  23:.\Generated_Source\PSoC4/UART_LED_ISR.c **** 
  24:.\Generated_Source\PSoC4/UART_LED_ISR.c **** #if !defined(UART_LED_ISR__REMOVED) /* Check for removal by optimization */
  25:.\Generated_Source\PSoC4/UART_LED_ISR.c **** 
  26:.\Generated_Source\PSoC4/UART_LED_ISR.c **** /*******************************************************************************
  27:.\Generated_Source\PSoC4/UART_LED_ISR.c **** *  Place your includes, defines and code here 
  28:.\Generated_Source\PSoC4/UART_LED_ISR.c **** ********************************************************************************/
  29:.\Generated_Source\PSoC4/UART_LED_ISR.c **** /* `#START UART_LED_ISR_intc` */
  30:.\Generated_Source\PSoC4/UART_LED_ISR.c **** #include "BrightnessCommManager.h"
  31:.\Generated_Source\PSoC4/UART_LED_ISR.c **** /* `#END` */
  32:.\Generated_Source\PSoC4/UART_LED_ISR.c **** 
ARM GAS  C:\Users\kylep\AppData\Local\Temp\ccjdzy7r.s 			page 2


  33:.\Generated_Source\PSoC4/UART_LED_ISR.c **** extern cyisraddress CyRamVectors[CYINT_IRQ_BASE + CY_NUM_INTERRUPTS];
  34:.\Generated_Source\PSoC4/UART_LED_ISR.c **** 
  35:.\Generated_Source\PSoC4/UART_LED_ISR.c **** /* Declared in startup, used to set unused interrupts to. */
  36:.\Generated_Source\PSoC4/UART_LED_ISR.c **** CY_ISR_PROTO(IntDefaultHandler);
  37:.\Generated_Source\PSoC4/UART_LED_ISR.c **** 
  38:.\Generated_Source\PSoC4/UART_LED_ISR.c **** 
  39:.\Generated_Source\PSoC4/UART_LED_ISR.c **** /*******************************************************************************
  40:.\Generated_Source\PSoC4/UART_LED_ISR.c **** * Function Name: UART_LED_ISR_Start
  41:.\Generated_Source\PSoC4/UART_LED_ISR.c **** ********************************************************************************
  42:.\Generated_Source\PSoC4/UART_LED_ISR.c **** *
  43:.\Generated_Source\PSoC4/UART_LED_ISR.c **** * Summary:
  44:.\Generated_Source\PSoC4/UART_LED_ISR.c **** *  Set up the interrupt and enable it. This function disables the interrupt, 
  45:.\Generated_Source\PSoC4/UART_LED_ISR.c **** *  sets the default interrupt vector, sets the priority from the value in the
  46:.\Generated_Source\PSoC4/UART_LED_ISR.c **** *  Design Wide Resources Interrupt Editor, then enables the interrupt to the 
  47:.\Generated_Source\PSoC4/UART_LED_ISR.c **** *  interrupt controller.
  48:.\Generated_Source\PSoC4/UART_LED_ISR.c **** *
  49:.\Generated_Source\PSoC4/UART_LED_ISR.c **** * Parameters:  
  50:.\Generated_Source\PSoC4/UART_LED_ISR.c **** *   None
  51:.\Generated_Source\PSoC4/UART_LED_ISR.c **** *
  52:.\Generated_Source\PSoC4/UART_LED_ISR.c **** * Return:
  53:.\Generated_Source\PSoC4/UART_LED_ISR.c **** *   None
  54:.\Generated_Source\PSoC4/UART_LED_ISR.c **** *
  55:.\Generated_Source\PSoC4/UART_LED_ISR.c **** *******************************************************************************/
  56:.\Generated_Source\PSoC4/UART_LED_ISR.c **** void UART_LED_ISR_Start(void)
  57:.\Generated_Source\PSoC4/UART_LED_ISR.c **** {
  58:.\Generated_Source\PSoC4/UART_LED_ISR.c ****     /* For all we know the interrupt is active. */
  59:.\Generated_Source\PSoC4/UART_LED_ISR.c ****     UART_LED_ISR_Disable();
  60:.\Generated_Source\PSoC4/UART_LED_ISR.c **** 
  61:.\Generated_Source\PSoC4/UART_LED_ISR.c ****     /* Set the ISR to point to the UART_LED_ISR Interrupt. */
  62:.\Generated_Source\PSoC4/UART_LED_ISR.c ****     UART_LED_ISR_SetVector(&UART_LED_ISR_Interrupt);
  63:.\Generated_Source\PSoC4/UART_LED_ISR.c **** 
  64:.\Generated_Source\PSoC4/UART_LED_ISR.c ****     /* Set the priority. */
  65:.\Generated_Source\PSoC4/UART_LED_ISR.c ****     UART_LED_ISR_SetPriority((uint8)UART_LED_ISR_INTC_PRIOR_NUMBER);
  66:.\Generated_Source\PSoC4/UART_LED_ISR.c **** 
  67:.\Generated_Source\PSoC4/UART_LED_ISR.c ****     /* Enable it. */
  68:.\Generated_Source\PSoC4/UART_LED_ISR.c ****     UART_LED_ISR_Enable();
  69:.\Generated_Source\PSoC4/UART_LED_ISR.c **** }
  70:.\Generated_Source\PSoC4/UART_LED_ISR.c **** 
  71:.\Generated_Source\PSoC4/UART_LED_ISR.c **** 
  72:.\Generated_Source\PSoC4/UART_LED_ISR.c **** /*******************************************************************************
  73:.\Generated_Source\PSoC4/UART_LED_ISR.c **** * Function Name: UART_LED_ISR_StartEx
  74:.\Generated_Source\PSoC4/UART_LED_ISR.c **** ********************************************************************************
  75:.\Generated_Source\PSoC4/UART_LED_ISR.c **** *
  76:.\Generated_Source\PSoC4/UART_LED_ISR.c **** * Summary:
  77:.\Generated_Source\PSoC4/UART_LED_ISR.c **** *  Sets up the interrupt and enables it. This function disables the interrupt,
  78:.\Generated_Source\PSoC4/UART_LED_ISR.c **** *  sets the interrupt vector based on the address passed in, sets the priority 
  79:.\Generated_Source\PSoC4/UART_LED_ISR.c **** *  from the value in the Design Wide Resources Interrupt Editor, then enables 
  80:.\Generated_Source\PSoC4/UART_LED_ISR.c **** *  the interrupt to the interrupt controller.
  81:.\Generated_Source\PSoC4/UART_LED_ISR.c **** *  
  82:.\Generated_Source\PSoC4/UART_LED_ISR.c **** *  When defining ISR functions, the CY_ISR and CY_ISR_PROTO macros should be 
  83:.\Generated_Source\PSoC4/UART_LED_ISR.c **** *  used to provide consistent definition across compilers:
  84:.\Generated_Source\PSoC4/UART_LED_ISR.c **** *  
  85:.\Generated_Source\PSoC4/UART_LED_ISR.c **** *  Function definition example:
  86:.\Generated_Source\PSoC4/UART_LED_ISR.c **** *   CY_ISR(MyISR)
  87:.\Generated_Source\PSoC4/UART_LED_ISR.c **** *   {
  88:.\Generated_Source\PSoC4/UART_LED_ISR.c **** *   }
  89:.\Generated_Source\PSoC4/UART_LED_ISR.c **** *   Function prototype example:
ARM GAS  C:\Users\kylep\AppData\Local\Temp\ccjdzy7r.s 			page 3


  90:.\Generated_Source\PSoC4/UART_LED_ISR.c **** *   CY_ISR_PROTO(MyISR);
  91:.\Generated_Source\PSoC4/UART_LED_ISR.c **** *
  92:.\Generated_Source\PSoC4/UART_LED_ISR.c **** * Parameters:  
  93:.\Generated_Source\PSoC4/UART_LED_ISR.c **** *   address: Address of the ISR to set in the interrupt vector table.
  94:.\Generated_Source\PSoC4/UART_LED_ISR.c **** *
  95:.\Generated_Source\PSoC4/UART_LED_ISR.c **** * Return:
  96:.\Generated_Source\PSoC4/UART_LED_ISR.c **** *   None
  97:.\Generated_Source\PSoC4/UART_LED_ISR.c **** *
  98:.\Generated_Source\PSoC4/UART_LED_ISR.c **** *******************************************************************************/
  99:.\Generated_Source\PSoC4/UART_LED_ISR.c **** void UART_LED_ISR_StartEx(cyisraddress address)
 100:.\Generated_Source\PSoC4/UART_LED_ISR.c **** {
 101:.\Generated_Source\PSoC4/UART_LED_ISR.c ****     /* For all we know the interrupt is active. */
 102:.\Generated_Source\PSoC4/UART_LED_ISR.c ****     UART_LED_ISR_Disable();
 103:.\Generated_Source\PSoC4/UART_LED_ISR.c **** 
 104:.\Generated_Source\PSoC4/UART_LED_ISR.c ****     /* Set the ISR to point to the UART_LED_ISR Interrupt. */
 105:.\Generated_Source\PSoC4/UART_LED_ISR.c ****     UART_LED_ISR_SetVector(address);
 106:.\Generated_Source\PSoC4/UART_LED_ISR.c **** 
 107:.\Generated_Source\PSoC4/UART_LED_ISR.c ****     /* Set the priority. */
 108:.\Generated_Source\PSoC4/UART_LED_ISR.c ****     UART_LED_ISR_SetPriority((uint8)UART_LED_ISR_INTC_PRIOR_NUMBER);
 109:.\Generated_Source\PSoC4/UART_LED_ISR.c **** 
 110:.\Generated_Source\PSoC4/UART_LED_ISR.c ****     /* Enable it. */
 111:.\Generated_Source\PSoC4/UART_LED_ISR.c ****     UART_LED_ISR_Enable();
 112:.\Generated_Source\PSoC4/UART_LED_ISR.c **** }
 113:.\Generated_Source\PSoC4/UART_LED_ISR.c **** 
 114:.\Generated_Source\PSoC4/UART_LED_ISR.c **** 
 115:.\Generated_Source\PSoC4/UART_LED_ISR.c **** /*******************************************************************************
 116:.\Generated_Source\PSoC4/UART_LED_ISR.c **** * Function Name: UART_LED_ISR_Stop
 117:.\Generated_Source\PSoC4/UART_LED_ISR.c **** ********************************************************************************
 118:.\Generated_Source\PSoC4/UART_LED_ISR.c **** *
 119:.\Generated_Source\PSoC4/UART_LED_ISR.c **** * Summary:
 120:.\Generated_Source\PSoC4/UART_LED_ISR.c **** *   Disables and removes the interrupt.
 121:.\Generated_Source\PSoC4/UART_LED_ISR.c **** *
 122:.\Generated_Source\PSoC4/UART_LED_ISR.c **** * Parameters:  
 123:.\Generated_Source\PSoC4/UART_LED_ISR.c **** *   None
 124:.\Generated_Source\PSoC4/UART_LED_ISR.c **** *
 125:.\Generated_Source\PSoC4/UART_LED_ISR.c **** * Return:
 126:.\Generated_Source\PSoC4/UART_LED_ISR.c **** *   None
 127:.\Generated_Source\PSoC4/UART_LED_ISR.c **** *
 128:.\Generated_Source\PSoC4/UART_LED_ISR.c **** *******************************************************************************/
 129:.\Generated_Source\PSoC4/UART_LED_ISR.c **** void UART_LED_ISR_Stop(void)
 130:.\Generated_Source\PSoC4/UART_LED_ISR.c **** {
 131:.\Generated_Source\PSoC4/UART_LED_ISR.c ****     /* Disable this interrupt. */
 132:.\Generated_Source\PSoC4/UART_LED_ISR.c ****     UART_LED_ISR_Disable();
 133:.\Generated_Source\PSoC4/UART_LED_ISR.c **** 
 134:.\Generated_Source\PSoC4/UART_LED_ISR.c ****     /* Set the ISR to point to the passive one. */
 135:.\Generated_Source\PSoC4/UART_LED_ISR.c ****     UART_LED_ISR_SetVector(&IntDefaultHandler);
 136:.\Generated_Source\PSoC4/UART_LED_ISR.c **** }
 137:.\Generated_Source\PSoC4/UART_LED_ISR.c **** 
 138:.\Generated_Source\PSoC4/UART_LED_ISR.c **** 
 139:.\Generated_Source\PSoC4/UART_LED_ISR.c **** /*******************************************************************************
 140:.\Generated_Source\PSoC4/UART_LED_ISR.c **** * Function Name: UART_LED_ISR_Interrupt
 141:.\Generated_Source\PSoC4/UART_LED_ISR.c **** ********************************************************************************
 142:.\Generated_Source\PSoC4/UART_LED_ISR.c **** *
 143:.\Generated_Source\PSoC4/UART_LED_ISR.c **** * Summary:
 144:.\Generated_Source\PSoC4/UART_LED_ISR.c **** *   The default Interrupt Service Routine for UART_LED_ISR.
 145:.\Generated_Source\PSoC4/UART_LED_ISR.c **** *
 146:.\Generated_Source\PSoC4/UART_LED_ISR.c **** *   Add custom code between the START and END comments to keep the next version
ARM GAS  C:\Users\kylep\AppData\Local\Temp\ccjdzy7r.s 			page 4


 147:.\Generated_Source\PSoC4/UART_LED_ISR.c **** *   of this file from over-writing your code.
 148:.\Generated_Source\PSoC4/UART_LED_ISR.c **** *
 149:.\Generated_Source\PSoC4/UART_LED_ISR.c **** *   Note You may use either the default ISR by using this API, or you may define
 150:.\Generated_Source\PSoC4/UART_LED_ISR.c **** *   your own separate ISR through ISR_StartEx().
 151:.\Generated_Source\PSoC4/UART_LED_ISR.c **** *
 152:.\Generated_Source\PSoC4/UART_LED_ISR.c **** * Parameters:  
 153:.\Generated_Source\PSoC4/UART_LED_ISR.c **** *   None
 154:.\Generated_Source\PSoC4/UART_LED_ISR.c **** *
 155:.\Generated_Source\PSoC4/UART_LED_ISR.c **** * Return:
 156:.\Generated_Source\PSoC4/UART_LED_ISR.c **** *   None
 157:.\Generated_Source\PSoC4/UART_LED_ISR.c **** *
 158:.\Generated_Source\PSoC4/UART_LED_ISR.c **** *******************************************************************************/
 159:.\Generated_Source\PSoC4/UART_LED_ISR.c **** CY_ISR(UART_LED_ISR_Interrupt)
 160:.\Generated_Source\PSoC4/UART_LED_ISR.c **** {
  26              		.loc 1 160 0
  27              		.cfi_startproc
  28 0000 08B5     		push	{r3, lr}
  29              		.cfi_def_cfa_offset 8
  30              		.cfi_offset 3, -8
  31              		.cfi_offset 14, -4
 161:.\Generated_Source\PSoC4/UART_LED_ISR.c ****     #ifdef UART_LED_ISR_INTERRUPT_INTERRUPT_CALLBACK
 162:.\Generated_Source\PSoC4/UART_LED_ISR.c ****         UART_LED_ISR_Interrupt_InterruptCallback();
 163:.\Generated_Source\PSoC4/UART_LED_ISR.c ****     #endif /* UART_LED_ISR_INTERRUPT_INTERRUPT_CALLBACK */ 
 164:.\Generated_Source\PSoC4/UART_LED_ISR.c **** 
 165:.\Generated_Source\PSoC4/UART_LED_ISR.c ****     /*  Place your Interrupt code here. */
 166:.\Generated_Source\PSoC4/UART_LED_ISR.c ****     /* `#START UART_LED_ISR_Interrupt` */
 167:.\Generated_Source\PSoC4/UART_LED_ISR.c ****     processBrightnessByteReceivedHandler();
  32              		.loc 1 167 0
  33 0002 FFF7FEFF 		bl	processBrightnessByteReceivedHandler
  34              	.LVL0:
 168:.\Generated_Source\PSoC4/UART_LED_ISR.c ****     /* `#END` */
 169:.\Generated_Source\PSoC4/UART_LED_ISR.c **** }
  35              		.loc 1 169 0
  36              		@ sp needed
  37 0006 08BD     		pop	{r3, pc}
  38              		.cfi_endproc
  39              	.LFE37:
  40              		.size	UART_LED_ISR_Interrupt, .-UART_LED_ISR_Interrupt
  41              		.section	.text.UART_LED_ISR_SetVector,"ax",%progbits
  42              		.align	2
  43              		.global	UART_LED_ISR_SetVector
  44              		.code	16
  45              		.thumb_func
  46              		.type	UART_LED_ISR_SetVector, %function
  47              	UART_LED_ISR_SetVector:
  48              	.LFB38:
 170:.\Generated_Source\PSoC4/UART_LED_ISR.c **** 
 171:.\Generated_Source\PSoC4/UART_LED_ISR.c **** 
 172:.\Generated_Source\PSoC4/UART_LED_ISR.c **** /*******************************************************************************
 173:.\Generated_Source\PSoC4/UART_LED_ISR.c **** * Function Name: UART_LED_ISR_SetVector
 174:.\Generated_Source\PSoC4/UART_LED_ISR.c **** ********************************************************************************
 175:.\Generated_Source\PSoC4/UART_LED_ISR.c **** *
 176:.\Generated_Source\PSoC4/UART_LED_ISR.c **** * Summary:
 177:.\Generated_Source\PSoC4/UART_LED_ISR.c **** *   Change the ISR vector for the Interrupt. Note calling UART_LED_ISR_Start
 178:.\Generated_Source\PSoC4/UART_LED_ISR.c **** *   will override any effect this method would have had. To set the vector 
 179:.\Generated_Source\PSoC4/UART_LED_ISR.c **** *   before the component has been started use UART_LED_ISR_StartEx instead.
 180:.\Generated_Source\PSoC4/UART_LED_ISR.c **** * 
ARM GAS  C:\Users\kylep\AppData\Local\Temp\ccjdzy7r.s 			page 5


 181:.\Generated_Source\PSoC4/UART_LED_ISR.c **** *   When defining ISR functions, the CY_ISR and CY_ISR_PROTO macros should be 
 182:.\Generated_Source\PSoC4/UART_LED_ISR.c **** *   used to provide consistent definition across compilers:
 183:.\Generated_Source\PSoC4/UART_LED_ISR.c **** *
 184:.\Generated_Source\PSoC4/UART_LED_ISR.c **** *   Function definition example:
 185:.\Generated_Source\PSoC4/UART_LED_ISR.c **** *   CY_ISR(MyISR)
 186:.\Generated_Source\PSoC4/UART_LED_ISR.c **** *   {
 187:.\Generated_Source\PSoC4/UART_LED_ISR.c **** *   }
 188:.\Generated_Source\PSoC4/UART_LED_ISR.c **** *
 189:.\Generated_Source\PSoC4/UART_LED_ISR.c **** *   Function prototype example:
 190:.\Generated_Source\PSoC4/UART_LED_ISR.c **** *     CY_ISR_PROTO(MyISR);
 191:.\Generated_Source\PSoC4/UART_LED_ISR.c **** *
 192:.\Generated_Source\PSoC4/UART_LED_ISR.c **** * Parameters:
 193:.\Generated_Source\PSoC4/UART_LED_ISR.c **** *   address: Address of the ISR to set in the interrupt vector table.
 194:.\Generated_Source\PSoC4/UART_LED_ISR.c **** *
 195:.\Generated_Source\PSoC4/UART_LED_ISR.c **** * Return:
 196:.\Generated_Source\PSoC4/UART_LED_ISR.c **** *   None
 197:.\Generated_Source\PSoC4/UART_LED_ISR.c **** *
 198:.\Generated_Source\PSoC4/UART_LED_ISR.c **** *******************************************************************************/
 199:.\Generated_Source\PSoC4/UART_LED_ISR.c **** void UART_LED_ISR_SetVector(cyisraddress address)
 200:.\Generated_Source\PSoC4/UART_LED_ISR.c **** {
  49              		.loc 1 200 0
  50              		.cfi_startproc
  51              	.LVL1:
 201:.\Generated_Source\PSoC4/UART_LED_ISR.c ****     CyRamVectors[CYINT_IRQ_BASE + UART_LED_ISR__INTC_NUMBER] = address;
  52              		.loc 1 201 0
  53 0000 014B     		ldr	r3, .L3
  54 0002 D866     		str	r0, [r3, #108]
 202:.\Generated_Source\PSoC4/UART_LED_ISR.c **** }
  55              		.loc 1 202 0
  56              		@ sp needed
  57 0004 7047     		bx	lr
  58              	.L4:
  59 0006 C046     		.align	2
  60              	.L3:
  61 0008 00000000 		.word	CyRamVectors
  62              		.cfi_endproc
  63              	.LFE38:
  64              		.size	UART_LED_ISR_SetVector, .-UART_LED_ISR_SetVector
  65              		.section	.text.UART_LED_ISR_GetVector,"ax",%progbits
  66              		.align	2
  67              		.global	UART_LED_ISR_GetVector
  68              		.code	16
  69              		.thumb_func
  70              		.type	UART_LED_ISR_GetVector, %function
  71              	UART_LED_ISR_GetVector:
  72              	.LFB39:
 203:.\Generated_Source\PSoC4/UART_LED_ISR.c **** 
 204:.\Generated_Source\PSoC4/UART_LED_ISR.c **** 
 205:.\Generated_Source\PSoC4/UART_LED_ISR.c **** /*******************************************************************************
 206:.\Generated_Source\PSoC4/UART_LED_ISR.c **** * Function Name: UART_LED_ISR_GetVector
 207:.\Generated_Source\PSoC4/UART_LED_ISR.c **** ********************************************************************************
 208:.\Generated_Source\PSoC4/UART_LED_ISR.c **** *
 209:.\Generated_Source\PSoC4/UART_LED_ISR.c **** * Summary:
 210:.\Generated_Source\PSoC4/UART_LED_ISR.c **** *   Gets the "address" of the current ISR vector for the Interrupt.
 211:.\Generated_Source\PSoC4/UART_LED_ISR.c **** *
 212:.\Generated_Source\PSoC4/UART_LED_ISR.c **** * Parameters:
 213:.\Generated_Source\PSoC4/UART_LED_ISR.c **** *   None
ARM GAS  C:\Users\kylep\AppData\Local\Temp\ccjdzy7r.s 			page 6


 214:.\Generated_Source\PSoC4/UART_LED_ISR.c **** *
 215:.\Generated_Source\PSoC4/UART_LED_ISR.c **** * Return:
 216:.\Generated_Source\PSoC4/UART_LED_ISR.c **** *   Address of the ISR in the interrupt vector table.
 217:.\Generated_Source\PSoC4/UART_LED_ISR.c **** *
 218:.\Generated_Source\PSoC4/UART_LED_ISR.c **** *******************************************************************************/
 219:.\Generated_Source\PSoC4/UART_LED_ISR.c **** cyisraddress UART_LED_ISR_GetVector(void)
 220:.\Generated_Source\PSoC4/UART_LED_ISR.c **** {
  73              		.loc 1 220 0
  74              		.cfi_startproc
 221:.\Generated_Source\PSoC4/UART_LED_ISR.c ****     return CyRamVectors[CYINT_IRQ_BASE + UART_LED_ISR__INTC_NUMBER];
  75              		.loc 1 221 0
  76 0000 014B     		ldr	r3, .L6
  77 0002 D86E     		ldr	r0, [r3, #108]
 222:.\Generated_Source\PSoC4/UART_LED_ISR.c **** }
  78              		.loc 1 222 0
  79              		@ sp needed
  80 0004 7047     		bx	lr
  81              	.L7:
  82 0006 C046     		.align	2
  83              	.L6:
  84 0008 00000000 		.word	CyRamVectors
  85              		.cfi_endproc
  86              	.LFE39:
  87              		.size	UART_LED_ISR_GetVector, .-UART_LED_ISR_GetVector
  88              		.section	.text.UART_LED_ISR_SetPriority,"ax",%progbits
  89              		.align	2
  90              		.global	UART_LED_ISR_SetPriority
  91              		.code	16
  92              		.thumb_func
  93              		.type	UART_LED_ISR_SetPriority, %function
  94              	UART_LED_ISR_SetPriority:
  95              	.LFB40:
 223:.\Generated_Source\PSoC4/UART_LED_ISR.c **** 
 224:.\Generated_Source\PSoC4/UART_LED_ISR.c **** 
 225:.\Generated_Source\PSoC4/UART_LED_ISR.c **** /*******************************************************************************
 226:.\Generated_Source\PSoC4/UART_LED_ISR.c **** * Function Name: UART_LED_ISR_SetPriority
 227:.\Generated_Source\PSoC4/UART_LED_ISR.c **** ********************************************************************************
 228:.\Generated_Source\PSoC4/UART_LED_ISR.c **** *
 229:.\Generated_Source\PSoC4/UART_LED_ISR.c **** * Summary:
 230:.\Generated_Source\PSoC4/UART_LED_ISR.c **** *   Sets the Priority of the Interrupt. 
 231:.\Generated_Source\PSoC4/UART_LED_ISR.c **** *
 232:.\Generated_Source\PSoC4/UART_LED_ISR.c **** *   Note calling UART_LED_ISR_Start or UART_LED_ISR_StartEx will 
 233:.\Generated_Source\PSoC4/UART_LED_ISR.c **** *   override any effect this API would have had. This API should only be called
 234:.\Generated_Source\PSoC4/UART_LED_ISR.c **** *   after UART_LED_ISR_Start or UART_LED_ISR_StartEx has been called. 
 235:.\Generated_Source\PSoC4/UART_LED_ISR.c **** *   To set the initial priority for the component, use the Design-Wide Resources
 236:.\Generated_Source\PSoC4/UART_LED_ISR.c **** *   Interrupt Editor.
 237:.\Generated_Source\PSoC4/UART_LED_ISR.c **** *
 238:.\Generated_Source\PSoC4/UART_LED_ISR.c **** *   Note This API has no effect on Non-maskable interrupt NMI).
 239:.\Generated_Source\PSoC4/UART_LED_ISR.c **** *
 240:.\Generated_Source\PSoC4/UART_LED_ISR.c **** * Parameters:
 241:.\Generated_Source\PSoC4/UART_LED_ISR.c **** *   priority: Priority of the interrupt, 0 being the highest priority
 242:.\Generated_Source\PSoC4/UART_LED_ISR.c **** *             PSoC 3 and PSoC 5LP: Priority is from 0 to 7.
 243:.\Generated_Source\PSoC4/UART_LED_ISR.c **** *             PSoC 4: Priority is from 0 to 3.
 244:.\Generated_Source\PSoC4/UART_LED_ISR.c **** *
 245:.\Generated_Source\PSoC4/UART_LED_ISR.c **** * Return:
 246:.\Generated_Source\PSoC4/UART_LED_ISR.c **** *   None
 247:.\Generated_Source\PSoC4/UART_LED_ISR.c **** *
ARM GAS  C:\Users\kylep\AppData\Local\Temp\ccjdzy7r.s 			page 7


 248:.\Generated_Source\PSoC4/UART_LED_ISR.c **** *******************************************************************************/
 249:.\Generated_Source\PSoC4/UART_LED_ISR.c **** void UART_LED_ISR_SetPriority(uint8 priority)
 250:.\Generated_Source\PSoC4/UART_LED_ISR.c **** {
  96              		.loc 1 250 0
  97              		.cfi_startproc
  98              	.LVL2:
  99 0000 10B5     		push	{r4, lr}
 100              		.cfi_def_cfa_offset 8
 101              		.cfi_offset 4, -8
 102              		.cfi_offset 14, -4
 103 0002 041C     		mov	r4, r0
 104              	.LVL3:
 251:.\Generated_Source\PSoC4/UART_LED_ISR.c **** 	uint8 interruptState;
 252:.\Generated_Source\PSoC4/UART_LED_ISR.c ****     uint32 priorityOffset = ((UART_LED_ISR__INTC_NUMBER % 4u) * 8u) + 6u;
 253:.\Generated_Source\PSoC4/UART_LED_ISR.c ****     
 254:.\Generated_Source\PSoC4/UART_LED_ISR.c **** 	interruptState = CyEnterCriticalSection();
 105              		.loc 1 254 0
 106 0004 FFF7FEFF 		bl	CyEnterCriticalSection
 107              	.LVL4:
 255:.\Generated_Source\PSoC4/UART_LED_ISR.c ****     *UART_LED_ISR_INTC_PRIOR = (*UART_LED_ISR_INTC_PRIOR & (uint32)(~UART_LED_ISR__INTC_PRIOR_MASK)
 108              		.loc 1 255 0
 109 0008 044A     		ldr	r2, .L9
 110 000a 1368     		ldr	r3, [r2]
 111 000c 9B00     		lsl	r3, r3, #2
 112 000e 9B08     		lsr	r3, r3, #2
 256:.\Generated_Source\PSoC4/UART_LED_ISR.c ****                                     ((uint32)priority << priorityOffset);
 113              		.loc 1 256 0
 114 0010 A407     		lsl	r4, r4, #30
 255:.\Generated_Source\PSoC4/UART_LED_ISR.c ****     *UART_LED_ISR_INTC_PRIOR = (*UART_LED_ISR_INTC_PRIOR & (uint32)(~UART_LED_ISR__INTC_PRIOR_MASK)
 115              		.loc 1 255 0
 116 0012 1C43     		orr	r4, r3
 117 0014 1460     		str	r4, [r2]
 257:.\Generated_Source\PSoC4/UART_LED_ISR.c **** 	CyExitCriticalSection(interruptState);
 118              		.loc 1 257 0
 119 0016 FFF7FEFF 		bl	CyExitCriticalSection
 120              	.LVL5:
 258:.\Generated_Source\PSoC4/UART_LED_ISR.c **** }
 121              		.loc 1 258 0
 122              		@ sp needed
 123 001a 10BD     		pop	{r4, pc}
 124              	.L10:
 125              		.align	2
 126              	.L9:
 127 001c 08E400E0 		.word	-536812536
 128              		.cfi_endproc
 129              	.LFE40:
 130              		.size	UART_LED_ISR_SetPriority, .-UART_LED_ISR_SetPriority
 131              		.section	.text.UART_LED_ISR_GetPriority,"ax",%progbits
 132              		.align	2
 133              		.global	UART_LED_ISR_GetPriority
 134              		.code	16
 135              		.thumb_func
 136              		.type	UART_LED_ISR_GetPriority, %function
 137              	UART_LED_ISR_GetPriority:
 138              	.LFB41:
 259:.\Generated_Source\PSoC4/UART_LED_ISR.c **** 
 260:.\Generated_Source\PSoC4/UART_LED_ISR.c **** 
ARM GAS  C:\Users\kylep\AppData\Local\Temp\ccjdzy7r.s 			page 8


 261:.\Generated_Source\PSoC4/UART_LED_ISR.c **** /*******************************************************************************
 262:.\Generated_Source\PSoC4/UART_LED_ISR.c **** * Function Name: UART_LED_ISR_GetPriority
 263:.\Generated_Source\PSoC4/UART_LED_ISR.c **** ********************************************************************************
 264:.\Generated_Source\PSoC4/UART_LED_ISR.c **** *
 265:.\Generated_Source\PSoC4/UART_LED_ISR.c **** * Summary:
 266:.\Generated_Source\PSoC4/UART_LED_ISR.c **** *   Gets the Priority of the Interrupt.
 267:.\Generated_Source\PSoC4/UART_LED_ISR.c **** *
 268:.\Generated_Source\PSoC4/UART_LED_ISR.c **** * Parameters:
 269:.\Generated_Source\PSoC4/UART_LED_ISR.c **** *   None
 270:.\Generated_Source\PSoC4/UART_LED_ISR.c **** *
 271:.\Generated_Source\PSoC4/UART_LED_ISR.c **** * Return:
 272:.\Generated_Source\PSoC4/UART_LED_ISR.c **** *   Priority of the interrupt, 0 being the highest priority
 273:.\Generated_Source\PSoC4/UART_LED_ISR.c **** *    PSoC 3 and PSoC 5LP: Priority is from 0 to 7.
 274:.\Generated_Source\PSoC4/UART_LED_ISR.c **** *    PSoC 4: Priority is from 0 to 3.
 275:.\Generated_Source\PSoC4/UART_LED_ISR.c **** *
 276:.\Generated_Source\PSoC4/UART_LED_ISR.c **** *******************************************************************************/
 277:.\Generated_Source\PSoC4/UART_LED_ISR.c **** uint8 UART_LED_ISR_GetPriority(void)
 278:.\Generated_Source\PSoC4/UART_LED_ISR.c **** {
 139              		.loc 1 278 0
 140              		.cfi_startproc
 141              	.LVL6:
 279:.\Generated_Source\PSoC4/UART_LED_ISR.c ****     uint32 priority;
 280:.\Generated_Source\PSoC4/UART_LED_ISR.c **** 	uint32 priorityOffset = ((UART_LED_ISR__INTC_NUMBER % 4u) * 8u) + 6u;
 281:.\Generated_Source\PSoC4/UART_LED_ISR.c **** 
 282:.\Generated_Source\PSoC4/UART_LED_ISR.c ****     priority = (*UART_LED_ISR_INTC_PRIOR & UART_LED_ISR__INTC_PRIOR_MASK) >> priorityOffset;
 142              		.loc 1 282 0
 143 0000 014B     		ldr	r3, .L12
 144 0002 1868     		ldr	r0, [r3]
 145              	.LVL7:
 283:.\Generated_Source\PSoC4/UART_LED_ISR.c **** 
 284:.\Generated_Source\PSoC4/UART_LED_ISR.c ****     return (uint8)priority;
 146              		.loc 1 284 0
 147 0004 800F     		lsr	r0, r0, #30
 148              	.LVL8:
 285:.\Generated_Source\PSoC4/UART_LED_ISR.c **** }
 149              		.loc 1 285 0
 150              		@ sp needed
 151 0006 7047     		bx	lr
 152              	.L13:
 153              		.align	2
 154              	.L12:
 155 0008 08E400E0 		.word	-536812536
 156              		.cfi_endproc
 157              	.LFE41:
 158              		.size	UART_LED_ISR_GetPriority, .-UART_LED_ISR_GetPriority
 159              		.section	.text.UART_LED_ISR_Enable,"ax",%progbits
 160              		.align	2
 161              		.global	UART_LED_ISR_Enable
 162              		.code	16
 163              		.thumb_func
 164              		.type	UART_LED_ISR_Enable, %function
 165              	UART_LED_ISR_Enable:
 166              	.LFB42:
 286:.\Generated_Source\PSoC4/UART_LED_ISR.c **** 
 287:.\Generated_Source\PSoC4/UART_LED_ISR.c **** 
 288:.\Generated_Source\PSoC4/UART_LED_ISR.c **** /*******************************************************************************
 289:.\Generated_Source\PSoC4/UART_LED_ISR.c **** * Function Name: UART_LED_ISR_Enable
ARM GAS  C:\Users\kylep\AppData\Local\Temp\ccjdzy7r.s 			page 9


 290:.\Generated_Source\PSoC4/UART_LED_ISR.c **** ********************************************************************************
 291:.\Generated_Source\PSoC4/UART_LED_ISR.c **** *
 292:.\Generated_Source\PSoC4/UART_LED_ISR.c **** * Summary:
 293:.\Generated_Source\PSoC4/UART_LED_ISR.c **** *   Enables the interrupt to the interrupt controller. Do not call this function
 294:.\Generated_Source\PSoC4/UART_LED_ISR.c **** *   unless ISR_Start() has been called or the functionality of the ISR_Start() 
 295:.\Generated_Source\PSoC4/UART_LED_ISR.c **** *   function, which sets the vector and the priority, has been called.
 296:.\Generated_Source\PSoC4/UART_LED_ISR.c **** *
 297:.\Generated_Source\PSoC4/UART_LED_ISR.c **** * Parameters:
 298:.\Generated_Source\PSoC4/UART_LED_ISR.c **** *   None
 299:.\Generated_Source\PSoC4/UART_LED_ISR.c **** *
 300:.\Generated_Source\PSoC4/UART_LED_ISR.c **** * Return:
 301:.\Generated_Source\PSoC4/UART_LED_ISR.c **** *   None
 302:.\Generated_Source\PSoC4/UART_LED_ISR.c **** *
 303:.\Generated_Source\PSoC4/UART_LED_ISR.c **** *******************************************************************************/
 304:.\Generated_Source\PSoC4/UART_LED_ISR.c **** void UART_LED_ISR_Enable(void)
 305:.\Generated_Source\PSoC4/UART_LED_ISR.c **** {
 167              		.loc 1 305 0
 168              		.cfi_startproc
 306:.\Generated_Source\PSoC4/UART_LED_ISR.c ****     /* Enable the general interrupt. */
 307:.\Generated_Source\PSoC4/UART_LED_ISR.c ****     *UART_LED_ISR_INTC_SET_EN = UART_LED_ISR__INTC_MASK;
 169              		.loc 1 307 0
 170 0000 8022     		mov	r2, #128
 171 0002 1201     		lsl	r2, r2, #4
 172 0004 014B     		ldr	r3, .L15
 173 0006 1A60     		str	r2, [r3]
 308:.\Generated_Source\PSoC4/UART_LED_ISR.c **** }
 174              		.loc 1 308 0
 175              		@ sp needed
 176 0008 7047     		bx	lr
 177              	.L16:
 178 000a C046     		.align	2
 179              	.L15:
 180 000c 00E100E0 		.word	-536813312
 181              		.cfi_endproc
 182              	.LFE42:
 183              		.size	UART_LED_ISR_Enable, .-UART_LED_ISR_Enable
 184              		.section	.text.UART_LED_ISR_GetState,"ax",%progbits
 185              		.align	2
 186              		.global	UART_LED_ISR_GetState
 187              		.code	16
 188              		.thumb_func
 189              		.type	UART_LED_ISR_GetState, %function
 190              	UART_LED_ISR_GetState:
 191              	.LFB43:
 309:.\Generated_Source\PSoC4/UART_LED_ISR.c **** 
 310:.\Generated_Source\PSoC4/UART_LED_ISR.c **** 
 311:.\Generated_Source\PSoC4/UART_LED_ISR.c **** /*******************************************************************************
 312:.\Generated_Source\PSoC4/UART_LED_ISR.c **** * Function Name: UART_LED_ISR_GetState
 313:.\Generated_Source\PSoC4/UART_LED_ISR.c **** ********************************************************************************
 314:.\Generated_Source\PSoC4/UART_LED_ISR.c **** *
 315:.\Generated_Source\PSoC4/UART_LED_ISR.c **** * Summary:
 316:.\Generated_Source\PSoC4/UART_LED_ISR.c **** *   Gets the state (enabled, disabled) of the Interrupt.
 317:.\Generated_Source\PSoC4/UART_LED_ISR.c **** *
 318:.\Generated_Source\PSoC4/UART_LED_ISR.c **** * Parameters:
 319:.\Generated_Source\PSoC4/UART_LED_ISR.c **** *   None
 320:.\Generated_Source\PSoC4/UART_LED_ISR.c **** *
 321:.\Generated_Source\PSoC4/UART_LED_ISR.c **** * Return:
ARM GAS  C:\Users\kylep\AppData\Local\Temp\ccjdzy7r.s 			page 10


 322:.\Generated_Source\PSoC4/UART_LED_ISR.c **** *   1 if enabled, 0 if disabled.
 323:.\Generated_Source\PSoC4/UART_LED_ISR.c **** *
 324:.\Generated_Source\PSoC4/UART_LED_ISR.c **** *******************************************************************************/
 325:.\Generated_Source\PSoC4/UART_LED_ISR.c **** uint8 UART_LED_ISR_GetState(void)
 326:.\Generated_Source\PSoC4/UART_LED_ISR.c **** {
 192              		.loc 1 326 0
 193              		.cfi_startproc
 327:.\Generated_Source\PSoC4/UART_LED_ISR.c ****     /* Get the state of the general interrupt. */
 328:.\Generated_Source\PSoC4/UART_LED_ISR.c ****     return ((*UART_LED_ISR_INTC_SET_EN & (uint32)UART_LED_ISR__INTC_MASK) != 0u) ? 1u:0u;
 194              		.loc 1 328 0
 195 0000 034B     		ldr	r3, .L20
 196 0002 1B68     		ldr	r3, [r3]
 197 0004 1B05     		lsl	r3, r3, #20
 198 0006 01D5     		bpl	.L19
 199 0008 0120     		mov	r0, #1
 200 000a 00E0     		b	.L18
 201              	.L19:
 202 000c 0020     		mov	r0, #0
 203              	.L18:
 329:.\Generated_Source\PSoC4/UART_LED_ISR.c **** }
 204              		.loc 1 329 0 discriminator 4
 205              		@ sp needed
 206 000e 7047     		bx	lr
 207              	.L21:
 208              		.align	2
 209              	.L20:
 210 0010 00E100E0 		.word	-536813312
 211              		.cfi_endproc
 212              	.LFE43:
 213              		.size	UART_LED_ISR_GetState, .-UART_LED_ISR_GetState
 214              		.section	.text.UART_LED_ISR_Disable,"ax",%progbits
 215              		.align	2
 216              		.global	UART_LED_ISR_Disable
 217              		.code	16
 218              		.thumb_func
 219              		.type	UART_LED_ISR_Disable, %function
 220              	UART_LED_ISR_Disable:
 221              	.LFB44:
 330:.\Generated_Source\PSoC4/UART_LED_ISR.c **** 
 331:.\Generated_Source\PSoC4/UART_LED_ISR.c **** 
 332:.\Generated_Source\PSoC4/UART_LED_ISR.c **** /*******************************************************************************
 333:.\Generated_Source\PSoC4/UART_LED_ISR.c **** * Function Name: UART_LED_ISR_Disable
 334:.\Generated_Source\PSoC4/UART_LED_ISR.c **** ********************************************************************************
 335:.\Generated_Source\PSoC4/UART_LED_ISR.c **** *
 336:.\Generated_Source\PSoC4/UART_LED_ISR.c **** * Summary:
 337:.\Generated_Source\PSoC4/UART_LED_ISR.c **** *   Disables the Interrupt in the interrupt controller.
 338:.\Generated_Source\PSoC4/UART_LED_ISR.c **** *
 339:.\Generated_Source\PSoC4/UART_LED_ISR.c **** * Parameters:
 340:.\Generated_Source\PSoC4/UART_LED_ISR.c **** *   None
 341:.\Generated_Source\PSoC4/UART_LED_ISR.c **** *
 342:.\Generated_Source\PSoC4/UART_LED_ISR.c **** * Return:
 343:.\Generated_Source\PSoC4/UART_LED_ISR.c **** *   None
 344:.\Generated_Source\PSoC4/UART_LED_ISR.c **** *
 345:.\Generated_Source\PSoC4/UART_LED_ISR.c **** *******************************************************************************/
 346:.\Generated_Source\PSoC4/UART_LED_ISR.c **** void UART_LED_ISR_Disable(void)
 347:.\Generated_Source\PSoC4/UART_LED_ISR.c **** {
 222              		.loc 1 347 0
ARM GAS  C:\Users\kylep\AppData\Local\Temp\ccjdzy7r.s 			page 11


 223              		.cfi_startproc
 348:.\Generated_Source\PSoC4/UART_LED_ISR.c ****     /* Disable the general interrupt. */
 349:.\Generated_Source\PSoC4/UART_LED_ISR.c ****     *UART_LED_ISR_INTC_CLR_EN = UART_LED_ISR__INTC_MASK;
 224              		.loc 1 349 0
 225 0000 8022     		mov	r2, #128
 226 0002 1201     		lsl	r2, r2, #4
 227 0004 014B     		ldr	r3, .L23
 228 0006 1A60     		str	r2, [r3]
 350:.\Generated_Source\PSoC4/UART_LED_ISR.c **** }
 229              		.loc 1 350 0
 230              		@ sp needed
 231 0008 7047     		bx	lr
 232              	.L24:
 233 000a C046     		.align	2
 234              	.L23:
 235 000c 80E100E0 		.word	-536813184
 236              		.cfi_endproc
 237              	.LFE44:
 238              		.size	UART_LED_ISR_Disable, .-UART_LED_ISR_Disable
 239              		.section	.text.UART_LED_ISR_Start,"ax",%progbits
 240              		.align	2
 241              		.global	UART_LED_ISR_Start
 242              		.code	16
 243              		.thumb_func
 244              		.type	UART_LED_ISR_Start, %function
 245              	UART_LED_ISR_Start:
 246              	.LFB34:
  57:.\Generated_Source\PSoC4/UART_LED_ISR.c ****     /* For all we know the interrupt is active. */
 247              		.loc 1 57 0
 248              		.cfi_startproc
 249 0000 08B5     		push	{r3, lr}
 250              		.cfi_def_cfa_offset 8
 251              		.cfi_offset 3, -8
 252              		.cfi_offset 14, -4
  59:.\Generated_Source\PSoC4/UART_LED_ISR.c **** 
 253              		.loc 1 59 0
 254 0002 FFF7FEFF 		bl	UART_LED_ISR_Disable
 255              	.LVL9:
  62:.\Generated_Source\PSoC4/UART_LED_ISR.c **** 
 256              		.loc 1 62 0
 257 0006 0448     		ldr	r0, .L26
 258 0008 FFF7FEFF 		bl	UART_LED_ISR_SetVector
 259              	.LVL10:
  65:.\Generated_Source\PSoC4/UART_LED_ISR.c **** 
 260              		.loc 1 65 0
 261 000c 0320     		mov	r0, #3
 262 000e FFF7FEFF 		bl	UART_LED_ISR_SetPriority
 263              	.LVL11:
  68:.\Generated_Source\PSoC4/UART_LED_ISR.c **** }
 264              		.loc 1 68 0
 265 0012 FFF7FEFF 		bl	UART_LED_ISR_Enable
 266              	.LVL12:
  69:.\Generated_Source\PSoC4/UART_LED_ISR.c **** 
 267              		.loc 1 69 0
 268              		@ sp needed
 269 0016 08BD     		pop	{r3, pc}
 270              	.L27:
ARM GAS  C:\Users\kylep\AppData\Local\Temp\ccjdzy7r.s 			page 12


 271              		.align	2
 272              	.L26:
 273 0018 00000000 		.word	UART_LED_ISR_Interrupt
 274              		.cfi_endproc
 275              	.LFE34:
 276              		.size	UART_LED_ISR_Start, .-UART_LED_ISR_Start
 277              		.section	.text.UART_LED_ISR_StartEx,"ax",%progbits
 278              		.align	2
 279              		.global	UART_LED_ISR_StartEx
 280              		.code	16
 281              		.thumb_func
 282              		.type	UART_LED_ISR_StartEx, %function
 283              	UART_LED_ISR_StartEx:
 284              	.LFB35:
 100:.\Generated_Source\PSoC4/UART_LED_ISR.c ****     /* For all we know the interrupt is active. */
 285              		.loc 1 100 0
 286              		.cfi_startproc
 287              	.LVL13:
 288 0000 10B5     		push	{r4, lr}
 289              		.cfi_def_cfa_offset 8
 290              		.cfi_offset 4, -8
 291              		.cfi_offset 14, -4
 292 0002 041C     		mov	r4, r0
 102:.\Generated_Source\PSoC4/UART_LED_ISR.c **** 
 293              		.loc 1 102 0
 294 0004 FFF7FEFF 		bl	UART_LED_ISR_Disable
 295              	.LVL14:
 105:.\Generated_Source\PSoC4/UART_LED_ISR.c **** 
 296              		.loc 1 105 0
 297 0008 201C     		mov	r0, r4
 298 000a FFF7FEFF 		bl	UART_LED_ISR_SetVector
 299              	.LVL15:
 108:.\Generated_Source\PSoC4/UART_LED_ISR.c **** 
 300              		.loc 1 108 0
 301 000e 0320     		mov	r0, #3
 302 0010 FFF7FEFF 		bl	UART_LED_ISR_SetPriority
 303              	.LVL16:
 111:.\Generated_Source\PSoC4/UART_LED_ISR.c **** }
 304              		.loc 1 111 0
 305 0014 FFF7FEFF 		bl	UART_LED_ISR_Enable
 306              	.LVL17:
 112:.\Generated_Source\PSoC4/UART_LED_ISR.c **** 
 307              		.loc 1 112 0
 308              		@ sp needed
 309              	.LVL18:
 310 0018 10BD     		pop	{r4, pc}
 311              		.cfi_endproc
 312              	.LFE35:
 313              		.size	UART_LED_ISR_StartEx, .-UART_LED_ISR_StartEx
 314 001a C046     		.section	.text.UART_LED_ISR_Stop,"ax",%progbits
 315              		.align	2
 316              		.global	UART_LED_ISR_Stop
 317              		.code	16
 318              		.thumb_func
 319              		.type	UART_LED_ISR_Stop, %function
 320              	UART_LED_ISR_Stop:
 321              	.LFB36:
ARM GAS  C:\Users\kylep\AppData\Local\Temp\ccjdzy7r.s 			page 13


 130:.\Generated_Source\PSoC4/UART_LED_ISR.c ****     /* Disable this interrupt. */
 322              		.loc 1 130 0
 323              		.cfi_startproc
 324 0000 08B5     		push	{r3, lr}
 325              		.cfi_def_cfa_offset 8
 326              		.cfi_offset 3, -8
 327              		.cfi_offset 14, -4
 132:.\Generated_Source\PSoC4/UART_LED_ISR.c **** 
 328              		.loc 1 132 0
 329 0002 FFF7FEFF 		bl	UART_LED_ISR_Disable
 330              	.LVL19:
 135:.\Generated_Source\PSoC4/UART_LED_ISR.c **** }
 331              		.loc 1 135 0
 332 0006 0248     		ldr	r0, .L30
 333 0008 FFF7FEFF 		bl	UART_LED_ISR_SetVector
 334              	.LVL20:
 136:.\Generated_Source\PSoC4/UART_LED_ISR.c **** 
 335              		.loc 1 136 0
 336              		@ sp needed
 337 000c 08BD     		pop	{r3, pc}
 338              	.L31:
 339 000e C046     		.align	2
 340              	.L30:
 341 0010 00000000 		.word	IntDefaultHandler
 342              		.cfi_endproc
 343              	.LFE36:
 344              		.size	UART_LED_ISR_Stop, .-UART_LED_ISR_Stop
 345              		.section	.text.UART_LED_ISR_SetPending,"ax",%progbits
 346              		.align	2
 347              		.global	UART_LED_ISR_SetPending
 348              		.code	16
 349              		.thumb_func
 350              		.type	UART_LED_ISR_SetPending, %function
 351              	UART_LED_ISR_SetPending:
 352              	.LFB45:
 351:.\Generated_Source\PSoC4/UART_LED_ISR.c **** 
 352:.\Generated_Source\PSoC4/UART_LED_ISR.c **** 
 353:.\Generated_Source\PSoC4/UART_LED_ISR.c **** /*******************************************************************************
 354:.\Generated_Source\PSoC4/UART_LED_ISR.c **** * Function Name: UART_LED_ISR_SetPending
 355:.\Generated_Source\PSoC4/UART_LED_ISR.c **** ********************************************************************************
 356:.\Generated_Source\PSoC4/UART_LED_ISR.c **** *
 357:.\Generated_Source\PSoC4/UART_LED_ISR.c **** * Summary:
 358:.\Generated_Source\PSoC4/UART_LED_ISR.c **** *   Causes the Interrupt to enter the pending state, a software method of
 359:.\Generated_Source\PSoC4/UART_LED_ISR.c **** *   generating the interrupt.
 360:.\Generated_Source\PSoC4/UART_LED_ISR.c **** *
 361:.\Generated_Source\PSoC4/UART_LED_ISR.c **** * Parameters:
 362:.\Generated_Source\PSoC4/UART_LED_ISR.c **** *   None
 363:.\Generated_Source\PSoC4/UART_LED_ISR.c **** *
 364:.\Generated_Source\PSoC4/UART_LED_ISR.c **** * Return:
 365:.\Generated_Source\PSoC4/UART_LED_ISR.c **** *   None
 366:.\Generated_Source\PSoC4/UART_LED_ISR.c **** *
 367:.\Generated_Source\PSoC4/UART_LED_ISR.c **** * Side Effects:
 368:.\Generated_Source\PSoC4/UART_LED_ISR.c **** *   If interrupts are enabled and the interrupt is set up properly, the ISR is
 369:.\Generated_Source\PSoC4/UART_LED_ISR.c **** *   entered (depending on the priority of this interrupt and other pending 
 370:.\Generated_Source\PSoC4/UART_LED_ISR.c **** *   interrupts).
 371:.\Generated_Source\PSoC4/UART_LED_ISR.c **** *
 372:.\Generated_Source\PSoC4/UART_LED_ISR.c **** *******************************************************************************/
ARM GAS  C:\Users\kylep\AppData\Local\Temp\ccjdzy7r.s 			page 14


 373:.\Generated_Source\PSoC4/UART_LED_ISR.c **** void UART_LED_ISR_SetPending(void)
 374:.\Generated_Source\PSoC4/UART_LED_ISR.c **** {
 353              		.loc 1 374 0
 354              		.cfi_startproc
 375:.\Generated_Source\PSoC4/UART_LED_ISR.c ****     *UART_LED_ISR_INTC_SET_PD = UART_LED_ISR__INTC_MASK;
 355              		.loc 1 375 0
 356 0000 8022     		mov	r2, #128
 357 0002 1201     		lsl	r2, r2, #4
 358 0004 014B     		ldr	r3, .L33
 359 0006 1A60     		str	r2, [r3]
 376:.\Generated_Source\PSoC4/UART_LED_ISR.c **** }
 360              		.loc 1 376 0
 361              		@ sp needed
 362 0008 7047     		bx	lr
 363              	.L34:
 364 000a C046     		.align	2
 365              	.L33:
 366 000c 00E200E0 		.word	-536813056
 367              		.cfi_endproc
 368              	.LFE45:
 369              		.size	UART_LED_ISR_SetPending, .-UART_LED_ISR_SetPending
 370              		.section	.text.UART_LED_ISR_ClearPending,"ax",%progbits
 371              		.align	2
 372              		.global	UART_LED_ISR_ClearPending
 373              		.code	16
 374              		.thumb_func
 375              		.type	UART_LED_ISR_ClearPending, %function
 376              	UART_LED_ISR_ClearPending:
 377              	.LFB46:
 377:.\Generated_Source\PSoC4/UART_LED_ISR.c **** 
 378:.\Generated_Source\PSoC4/UART_LED_ISR.c **** 
 379:.\Generated_Source\PSoC4/UART_LED_ISR.c **** /*******************************************************************************
 380:.\Generated_Source\PSoC4/UART_LED_ISR.c **** * Function Name: UART_LED_ISR_ClearPending
 381:.\Generated_Source\PSoC4/UART_LED_ISR.c **** ********************************************************************************
 382:.\Generated_Source\PSoC4/UART_LED_ISR.c **** *
 383:.\Generated_Source\PSoC4/UART_LED_ISR.c **** * Summary:
 384:.\Generated_Source\PSoC4/UART_LED_ISR.c **** *   Clears a pending interrupt in the interrupt controller.
 385:.\Generated_Source\PSoC4/UART_LED_ISR.c **** *
 386:.\Generated_Source\PSoC4/UART_LED_ISR.c **** *   Note Some interrupt sources are clear-on-read and require the block 
 387:.\Generated_Source\PSoC4/UART_LED_ISR.c **** *   interrupt/status register to be read/cleared with the appropriate block API 
 388:.\Generated_Source\PSoC4/UART_LED_ISR.c **** *   (GPIO, UART, and so on). Otherwise the ISR will continue to remain in 
 389:.\Generated_Source\PSoC4/UART_LED_ISR.c **** *   pending state even though the interrupt itself is cleared using this API.
 390:.\Generated_Source\PSoC4/UART_LED_ISR.c **** *
 391:.\Generated_Source\PSoC4/UART_LED_ISR.c **** * Parameters:
 392:.\Generated_Source\PSoC4/UART_LED_ISR.c **** *   None
 393:.\Generated_Source\PSoC4/UART_LED_ISR.c **** *
 394:.\Generated_Source\PSoC4/UART_LED_ISR.c **** * Return:
 395:.\Generated_Source\PSoC4/UART_LED_ISR.c **** *   None
 396:.\Generated_Source\PSoC4/UART_LED_ISR.c **** *
 397:.\Generated_Source\PSoC4/UART_LED_ISR.c **** *******************************************************************************/
 398:.\Generated_Source\PSoC4/UART_LED_ISR.c **** void UART_LED_ISR_ClearPending(void)
 399:.\Generated_Source\PSoC4/UART_LED_ISR.c **** {
 378              		.loc 1 399 0
 379              		.cfi_startproc
 400:.\Generated_Source\PSoC4/UART_LED_ISR.c ****     *UART_LED_ISR_INTC_CLR_PD = UART_LED_ISR__INTC_MASK;
 380              		.loc 1 400 0
 381 0000 8022     		mov	r2, #128
ARM GAS  C:\Users\kylep\AppData\Local\Temp\ccjdzy7r.s 			page 15


 382 0002 1201     		lsl	r2, r2, #4
 383 0004 014B     		ldr	r3, .L36
 384 0006 1A60     		str	r2, [r3]
 401:.\Generated_Source\PSoC4/UART_LED_ISR.c **** }
 385              		.loc 1 401 0
 386              		@ sp needed
 387 0008 7047     		bx	lr
 388              	.L37:
 389 000a C046     		.align	2
 390              	.L36:
 391 000c 80E200E0 		.word	-536812928
 392              		.cfi_endproc
 393              	.LFE46:
 394              		.size	UART_LED_ISR_ClearPending, .-UART_LED_ISR_ClearPending
 395              		.text
 396              	.Letext0:
 397              		.file 2 "Generated_Source\\PSoC4/cytypes.h"
 398              		.file 3 "./BrightnessCommManager.h"
 399              		.file 4 "Generated_Source\\PSoC4/CyLib.h"