ARM GAS  C:\Users\kylep\AppData\Local\Temp\ccH20siU.s 			page 1


   1              		.syntax unified
   2              		.cpu cortex-m0
   3              		.fpu softvfp
   4              		.eabi_attribute 20, 1
   5              		.eabi_attribute 21, 1
   6              		.eabi_attribute 23, 3
   7              		.eabi_attribute 24, 1
   8              		.eabi_attribute 25, 1
   9              		.eabi_attribute 26, 1
  10              		.eabi_attribute 30, 1
  11              		.eabi_attribute 34, 0
  12              		.eabi_attribute 18, 4
  13              		.thumb
  14              		.syntax unified
  15              		.file	"BrightnessCommManager.c"
  16              		.text
  17              	.Ltext0:
  18              		.cfi_sections	.debug_frame
  19              		.section	.text.processLowPowerRequest,"ax",%progbits
  20              		.align	2
  21              		.code	16
  22              		.thumb_func
  23              		.type	processLowPowerRequest, %function
  24              	processLowPowerRequest:
  25              	.LFB43:
  26              		.file 1 "BrightnessCommManager.c"
   1:BrightnessCommManager.c **** /* ========================================
   2:BrightnessCommManager.c ****  *
   3:BrightnessCommManager.c ****  * Copyright YOUR COMPANY, THE YEAR
   4:BrightnessCommManager.c ****  * All Rights Reserved
   5:BrightnessCommManager.c ****  * UNPUBLISHED, LICENSED SOFTWARE.
   6:BrightnessCommManager.c ****  *
   7:BrightnessCommManager.c ****  * CONFIDENTIAL AND PROPRIETARY INFORMATION
   8:BrightnessCommManager.c ****  * WHICH IS THE PROPERTY OF your company.
   9:BrightnessCommManager.c ****  *
  10:BrightnessCommManager.c ****  * ========================================
  11:BrightnessCommManager.c **** */
  12:BrightnessCommManager.c **** /**********CHANGE LOG**********/
  13:BrightnessCommManager.c **** 
  14:BrightnessCommManager.c **** /**********PREPROCESSOR DIRECTIVES**********/
  15:BrightnessCommManager.c **** #include "CommonVariables.h"
  16:BrightnessCommManager.c **** #include "BrightnessCommManager.h"
  17:BrightnessCommManager.c **** #include "TemperatureCommManager.h"
  18:BrightnessCommManager.c **** #include "DriverControl.h"
  19:BrightnessCommManager.c **** 
  20:BrightnessCommManager.c **** #define MAX_PAYLOAD_BYTE_COUNT  MAX_DRIVER_COUNT + 1
  21:BrightnessCommManager.c **** #define HEADER_BYTE_COUNT       2
  22:BrightnessCommManager.c **** #define EOP_BYTE_COUNT          2
  23:BrightnessCommManager.c **** #define MAX_PACKET_SIZE         HEADER_BYTE_COUNT + MAX_PAYLOAD_BYTE_COUNT + EOP_BYTE_COUNT
  24:BrightnessCommManager.c **** 
  25:BrightnessCommManager.c **** #define PACKET_TYPE_COUNT       6
  26:BrightnessCommManager.c **** #define HEADER_START_INDEX      0
  27:BrightnessCommManager.c **** #define PAYLOAD_START_INDEX     HEADER_BYTE_COUNT
  28:BrightnessCommManager.c **** 
  29:BrightnessCommManager.c **** #define TIMEOUT_LIMIT_IN_MILLISECONDS   10000
  30:BrightnessCommManager.c **** #define HEAD_BOARD_TIMEOUT   150
  31:BrightnessCommManager.c ****     
ARM GAS  C:\Users\kylep\AppData\Local\Temp\ccH20siU.s 			page 2


  32:BrightnessCommManager.c **** /**********DEFINED CONSTANTS**********/
  33:BrightnessCommManager.c **** enum PacketState
  34:BrightnessCommManager.c **** {
  35:BrightnessCommManager.c ****     HEADER_STATE,
  36:BrightnessCommManager.c ****     PAYLOAD_STATE,
  37:BrightnessCommManager.c ****     EOP_STATE
  38:BrightnessCommManager.c **** };
  39:BrightnessCommManager.c **** 
  40:BrightnessCommManager.c **** /**********DATA STRUCTURES**********/
  41:BrightnessCommManager.c **** typedef struct
  42:BrightnessCommManager.c **** {
  43:BrightnessCommManager.c ****     const uint8 HEADER_BYTE;
  44:BrightnessCommManager.c ****     const uint8 PACKET_TYPE;
  45:BrightnessCommManager.c ****     const uint8 PAYLOAD_SIZE;
  46:BrightnessCommManager.c ****     const uint8 EOP_CARRIAGE_RETURN;
  47:BrightnessCommManager.c ****     const uint8 EOP_LINE_FEED;
  48:BrightnessCommManager.c **** }Packet;
  49:BrightnessCommManager.c **** 
  50:BrightnessCommManager.c **** static Packet PacketList[PACKET_TYPE_COUNT] = 
  51:BrightnessCommManager.c **** {
  52:BrightnessCommManager.c ****     {'~', 'B', 8, '\r', '\n'},          //Definition: Brightness, Value Range: 0x00-0xFF, Module 0(
  53:BrightnessCommManager.c ****     {'~', 'C', 9, '\r', '\n'},          //Definition: Driver Count, Payload:
  54:BrightnessCommManager.c ****                                         //Byte 0: Number of Drivers, Value Range: 1-8
  55:BrightnessCommManager.c ****                                         //Byte1-Byte8: Driver ID, Value Range: 1-8
  56:BrightnessCommManager.c ****     {'~', 'M', 11, '\r', '\n'},
  57:BrightnessCommManager.c ****     {'~', 'S', 3, '\r', '\n'},           //Save brightness and motor position to EEPROM
  58:BrightnessCommManager.c ****     {'~', 'L', 1, '\r', '\n'},
  59:BrightnessCommManager.c ****     {'~', 'A', 1, '\r', '\n'} 
  60:BrightnessCommManager.c **** };    
  61:BrightnessCommManager.c **** 
  62:BrightnessCommManager.c **** /**********GLOBAL VARIABLES**********/
  63:BrightnessCommManager.c **** static uint8 bDriverCountReceived = FALSE;
  64:BrightnessCommManager.c **** 
  65:BrightnessCommManager.c **** volatile uint8 bCommunicationTimeOut = FALSE;
  66:BrightnessCommManager.c **** static uint8 stateOfLightBar = 0;
  67:BrightnessCommManager.c **** volatile uint16 timeOutCounter = 0;
  68:BrightnessCommManager.c **** volatile uint8 bIsCommunicationTrigger = FALSE;
  69:BrightnessCommManager.c **** /**********LOCAL FUNCTION PROTOTYPES**********/
  70:BrightnessCommManager.c **** static uint8 processLowPowerRequest(uint8* packet, uint8 length);
  71:BrightnessCommManager.c **** static void detectPacket(uint8 dataByte);
  72:BrightnessCommManager.c **** static uint8 processDriverCountPacket(uint8* packet, uint8 length);
  73:BrightnessCommManager.c **** static uint8 processBrightnessPacket(uint8* packet, uint8 length, uint8 bFlashPattern);
  74:BrightnessCommManager.c **** static uint8 processReinitlizationPacket(uint8* packet, uint8 length);
  75:BrightnessCommManager.c **** static void saveStateBar(uint8 * volatileMemoryArray, const uint8 * nonVolatileMemoryArray, uint8* 
  76:BrightnessCommManager.c **** static void putBarToSleep(void);
  77:BrightnessCommManager.c **** static void returnFromSleep(void);
  78:BrightnessCommManager.c **** static void processOutputSelectUart(void);
  79:BrightnessCommManager.c **** /**********DEFINED GLOBAL FUNCTIONS**********/
  80:BrightnessCommManager.c **** static uint16 regulatedBrightness = 0;
  81:BrightnessCommManager.c **** //static uint16 rampDownIterator = 0;
  82:BrightnessCommManager.c **** static uint16 bFirstTimeRampDown = 0;
  83:BrightnessCommManager.c **** static int16 previousBrightnessLocal = 0;
  84:BrightnessCommManager.c **** static uint8 ifPowerUp = FALSE;
  85:BrightnessCommManager.c **** 
  86:BrightnessCommManager.c **** RxPacket rxPacket;
  87:BrightnessCommManager.c **** 
  88:BrightnessCommManager.c **** 
ARM GAS  C:\Users\kylep\AppData\Local\Temp\ccH20siU.s 			page 3


  89:BrightnessCommManager.c **** RxPacket *pRxPacket;
  90:BrightnessCommManager.c **** ////////////////////////////////////Time-Out and Low Power Functions///////////////////////////////
  91:BrightnessCommManager.c **** 
  92:BrightnessCommManager.c **** uint8 getStateOfBar(void)
  93:BrightnessCommManager.c **** {
  94:BrightnessCommManager.c ****     return stateOfLightBar;
  95:BrightnessCommManager.c **** }
  96:BrightnessCommManager.c **** 
  97:BrightnessCommManager.c **** uint8 getDegaultPosition(void)
  98:BrightnessCommManager.c **** {
  99:BrightnessCommManager.c ****     static const uint8 * localNonVolatileMemory = 0;
 100:BrightnessCommManager.c ****     localNonVolatileMemory = getNonVolatileBarStateMemory();
 101:BrightnessCommManager.c ****     
 102:BrightnessCommManager.c ****     return localNonVolatileMemory[1];
 103:BrightnessCommManager.c **** }
 104:BrightnessCommManager.c **** 
 105:BrightnessCommManager.c **** void timeOutStateMachine(const uint8 * nonVolatileMemoryArray)
 106:BrightnessCommManager.c **** {           
 107:BrightnessCommManager.c ****     switch(stateOfLightBar)
 108:BrightnessCommManager.c ****     {
 109:BrightnessCommManager.c ****         case IS_TIME_OUT_TRUE:
 110:BrightnessCommManager.c ****             if(bCommunicationTimeOut == TRUE)
 111:BrightnessCommManager.c ****             {
 112:BrightnessCommManager.c ****                 //LED_Output_Write(TRUE); 
 113:BrightnessCommManager.c ****                 CyDelay(10);
 114:BrightnessCommManager.c ****                if(getDriverID() == HEAD_MODULE_ID)
 115:BrightnessCommManager.c ****                {
 116:BrightnessCommManager.c ****                     if(getDriverID() == HEAD_MODULE_ID)
 117:BrightnessCommManager.c ****                     {
 118:BrightnessCommManager.c ****                         stateOfLightBar = HIGH_TIMOUT;
 119:BrightnessCommManager.c ****                         //WakeupISR_Start();
 120:BrightnessCommManager.c ****                     }
 121:BrightnessCommManager.c ****                }
 122:BrightnessCommManager.c ****               // else
 123:BrightnessCommManager.c ****               // {
 124:BrightnessCommManager.c ****               //      previousBrightnessLocal = getPreviousBrightness();
 125:BrightnessCommManager.c ****               //      stateOfLightBar = LOW_TIMEOUT;
 126:BrightnessCommManager.c ****               //      //WakeupISR_Start();
 127:BrightnessCommManager.c ****               // }
 128:BrightnessCommManager.c ****             }
 129:BrightnessCommManager.c ****             break;
 130:BrightnessCommManager.c ****         case HIGH_TIMOUT:
 131:BrightnessCommManager.c ****             if(bCommunicationTimeOut == FALSE) //&& UART_Rx_Read() == 1) bIsCommunicationTrigger ==
 132:BrightnessCommManager.c ****             {
 133:BrightnessCommManager.c ****                 bIsCommunicationTrigger = FALSE;
 134:BrightnessCommManager.c ****                 stateOfLightBar = IS_TIME_OUT_TRUE;
 135:BrightnessCommManager.c ****                 //WakeupISR_Stop();
 136:BrightnessCommManager.c ****             }
 137:BrightnessCommManager.c ****             takeInputValues();
 138:BrightnessCommManager.c ****             if(isReadyToSendNextBrightnessPacket() == TRUE)
 139:BrightnessCommManager.c ****             {
 140:BrightnessCommManager.c ****                 //timeoutDefaultBrightness(getNonVolatileBarStateMemory());
 141:BrightnessCommManager.c ****                 clearIsReadyToSendNextBrightnessPacket();
 142:BrightnessCommManager.c ****             }
 143:BrightnessCommManager.c ****             break;
 144:BrightnessCommManager.c ****         case LOW_TIMEOUT:
 145:BrightnessCommManager.c ****             if(isReadyToSendNextBrightnessPacket() == TRUE)
ARM GAS  C:\Users\kylep\AppData\Local\Temp\ccH20siU.s 			page 4


 146:BrightnessCommManager.c ****             {
 147:BrightnessCommManager.c ****                 putBarToSleep();
 148:BrightnessCommManager.c ****                 CySysPmDeepSleep(); 
 149:BrightnessCommManager.c **** 
 150:BrightnessCommManager.c ****                 if(bIsCommunicationTrigger == TRUE)
 151:BrightnessCommManager.c ****                 {
 152:BrightnessCommManager.c ****                     bIsCommunicationTrigger = FALSE;
 153:BrightnessCommManager.c ****                     stateOfLightBar = IS_TIME_OUT_TRUE;
 154:BrightnessCommManager.c ****                     //WakeupISR_Stop();
 155:BrightnessCommManager.c ****                     bFirstTimeRampDown = FALSE;
 156:BrightnessCommManager.c ****                     CySoftwareReset(); 
 157:BrightnessCommManager.c ****                 }
 158:BrightnessCommManager.c ****                     clearIsReadyToSendNextBrightnessPacket();
 159:BrightnessCommManager.c ****             }
 160:BrightnessCommManager.c ****             break;
 161:BrightnessCommManager.c ****         case 3:
 162:BrightnessCommManager.c ****             break;
 163:BrightnessCommManager.c ****         default:
 164:BrightnessCommManager.c ****             break;
 165:BrightnessCommManager.c ****     }   
 166:BrightnessCommManager.c **** }
 167:BrightnessCommManager.c **** 
 168:BrightnessCommManager.c **** /*******************************************************************************
 169:BrightnessCommManager.c **** * Function Name: wakeupModule
 170:BrightnessCommManager.c **** ********************************************************************************
 171:BrightnessCommManager.c **** *
 172:BrightnessCommManager.c **** * Summary:
 173:BrightnessCommManager.c **** *  Called in WakeupISR, sets the flag to indicate that an edge found on UART_Rx.
 174:BrightnessCommManager.c **** *
 175:BrightnessCommManager.c **** * Parameters:
 176:BrightnessCommManager.c **** *  None
 177:BrightnessCommManager.c **** *
 178:BrightnessCommManager.c **** * Return:
 179:BrightnessCommManager.c **** *  None
 180:BrightnessCommManager.c **** *
 181:BrightnessCommManager.c **** *******************************************************************************/
 182:BrightnessCommManager.c **** void isThereHighLowTransitionFromUART(void)
 183:BrightnessCommManager.c **** {
 184:BrightnessCommManager.c ****     //WakeupISR_ClearPending();
 185:BrightnessCommManager.c ****     //UART_Rx_ClearInterrupt();
 186:BrightnessCommManager.c ****     
 187:BrightnessCommManager.c ****     bIsCommunicationTrigger = TRUE;
 188:BrightnessCommManager.c **** }
 189:BrightnessCommManager.c **** 
 190:BrightnessCommManager.c **** /*******************************************************************************
 191:BrightnessCommManager.c **** * Function Name: processTimeoutTimerRoutine
 192:BrightnessCommManager.c **** ********************************************************************************
 193:BrightnessCommManager.c **** *
 194:BrightnessCommManager.c **** * Summary:
 195:BrightnessCommManager.c **** *  Called in CommTimeoutISR(), counts up while waiting for the next brightness
 196:BrightnessCommManager.c **** *  packet. If the timer limit is reached, then the LED is shut off and timeout
 197:BrightnessCommManager.c **** *  flag is set to put the module to sleep.
 198:BrightnessCommManager.c **** *
 199:BrightnessCommManager.c **** * Parameters:
 200:BrightnessCommManager.c **** *  None.
 201:BrightnessCommManager.c **** *
 202:BrightnessCommManager.c **** * Return:
ARM GAS  C:\Users\kylep\AppData\Local\Temp\ccH20siU.s 			page 5


 203:BrightnessCommManager.c **** *  None.
 204:BrightnessCommManager.c **** *
 205:BrightnessCommManager.c **** *******************************************************************************/
 206:BrightnessCommManager.c **** void processTimeoutTimerRoutine(void)
 207:BrightnessCommManager.c **** {
 208:BrightnessCommManager.c ****     CommTimeoutISR_ClearPending();
 209:BrightnessCommManager.c ****     TimeoutTimer_ClearInterrupt(TimeoutTimer_INTR_MASK_TC);
 210:BrightnessCommManager.c **** 
 211:BrightnessCommManager.c ****     if(getDriverID() == HEAD_MODULE_ID)
 212:BrightnessCommManager.c ****     {
 213:BrightnessCommManager.c ****             if(timeOutCounter<HEAD_BOARD_TIMEOUT)
 214:BrightnessCommManager.c ****             {
 215:BrightnessCommManager.c ****                 timeOutCounter++;
 216:BrightnessCommManager.c ****             }
 217:BrightnessCommManager.c ****             else
 218:BrightnessCommManager.c ****             {
 219:BrightnessCommManager.c ****                 TimeoutTimer_Stop();
 220:BrightnessCommManager.c ****                 timeOutCounter = 0;
 221:BrightnessCommManager.c ****                 bCommunicationTimeOut = TRUE;
 222:BrightnessCommManager.c ****             }
 223:BrightnessCommManager.c ****     }
 224:BrightnessCommManager.c ****     else
 225:BrightnessCommManager.c ****     {
 226:BrightnessCommManager.c ****          if(timeOutCounter<TIMEOUT_LIMIT_IN_MILLISECONDS)
 227:BrightnessCommManager.c ****         {
 228:BrightnessCommManager.c ****             timeOutCounter++;
 229:BrightnessCommManager.c ****         }
 230:BrightnessCommManager.c ****         else
 231:BrightnessCommManager.c ****         {
 232:BrightnessCommManager.c ****             TimeoutTimer_Stop();
 233:BrightnessCommManager.c ****             timeOutCounter = 0;
 234:BrightnessCommManager.c ****             bCommunicationTimeOut = TRUE;
 235:BrightnessCommManager.c ****         }
 236:BrightnessCommManager.c ****     }
 237:BrightnessCommManager.c **** 
 238:BrightnessCommManager.c **** }
 239:BrightnessCommManager.c **** 
 240:BrightnessCommManager.c **** /*******************************************************************************
 241:BrightnessCommManager.c **** * Function Name: processBrightnessByteReceivedHandler
 242:BrightnessCommManager.c **** ********************************************************************************
 243:BrightnessCommManager.c **** *
 244:BrightnessCommManager.c **** * Summary:
 245:BrightnessCommManager.c **** *  Called in UART_Out_ISR(), triggers when a byte is received from the controller.
 246:BrightnessCommManager.c **** *
 247:BrightnessCommManager.c **** * Parameters:
 248:BrightnessCommManager.c **** *  None.
 249:BrightnessCommManager.c **** *
 250:BrightnessCommManager.c **** * Return:
 251:BrightnessCommManager.c **** *  None.
 252:BrightnessCommManager.c **** *
 253:BrightnessCommManager.c **** *******************************************************************************/
 254:BrightnessCommManager.c **** void processBrightnessByteReceivedHandler(void)
 255:BrightnessCommManager.c **** {
 256:BrightnessCommManager.c ****     
 257:BrightnessCommManager.c ****     uint8 dataByte = 0;
 258:BrightnessCommManager.c ****     uint32 interruptSource = 0;
 259:BrightnessCommManager.c ****     //do
ARM GAS  C:\Users\kylep\AppData\Local\Temp\ccH20siU.s 			page 6


 260:BrightnessCommManager.c ****     //{
 261:BrightnessCommManager.c ****     //    dataByte = UART_LED_GetChar();
 262:BrightnessCommManager.c ****     //    detectPacket(dataByte);
 263:BrightnessCommManager.c ****         
 264:BrightnessCommManager.c ****     //}while(UART_LED_ReadRxStatus() & UART_LED_RX_STS_FIFO_NOTEMPTY);
 265:BrightnessCommManager.c ****     do
 266:BrightnessCommManager.c ****     {
 267:BrightnessCommManager.c ****         dataByte = (uint8)(UART_LED_UartGetByte() & 0xFF);
 268:BrightnessCommManager.c ****         detectPacket(dataByte);
 269:BrightnessCommManager.c ****     }while(UART_LED_SpiUartGetRxBufferSize() > 0);
 270:BrightnessCommManager.c ****     
 271:BrightnessCommManager.c ****     interruptSource = UART_LED_GetRxInterruptSourceMasked();
 272:BrightnessCommManager.c ****     UART_LED_ClearRxInterruptSource(interruptSource);
 273:BrightnessCommManager.c **** }
 274:BrightnessCommManager.c **** 
 275:BrightnessCommManager.c **** void timeoutDefaultBrightness(const uint8 * nonVolatileMemoryArray)
 276:BrightnessCommManager.c **** {
 277:BrightnessCommManager.c ****     uint8 currentRegulatedBrightness = 0;
 278:BrightnessCommManager.c ****     uint8 driver_ID = 0; 
 279:BrightnessCommManager.c ****     static uint16 loopIterator = 0;
 280:BrightnessCommManager.c ****     
 281:BrightnessCommManager.c ****     driver_ID = getDriverID();
 282:BrightnessCommManager.c ****     if(driver_ID == HEAD_MODULE_ID)
 283:BrightnessCommManager.c ****     {
 284:BrightnessCommManager.c ****         if(ifPowerUp == FALSE)
 285:BrightnessCommManager.c ****         {
 286:BrightnessCommManager.c ****             ifPowerUp = TRUE;
 287:BrightnessCommManager.c ****             CyDelay(250);
 288:BrightnessCommManager.c ****             //for(loopIterator = 0; loopIterator<nonVolatileMemoryArray[0]; loopIterator+=32)
 289:BrightnessCommManager.c ****             //{
 290:BrightnessCommManager.c ****             //    currentRegulatedBrightness = updateBrightnessLevel(loopIterator, TRUE);
 291:BrightnessCommManager.c ****             //    UART_LED_PutChar('~');
 292:BrightnessCommManager.c ****             //    UART_LED_PutChar('B');
 293:BrightnessCommManager.c ****             //    UART_LED_PutChar(currentRegulatedBrightness);
 294:BrightnessCommManager.c ****             //    UART_LED_PutChar(currentRegulatedBrightness);
 295:BrightnessCommManager.c ****             //    UART_LED_PutChar(currentRegulatedBrightness);
 296:BrightnessCommManager.c ****             //    UART_LED_PutChar(currentRegulatedBrightness);
 297:BrightnessCommManager.c ****             //    UART_LED_PutChar(currentRegulatedBrightness);
 298:BrightnessCommManager.c ****             //    UART_LED_PutChar(currentRegulatedBrightness);
 299:BrightnessCommManager.c ****             //    UART_LED_PutChar(currentRegulatedBrightness);
 300:BrightnessCommManager.c ****             //    UART_LED_PutChar(currentRegulatedBrightness);
 301:BrightnessCommManager.c ****             //    UART_LED_PutChar(0x0D);
 302:BrightnessCommManager.c ****             //    UART_LED_PutChar(0x0A);
 303:BrightnessCommManager.c ****             //    CyDelayUs(3000);
 304:BrightnessCommManager.c ****             //}
 305:BrightnessCommManager.c ****         }
 306:BrightnessCommManager.c ****         currentRegulatedBrightness = updateBrightnessLevel(nonVolatileMemoryArray[0], TRUE);
 307:BrightnessCommManager.c ****         //currentRegulatedBrightness = updateBrightnessLevel(0, TRUE);
 308:BrightnessCommManager.c ****        // UART_LED_PutChar('~');
 309:BrightnessCommManager.c ****        // UART_LED_PutChar('B');
 310:BrightnessCommManager.c ****        // UART_LED_PutChar(currentRegulatedBrightness);
 311:BrightnessCommManager.c ****        // UART_LED_PutChar(currentRegulatedBrightness);
 312:BrightnessCommManager.c ****        // UART_LED_PutChar(currentRegulatedBrightness);
 313:BrightnessCommManager.c ****        // UART_LED_PutChar(currentRegulatedBrightness);
 314:BrightnessCommManager.c ****        // UART_LED_PutChar(currentRegulatedBrightness);
 315:BrightnessCommManager.c ****        // UART_LED_PutChar(currentRegulatedBrightness);
 316:BrightnessCommManager.c ****        // UART_LED_PutChar(currentRegulatedBrightness);
ARM GAS  C:\Users\kylep\AppData\Local\Temp\ccH20siU.s 			page 7


 317:BrightnessCommManager.c ****        // UART_LED_PutChar(currentRegulatedBrightness);
 318:BrightnessCommManager.c ****        // UART_LED_PutChar(0x0D);
 319:BrightnessCommManager.c ****        // UART_LED_PutChar(0x0A);        
 320:BrightnessCommManager.c ****     }
 321:BrightnessCommManager.c **** }
 322:BrightnessCommManager.c **** 
 323:BrightnessCommManager.c **** ////////////////////////////////////Driver Count Initialization Functions//////////////////////////
 324:BrightnessCommManager.c **** uint8 isDriverCountReceived(void)
 325:BrightnessCommManager.c **** {
 326:BrightnessCommManager.c ****     return bDriverCountReceived;
 327:BrightnessCommManager.c **** }
 328:BrightnessCommManager.c **** 
 329:BrightnessCommManager.c **** void setDriverCountReceived(void)
 330:BrightnessCommManager.c **** {
 331:BrightnessCommManager.c ****     bDriverCountReceived = TRUE;
 332:BrightnessCommManager.c **** }
 333:BrightnessCommManager.c **** 
 334:BrightnessCommManager.c **** /*******************************************************************************
 335:BrightnessCommManager.c **** * Function Name: assignDriverIDs
 336:BrightnessCommManager.c **** ********************************************************************************
 337:BrightnessCommManager.c **** *
 338:BrightnessCommManager.c **** * Summary:
 339:BrightnessCommManager.c **** *  Sends out the driver count packet. Only the head module executes this.
 340:BrightnessCommManager.c **** *
 341:BrightnessCommManager.c **** * Parameters:
 342:BrightnessCommManager.c **** *  None.
 343:BrightnessCommManager.c **** *
 344:BrightnessCommManager.c **** * Return:
 345:BrightnessCommManager.c **** *  None.
 346:BrightnessCommManager.c **** *
 347:BrightnessCommManager.c **** *******************************************************************************/
 348:BrightnessCommManager.c **** void assignDriverIDs(void)
 349:BrightnessCommManager.c **** {
 350:BrightnessCommManager.c ****     uint8 driverCountPacket[MAX_PACKET_SIZE];
 351:BrightnessCommManager.c ****     
 352:BrightnessCommManager.c ****     if(getDriverID() != HEAD_MODULE_ID)
 353:BrightnessCommManager.c ****         return;
 354:BrightnessCommManager.c ****     
 355:BrightnessCommManager.c ****     memset(driverCountPacket, 0, MAX_PACKET_SIZE);
 356:BrightnessCommManager.c ****     driverCountPacket[HEADER_START_INDEX] = PacketList[1].HEADER_BYTE;
 357:BrightnessCommManager.c ****     driverCountPacket[HEADER_START_INDEX + 1] = PacketList[1].PACKET_TYPE;
 358:BrightnessCommManager.c ****     driverCountPacket[PAYLOAD_START_INDEX + PacketList[1].PAYLOAD_SIZE]
 359:BrightnessCommManager.c ****         = PacketList[1].EOP_CARRIAGE_RETURN;
 360:BrightnessCommManager.c ****     driverCountPacket[PAYLOAD_START_INDEX + PacketList[1].PAYLOAD_SIZE + 1]
 361:BrightnessCommManager.c ****         = PacketList[1].EOP_LINE_FEED;
 362:BrightnessCommManager.c ****     driverCountPacket[PAYLOAD_START_INDEX] = 1;
 363:BrightnessCommManager.c ****     driverCountPacket[PAYLOAD_START_INDEX + 1] = HEAD_MODULE_ID;
 364:BrightnessCommManager.c ****     
 365:BrightnessCommManager.c ****     //UART_LED_PutArray(driverCountPacket, MAX_PACKET_SIZE);
 366:BrightnessCommManager.c **** }
 367:BrightnessCommManager.c **** 
 368:BrightnessCommManager.c **** /**********DEFINED LOCAL FUNCTIONS**********/
 369:BrightnessCommManager.c **** 
 370:BrightnessCommManager.c **** ////////////////////////////////////Recieve from controller or previous module functions///////////
 371:BrightnessCommManager.c **** 
 372:BrightnessCommManager.c **** /*******************************************************************************
 373:BrightnessCommManager.c **** * Function Name: detectPacket
ARM GAS  C:\Users\kylep\AppData\Local\Temp\ccH20siU.s 			page 8


 374:BrightnessCommManager.c **** ********************************************************************************
 375:BrightnessCommManager.c **** *
 376:BrightnessCommManager.c **** * Summary:
 377:BrightnessCommManager.c **** *  Determines if the incoming byte belongs to a valid packet. If the packet is
 378:BrightnessCommManager.c **** *  valid, then the payload is processed.
 379:BrightnessCommManager.c **** *
 380:BrightnessCommManager.c **** * Parameters:
 381:BrightnessCommManager.c **** *  dataByte: The next byte to check in the packet
 382:BrightnessCommManager.c **** *
 383:BrightnessCommManager.c **** * Return:
 384:BrightnessCommManager.c **** *  None.
 385:BrightnessCommManager.c **** *
 386:BrightnessCommManager.c **** *******************************************************************************/
 387:BrightnessCommManager.c **** static void detectPacket(uint8 dataByte)
 388:BrightnessCommManager.c **** {
 389:BrightnessCommManager.c ****     static uint8 packet[MAX_PACKET_SIZE];   
 390:BrightnessCommManager.c ****     static enum PacketState currentState = HEADER_STATE;
 391:BrightnessCommManager.c ****     static uint8 currentPacketIndex = HEADER_START_INDEX;
 392:BrightnessCommManager.c ****     static uint8 dataTypeIndex = 0;
 393:BrightnessCommManager.c ****     uint8 loopIndex = 0;
 394:BrightnessCommManager.c ****     
 395:BrightnessCommManager.c ****     switch(currentState)
 396:BrightnessCommManager.c ****     {
 397:BrightnessCommManager.c ****         case HEADER_STATE:
 398:BrightnessCommManager.c ****             if((currentPacketIndex == HEADER_START_INDEX) &&
 399:BrightnessCommManager.c ****                 (dataByte == PacketList[dataTypeIndex].HEADER_BYTE))
 400:BrightnessCommManager.c ****             {
 401:BrightnessCommManager.c ****                 packet[currentPacketIndex] = dataByte;
 402:BrightnessCommManager.c ****                 currentPacketIndex++;
 403:BrightnessCommManager.c ****             }
 404:BrightnessCommManager.c ****             else if(currentPacketIndex == (HEADER_START_INDEX + 1))
 405:BrightnessCommManager.c ****             {
 406:BrightnessCommManager.c ****                 for(loopIndex = 0; loopIndex < PACKET_TYPE_COUNT; loopIndex++)
 407:BrightnessCommManager.c ****                 {
 408:BrightnessCommManager.c ****                     if(dataByte == PacketList[loopIndex].PACKET_TYPE)
 409:BrightnessCommManager.c ****                     {
 410:BrightnessCommManager.c ****                         dataTypeIndex = loopIndex;                        
 411:BrightnessCommManager.c ****                         packet[currentPacketIndex] = dataByte;
 412:BrightnessCommManager.c ****                         currentPacketIndex++;
 413:BrightnessCommManager.c ****                         currentState = PAYLOAD_STATE;
 414:BrightnessCommManager.c ****                         break;
 415:BrightnessCommManager.c ****                     }
 416:BrightnessCommManager.c ****                 }
 417:BrightnessCommManager.c ****                 
 418:BrightnessCommManager.c ****                 if(loopIndex >= PACKET_TYPE_COUNT)
 419:BrightnessCommManager.c ****                 {
 420:BrightnessCommManager.c ****                     currentPacketIndex = HEADER_START_INDEX;
 421:BrightnessCommManager.c ****                     dataTypeIndex = 0;
 422:BrightnessCommManager.c ****                 }
 423:BrightnessCommManager.c ****             }
 424:BrightnessCommManager.c ****             else
 425:BrightnessCommManager.c ****             {
 426:BrightnessCommManager.c ****                 currentPacketIndex = HEADER_START_INDEX;
 427:BrightnessCommManager.c ****                 dataTypeIndex = 0;
 428:BrightnessCommManager.c ****             }
 429:BrightnessCommManager.c ****             break;
 430:BrightnessCommManager.c ****         case PAYLOAD_STATE:
ARM GAS  C:\Users\kylep\AppData\Local\Temp\ccH20siU.s 			page 9


 431:BrightnessCommManager.c ****             packet[currentPacketIndex] = dataByte;
 432:BrightnessCommManager.c ****             currentPacketIndex++;
 433:BrightnessCommManager.c ****             
 434:BrightnessCommManager.c ****             if(currentPacketIndex >= (PAYLOAD_START_INDEX + PacketList[dataTypeIndex].PAYLOAD_SIZE)
 435:BrightnessCommManager.c ****                 currentState = EOP_STATE;
 436:BrightnessCommManager.c ****             break;
 437:BrightnessCommManager.c ****         case EOP_STATE:
 438:BrightnessCommManager.c ****             if((currentPacketIndex == (PAYLOAD_START_INDEX + PacketList[dataTypeIndex].PAYLOAD_SIZE
 439:BrightnessCommManager.c ****                 (dataByte == PacketList[dataTypeIndex].EOP_CARRIAGE_RETURN))
 440:BrightnessCommManager.c ****             {
 441:BrightnessCommManager.c ****                 packet[currentPacketIndex] = dataByte;
 442:BrightnessCommManager.c ****                 currentPacketIndex++;
 443:BrightnessCommManager.c ****             }
 444:BrightnessCommManager.c ****             else if((currentPacketIndex == (PAYLOAD_START_INDEX + PacketList[dataTypeIndex].PAYLOAD
 445:BrightnessCommManager.c ****                     && (dataByte == PacketList[dataTypeIndex].EOP_LINE_FEED))
 446:BrightnessCommManager.c ****             {
 447:BrightnessCommManager.c ****                 packet[currentPacketIndex] = dataByte;
 448:BrightnessCommManager.c ****                 
 449:BrightnessCommManager.c ****                 TimeoutTimer_Stop();
 450:BrightnessCommManager.c ****                 timeOutCounter = 0;
 451:BrightnessCommManager.c ****                 bCommunicationTimeOut = FALSE;
 452:BrightnessCommManager.c ****                 TimeoutTimer_Start();
 453:BrightnessCommManager.c ****                 
 454:BrightnessCommManager.c **** 				if(dataTypeIndex == 0)
 455:BrightnessCommManager.c ****                 {
 456:BrightnessCommManager.c ****                     processOutputSelectUart();
 457:BrightnessCommManager.c ****                     processBrightnessPacket(packet, MAX_PACKET_SIZE - 1, FALSE);
 458:BrightnessCommManager.c ****                 }
 459:BrightnessCommManager.c **** 				else if(dataTypeIndex == 1)
 460:BrightnessCommManager.c ****                 {
 461:BrightnessCommManager.c ****                     processOutputSelectUart();
 462:BrightnessCommManager.c ****                     processDriverCountPacket(packet, MAX_PACKET_SIZE);
 463:BrightnessCommManager.c ****                 }
 464:BrightnessCommManager.c ****                 else if (dataTypeIndex == 2)
 465:BrightnessCommManager.c ****                 {
 466:BrightnessCommManager.c ****                     memcpy(rxPacket.bytes, packet, 13);
 467:BrightnessCommManager.c ****                 }
 468:BrightnessCommManager.c ****                 else if(dataTypeIndex == 3)
 469:BrightnessCommManager.c ****                 {
 470:BrightnessCommManager.c ****                     processOutputSelectUart();
 471:BrightnessCommManager.c ****                     saveStateBar(getVolatileBarStateMemory(), getNonVolatileBarStateMemory(), packe
 472:BrightnessCommManager.c ****                     //
 473:BrightnessCommManager.c ****                 }
 474:BrightnessCommManager.c ****                 else if(dataTypeIndex == 4)
 475:BrightnessCommManager.c ****                 {                   
 476:BrightnessCommManager.c ****                     processLowPowerRequest(packet, MAX_PACKET_SIZE-8);
 477:BrightnessCommManager.c ****                 }
 478:BrightnessCommManager.c ****                 else if(dataTypeIndex == 5)
 479:BrightnessCommManager.c ****                 {
 480:BrightnessCommManager.c ****                     processOutputSelectUart();
 481:BrightnessCommManager.c ****                     processReinitlizationPacket(packet, MAX_PACKET_SIZE-6);
 482:BrightnessCommManager.c ****                     processCalibrationPacket();
 483:BrightnessCommManager.c ****                 }
 484:BrightnessCommManager.c ****                 else
 485:BrightnessCommManager.c ****                 {
 486:BrightnessCommManager.c ****                     processOutputSelectUart();
 487:BrightnessCommManager.c ****                     processBrightnessPacket(packet, MAX_PACKET_SIZE - 1, TRUE);
ARM GAS  C:\Users\kylep\AppData\Local\Temp\ccH20siU.s 			page 10


 488:BrightnessCommManager.c ****                 }
 489:BrightnessCommManager.c ****                 
 490:BrightnessCommManager.c ****                 currentPacketIndex = HEADER_START_INDEX;
 491:BrightnessCommManager.c ****                 currentState = HEADER_STATE;
 492:BrightnessCommManager.c ****                 dataTypeIndex = 0;
 493:BrightnessCommManager.c ****             }
 494:BrightnessCommManager.c ****             else
 495:BrightnessCommManager.c ****             {
 496:BrightnessCommManager.c ****                 currentPacketIndex = HEADER_START_INDEX;
 497:BrightnessCommManager.c ****                 currentState = HEADER_STATE;
 498:BrightnessCommManager.c ****                 dataTypeIndex = 0;
 499:BrightnessCommManager.c ****             }
 500:BrightnessCommManager.c ****             break;
 501:BrightnessCommManager.c ****     }
 502:BrightnessCommManager.c **** }
 503:BrightnessCommManager.c **** 
 504:BrightnessCommManager.c **** /*******************************************************************************
 505:BrightnessCommManager.c **** * Function Name: processDriverCountPacket
 506:BrightnessCommManager.c **** ********************************************************************************
 507:BrightnessCommManager.c **** *
 508:BrightnessCommManager.c **** * Summary:
 509:BrightnessCommManager.c **** *  Uses packet to send an ack to the previous module, set the ID for this driver, 
 510:BrightnessCommManager.c **** *  send the packet to the next module, and start the timer to wait for an ack from
 511:BrightnessCommManager.c **** *  the next module.
 512:BrightnessCommManager.c **** *
 513:BrightnessCommManager.c **** * Parameters:
 514:BrightnessCommManager.c **** *  packet: The reference to the driver count packet to process.
 515:BrightnessCommManager.c **** *  length: The byte count for this packet.
 516:BrightnessCommManager.c **** *
 517:BrightnessCommManager.c **** * Return:
 518:BrightnessCommManager.c **** *  SUCCESS for valid inputs, FAILURE otherwise
 519:BrightnessCommManager.c **** *
 520:BrightnessCommManager.c **** *******************************************************************************/
 521:BrightnessCommManager.c **** static uint8 processLowPowerRequest(uint8* packet, uint8 length)
 522:BrightnessCommManager.c **** {
  27              		.loc 1 522 0
  28              		.cfi_startproc
  29              		@ args = 0, pretend = 0, frame = 0
  30              		@ frame_needed = 0, uses_anonymous_args = 0
  31              	.LVL0:
  32 0000 10B5     		push	{r4, lr}
  33              		.cfi_def_cfa_offset 8
  34              		.cfi_offset 4, -8
  35              		.cfi_offset 14, -4
 523:BrightnessCommManager.c ****     static uint8 driver_ID = 0;
 524:BrightnessCommManager.c ****     //uint8 currentDriverCount = 0;
 525:BrightnessCommManager.c ****     
 526:BrightnessCommManager.c ****     if(packet == NULL || length != MAX_PACKET_SIZE-8)
  36              		.loc 1 526 0
  37 0002 0028     		cmp	r0, #0
  38 0004 03D0     		beq	.L2
  39              		.loc 1 526 0 is_stmt 0 discriminator 1
  40 0006 0529     		cmp	r1, #5
  41 0008 01D1     		bne	.L2
 527:BrightnessCommManager.c ****         return FAILURE;
 528:BrightnessCommManager.c ****     
 529:BrightnessCommManager.c ****     driver_ID = getDriverID();
ARM GAS  C:\Users\kylep\AppData\Local\Temp\ccH20siU.s 			page 11


  42              		.loc 1 529 0 is_stmt 1
  43 000a FFF7FEFF 		bl	getDriverID
  44              	.LVL1:
  45              	.L2:
 530:BrightnessCommManager.c **** 
 531:BrightnessCommManager.c ****     if(driver_ID == HEAD_MODULE_ID)
 532:BrightnessCommManager.c ****     {
 533:BrightnessCommManager.c ****         //UART_LED_PutChar('~');
 534:BrightnessCommManager.c ****         //UART_LED_PutChar('L');
 535:BrightnessCommManager.c ****         //UART_LED_PutChar(01);
 536:BrightnessCommManager.c ****         //UART_LED_PutChar(0x0D);
 537:BrightnessCommManager.c ****         //UART_LED_PutChar(0x0A);
 538:BrightnessCommManager.c ****         //UART_LED_Control_Write(2);
 539:BrightnessCommManager.c ****     }    
 540:BrightnessCommManager.c ****     
 541:BrightnessCommManager.c ****     return TRUE;
 542:BrightnessCommManager.c **** }
  46              		.loc 1 542 0
  47 000e 0120     		movs	r0, #1
  48              		@ sp needed
  49 0010 10BD     		pop	{r4, pc}
  50              		.cfi_endproc
  51              	.LFE43:
  52              		.size	processLowPowerRequest, .-processLowPowerRequest
  53 0012 C046     		.section	.text.processOutputSelectUart,"ax",%progbits
  54              		.align	2
  55              		.code	16
  56              		.thumb_func
  57              		.type	processOutputSelectUart, %function
  58              	processOutputSelectUart:
  59              	.LFB50:
 543:BrightnessCommManager.c **** 
 544:BrightnessCommManager.c **** /*******************************************************************************
 545:BrightnessCommManager.c **** * Function Name: processDriverCountPacket
 546:BrightnessCommManager.c **** ********************************************************************************
 547:BrightnessCommManager.c **** *
 548:BrightnessCommManager.c **** * Summary:
 549:BrightnessCommManager.c **** *  Uses packet to send an ack to the previous module, set the ID for this driver, 
 550:BrightnessCommManager.c **** *  send the packet to the next module, and start the timer to wait for an ack from
 551:BrightnessCommManager.c **** *  the next module.
 552:BrightnessCommManager.c **** *
 553:BrightnessCommManager.c **** * Parameters:
 554:BrightnessCommManager.c **** *  packet: The reference to the driver count packet to process.
 555:BrightnessCommManager.c **** *  length: The byte count for this packet.
 556:BrightnessCommManager.c **** *
 557:BrightnessCommManager.c **** * Return:
 558:BrightnessCommManager.c **** *  SUCCESS for valid inputs, FAILURE otherwise
 559:BrightnessCommManager.c **** *
 560:BrightnessCommManager.c **** *******************************************************************************/
 561:BrightnessCommManager.c **** static uint8 processDriverCountPacket(uint8* packet, uint8 length)
 562:BrightnessCommManager.c **** {
 563:BrightnessCommManager.c ****     static uint8 bReceivedCountPacket = FALSE;
 564:BrightnessCommManager.c ****     uint8 currentDriverCount = 0;
 565:BrightnessCommManager.c ****     uint8 ackPacket[MAX_PACKET_SIZE];
 566:BrightnessCommManager.c ****     uint8 countIndex = 0;
 567:BrightnessCommManager.c ****     
 568:BrightnessCommManager.c ****     if(packet == NULL || length != MAX_PACKET_SIZE)
ARM GAS  C:\Users\kylep\AppData\Local\Temp\ccH20siU.s 			page 12


 569:BrightnessCommManager.c ****         return FAILURE;
 570:BrightnessCommManager.c ****     
 571:BrightnessCommManager.c ****     if(bReceivedCountPacket)
 572:BrightnessCommManager.c ****         return SUCCESS;
 573:BrightnessCommManager.c ****     
 574:BrightnessCommManager.c ****     bReceivedCountPacket = TRUE;
 575:BrightnessCommManager.c ****     memcpy(ackPacket, packet, length);
 576:BrightnessCommManager.c ****     ackPacket[HEADER_START_INDEX + 1] = 'A';
 577:BrightnessCommManager.c ****     
 578:BrightnessCommManager.c ****     for(countIndex = 0; countIndex < 5; countIndex++)
 579:BrightnessCommManager.c ****     {
 580:BrightnessCommManager.c ****         //UART_Temperature_SpiUartPutArray(ackPacket, length);
 581:BrightnessCommManager.c ****     }
 582:BrightnessCommManager.c ****         
 583:BrightnessCommManager.c ****     
 584:BrightnessCommManager.c ****     currentDriverCount = packet[PAYLOAD_START_INDEX] + 1;
 585:BrightnessCommManager.c ****     setIdentityByComm(currentDriverCount);
 586:BrightnessCommManager.c ****     bDriverCountReceived = TRUE;
 587:BrightnessCommManager.c ****     packet[currentDriverCount + PAYLOAD_START_INDEX] = currentDriverCount;
 588:BrightnessCommManager.c ****     packet[PAYLOAD_START_INDEX] = currentDriverCount;
 589:BrightnessCommManager.c ****     setLastDriverPacket(packet, length);
 590:BrightnessCommManager.c ****     //UART_LED_PutArray(packet, length);
 591:BrightnessCommManager.c ****     AckTimer_Start();
 592:BrightnessCommManager.c ****     
 593:BrightnessCommManager.c ****     return SUCCESS;
 594:BrightnessCommManager.c **** }
 595:BrightnessCommManager.c **** 
 596:BrightnessCommManager.c **** /*******************************************************************************
 597:BrightnessCommManager.c **** * Function Name: processDriverCountPacket
 598:BrightnessCommManager.c **** ********************************************************************************
 599:BrightnessCommManager.c **** *
 600:BrightnessCommManager.c **** * Summary:
 601:BrightnessCommManager.c **** *  Uses packet to send an ack to the previous module, set the ID for this driver, 
 602:BrightnessCommManager.c **** *  send the packet to the next module, and start the timer to wait for an ack from
 603:BrightnessCommManager.c **** *  the next module.
 604:BrightnessCommManager.c **** *
 605:BrightnessCommManager.c **** * Parameters:
 606:BrightnessCommManager.c **** *  packet: The reference to the driver count packet to process.
 607:BrightnessCommManager.c **** *  length: The byte count for this packet.
 608:BrightnessCommManager.c **** *
 609:BrightnessCommManager.c **** * Return:
 610:BrightnessCommManager.c **** *  SUCCESS for valid inputs, FAILURE otherwise
 611:BrightnessCommManager.c **** *
 612:BrightnessCommManager.c **** *******************************************************************************/
 613:BrightnessCommManager.c **** static uint8 processReinitlizationPacket(uint8* packet, uint8 length)
 614:BrightnessCommManager.c **** {
 615:BrightnessCommManager.c ****     
 616:BrightnessCommManager.c ****     //if(length != MAX_PACKET_SIZE-6)
 617:BrightnessCommManager.c ****     //    return FAILURE;
 618:BrightnessCommManager.c ****     
 619:BrightnessCommManager.c ****     clearInitializeAlreadyEEPROM();
 620:BrightnessCommManager.c ****     //UART_LED_PutArray(packet, length);
 621:BrightnessCommManager.c ****     return SUCCESS;
 622:BrightnessCommManager.c **** }
 623:BrightnessCommManager.c **** 
 624:BrightnessCommManager.c **** /*******************************************************************************
 625:BrightnessCommManager.c **** * Function Name: processBrightnessPacket
ARM GAS  C:\Users\kylep\AppData\Local\Temp\ccH20siU.s 			page 13


 626:BrightnessCommManager.c **** ********************************************************************************
 627:BrightnessCommManager.c **** *
 628:BrightnessCommManager.c **** * Summary:
 629:BrightnessCommManager.c **** *  Uses the packet to determine the next brightness level for all modules, send the
 630:BrightnessCommManager.c **** *  packet to the next module, and start the temperature sampling timer if this module
 631:BrightnessCommManager.c **** *  is the last module in the chain.
 632:BrightnessCommManager.c **** *
 633:BrightnessCommManager.c **** * Parameters:
 634:BrightnessCommManager.c **** *  packet: The reference to the brightness packet to process.
 635:BrightnessCommManager.c **** *  length: The byte count for this packet.
 636:BrightnessCommManager.c **** *
 637:BrightnessCommManager.c **** * Return:
 638:BrightnessCommManager.c **** *  SUCCESS for valid inputs, FAILURE otherwise
 639:BrightnessCommManager.c **** *
 640:BrightnessCommManager.c **** *******************************************************************************/
 641:BrightnessCommManager.c **** static uint8 processBrightnessPacket(uint8* packet, uint8 length, uint8 bFlashPattern)
 642:BrightnessCommManager.c **** {
 643:BrightnessCommManager.c ****     static uint8 bFirstBrightnessPacket = TRUE;
 644:BrightnessCommManager.c ****     uint8 currentBrightness = 0;
 645:BrightnessCommManager.c ****     uint8 driver_ID = 0;
 646:BrightnessCommManager.c ****     
 647:BrightnessCommManager.c ****     if(packet == NULL || length != (MAX_PACKET_SIZE - 1))
 648:BrightnessCommManager.c ****         return FAILURE;
 649:BrightnessCommManager.c ****     
 650:BrightnessCommManager.c ****     if(bFlashPattern != TRUE && bFlashPattern != FALSE)
 651:BrightnessCommManager.c ****         return FAILURE;
 652:BrightnessCommManager.c ****     
 653:BrightnessCommManager.c ****     driver_ID = getDriverID();
 654:BrightnessCommManager.c ****     if((driver_ID < HEAD_MODULE_ID) || (driver_ID > MAX_DRIVER_COUNT))
 655:BrightnessCommManager.c ****         return FAILURE;
 656:BrightnessCommManager.c ****     
 657:BrightnessCommManager.c ****     //TimeoutTimer_Stop();
 658:BrightnessCommManager.c ****     
 659:BrightnessCommManager.c ****     if(bFirstBrightnessPacket)
 660:BrightnessCommManager.c ****     {
 661:BrightnessCommManager.c ****         bFirstBrightnessPacket = FALSE;           
 662:BrightnessCommManager.c ****         //SamplingTimer_Start();
 663:BrightnessCommManager.c ****     }
 664:BrightnessCommManager.c ****     
 665:BrightnessCommManager.c ****     if(isReadyToSendNextBrightnessPacket() == TRUE)
 666:BrightnessCommManager.c ****     {
 667:BrightnessCommManager.c ****         if(driver_ID == 1)
 668:BrightnessCommManager.c ****         {
 669:BrightnessCommManager.c ****             if(bFlashPattern)
 670:BrightnessCommManager.c ****                 updateBrightnessLevel(packet[driver_ID + PAYLOAD_START_INDEX - 1], FALSE);
 671:BrightnessCommManager.c ****             else
 672:BrightnessCommManager.c ****             {
 673:BrightnessCommManager.c ****                 currentBrightness =
 674:BrightnessCommManager.c ****                     updateBrightnessLevel(packet[driver_ID + PAYLOAD_START_INDEX - 1], TRUE);
 675:BrightnessCommManager.c ****                 memset(&packet[PAYLOAD_START_INDEX], currentBrightness, MAX_DRIVER_COUNT);
 676:BrightnessCommManager.c ****             }
 677:BrightnessCommManager.c ****             //UART_LED_PutArray(packet, length);
 678:BrightnessCommManager.c ****         }
 679:BrightnessCommManager.c ****         else
 680:BrightnessCommManager.c ****         {
 681:BrightnessCommManager.c ****             updateBrightnessLevel(packet[driver_ID + PAYLOAD_START_INDEX - 1], FALSE);
 682:BrightnessCommManager.c ****         }
ARM GAS  C:\Users\kylep\AppData\Local\Temp\ccH20siU.s 			page 14


 683:BrightnessCommManager.c ****     }
 684:BrightnessCommManager.c ****     //TimeoutTimer_Start();
 685:BrightnessCommManager.c ****     
 686:BrightnessCommManager.c ****     return SUCCESS;
 687:BrightnessCommManager.c **** }
 688:BrightnessCommManager.c **** 
 689:BrightnessCommManager.c **** static void saveStateBar(uint8 * volatileMemoryArray, const uint8 * nonVolatileMemoryArray, uint8* 
 690:BrightnessCommManager.c **** {
 691:BrightnessCommManager.c ****     static uint8 driver_ID = 0;
 692:BrightnessCommManager.c ****     
 693:BrightnessCommManager.c ****     driver_ID = getDriverID();
 694:BrightnessCommManager.c ****     if(driver_ID == HEAD_BOARD)
 695:BrightnessCommManager.c ****     {        
 696:BrightnessCommManager.c ****         //UART_LED_PutArray(packet, 7);
 697:BrightnessCommManager.c ****     }
 698:BrightnessCommManager.c ****     volatileMemoryArray[0] = packet[driver_ID + PAYLOAD_START_INDEX - 1];
 699:BrightnessCommManager.c ****     EmEEPROM_Write(volatileMemoryArray,nonVolatileMemoryArray,1);
 700:BrightnessCommManager.c ****     
 701:BrightnessCommManager.c ****     volatileMemoryArray[1] = packet[3];
 702:BrightnessCommManager.c ****     EmEEPROM_Write(&volatileMemoryArray[1],&nonVolatileMemoryArray[1],1);
 703:BrightnessCommManager.c **** }
 704:BrightnessCommManager.c **** 
 705:BrightnessCommManager.c **** static void putBarToSleep(void)
 706:BrightnessCommManager.c **** {
 707:BrightnessCommManager.c ****     PWM_Stop();
 708:BrightnessCommManager.c ****     PWM_WriteCompare(0);
 709:BrightnessCommManager.c **** 
 710:BrightnessCommManager.c ****     CommTimeoutISR_Stop();
 711:BrightnessCommManager.c ****     AckTimeoutISR_Stop();
 712:BrightnessCommManager.c ****     
 713:BrightnessCommManager.c ****     SamplingTimerISR_Stop();
 714:BrightnessCommManager.c ****     ADC_SAR_Seq_Stop();
 715:BrightnessCommManager.c ****     ADC_SAR_Seq_StopConvert();
 716:BrightnessCommManager.c ****     
 717:BrightnessCommManager.c ****     UART_LED_ISR_Stop();
 718:BrightnessCommManager.c ****     UART_LED_Stop();
 719:BrightnessCommManager.c ****     
 720:BrightnessCommManager.c ****     //UART_LED_ISR_Stop();
 721:BrightnessCommManager.c ****     
 722:BrightnessCommManager.c ****     //UART_LED_Stop();
 723:BrightnessCommManager.c ****     //WakeupISR_Start();
 724:BrightnessCommManager.c ****     
 725:BrightnessCommManager.c ****     LED_ISR_Stop(); 
 726:BrightnessCommManager.c ****     
 727:BrightnessCommManager.c ****     SamplingTimer_Stop();
 728:BrightnessCommManager.c ****     TimeoutTimer_Stop();
 729:BrightnessCommManager.c **** }
 730:BrightnessCommManager.c **** 
 731:BrightnessCommManager.c **** static void returnFromSleep(void)
 732:BrightnessCommManager.c **** {
 733:BrightnessCommManager.c ****     static const uint8 * nonVolatileMemoryArray;
 734:BrightnessCommManager.c ****     
 735:BrightnessCommManager.c ****     //UART_LED_Control_Write(TRUE);
 736:BrightnessCommManager.c ****     PWM_Enable_Write(FALSE);
 737:BrightnessCommManager.c ****     
 738:BrightnessCommManager.c ****     PWM_Start();
 739:BrightnessCommManager.c ****     PWM_WriteCompare(0);
ARM GAS  C:\Users\kylep\AppData\Local\Temp\ccH20siU.s 			page 15


 740:BrightnessCommManager.c **** 
 741:BrightnessCommManager.c ****     CommTimeoutISR_Start();
 742:BrightnessCommManager.c ****     AckTimeoutISR_Start();
 743:BrightnessCommManager.c ****     
 744:BrightnessCommManager.c ****     SamplingTimerISR_Start();
 745:BrightnessCommManager.c ****     ADC_SAR_Seq_Start();
 746:BrightnessCommManager.c ****     ADC_SAR_Seq_StartConvert();
 747:BrightnessCommManager.c ****     
 748:BrightnessCommManager.c ****     UART_LED_ISR_Start();
 749:BrightnessCommManager.c ****     UART_LED_Start();
 750:BrightnessCommManager.c ****     
 751:BrightnessCommManager.c ****     //UART_LED_ISR_Start();
 752:BrightnessCommManager.c ****     
 753:BrightnessCommManager.c ****     //UART_LED_Start();
 754:BrightnessCommManager.c ****     //WakeupISR_Start();
 755:BrightnessCommManager.c ****     
 756:BrightnessCommManager.c ****     LED_ISR_Start(); 
 757:BrightnessCommManager.c ****     
 758:BrightnessCommManager.c ****     SamplingTimer_Start();
 759:BrightnessCommManager.c ****     TimeoutTimer_Start();
 760:BrightnessCommManager.c ****     
 761:BrightnessCommManager.c ****     EmEEPROM_Start();
 762:BrightnessCommManager.c ****     CyDelay(250);
 763:BrightnessCommManager.c ****     //LED_Output_Write(FALSE);
 764:BrightnessCommManager.c ****     UART_LED_Control_Write(FALSE);
 765:BrightnessCommManager.c ****     
 766:BrightnessCommManager.c ****     nonVolatileMemoryArray = getNonVolatileBarStateMemory();
 767:BrightnessCommManager.c ****     setIdentityByComm(nonVolatileMemoryArray[2]);
 768:BrightnessCommManager.c ****     if(getDriverID()==HEAD_MODULE_ID)
 769:BrightnessCommManager.c ****     {
 770:BrightnessCommManager.c ****         UART_LED_Control_Write(TRUE);
 771:BrightnessCommManager.c ****     }
 772:BrightnessCommManager.c ****     else
 773:BrightnessCommManager.c ****     {
 774:BrightnessCommManager.c ****         UART_LED_Control_Write(FALSE);
 775:BrightnessCommManager.c ****     }
 776:BrightnessCommManager.c **** }
 777:BrightnessCommManager.c **** 
 778:BrightnessCommManager.c **** static void processOutputSelectUart(void)
 779:BrightnessCommManager.c **** {
  60              		.loc 1 779 0
  61              		.cfi_startproc
  62              		@ args = 0, pretend = 0, frame = 0
  63              		@ frame_needed = 0, uses_anonymous_args = 0
  64 0000 10B5     		push	{r4, lr}
  65              		.cfi_def_cfa_offset 8
  66              		.cfi_offset 4, -8
  67              		.cfi_offset 14, -4
 780:BrightnessCommManager.c ****     if(getDriverID() == HEAD_MODULE_ID)
  68              		.loc 1 780 0
  69 0002 FFF7FEFF 		bl	getDriverID
  70              	.LVL2:
 781:BrightnessCommManager.c ****     {
 782:BrightnessCommManager.c ****         //UART_LED_Control_Write(1);
 783:BrightnessCommManager.c ****     }
 784:BrightnessCommManager.c ****     else
 785:BrightnessCommManager.c ****     {
ARM GAS  C:\Users\kylep\AppData\Local\Temp\ccH20siU.s 			page 16


 786:BrightnessCommManager.c ****         //UART_LED_Control_Write(0);
 787:BrightnessCommManager.c ****     }
 788:BrightnessCommManager.c **** }
  71              		.loc 1 788 0
  72              		@ sp needed
  73 0006 10BD     		pop	{r4, pc}
  74              		.cfi_endproc
  75              	.LFE50:
  76              		.size	processOutputSelectUart, .-processOutputSelectUart
  77              		.section	.text.putBarToSleep,"ax",%progbits
  78              		.align	2
  79              		.code	16
  80              		.thumb_func
  81              		.type	putBarToSleep, %function
  82              	putBarToSleep:
  83              	.LFB48:
 706:BrightnessCommManager.c ****     PWM_Stop();
  84              		.loc 1 706 0
  85              		.cfi_startproc
  86              		@ args = 0, pretend = 0, frame = 0
  87              		@ frame_needed = 0, uses_anonymous_args = 0
  88 0000 10B5     		push	{r4, lr}
  89              		.cfi_def_cfa_offset 8
  90              		.cfi_offset 4, -8
  91              		.cfi_offset 14, -4
 707:BrightnessCommManager.c ****     PWM_WriteCompare(0);
  92              		.loc 1 707 0
  93 0002 FFF7FEFF 		bl	PWM_Stop
  94              	.LVL3:
 708:BrightnessCommManager.c **** 
  95              		.loc 1 708 0
  96 0006 0020     		movs	r0, #0
  97 0008 FFF7FEFF 		bl	PWM_WriteCompare
  98              	.LVL4:
 710:BrightnessCommManager.c ****     AckTimeoutISR_Stop();
  99              		.loc 1 710 0
 100 000c FFF7FEFF 		bl	CommTimeoutISR_Stop
 101              	.LVL5:
 711:BrightnessCommManager.c ****     
 102              		.loc 1 711 0
 103 0010 FFF7FEFF 		bl	AckTimeoutISR_Stop
 104              	.LVL6:
 713:BrightnessCommManager.c ****     ADC_SAR_Seq_Stop();
 105              		.loc 1 713 0
 106 0014 FFF7FEFF 		bl	SamplingTimerISR_Stop
 107              	.LVL7:
 714:BrightnessCommManager.c ****     ADC_SAR_Seq_StopConvert();
 108              		.loc 1 714 0
 109 0018 FFF7FEFF 		bl	ADC_SAR_Seq_Stop
 110              	.LVL8:
 715:BrightnessCommManager.c ****     
 111              		.loc 1 715 0
 112 001c FFF7FEFF 		bl	ADC_SAR_Seq_StopConvert
 113              	.LVL9:
 717:BrightnessCommManager.c ****     UART_LED_Stop();
 114              		.loc 1 717 0
 115 0020 FFF7FEFF 		bl	UART_LED_ISR_Stop
ARM GAS  C:\Users\kylep\AppData\Local\Temp\ccH20siU.s 			page 17


 116              	.LVL10:
 718:BrightnessCommManager.c ****     
 117              		.loc 1 718 0
 118 0024 FFF7FEFF 		bl	UART_LED_Stop
 119              	.LVL11:
 725:BrightnessCommManager.c ****     
 120              		.loc 1 725 0
 121 0028 FFF7FEFF 		bl	LED_ISR_Stop
 122              	.LVL12:
 727:BrightnessCommManager.c ****     TimeoutTimer_Stop();
 123              		.loc 1 727 0
 124 002c FFF7FEFF 		bl	SamplingTimer_Stop
 125              	.LVL13:
 728:BrightnessCommManager.c **** }
 126              		.loc 1 728 0
 127 0030 FFF7FEFF 		bl	TimeoutTimer_Stop
 128              	.LVL14:
 729:BrightnessCommManager.c **** 
 129              		.loc 1 729 0
 130              		@ sp needed
 131 0034 10BD     		pop	{r4, pc}
 132              		.cfi_endproc
 133              	.LFE48:
 134              		.size	putBarToSleep, .-putBarToSleep
 135 0036 C046     		.section	.text.processDriverCountPacket,"ax",%progbits
 136              		.align	2
 137              		.code	16
 138              		.thumb_func
 139              		.type	processDriverCountPacket, %function
 140              	processDriverCountPacket:
 141              	.LFB44:
 562:BrightnessCommManager.c ****     static uint8 bReceivedCountPacket = FALSE;
 142              		.loc 1 562 0
 143              		.cfi_startproc
 144              		@ args = 0, pretend = 0, frame = 16
 145              		@ frame_needed = 0, uses_anonymous_args = 0
 146              	.LVL15:
 147 0000 F0B5     		push	{r4, r5, r6, r7, lr}
 148              		.cfi_def_cfa_offset 20
 149              		.cfi_offset 4, -20
 150              		.cfi_offset 5, -16
 151              		.cfi_offset 6, -12
 152              		.cfi_offset 7, -8
 153              		.cfi_offset 14, -4
 154 0002 85B0     		sub	sp, sp, #20
 155              		.cfi_def_cfa_offset 40
 156 0004 0600     		movs	r6, r0
 157 0006 0D00     		movs	r5, r1
 158              	.LVL16:
 568:BrightnessCommManager.c ****         return FAILURE;
 159              		.loc 1 568 0
 160 0008 0028     		cmp	r0, #0
 161 000a 28D0     		beq	.L9
 568:BrightnessCommManager.c ****         return FAILURE;
 162              		.loc 1 568 0 is_stmt 0 discriminator 1
 163 000c 0D29     		cmp	r1, #13
 164 000e 28D1     		bne	.L10
ARM GAS  C:\Users\kylep\AppData\Local\Temp\ccH20siU.s 			page 18


 571:BrightnessCommManager.c ****         return SUCCESS;
 165              		.loc 1 571 0 is_stmt 1
 166 0010 174B     		ldr	r3, .L12
 167 0012 1F78     		ldrb	r7, [r3]
 168 0014 002F     		cmp	r7, #0
 169 0016 26D1     		bne	.L11
 574:BrightnessCommManager.c ****     memcpy(ackPacket, packet, length);
 170              		.loc 1 574 0
 171 0018 0122     		movs	r2, #1
 172 001a 1A70     		strb	r2, [r3]
 575:BrightnessCommManager.c ****     ackPacket[HEADER_START_INDEX + 1] = 'A';
 173              		.loc 1 575 0
 174 001c 0A00     		movs	r2, r1
 175 001e 0100     		movs	r1, r0
 176              	.LVL17:
 177 0020 6846     		mov	r0, sp
 178              	.LVL18:
 179 0022 FFF7FEFF 		bl	memcpy
 180              	.LVL19:
 576:BrightnessCommManager.c ****     
 181              		.loc 1 576 0
 182 0026 4123     		movs	r3, #65
 183 0028 6A46     		mov	r2, sp
 184 002a 5370     		strb	r3, [r2, #1]
 578:BrightnessCommManager.c ****     {
 185              		.loc 1 578 0
 186 002c 0023     		movs	r3, #0
 187 002e 01E0     		b	.L7
 188              	.LVL20:
 189              	.L8:
 578:BrightnessCommManager.c ****     {
 190              		.loc 1 578 0 is_stmt 0 discriminator 3
 191 0030 0133     		adds	r3, r3, #1
 192              	.LVL21:
 193 0032 DBB2     		uxtb	r3, r3
 194              	.LVL22:
 195              	.L7:
 578:BrightnessCommManager.c ****     {
 196              		.loc 1 578 0 discriminator 1
 197 0034 042B     		cmp	r3, #4
 198 0036 FBD9     		bls	.L8
 584:BrightnessCommManager.c ****     setIdentityByComm(currentDriverCount);
 199              		.loc 1 584 0 is_stmt 1
 200 0038 B478     		ldrb	r4, [r6, #2]
 201 003a 0134     		adds	r4, r4, #1
 202 003c E4B2     		uxtb	r4, r4
 203              	.LVL23:
 585:BrightnessCommManager.c ****     bDriverCountReceived = TRUE;
 204              		.loc 1 585 0
 205 003e 2000     		movs	r0, r4
 206 0040 FFF7FEFF 		bl	setIdentityByComm
 207              	.LVL24:
 586:BrightnessCommManager.c ****     packet[currentDriverCount + PAYLOAD_START_INDEX] = currentDriverCount;
 208              		.loc 1 586 0
 209 0044 0122     		movs	r2, #1
 210 0046 0A4B     		ldr	r3, .L12
 211 0048 5A70     		strb	r2, [r3, #1]
ARM GAS  C:\Users\kylep\AppData\Local\Temp\ccH20siU.s 			page 19


 587:BrightnessCommManager.c ****     packet[PAYLOAD_START_INDEX] = currentDriverCount;
 212              		.loc 1 587 0
 213 004a A31C     		adds	r3, r4, #2
 214 004c F454     		strb	r4, [r6, r3]
 588:BrightnessCommManager.c ****     setLastDriverPacket(packet, length);
 215              		.loc 1 588 0
 216 004e B470     		strb	r4, [r6, #2]
 589:BrightnessCommManager.c ****     //UART_LED_PutArray(packet, length);
 217              		.loc 1 589 0
 218 0050 2900     		movs	r1, r5
 219 0052 3000     		movs	r0, r6
 220 0054 FFF7FEFF 		bl	setLastDriverPacket
 221              	.LVL25:
 591:BrightnessCommManager.c ****     
 222              		.loc 1 591 0
 223 0058 FFF7FEFF 		bl	AckTimer_Start
 224              	.LVL26:
 593:BrightnessCommManager.c **** }
 225              		.loc 1 593 0
 226 005c 04E0     		b	.L6
 227              	.LVL27:
 228              	.L9:
 569:BrightnessCommManager.c ****     
 229              		.loc 1 569 0
 230 005e 0127     		movs	r7, #1
 231 0060 02E0     		b	.L6
 232              	.L10:
 233 0062 0127     		movs	r7, #1
 234 0064 00E0     		b	.L6
 235              	.L11:
 572:BrightnessCommManager.c ****     
 236              		.loc 1 572 0
 237 0066 0027     		movs	r7, #0
 238              	.LVL28:
 239              	.L6:
 594:BrightnessCommManager.c **** 
 240              		.loc 1 594 0
 241 0068 3800     		movs	r0, r7
 242 006a 05B0     		add	sp, sp, #20
 243              		@ sp needed
 244              	.LVL29:
 245 006c F0BD     		pop	{r4, r5, r6, r7, pc}
 246              	.L13:
 247 006e C046     		.align	2
 248              	.L12:
 249 0070 00000000 		.word	.LANCHOR0
 250              		.cfi_endproc
 251              	.LFE44:
 252              		.size	processDriverCountPacket, .-processDriverCountPacket
 253              		.section	.text.saveStateBar,"ax",%progbits
 254              		.align	2
 255              		.code	16
 256              		.thumb_func
 257              		.type	saveStateBar, %function
 258              	saveStateBar:
 259              	.LFB47:
 690:BrightnessCommManager.c ****     static uint8 driver_ID = 0;
ARM GAS  C:\Users\kylep\AppData\Local\Temp\ccH20siU.s 			page 20


 260              		.loc 1 690 0
 261              		.cfi_startproc
 262              		@ args = 0, pretend = 0, frame = 0
 263              		@ frame_needed = 0, uses_anonymous_args = 0
 264              	.LVL30:
 265 0000 70B5     		push	{r4, r5, r6, lr}
 266              		.cfi_def_cfa_offset 16
 267              		.cfi_offset 4, -16
 268              		.cfi_offset 5, -12
 269              		.cfi_offset 6, -8
 270              		.cfi_offset 14, -4
 271 0002 0400     		movs	r4, r0
 272 0004 0D00     		movs	r5, r1
 273 0006 1600     		movs	r6, r2
 693:BrightnessCommManager.c ****     if(driver_ID == HEAD_BOARD)
 274              		.loc 1 693 0
 275 0008 FFF7FEFF 		bl	getDriverID
 276              	.LVL31:
 698:BrightnessCommManager.c ****     EmEEPROM_Write(volatileMemoryArray,nonVolatileMemoryArray,1);
 277              		.loc 1 698 0
 278 000c 3018     		adds	r0, r6, r0
 279 000e 4378     		ldrb	r3, [r0, #1]
 280 0010 2370     		strb	r3, [r4]
 699:BrightnessCommManager.c ****     
 281              		.loc 1 699 0
 282 0012 0122     		movs	r2, #1
 283 0014 2900     		movs	r1, r5
 284 0016 2000     		movs	r0, r4
 285 0018 FFF7FEFF 		bl	EmEEPROM_Write
 286              	.LVL32:
 701:BrightnessCommManager.c ****     EmEEPROM_Write(&volatileMemoryArray[1],&nonVolatileMemoryArray[1],1);
 287              		.loc 1 701 0
 288 001c F378     		ldrb	r3, [r6, #3]
 289 001e 6370     		strb	r3, [r4, #1]
 702:BrightnessCommManager.c **** }
 290              		.loc 1 702 0
 291 0020 691C     		adds	r1, r5, #1
 292 0022 601C     		adds	r0, r4, #1
 293 0024 0122     		movs	r2, #1
 294 0026 FFF7FEFF 		bl	EmEEPROM_Write
 295              	.LVL33:
 703:BrightnessCommManager.c **** 
 296              		.loc 1 703 0
 297              		@ sp needed
 298              	.LVL34:
 299              	.LVL35:
 300              	.LVL36:
 301 002a 70BD     		pop	{r4, r5, r6, pc}
 302              		.cfi_endproc
 303              	.LFE47:
 304              		.size	saveStateBar, .-saveStateBar
 305              		.section	.text.processReinitlizationPacket,"ax",%progbits
 306              		.align	2
 307              		.code	16
 308              		.thumb_func
 309              		.type	processReinitlizationPacket, %function
 310              	processReinitlizationPacket:
ARM GAS  C:\Users\kylep\AppData\Local\Temp\ccH20siU.s 			page 21


 311              	.LFB45:
 614:BrightnessCommManager.c ****     
 312              		.loc 1 614 0
 313              		.cfi_startproc
 314              		@ args = 0, pretend = 0, frame = 0
 315              		@ frame_needed = 0, uses_anonymous_args = 0
 316              	.LVL37:
 317 0000 10B5     		push	{r4, lr}
 318              		.cfi_def_cfa_offset 8
 319              		.cfi_offset 4, -8
 320              		.cfi_offset 14, -4
 619:BrightnessCommManager.c ****     //UART_LED_PutArray(packet, length);
 321              		.loc 1 619 0
 322 0002 FFF7FEFF 		bl	clearInitializeAlreadyEEPROM
 323              	.LVL38:
 622:BrightnessCommManager.c **** 
 324              		.loc 1 622 0
 325 0006 0020     		movs	r0, #0
 326              		@ sp needed
 327 0008 10BD     		pop	{r4, pc}
 328              		.cfi_endproc
 329              	.LFE45:
 330              		.size	processReinitlizationPacket, .-processReinitlizationPacket
 331 000a C046     		.section	.text.processBrightnessPacket,"ax",%progbits
 332              		.align	2
 333              		.code	16
 334              		.thumb_func
 335              		.type	processBrightnessPacket, %function
 336              	processBrightnessPacket:
 337              	.LFB46:
 642:BrightnessCommManager.c ****     static uint8 bFirstBrightnessPacket = TRUE;
 338              		.loc 1 642 0
 339              		.cfi_startproc
 340              		@ args = 0, pretend = 0, frame = 0
 341              		@ frame_needed = 0, uses_anonymous_args = 0
 342              	.LVL39:
 343 0000 F8B5     		push	{r3, r4, r5, r6, r7, lr}
 344              		.cfi_def_cfa_offset 24
 345              		.cfi_offset 3, -24
 346              		.cfi_offset 4, -20
 347              		.cfi_offset 5, -16
 348              		.cfi_offset 6, -12
 349              		.cfi_offset 7, -8
 350              		.cfi_offset 14, -4
 351 0002 0400     		movs	r4, r0
 352 0004 1500     		movs	r5, r2
 353              	.LVL40:
 647:BrightnessCommManager.c ****         return FAILURE;
 354              		.loc 1 647 0
 355 0006 0028     		cmp	r0, #0
 356 0008 34D0     		beq	.L21
 647:BrightnessCommManager.c ****         return FAILURE;
 357              		.loc 1 647 0 is_stmt 0 discriminator 1
 358 000a 0C29     		cmp	r1, #12
 359 000c 34D1     		bne	.L22
 650:BrightnessCommManager.c ****         return FAILURE;
 360              		.loc 1 650 0 is_stmt 1
ARM GAS  C:\Users\kylep\AppData\Local\Temp\ccH20siU.s 			page 22


 361 000e 012A     		cmp	r2, #1
 362 0010 34D8     		bhi	.L23
 653:BrightnessCommManager.c ****     if((driver_ID < HEAD_MODULE_ID) || (driver_ID > MAX_DRIVER_COUNT))
 363              		.loc 1 653 0
 364 0012 FFF7FEFF 		bl	getDriverID
 365              	.LVL41:
 366 0016 0600     		movs	r6, r0
 367 0018 0700     		movs	r7, r0
 368              	.LVL42:
 654:BrightnessCommManager.c ****         return FAILURE;
 369              		.loc 1 654 0
 370 001a 431E     		subs	r3, r0, #1
 371 001c DBB2     		uxtb	r3, r3
 372 001e 072B     		cmp	r3, #7
 373 0020 2ED8     		bhi	.L24
 659:BrightnessCommManager.c ****     {
 374              		.loc 1 659 0
 375 0022 194B     		ldr	r3, .L26
 376 0024 1B78     		ldrb	r3, [r3]
 377 0026 002B     		cmp	r3, #0
 378 0028 02D0     		beq	.L18
 661:BrightnessCommManager.c ****         //SamplingTimer_Start();
 379              		.loc 1 661 0
 380 002a 0022     		movs	r2, #0
 381 002c 164B     		ldr	r3, .L26
 382 002e 1A70     		strb	r2, [r3]
 383              	.L18:
 665:BrightnessCommManager.c ****     {
 384              		.loc 1 665 0
 385 0030 FFF7FEFF 		bl	isReadyToSendNextBrightnessPacket
 386              	.LVL43:
 387 0034 0128     		cmp	r0, #1
 388 0036 25D1     		bne	.L25
 667:BrightnessCommManager.c ****         {
 389              		.loc 1 667 0
 390 0038 012F     		cmp	r7, #1
 391 003a 14D1     		bne	.L19
 669:BrightnessCommManager.c ****                 updateBrightnessLevel(packet[driver_ID + PAYLOAD_START_INDEX - 1], FALSE);
 392              		.loc 1 669 0
 393 003c 002D     		cmp	r5, #0
 394 003e 06D0     		beq	.L20
 670:BrightnessCommManager.c ****             else
 395              		.loc 1 670 0
 396 0040 0136     		adds	r6, r6, #1
 397 0042 A05D     		ldrb	r0, [r4, r6]
 398 0044 0021     		movs	r1, #0
 399 0046 FFF7FEFF 		bl	updateBrightnessLevel
 400              	.LVL44:
 686:BrightnessCommManager.c **** }
 401              		.loc 1 686 0
 402 004a 0020     		movs	r0, #0
 403 004c 1BE0     		b	.L17
 404              	.L20:
 674:BrightnessCommManager.c ****                 memset(&packet[PAYLOAD_START_INDEX], currentBrightness, MAX_DRIVER_COUNT);
 405              		.loc 1 674 0
 406 004e 0136     		adds	r6, r6, #1
 407 0050 A05D     		ldrb	r0, [r4, r6]
ARM GAS  C:\Users\kylep\AppData\Local\Temp\ccH20siU.s 			page 23


 673:BrightnessCommManager.c ****                     updateBrightnessLevel(packet[driver_ID + PAYLOAD_START_INDEX - 1], TRUE);
 408              		.loc 1 673 0
 409 0052 0121     		movs	r1, #1
 410 0054 FFF7FEFF 		bl	updateBrightnessLevel
 411              	.LVL45:
 412 0058 0100     		movs	r1, r0
 413              	.LVL46:
 675:BrightnessCommManager.c ****             }
 414              		.loc 1 675 0
 415 005a A01C     		adds	r0, r4, #2
 416 005c 0822     		movs	r2, #8
 417 005e FFF7FEFF 		bl	memset
 418              	.LVL47:
 686:BrightnessCommManager.c **** }
 419              		.loc 1 686 0
 420 0062 0020     		movs	r0, #0
 421 0064 0FE0     		b	.L17
 422              	.LVL48:
 423              	.L19:
 681:BrightnessCommManager.c ****         }
 424              		.loc 1 681 0
 425 0066 0136     		adds	r6, r6, #1
 426 0068 A05D     		ldrb	r0, [r4, r6]
 427 006a 0021     		movs	r1, #0
 428 006c FFF7FEFF 		bl	updateBrightnessLevel
 429              	.LVL49:
 686:BrightnessCommManager.c **** }
 430              		.loc 1 686 0
 431 0070 0020     		movs	r0, #0
 432 0072 08E0     		b	.L17
 433              	.LVL50:
 434              	.L21:
 648:BrightnessCommManager.c ****     
 435              		.loc 1 648 0
 436 0074 0120     		movs	r0, #1
 437              	.LVL51:
 438 0076 06E0     		b	.L17
 439              	.LVL52:
 440              	.L22:
 441 0078 0120     		movs	r0, #1
 442              	.LVL53:
 443 007a 04E0     		b	.L17
 444              	.LVL54:
 445              	.L23:
 651:BrightnessCommManager.c ****     
 446              		.loc 1 651 0
 447 007c 0120     		movs	r0, #1
 448              	.LVL55:
 449 007e 02E0     		b	.L17
 450              	.LVL56:
 451              	.L24:
 655:BrightnessCommManager.c ****     
 452              		.loc 1 655 0
 453 0080 0120     		movs	r0, #1
 454              	.LVL57:
 455 0082 00E0     		b	.L17
 456              	.L25:
ARM GAS  C:\Users\kylep\AppData\Local\Temp\ccH20siU.s 			page 24


 686:BrightnessCommManager.c **** }
 457              		.loc 1 686 0
 458 0084 0020     		movs	r0, #0
 459              	.LVL58:
 460              	.L17:
 687:BrightnessCommManager.c **** 
 461              		.loc 1 687 0
 462              		@ sp needed
 463              	.LVL59:
 464 0086 F8BD     		pop	{r3, r4, r5, r6, r7, pc}
 465              	.L27:
 466              		.align	2
 467              	.L26:
 468 0088 00000000 		.word	.LANCHOR1
 469              		.cfi_endproc
 470              	.LFE46:
 471              		.size	processBrightnessPacket, .-processBrightnessPacket
 472              		.section	.text.getStateOfBar,"ax",%progbits
 473              		.align	2
 474              		.global	getStateOfBar
 475              		.code	16
 476              		.thumb_func
 477              		.type	getStateOfBar, %function
 478              	getStateOfBar:
 479              	.LFB32:
  93:BrightnessCommManager.c ****     return stateOfLightBar;
 480              		.loc 1 93 0
 481              		.cfi_startproc
 482              		@ args = 0, pretend = 0, frame = 0
 483              		@ frame_needed = 0, uses_anonymous_args = 0
 484              		@ link register save eliminated.
  94:BrightnessCommManager.c **** }
 485              		.loc 1 94 0
 486 0000 014B     		ldr	r3, .L29
 487 0002 9878     		ldrb	r0, [r3, #2]
  95:BrightnessCommManager.c **** 
 488              		.loc 1 95 0
 489              		@ sp needed
 490 0004 7047     		bx	lr
 491              	.L30:
 492 0006 C046     		.align	2
 493              	.L29:
 494 0008 00000000 		.word	.LANCHOR0
 495              		.cfi_endproc
 496              	.LFE32:
 497              		.size	getStateOfBar, .-getStateOfBar
 498              		.section	.text.getDegaultPosition,"ax",%progbits
 499              		.align	2
 500              		.global	getDegaultPosition
 501              		.code	16
 502              		.thumb_func
 503              		.type	getDegaultPosition, %function
 504              	getDegaultPosition:
 505              	.LFB33:
  98:BrightnessCommManager.c ****     static const uint8 * localNonVolatileMemory = 0;
 506              		.loc 1 98 0
 507              		.cfi_startproc
ARM GAS  C:\Users\kylep\AppData\Local\Temp\ccH20siU.s 			page 25


 508              		@ args = 0, pretend = 0, frame = 0
 509              		@ frame_needed = 0, uses_anonymous_args = 0
 510 0000 10B5     		push	{r4, lr}
 511              		.cfi_def_cfa_offset 8
 512              		.cfi_offset 4, -8
 513              		.cfi_offset 14, -4
 100:BrightnessCommManager.c ****     
 514              		.loc 1 100 0
 515 0002 FFF7FEFF 		bl	getNonVolatileBarStateMemory
 516              	.LVL60:
 102:BrightnessCommManager.c **** }
 517              		.loc 1 102 0
 518 0006 4078     		ldrb	r0, [r0, #1]
 103:BrightnessCommManager.c **** 
 519              		.loc 1 103 0
 520              		@ sp needed
 521 0008 10BD     		pop	{r4, pc}
 522              		.cfi_endproc
 523              	.LFE33:
 524              		.size	getDegaultPosition, .-getDegaultPosition
 525 000a C046     		.section	.text.timeOutStateMachine,"ax",%progbits
 526              		.align	2
 527              		.global	timeOutStateMachine
 528              		.code	16
 529              		.thumb_func
 530              		.type	timeOutStateMachine, %function
 531              	timeOutStateMachine:
 532              	.LFB34:
 106:BrightnessCommManager.c ****     switch(stateOfLightBar)
 533              		.loc 1 106 0
 534              		.cfi_startproc
 535              		@ args = 0, pretend = 0, frame = 0
 536              		@ frame_needed = 0, uses_anonymous_args = 0
 537              	.LVL61:
 538 0000 10B5     		push	{r4, lr}
 539              		.cfi_def_cfa_offset 8
 540              		.cfi_offset 4, -8
 541              		.cfi_offset 14, -4
 107:BrightnessCommManager.c ****     {
 542              		.loc 1 107 0
 543 0002 214B     		ldr	r3, .L39
 544 0004 9B78     		ldrb	r3, [r3, #2]
 545 0006 012B     		cmp	r3, #1
 546 0008 17D0     		beq	.L34
 547 000a 002B     		cmp	r3, #0
 548 000c 02D0     		beq	.L35
 549 000e 022B     		cmp	r3, #2
 550 0010 24D0     		beq	.L36
 551 0012 37E0     		b	.L32
 552              	.L35:
 110:BrightnessCommManager.c ****             {
 553              		.loc 1 110 0
 554 0014 1C4B     		ldr	r3, .L39
 555 0016 DB78     		ldrb	r3, [r3, #3]
 556 0018 012B     		cmp	r3, #1
 557 001a 33D1     		bne	.L32
 113:BrightnessCommManager.c ****                if(getDriverID() == HEAD_MODULE_ID)
ARM GAS  C:\Users\kylep\AppData\Local\Temp\ccH20siU.s 			page 26


 558              		.loc 1 113 0
 559 001c 0A20     		movs	r0, #10
 560              	.LVL62:
 561 001e FFF7FEFF 		bl	CyDelay
 562              	.LVL63:
 114:BrightnessCommManager.c ****                {
 563              		.loc 1 114 0
 564 0022 FFF7FEFF 		bl	getDriverID
 565              	.LVL64:
 566 0026 0128     		cmp	r0, #1
 567 0028 2CD1     		bne	.L32
 116:BrightnessCommManager.c ****                     {
 568              		.loc 1 116 0
 569 002a FFF7FEFF 		bl	getDriverID
 570              	.LVL65:
 571 002e 0128     		cmp	r0, #1
 572 0030 28D1     		bne	.L32
 118:BrightnessCommManager.c ****                         //WakeupISR_Start();
 573              		.loc 1 118 0
 574 0032 0122     		movs	r2, #1
 575 0034 144B     		ldr	r3, .L39
 576 0036 9A70     		strb	r2, [r3, #2]
 577 0038 24E0     		b	.L32
 578              	.LVL66:
 579              	.L34:
 131:BrightnessCommManager.c ****             {
 580              		.loc 1 131 0
 581 003a 134B     		ldr	r3, .L39
 582 003c DB78     		ldrb	r3, [r3, #3]
 583 003e 002B     		cmp	r3, #0
 584 0040 03D1     		bne	.L37
 133:BrightnessCommManager.c ****                 stateOfLightBar = IS_TIME_OUT_TRUE;
 585              		.loc 1 133 0
 586 0042 114B     		ldr	r3, .L39
 587 0044 0022     		movs	r2, #0
 588 0046 1A71     		strb	r2, [r3, #4]
 134:BrightnessCommManager.c ****                 //WakeupISR_Stop();
 589              		.loc 1 134 0
 590 0048 9A70     		strb	r2, [r3, #2]
 591              	.L37:
 137:BrightnessCommManager.c ****             if(isReadyToSendNextBrightnessPacket() == TRUE)
 592              		.loc 1 137 0
 593 004a FFF7FEFF 		bl	takeInputValues
 594              	.LVL67:
 138:BrightnessCommManager.c ****             {
 595              		.loc 1 138 0
 596 004e FFF7FEFF 		bl	isReadyToSendNextBrightnessPacket
 597              	.LVL68:
 598 0052 0128     		cmp	r0, #1
 599 0054 16D1     		bne	.L32
 141:BrightnessCommManager.c ****             }
 600              		.loc 1 141 0
 601 0056 FFF7FEFF 		bl	clearIsReadyToSendNextBrightnessPacket
 602              	.LVL69:
 603 005a 13E0     		b	.L32
 604              	.LVL70:
 605              	.L36:
ARM GAS  C:\Users\kylep\AppData\Local\Temp\ccH20siU.s 			page 27


 145:BrightnessCommManager.c ****             {
 606              		.loc 1 145 0
 607 005c FFF7FEFF 		bl	isReadyToSendNextBrightnessPacket
 608              	.LVL71:
 609 0060 0128     		cmp	r0, #1
 610 0062 0FD1     		bne	.L32
 147:BrightnessCommManager.c ****                 CySysPmDeepSleep(); 
 611              		.loc 1 147 0
 612 0064 FFF7FEFF 		bl	putBarToSleep
 613              	.LVL72:
 148:BrightnessCommManager.c **** 
 614              		.loc 1 148 0
 615 0068 FFF7FEFF 		bl	CySysPmDeepSleep
 616              	.LVL73:
 150:BrightnessCommManager.c ****                 {
 617              		.loc 1 150 0
 618 006c 064B     		ldr	r3, .L39
 619 006e 1B79     		ldrb	r3, [r3, #4]
 620 0070 012B     		cmp	r3, #1
 621 0072 05D1     		bne	.L38
 152:BrightnessCommManager.c ****                     stateOfLightBar = IS_TIME_OUT_TRUE;
 622              		.loc 1 152 0
 623 0074 044B     		ldr	r3, .L39
 624 0076 0022     		movs	r2, #0
 625 0078 1A71     		strb	r2, [r3, #4]
 153:BrightnessCommManager.c ****                     //WakeupISR_Stop();
 626              		.loc 1 153 0
 627 007a 9A70     		strb	r2, [r3, #2]
 156:BrightnessCommManager.c ****                 }
 628              		.loc 1 156 0
 629 007c FFF7FEFF 		bl	CySoftwareReset
 630              	.LVL74:
 631              	.L38:
 158:BrightnessCommManager.c ****             }
 632              		.loc 1 158 0
 633 0080 FFF7FEFF 		bl	clearIsReadyToSendNextBrightnessPacket
 634              	.LVL75:
 635              	.L32:
 166:BrightnessCommManager.c **** 
 636              		.loc 1 166 0
 637              		@ sp needed
 638 0084 10BD     		pop	{r4, pc}
 639              	.L40:
 640 0086 C046     		.align	2
 641              	.L39:
 642 0088 00000000 		.word	.LANCHOR0
 643              		.cfi_endproc
 644              	.LFE34:
 645              		.size	timeOutStateMachine, .-timeOutStateMachine
 646              		.section	.text.isThereHighLowTransitionFromUART,"ax",%progbits
 647              		.align	2
 648              		.global	isThereHighLowTransitionFromUART
 649              		.code	16
 650              		.thumb_func
 651              		.type	isThereHighLowTransitionFromUART, %function
 652              	isThereHighLowTransitionFromUART:
 653              	.LFB35:
ARM GAS  C:\Users\kylep\AppData\Local\Temp\ccH20siU.s 			page 28


 183:BrightnessCommManager.c ****     //WakeupISR_ClearPending();
 654              		.loc 1 183 0
 655              		.cfi_startproc
 656              		@ args = 0, pretend = 0, frame = 0
 657              		@ frame_needed = 0, uses_anonymous_args = 0
 658              		@ link register save eliminated.
 187:BrightnessCommManager.c **** }
 659              		.loc 1 187 0
 660 0000 0122     		movs	r2, #1
 661 0002 014B     		ldr	r3, .L42
 662 0004 1A71     		strb	r2, [r3, #4]
 188:BrightnessCommManager.c **** 
 663              		.loc 1 188 0
 664              		@ sp needed
 665 0006 7047     		bx	lr
 666              	.L43:
 667              		.align	2
 668              	.L42:
 669 0008 00000000 		.word	.LANCHOR0
 670              		.cfi_endproc
 671              	.LFE35:
 672              		.size	isThereHighLowTransitionFromUART, .-isThereHighLowTransitionFromUART
 673              		.section	.text.processTimeoutTimerRoutine,"ax",%progbits
 674              		.align	2
 675              		.global	processTimeoutTimerRoutine
 676              		.code	16
 677              		.thumb_func
 678              		.type	processTimeoutTimerRoutine, %function
 679              	processTimeoutTimerRoutine:
 680              	.LFB36:
 207:BrightnessCommManager.c ****     CommTimeoutISR_ClearPending();
 681              		.loc 1 207 0
 682              		.cfi_startproc
 683              		@ args = 0, pretend = 0, frame = 0
 684              		@ frame_needed = 0, uses_anonymous_args = 0
 685 0000 10B5     		push	{r4, lr}
 686              		.cfi_def_cfa_offset 8
 687              		.cfi_offset 4, -8
 688              		.cfi_offset 14, -4
 208:BrightnessCommManager.c ****     TimeoutTimer_ClearInterrupt(TimeoutTimer_INTR_MASK_TC);
 689              		.loc 1 208 0
 690 0002 FFF7FEFF 		bl	CommTimeoutISR_ClearPending
 691              	.LVL76:
 209:BrightnessCommManager.c **** 
 692              		.loc 1 209 0
 693 0006 0120     		movs	r0, #1
 694 0008 FFF7FEFF 		bl	TimeoutTimer_ClearInterrupt
 695              	.LVL77:
 211:BrightnessCommManager.c ****     {
 696              		.loc 1 211 0
 697 000c FFF7FEFF 		bl	getDriverID
 698              	.LVL78:
 699 0010 0128     		cmp	r0, #1
 700 0012 12D1     		bne	.L45
 213:BrightnessCommManager.c ****             {
 701              		.loc 1 213 0
 702 0014 134B     		ldr	r3, .L49
ARM GAS  C:\Users\kylep\AppData\Local\Temp\ccH20siU.s 			page 29


 703 0016 DB88     		ldrh	r3, [r3, #6]
 704 0018 9BB2     		uxth	r3, r3
 705 001a 952B     		cmp	r3, #149
 706 001c 05D8     		bhi	.L46
 215:BrightnessCommManager.c ****             }
 707              		.loc 1 215 0
 708 001e 114A     		ldr	r2, .L49
 709 0020 D388     		ldrh	r3, [r2, #6]
 710 0022 0133     		adds	r3, r3, #1
 711 0024 9BB2     		uxth	r3, r3
 712 0026 D380     		strh	r3, [r2, #6]
 713 0028 1AE0     		b	.L44
 714              	.L46:
 219:BrightnessCommManager.c ****                 timeOutCounter = 0;
 715              		.loc 1 219 0
 716 002a FFF7FEFF 		bl	TimeoutTimer_Stop
 717              	.LVL79:
 220:BrightnessCommManager.c ****                 bCommunicationTimeOut = TRUE;
 718              		.loc 1 220 0
 719 002e 0D4B     		ldr	r3, .L49
 720 0030 0022     		movs	r2, #0
 721 0032 DA80     		strh	r2, [r3, #6]
 221:BrightnessCommManager.c ****             }
 722              		.loc 1 221 0
 723 0034 0132     		adds	r2, r2, #1
 724 0036 DA70     		strb	r2, [r3, #3]
 725 0038 12E0     		b	.L44
 726              	.L45:
 226:BrightnessCommManager.c ****         {
 727              		.loc 1 226 0
 728 003a 0A4B     		ldr	r3, .L49
 729 003c DB88     		ldrh	r3, [r3, #6]
 730 003e 9BB2     		uxth	r3, r3
 731 0040 094A     		ldr	r2, .L49+4
 732 0042 9342     		cmp	r3, r2
 733 0044 05D8     		bhi	.L48
 228:BrightnessCommManager.c ****         }
 734              		.loc 1 228 0
 735 0046 074A     		ldr	r2, .L49
 736 0048 D388     		ldrh	r3, [r2, #6]
 737 004a 0133     		adds	r3, r3, #1
 738 004c 9BB2     		uxth	r3, r3
 739 004e D380     		strh	r3, [r2, #6]
 740 0050 06E0     		b	.L44
 741              	.L48:
 232:BrightnessCommManager.c ****             timeOutCounter = 0;
 742              		.loc 1 232 0
 743 0052 FFF7FEFF 		bl	TimeoutTimer_Stop
 744              	.LVL80:
 233:BrightnessCommManager.c ****             bCommunicationTimeOut = TRUE;
 745              		.loc 1 233 0
 746 0056 034B     		ldr	r3, .L49
 747 0058 0022     		movs	r2, #0
 748 005a DA80     		strh	r2, [r3, #6]
 234:BrightnessCommManager.c ****         }
 749              		.loc 1 234 0
 750 005c 0132     		adds	r2, r2, #1
ARM GAS  C:\Users\kylep\AppData\Local\Temp\ccH20siU.s 			page 30


 751 005e DA70     		strb	r2, [r3, #3]
 752              	.L44:
 238:BrightnessCommManager.c **** 
 753              		.loc 1 238 0
 754              		@ sp needed
 755 0060 10BD     		pop	{r4, pc}
 756              	.L50:
 757 0062 C046     		.align	2
 758              	.L49:
 759 0064 00000000 		.word	.LANCHOR0
 760 0068 0F270000 		.word	9999
 761              		.cfi_endproc
 762              	.LFE36:
 763              		.size	processTimeoutTimerRoutine, .-processTimeoutTimerRoutine
 764              		.section	.text.timeoutDefaultBrightness,"ax",%progbits
 765              		.align	2
 766              		.global	timeoutDefaultBrightness
 767              		.code	16
 768              		.thumb_func
 769              		.type	timeoutDefaultBrightness, %function
 770              	timeoutDefaultBrightness:
 771              	.LFB38:
 276:BrightnessCommManager.c ****     uint8 currentRegulatedBrightness = 0;
 772              		.loc 1 276 0
 773              		.cfi_startproc
 774              		@ args = 0, pretend = 0, frame = 0
 775              		@ frame_needed = 0, uses_anonymous_args = 0
 776              	.LVL81:
 777 0000 10B5     		push	{r4, lr}
 778              		.cfi_def_cfa_offset 8
 779              		.cfi_offset 4, -8
 780              		.cfi_offset 14, -4
 781 0002 0400     		movs	r4, r0
 782              	.LVL82:
 281:BrightnessCommManager.c ****     if(driver_ID == HEAD_MODULE_ID)
 783              		.loc 1 281 0
 784 0004 FFF7FEFF 		bl	getDriverID
 785              	.LVL83:
 282:BrightnessCommManager.c ****     {
 786              		.loc 1 282 0
 787 0008 0128     		cmp	r0, #1
 788 000a 0DD1     		bne	.L51
 284:BrightnessCommManager.c ****         {
 789              		.loc 1 284 0
 790 000c 074B     		ldr	r3, .L54
 791 000e 1B7A     		ldrb	r3, [r3, #8]
 792 0010 002B     		cmp	r3, #0
 793 0012 05D1     		bne	.L53
 286:BrightnessCommManager.c ****             CyDelay(250);
 794              		.loc 1 286 0
 795 0014 0122     		movs	r2, #1
 796 0016 054B     		ldr	r3, .L54
 797 0018 1A72     		strb	r2, [r3, #8]
 287:BrightnessCommManager.c ****             //for(loopIterator = 0; loopIterator<nonVolatileMemoryArray[0]; loopIterator+=32)
 798              		.loc 1 287 0
 799 001a F930     		adds	r0, r0, #249
 800              	.LVL84:
ARM GAS  C:\Users\kylep\AppData\Local\Temp\ccH20siU.s 			page 31


 801 001c FFF7FEFF 		bl	CyDelay
 802              	.LVL85:
 803              	.L53:
 306:BrightnessCommManager.c ****         //currentRegulatedBrightness = updateBrightnessLevel(0, TRUE);
 804              		.loc 1 306 0
 805 0020 2078     		ldrb	r0, [r4]
 806 0022 0121     		movs	r1, #1
 807 0024 FFF7FEFF 		bl	updateBrightnessLevel
 808              	.LVL86:
 809              	.L51:
 321:BrightnessCommManager.c **** 
 810              		.loc 1 321 0
 811              		@ sp needed
 812              	.LVL87:
 813 0028 10BD     		pop	{r4, pc}
 814              	.L55:
 815 002a C046     		.align	2
 816              	.L54:
 817 002c 00000000 		.word	.LANCHOR0
 818              		.cfi_endproc
 819              	.LFE38:
 820              		.size	timeoutDefaultBrightness, .-timeoutDefaultBrightness
 821              		.section	.text.isDriverCountReceived,"ax",%progbits
 822              		.align	2
 823              		.global	isDriverCountReceived
 824              		.code	16
 825              		.thumb_func
 826              		.type	isDriverCountReceived, %function
 827              	isDriverCountReceived:
 828              	.LFB39:
 325:BrightnessCommManager.c ****     return bDriverCountReceived;
 829              		.loc 1 325 0
 830              		.cfi_startproc
 831              		@ args = 0, pretend = 0, frame = 0
 832              		@ frame_needed = 0, uses_anonymous_args = 0
 833              		@ link register save eliminated.
 326:BrightnessCommManager.c **** }
 834              		.loc 1 326 0
 835 0000 014B     		ldr	r3, .L57
 836 0002 5878     		ldrb	r0, [r3, #1]
 327:BrightnessCommManager.c **** 
 837              		.loc 1 327 0
 838              		@ sp needed
 839 0004 7047     		bx	lr
 840              	.L58:
 841 0006 C046     		.align	2
 842              	.L57:
 843 0008 00000000 		.word	.LANCHOR0
 844              		.cfi_endproc
 845              	.LFE39:
 846              		.size	isDriverCountReceived, .-isDriverCountReceived
 847              		.section	.text.setDriverCountReceived,"ax",%progbits
 848              		.align	2
 849              		.global	setDriverCountReceived
 850              		.code	16
 851              		.thumb_func
 852              		.type	setDriverCountReceived, %function
ARM GAS  C:\Users\kylep\AppData\Local\Temp\ccH20siU.s 			page 32


 853              	setDriverCountReceived:
 854              	.LFB40:
 330:BrightnessCommManager.c ****     bDriverCountReceived = TRUE;
 855              		.loc 1 330 0
 856              		.cfi_startproc
 857              		@ args = 0, pretend = 0, frame = 0
 858              		@ frame_needed = 0, uses_anonymous_args = 0
 859              		@ link register save eliminated.
 331:BrightnessCommManager.c **** }
 860              		.loc 1 331 0
 861 0000 0122     		movs	r2, #1
 862 0002 014B     		ldr	r3, .L60
 863 0004 5A70     		strb	r2, [r3, #1]
 332:BrightnessCommManager.c **** 
 864              		.loc 1 332 0
 865              		@ sp needed
 866 0006 7047     		bx	lr
 867              	.L61:
 868              		.align	2
 869              	.L60:
 870 0008 00000000 		.word	.LANCHOR0
 871              		.cfi_endproc
 872              	.LFE40:
 873              		.size	setDriverCountReceived, .-setDriverCountReceived
 874              		.section	.text.assignDriverIDs,"ax",%progbits
 875              		.align	2
 876              		.global	assignDriverIDs
 877              		.code	16
 878              		.thumb_func
 879              		.type	assignDriverIDs, %function
 880              	assignDriverIDs:
 881              	.LFB41:
 349:BrightnessCommManager.c ****     uint8 driverCountPacket[MAX_PACKET_SIZE];
 882              		.loc 1 349 0
 883              		.cfi_startproc
 884              		@ args = 0, pretend = 0, frame = 16
 885              		@ frame_needed = 0, uses_anonymous_args = 0
 886 0000 00B5     		push	{lr}
 887              		.cfi_def_cfa_offset 4
 888              		.cfi_offset 14, -4
 889 0002 85B0     		sub	sp, sp, #20
 890              		.cfi_def_cfa_offset 24
 352:BrightnessCommManager.c ****         return;
 891              		.loc 1 352 0
 892 0004 FFF7FEFF 		bl	getDriverID
 893              	.LVL88:
 894 0008 0128     		cmp	r0, #1
 895 000a 04D1     		bne	.L62
 355:BrightnessCommManager.c ****     driverCountPacket[HEADER_START_INDEX] = PacketList[1].HEADER_BYTE;
 896              		.loc 1 355 0
 897 000c 0D22     		movs	r2, #13
 898 000e 0021     		movs	r1, #0
 899 0010 6846     		mov	r0, sp
 900 0012 FFF7FEFF 		bl	memset
 901              	.LVL89:
 902              	.L62:
 366:BrightnessCommManager.c **** 
ARM GAS  C:\Users\kylep\AppData\Local\Temp\ccH20siU.s 			page 33


 903              		.loc 1 366 0
 904 0016 05B0     		add	sp, sp, #20
 905              		@ sp needed
 906 0018 00BD     		pop	{pc}
 907              		.cfi_endproc
 908              	.LFE41:
 909              		.size	assignDriverIDs, .-assignDriverIDs
 910 001a C046     		.section	.text.processCalibrationPacket,"ax",%progbits
 911              		.align	2
 912              		.global	processCalibrationPacket
 913              		.code	16
 914              		.thumb_func
 915              		.type	processCalibrationPacket, %function
 916              	processCalibrationPacket:
 917              	.LFB51:
 789:BrightnessCommManager.c **** 
 790:BrightnessCommManager.c **** void processCalibrationPacket(void)
 791:BrightnessCommManager.c **** {
 918              		.loc 1 791 0
 919              		.cfi_startproc
 920              		@ args = 0, pretend = 0, frame = 0
 921              		@ frame_needed = 0, uses_anonymous_args = 0
 922 0000 10B5     		push	{r4, lr}
 923              		.cfi_def_cfa_offset 8
 924              		.cfi_offset 4, -8
 925              		.cfi_offset 14, -4
 792:BrightnessCommManager.c ****     static const uint8 * localNonVolatileMemory = 0;
 793:BrightnessCommManager.c ****     localNonVolatileMemory = getNonVolatileBarStateMemory();
 926              		.loc 1 793 0
 927 0002 FFF7FEFF 		bl	getNonVolatileBarStateMemory
 928              	.LVL90:
 794:BrightnessCommManager.c ****     
 795:BrightnessCommManager.c ****     EmEEPROM_Write(0,&localNonVolatileMemory[3],1);
 929              		.loc 1 795 0
 930 0006 C11C     		adds	r1, r0, #3
 931 0008 0122     		movs	r2, #1
 932 000a 0020     		movs	r0, #0
 933 000c FFF7FEFF 		bl	EmEEPROM_Write
 934              	.LVL91:
 796:BrightnessCommManager.c **** }
 935              		.loc 1 796 0
 936              		@ sp needed
 937 0010 10BD     		pop	{r4, pc}
 938              		.cfi_endproc
 939              	.LFE51:
 940              		.size	processCalibrationPacket, .-processCalibrationPacket
 941 0012 C046     		.section	.text.detectPacket,"ax",%progbits
 942              		.align	2
 943              		.code	16
 944              		.thumb_func
 945              		.type	detectPacket, %function
 946              	detectPacket:
 947              	.LFB42:
 388:BrightnessCommManager.c ****     static uint8 packet[MAX_PACKET_SIZE];   
 948              		.loc 1 388 0
 949              		.cfi_startproc
 950              		@ args = 0, pretend = 0, frame = 0
ARM GAS  C:\Users\kylep\AppData\Local\Temp\ccH20siU.s 			page 34


 951              		@ frame_needed = 0, uses_anonymous_args = 0
 952              	.LVL92:
 953 0000 70B5     		push	{r4, r5, r6, lr}
 954              		.cfi_def_cfa_offset 16
 955              		.cfi_offset 4, -16
 956              		.cfi_offset 5, -12
 957              		.cfi_offset 6, -8
 958              		.cfi_offset 14, -4
 959              	.LVL93:
 395:BrightnessCommManager.c ****     {
 960              		.loc 1 395 0
 961 0002 6C4B     		ldr	r3, .L88
 962 0004 5B7A     		ldrb	r3, [r3, #9]
 963 0006 012B     		cmp	r3, #1
 964 0008 3BD0     		beq	.L68
 965 000a 002B     		cmp	r3, #0
 966 000c 02D0     		beq	.L69
 967 000e 022B     		cmp	r3, #2
 968 0010 4CD0     		beq	.L70
 969 0012 CEE0     		b	.L66
 970              	.L69:
 398:BrightnessCommManager.c ****                 (dataByte == PacketList[dataTypeIndex].HEADER_BYTE))
 971              		.loc 1 398 0
 972 0014 674B     		ldr	r3, .L88
 973 0016 997A     		ldrb	r1, [r3, #10]
 974 0018 0029     		cmp	r1, #0
 975 001a 0CD1     		bne	.L71
 399:BrightnessCommManager.c ****             {
 976              		.loc 1 399 0 discriminator 1
 977 001c DB7A     		ldrb	r3, [r3, #11]
 978 001e 9A00     		lsls	r2, r3, #2
 979 0020 D318     		adds	r3, r2, r3
 980 0022 654A     		ldr	r2, .L88+4
 981 0024 9B5C     		ldrb	r3, [r3, r2]
 398:BrightnessCommManager.c ****                 (dataByte == PacketList[dataTypeIndex].HEADER_BYTE))
 982              		.loc 1 398 0 discriminator 1
 983 0026 8342     		cmp	r3, r0
 984 0028 05D1     		bne	.L71
 401:BrightnessCommManager.c ****                 currentPacketIndex++;
 985              		.loc 1 401 0
 986 002a 624B     		ldr	r3, .L88
 987 002c 5A18     		adds	r2, r3, r1
 988 002e 1073     		strb	r0, [r2, #12]
 402:BrightnessCommManager.c ****             }
 989              		.loc 1 402 0
 990 0030 0131     		adds	r1, r1, #1
 991 0032 9972     		strb	r1, [r3, #10]
 992 0034 BDE0     		b	.L66
 993              	.L71:
 404:BrightnessCommManager.c ****             {
 994              		.loc 1 404 0
 995 0036 0129     		cmp	r1, #1
 996 0038 1ED1     		bne	.L87
 997 003a 12E0     		b	.L86
 998              	.LVL94:
 999              	.L76:
 408:BrightnessCommManager.c ****                     {
ARM GAS  C:\Users\kylep\AppData\Local\Temp\ccH20siU.s 			page 35


 1000              		.loc 1 408 0
 1001 003c 9A00     		lsls	r2, r3, #2
 1002 003e D218     		adds	r2, r2, r3
 1003 0040 5D4C     		ldr	r4, .L88+4
 1004 0042 A218     		adds	r2, r4, r2
 1005 0044 5278     		ldrb	r2, [r2, #1]
 1006 0046 9042     		cmp	r0, r2
 1007 0048 08D1     		bne	.L74
 410:BrightnessCommManager.c ****                         packet[currentPacketIndex] = dataByte;
 1008              		.loc 1 410 0
 1009 004a 5A4A     		ldr	r2, .L88
 1010 004c D372     		strb	r3, [r2, #11]
 411:BrightnessCommManager.c ****                         currentPacketIndex++;
 1011              		.loc 1 411 0
 1012 004e 5418     		adds	r4, r2, r1
 1013 0050 2073     		strb	r0, [r4, #12]
 412:BrightnessCommManager.c ****                         currentState = PAYLOAD_STATE;
 1014              		.loc 1 412 0
 1015 0052 0131     		adds	r1, r1, #1
 1016 0054 9172     		strb	r1, [r2, #10]
 413:BrightnessCommManager.c ****                         break;
 1017              		.loc 1 413 0
 1018 0056 0121     		movs	r1, #1
 1019 0058 5172     		strb	r1, [r2, #9]
 414:BrightnessCommManager.c ****                     }
 1020              		.loc 1 414 0
 1021 005a 05E0     		b	.L75
 1022              	.L74:
 406:BrightnessCommManager.c ****                 {
 1023              		.loc 1 406 0 discriminator 2
 1024 005c 0133     		adds	r3, r3, #1
 1025              	.LVL95:
 1026 005e DBB2     		uxtb	r3, r3
 1027              	.LVL96:
 1028 0060 00E0     		b	.L72
 1029              	.LVL97:
 1030              	.L86:
 1031 0062 0023     		movs	r3, #0
 1032              	.LVL98:
 1033              	.L72:
 406:BrightnessCommManager.c ****                 {
 1034              		.loc 1 406 0 is_stmt 0 discriminator 1
 1035 0064 052B     		cmp	r3, #5
 1036 0066 E9D9     		bls	.L76
 1037              	.L75:
 418:BrightnessCommManager.c ****                 {
 1038              		.loc 1 418 0 is_stmt 1
 1039 0068 052B     		cmp	r3, #5
 1040 006a 00D8     		bhi	.LCB905
 1041 006c A1E0     		b	.L66	@long jump
 1042              	.LCB905:
 420:BrightnessCommManager.c ****                     dataTypeIndex = 0;
 1043              		.loc 1 420 0
 1044 006e 514B     		ldr	r3, .L88
 1045              	.LVL99:
 1046 0070 0022     		movs	r2, #0
 1047 0072 9A72     		strb	r2, [r3, #10]
ARM GAS  C:\Users\kylep\AppData\Local\Temp\ccH20siU.s 			page 36


 421:BrightnessCommManager.c ****                 }
 1048              		.loc 1 421 0
 1049 0074 DA72     		strb	r2, [r3, #11]
 1050 0076 9CE0     		b	.L66
 1051              	.LVL100:
 1052              	.L87:
 426:BrightnessCommManager.c ****                 dataTypeIndex = 0;
 1053              		.loc 1 426 0
 1054 0078 4E4B     		ldr	r3, .L88
 1055 007a 0022     		movs	r2, #0
 1056 007c 9A72     		strb	r2, [r3, #10]
 427:BrightnessCommManager.c ****             }
 1057              		.loc 1 427 0
 1058 007e DA72     		strb	r2, [r3, #11]
 1059 0080 97E0     		b	.L66
 1060              	.L68:
 431:BrightnessCommManager.c ****             currentPacketIndex++;
 1061              		.loc 1 431 0
 1062 0082 4C4A     		ldr	r2, .L88
 1063 0084 937A     		ldrb	r3, [r2, #10]
 1064 0086 D118     		adds	r1, r2, r3
 1065 0088 0873     		strb	r0, [r1, #12]
 432:BrightnessCommManager.c ****             
 1066              		.loc 1 432 0
 1067 008a 0133     		adds	r3, r3, #1
 1068 008c DBB2     		uxtb	r3, r3
 1069 008e 9372     		strb	r3, [r2, #10]
 434:BrightnessCommManager.c ****                 currentState = EOP_STATE;
 1070              		.loc 1 434 0
 1071 0090 D27A     		ldrb	r2, [r2, #11]
 1072 0092 9100     		lsls	r1, r2, #2
 1073 0094 8A18     		adds	r2, r1, r2
 1074 0096 4849     		ldr	r1, .L88+4
 1075 0098 8A18     		adds	r2, r1, r2
 1076 009a 9278     		ldrb	r2, [r2, #2]
 1077 009c 0232     		adds	r2, r2, #2
 1078 009e 9342     		cmp	r3, r2
 1079 00a0 00DA     		bge	.LCB939
 1080 00a2 86E0     		b	.L66	@long jump
 1081              	.LCB939:
 435:BrightnessCommManager.c ****             break;
 1082              		.loc 1 435 0
 1083 00a4 0222     		movs	r2, #2
 1084 00a6 434B     		ldr	r3, .L88
 1085 00a8 5A72     		strb	r2, [r3, #9]
 1086 00aa 82E0     		b	.L66
 1087              	.L70:
 438:BrightnessCommManager.c ****                 (dataByte == PacketList[dataTypeIndex].EOP_CARRIAGE_RETURN))
 1088              		.loc 1 438 0
 1089 00ac 414B     		ldr	r3, .L88
 1090 00ae 997A     		ldrb	r1, [r3, #10]
 1091 00b0 0D00     		movs	r5, r1
 1092 00b2 DA7A     		ldrb	r2, [r3, #11]
 1093 00b4 9300     		lsls	r3, r2, #2
 1094 00b6 9B18     		adds	r3, r3, r2
 1095 00b8 3F4C     		ldr	r4, .L88+4
 1096 00ba E318     		adds	r3, r4, r3
ARM GAS  C:\Users\kylep\AppData\Local\Temp\ccH20siU.s 			page 37


 1097 00bc 9B78     		ldrb	r3, [r3, #2]
 1098 00be 9C1C     		adds	r4, r3, #2
 1099 00c0 A142     		cmp	r1, r4
 1100 00c2 0CD1     		bne	.L77
 439:BrightnessCommManager.c ****             {
 1101              		.loc 1 439 0 discriminator 1
 1102 00c4 9400     		lsls	r4, r2, #2
 1103 00c6 A418     		adds	r4, r4, r2
 1104 00c8 3B4E     		ldr	r6, .L88+4
 1105 00ca 3419     		adds	r4, r6, r4
 1106 00cc E478     		ldrb	r4, [r4, #3]
 438:BrightnessCommManager.c ****                 (dataByte == PacketList[dataTypeIndex].EOP_CARRIAGE_RETURN))
 1107              		.loc 1 438 0 discriminator 1
 1108 00ce A042     		cmp	r0, r4
 1109 00d0 05D1     		bne	.L77
 441:BrightnessCommManager.c ****                 currentPacketIndex++;
 1110              		.loc 1 441 0
 1111 00d2 384B     		ldr	r3, .L88
 1112 00d4 5A18     		adds	r2, r3, r1
 1113 00d6 1073     		strb	r0, [r2, #12]
 442:BrightnessCommManager.c ****             }
 1114              		.loc 1 442 0
 1115 00d8 0131     		adds	r1, r1, #1
 1116 00da 9972     		strb	r1, [r3, #10]
 1117 00dc 69E0     		b	.L66
 1118              	.L77:
 444:BrightnessCommManager.c ****                     && (dataByte == PacketList[dataTypeIndex].EOP_LINE_FEED))
 1119              		.loc 1 444 0
 1120 00de 0333     		adds	r3, r3, #3
 1121 00e0 9D42     		cmp	r5, r3
 1122 00e2 61D1     		bne	.L78
 445:BrightnessCommManager.c ****             {
 1123              		.loc 1 445 0
 1124 00e4 9300     		lsls	r3, r2, #2
 1125 00e6 9A18     		adds	r2, r3, r2
 1126 00e8 334B     		ldr	r3, .L88+4
 1127 00ea 9A18     		adds	r2, r3, r2
 1128 00ec 1379     		ldrb	r3, [r2, #4]
 1129 00ee 9842     		cmp	r0, r3
 1130 00f0 5AD1     		bne	.L78
 447:BrightnessCommManager.c ****                 
 1131              		.loc 1 447 0
 1132 00f2 304C     		ldr	r4, .L88
 1133 00f4 6118     		adds	r1, r4, r1
 1134 00f6 0873     		strb	r0, [r1, #12]
 449:BrightnessCommManager.c ****                 timeOutCounter = 0;
 1135              		.loc 1 449 0
 1136 00f8 FFF7FEFF 		bl	TimeoutTimer_Stop
 1137              	.LVL101:
 450:BrightnessCommManager.c ****                 bCommunicationTimeOut = FALSE;
 1138              		.loc 1 450 0
 1139 00fc 0023     		movs	r3, #0
 1140 00fe E380     		strh	r3, [r4, #6]
 451:BrightnessCommManager.c ****                 TimeoutTimer_Start();
 1141              		.loc 1 451 0
 1142 0100 E370     		strb	r3, [r4, #3]
 452:BrightnessCommManager.c ****                 
ARM GAS  C:\Users\kylep\AppData\Local\Temp\ccH20siU.s 			page 38


 1143              		.loc 1 452 0
 1144 0102 FFF7FEFF 		bl	TimeoutTimer_Start
 1145              	.LVL102:
 454:BrightnessCommManager.c ****                 {
 1146              		.loc 1 454 0
 1147 0106 E37A     		ldrb	r3, [r4, #11]
 1148 0108 002B     		cmp	r3, #0
 1149 010a 08D1     		bne	.L79
 456:BrightnessCommManager.c ****                     processBrightnessPacket(packet, MAX_PACKET_SIZE - 1, FALSE);
 1150              		.loc 1 456 0
 1151 010c FFF7FEFF 		bl	processOutputSelectUart
 1152              	.LVL103:
 457:BrightnessCommManager.c ****                 }
 1153              		.loc 1 457 0
 1154 0110 0022     		movs	r2, #0
 1155 0112 0C21     		movs	r1, #12
 1156 0114 2748     		ldr	r0, .L88
 1157 0116 0C30     		adds	r0, r0, #12
 1158 0118 FFF7FEFF 		bl	processBrightnessPacket
 1159              	.LVL104:
 1160 011c 3EE0     		b	.L80
 1161              	.L79:
 459:BrightnessCommManager.c ****                 {
 1162              		.loc 1 459 0
 1163 011e 012B     		cmp	r3, #1
 1164 0120 07D1     		bne	.L81
 461:BrightnessCommManager.c ****                     processDriverCountPacket(packet, MAX_PACKET_SIZE);
 1165              		.loc 1 461 0
 1166 0122 FFF7FEFF 		bl	processOutputSelectUart
 1167              	.LVL105:
 462:BrightnessCommManager.c ****                 }
 1168              		.loc 1 462 0
 1169 0126 0D21     		movs	r1, #13
 1170 0128 2248     		ldr	r0, .L88
 1171 012a 0C30     		adds	r0, r0, #12
 1172 012c FFF7FEFF 		bl	processDriverCountPacket
 1173              	.LVL106:
 1174 0130 34E0     		b	.L80
 1175              	.L81:
 464:BrightnessCommManager.c ****                 {
 1176              		.loc 1 464 0
 1177 0132 022B     		cmp	r3, #2
 1178 0134 06D1     		bne	.L82
 466:BrightnessCommManager.c ****                 }
 1179              		.loc 1 466 0
 1180 0136 0D22     		movs	r2, #13
 1181 0138 1E49     		ldr	r1, .L88
 1182 013a 0C31     		adds	r1, r1, #12
 1183 013c 1F48     		ldr	r0, .L88+8
 1184 013e FFF7FEFF 		bl	memcpy
 1185              	.LVL107:
 1186 0142 2BE0     		b	.L80
 1187              	.L82:
 468:BrightnessCommManager.c ****                 {
 1188              		.loc 1 468 0
 1189 0144 032B     		cmp	r3, #3
 1190 0146 0DD1     		bne	.L83
ARM GAS  C:\Users\kylep\AppData\Local\Temp\ccH20siU.s 			page 39


 470:BrightnessCommManager.c ****                     saveStateBar(getVolatileBarStateMemory(), getNonVolatileBarStateMemory(), packe
 1191              		.loc 1 470 0
 1192 0148 FFF7FEFF 		bl	processOutputSelectUart
 1193              	.LVL108:
 471:BrightnessCommManager.c ****                     //
 1194              		.loc 1 471 0
 1195 014c FFF7FEFF 		bl	getVolatileBarStateMemory
 1196              	.LVL109:
 1197 0150 0400     		movs	r4, r0
 1198 0152 FFF7FEFF 		bl	getNonVolatileBarStateMemory
 1199              	.LVL110:
 1200 0156 0100     		movs	r1, r0
 1201 0158 164A     		ldr	r2, .L88
 1202 015a 0C32     		adds	r2, r2, #12
 1203 015c 2000     		movs	r0, r4
 1204 015e FFF7FEFF 		bl	saveStateBar
 1205              	.LVL111:
 1206 0162 1BE0     		b	.L80
 1207              	.L83:
 474:BrightnessCommManager.c ****                 {                   
 1208              		.loc 1 474 0
 1209 0164 042B     		cmp	r3, #4
 1210 0166 05D1     		bne	.L84
 476:BrightnessCommManager.c ****                 }
 1211              		.loc 1 476 0
 1212 0168 0521     		movs	r1, #5
 1213 016a 1248     		ldr	r0, .L88
 1214 016c 0C30     		adds	r0, r0, #12
 1215 016e FFF7FEFF 		bl	processLowPowerRequest
 1216              	.LVL112:
 1217 0172 13E0     		b	.L80
 1218              	.L84:
 478:BrightnessCommManager.c ****                 {
 1219              		.loc 1 478 0
 1220 0174 052B     		cmp	r3, #5
 1221 0176 09D1     		bne	.L85
 480:BrightnessCommManager.c ****                     processReinitlizationPacket(packet, MAX_PACKET_SIZE-6);
 1222              		.loc 1 480 0
 1223 0178 FFF7FEFF 		bl	processOutputSelectUart
 1224              	.LVL113:
 481:BrightnessCommManager.c ****                     processCalibrationPacket();
 1225              		.loc 1 481 0
 1226 017c 0721     		movs	r1, #7
 1227 017e 0D48     		ldr	r0, .L88
 1228 0180 0C30     		adds	r0, r0, #12
 1229 0182 FFF7FEFF 		bl	processReinitlizationPacket
 1230              	.LVL114:
 482:BrightnessCommManager.c ****                 }
 1231              		.loc 1 482 0
 1232 0186 FFF7FEFF 		bl	processCalibrationPacket
 1233              	.LVL115:
 1234 018a 07E0     		b	.L80
 1235              	.L85:
 486:BrightnessCommManager.c ****                     processBrightnessPacket(packet, MAX_PACKET_SIZE - 1, TRUE);
 1236              		.loc 1 486 0
 1237 018c FFF7FEFF 		bl	processOutputSelectUart
 1238              	.LVL116:
ARM GAS  C:\Users\kylep\AppData\Local\Temp\ccH20siU.s 			page 40


 487:BrightnessCommManager.c ****                 }
 1239              		.loc 1 487 0
 1240 0190 0122     		movs	r2, #1
 1241 0192 0C21     		movs	r1, #12
 1242 0194 0748     		ldr	r0, .L88
 1243 0196 0C30     		adds	r0, r0, #12
 1244 0198 FFF7FEFF 		bl	processBrightnessPacket
 1245              	.LVL117:
 1246              	.L80:
 490:BrightnessCommManager.c ****                 currentState = HEADER_STATE;
 1247              		.loc 1 490 0
 1248 019c 054B     		ldr	r3, .L88
 1249 019e 0022     		movs	r2, #0
 1250 01a0 9A72     		strb	r2, [r3, #10]
 491:BrightnessCommManager.c ****                 dataTypeIndex = 0;
 1251              		.loc 1 491 0
 1252 01a2 5A72     		strb	r2, [r3, #9]
 492:BrightnessCommManager.c ****             }
 1253              		.loc 1 492 0
 1254 01a4 DA72     		strb	r2, [r3, #11]
 1255 01a6 04E0     		b	.L66
 1256              	.LVL118:
 1257              	.L78:
 496:BrightnessCommManager.c ****                 currentState = HEADER_STATE;
 1258              		.loc 1 496 0
 1259 01a8 024B     		ldr	r3, .L88
 1260 01aa 0022     		movs	r2, #0
 1261 01ac 9A72     		strb	r2, [r3, #10]
 497:BrightnessCommManager.c ****                 dataTypeIndex = 0;
 1262              		.loc 1 497 0
 1263 01ae 5A72     		strb	r2, [r3, #9]
 498:BrightnessCommManager.c ****             }
 1264              		.loc 1 498 0
 1265 01b0 DA72     		strb	r2, [r3, #11]
 1266              	.LVL119:
 1267              	.L66:
 502:BrightnessCommManager.c **** 
 1268              		.loc 1 502 0
 1269              		@ sp needed
 1270 01b2 70BD     		pop	{r4, r5, r6, pc}
 1271              	.L89:
 1272              		.align	2
 1273              	.L88:
 1274 01b4 00000000 		.word	.LANCHOR0
 1275 01b8 00000000 		.word	.LANCHOR2
 1276 01bc 00000000 		.word	rxPacket
 1277              		.cfi_endproc
 1278              	.LFE42:
 1279              		.size	detectPacket, .-detectPacket
 1280              		.section	.text.processBrightnessByteReceivedHandler,"ax",%progbits
 1281              		.align	2
 1282              		.global	processBrightnessByteReceivedHandler
 1283              		.code	16
 1284              		.thumb_func
 1285              		.type	processBrightnessByteReceivedHandler, %function
 1286              	processBrightnessByteReceivedHandler:
 1287              	.LFB37:
ARM GAS  C:\Users\kylep\AppData\Local\Temp\ccH20siU.s 			page 41


 255:BrightnessCommManager.c ****     
 1288              		.loc 1 255 0
 1289              		.cfi_startproc
 1290              		@ args = 0, pretend = 0, frame = 0
 1291              		@ frame_needed = 0, uses_anonymous_args = 0
 1292 0000 10B5     		push	{r4, lr}
 1293              		.cfi_def_cfa_offset 8
 1294              		.cfi_offset 4, -8
 1295              		.cfi_offset 14, -4
 1296              	.L91:
 267:BrightnessCommManager.c ****         detectPacket(dataByte);
 1297              		.loc 1 267 0 discriminator 1
 1298 0002 FFF7FEFF 		bl	UART_LED_UartGetByte
 1299              	.LVL120:
 1300 0006 C0B2     		uxtb	r0, r0
 1301              	.LVL121:
 268:BrightnessCommManager.c ****     }while(UART_LED_SpiUartGetRxBufferSize() > 0);
 1302              		.loc 1 268 0 discriminator 1
 1303 0008 FFF7FEFF 		bl	detectPacket
 1304              	.LVL122:
 269:BrightnessCommManager.c ****     
 1305              		.loc 1 269 0 discriminator 1
 1306 000c FFF7FEFF 		bl	UART_LED_SpiUartGetRxBufferSize
 1307              	.LVL123:
 1308 0010 0028     		cmp	r0, #0
 1309 0012 F6D1     		bne	.L91
 271:BrightnessCommManager.c ****     UART_LED_ClearRxInterruptSource(interruptSource);
 1310              		.loc 1 271 0
 1311 0014 024B     		ldr	r3, .L92
 1312 0016 1A68     		ldr	r2, [r3]
 1313              	.LVL124:
 272:BrightnessCommManager.c **** }
 1314              		.loc 1 272 0
 1315 0018 024B     		ldr	r3, .L92+4
 1316 001a 1A60     		str	r2, [r3]
 273:BrightnessCommManager.c **** 
 1317              		.loc 1 273 0
 1318              		@ sp needed
 1319 001c 10BD     		pop	{r4, pc}
 1320              	.L93:
 1321 001e C046     		.align	2
 1322              	.L92:
 1323 0020 CC0F0740 		.word	1074204620
 1324 0024 C00F0740 		.word	1074204608
 1325              		.cfi_endproc
 1326              	.LFE37:
 1327              		.size	processBrightnessByteReceivedHandler, .-processBrightnessByteReceivedHandler
 1328              		.section	.text.getRxPacket,"ax",%progbits
 1329              		.align	2
 1330              		.global	getRxPacket
 1331              		.code	16
 1332              		.thumb_func
 1333              		.type	getRxPacket, %function
 1334              	getRxPacket:
 1335              	.LFB52:
 797:BrightnessCommManager.c **** 
 798:BrightnessCommManager.c ****  RxPacket * getRxPacket(void)
ARM GAS  C:\Users\kylep\AppData\Local\Temp\ccH20siU.s 			page 42


 799:BrightnessCommManager.c **** {
 1336              		.loc 1 799 0
 1337              		.cfi_startproc
 1338              		@ args = 0, pretend = 0, frame = 0
 1339              		@ frame_needed = 0, uses_anonymous_args = 0
 1340              		@ link register save eliminated.
 800:BrightnessCommManager.c ****     pRxPacket = &rxPacket;
 1341              		.loc 1 800 0
 1342 0000 0148     		ldr	r0, .L95
 1343 0002 024B     		ldr	r3, .L95+4
 1344 0004 1860     		str	r0, [r3]
 801:BrightnessCommManager.c ****     
 802:BrightnessCommManager.c ****     return pRxPacket;
 803:BrightnessCommManager.c **** }
 1345              		.loc 1 803 0
 1346              		@ sp needed
 1347 0006 7047     		bx	lr
 1348              	.L96:
 1349              		.align	2
 1350              	.L95:
 1351 0008 00000000 		.word	rxPacket
 1352 000c 00000000 		.word	pRxPacket
 1353              		.cfi_endproc
 1354              	.LFE52:
 1355              		.size	getRxPacket, .-getRxPacket
 1356              		.comm	pRxPacket,4,4
 1357              		.comm	rxPacket,14,4
 1358              		.global	bIsCommunicationTrigger
 1359              		.global	timeOutCounter
 1360              		.global	bCommunicationTimeOut
 1361              		.section	.rodata
 1362              		.align	2
 1363              		.set	.LANCHOR2,. + 0
 1364              		.type	PacketList, %object
 1365              		.size	PacketList, 30
 1366              	PacketList:
 1367 0000 7E       		.byte	126
 1368 0001 42       		.byte	66
 1369 0002 08       		.byte	8
 1370 0003 0D       		.byte	13
 1371 0004 0A       		.byte	10
 1372 0005 7E       		.byte	126
 1373 0006 43       		.byte	67
 1374 0007 09       		.byte	9
 1375 0008 0D       		.byte	13
 1376 0009 0A       		.byte	10
 1377 000a 7E       		.byte	126
 1378 000b 4D       		.byte	77
 1379 000c 0B       		.byte	11
 1380 000d 0D       		.byte	13
 1381 000e 0A       		.byte	10
 1382 000f 7E       		.byte	126
 1383 0010 53       		.byte	83
 1384 0011 03       		.byte	3
 1385 0012 0D       		.byte	13
 1386 0013 0A       		.byte	10
 1387 0014 7E       		.byte	126
ARM GAS  C:\Users\kylep\AppData\Local\Temp\ccH20siU.s 			page 43


 1388 0015 4C       		.byte	76
 1389 0016 01       		.byte	1
 1390 0017 0D       		.byte	13
 1391 0018 0A       		.byte	10
 1392 0019 7E       		.byte	126
 1393 001a 41       		.byte	65
 1394 001b 01       		.byte	1
 1395 001c 0D       		.byte	13
 1396 001d 0A       		.byte	10
 1397              		.data
 1398              		.set	.LANCHOR1,. + 0
 1399              		.type	bFirstBrightnessPacket.6657, %object
 1400              		.size	bFirstBrightnessPacket.6657, 1
 1401              	bFirstBrightnessPacket.6657:
 1402 0000 01       		.byte	1
 1403              		.bss
 1404              		.align	2
 1405              		.set	.LANCHOR0,. + 0
 1406              		.type	bReceivedCountPacket.6641, %object
 1407              		.size	bReceivedCountPacket.6641, 1
 1408              	bReceivedCountPacket.6641:
 1409 0000 00       		.space	1
 1410              		.type	bDriverCountReceived, %object
 1411              		.size	bDriverCountReceived, 1
 1412              	bDriverCountReceived:
 1413 0001 00       		.space	1
 1414              		.type	stateOfLightBar, %object
 1415              		.size	stateOfLightBar, 1
 1416              	stateOfLightBar:
 1417 0002 00       		.space	1
 1418              		.type	bCommunicationTimeOut, %object
 1419              		.size	bCommunicationTimeOut, 1
 1420              	bCommunicationTimeOut:
 1421 0003 00       		.space	1
 1422              		.type	bIsCommunicationTrigger, %object
 1423              		.size	bIsCommunicationTrigger, 1
 1424              	bIsCommunicationTrigger:
 1425 0004 00       		.space	1
 1426 0005 00       		.space	1
 1427              		.type	timeOutCounter, %object
 1428              		.size	timeOutCounter, 2
 1429              	timeOutCounter:
 1430 0006 0000     		.space	2
 1431              		.type	ifPowerUp, %object
 1432              		.size	ifPowerUp, 1
 1433              	ifPowerUp:
 1434 0008 00       		.space	1
 1435              		.type	currentState.6621, %object
 1436              		.size	currentState.6621, 1
 1437              	currentState.6621:
 1438 0009 00       		.space	1
 1439              		.type	currentPacketIndex.6622, %object
 1440              		.size	currentPacketIndex.6622, 1
 1441              	currentPacketIndex.6622:
 1442 000a 00       		.space	1
 1443              		.type	dataTypeIndex.6623, %object
 1444              		.size	dataTypeIndex.6623, 1
ARM GAS  C:\Users\kylep\AppData\Local\Temp\ccH20siU.s 			page 44


 1445              	dataTypeIndex.6623:
 1446 000b 00       		.space	1
 1447              		.type	packet.6620, %object
 1448              		.size	packet.6620, 13
 1449              	packet.6620:
 1450 000c 00000000 		.space	13
 1450      00000000 
 1450      00000000 
 1450      00
 1451              		.text
 1452              	.Letext0:
 1453              		.file 2 "Generated_Source\\PSoC4/cytypes.h"
 1454              		.file 3 "BrightnessCommManager.h"
 1455              		.file 4 "DriverControl.h"
 1456              		.file 5 "Generated_Source\\PSoC4/PWM.h"
 1457              		.file 6 "Generated_Source\\PSoC4/CommTimeoutISR.h"
 1458              		.file 7 "Generated_Source\\PSoC4/AckTimeoutISR.h"
 1459              		.file 8 "Generated_Source\\PSoC4/SamplingTimerISR.h"
 1460              		.file 9 "Generated_Source\\PSoC4/ADC_SAR_Seq.h"
 1461              		.file 10 "Generated_Source\\PSoC4/UART_LED_ISR.h"
 1462              		.file 11 "Generated_Source\\PSoC4/UART_LED.h"
 1463              		.file 12 "Generated_Source\\PSoC4/LED_ISR.h"
 1464              		.file 13 "Generated_Source\\PSoC4/SamplingTimer.h"
 1465              		.file 14 "Generated_Source\\PSoC4/TimeoutTimer.h"
 1466              		.file 15 "TemperatureCommManager.h"
 1467              		.file 16 "Generated_Source\\PSoC4/AckTimer.h"
 1468              		.file 17 "Generated_Source\\PSoC4/EmEEPROM.h"
 1469              		.file 18 "CommonVariables.h"
 1470              		.file 19 "c:\\program files (x86)\\cypress\\psoc creator\\4.1\\psoc creator\\import\\gnu\\arm\\5.4
 1471              		.file 20 "Generated_Source\\PSoC4/CyLib.h"
 1472              		.file 21 "Generated_Source\\PSoC4/cyPm.h"
 1473              		.file 22 "Generated_Source\\PSoC4/UART_LED_SPI_UART.h"