ARM GAS  C:\Users\kylep\AppData\Local\Temp\ccRh8esq.s 			page 1


   1              		.syntax unified
   2              		.cpu cortex-m0
   3              		.fpu softvfp
   4              		.eabi_attribute 20, 1
   5              		.eabi_attribute 21, 1
   6              		.eabi_attribute 23, 3
   7              		.eabi_attribute 24, 1
   8              		.eabi_attribute 25, 1
   9              		.eabi_attribute 26, 1
  10              		.eabi_attribute 30, 1
  11              		.eabi_attribute 34, 0
  12              		.eabi_attribute 18, 4
  13              		.thumb
  14              		.syntax unified
  15              		.file	"CommTimeoutISR.c"
  16              		.text
  17              	.Ltext0:
  18              		.cfi_sections	.debug_frame
  19              		.section	.text.CommTimeoutISR_Interrupt,"ax",%progbits
  20              		.align	2
  21              		.global	CommTimeoutISR_Interrupt
  22              		.code	16
  23              		.thumb_func
  24              		.type	CommTimeoutISR_Interrupt, %function
  25              	CommTimeoutISR_Interrupt:
  26              	.LFB35:
  27              		.file 1 "Generated_Source\\PSoC4\\CommTimeoutISR.c"
   1:Generated_Source\PSoC4/CommTimeoutISR.c **** /*******************************************************************************
   2:Generated_Source\PSoC4/CommTimeoutISR.c **** * File Name: CommTimeoutISR.c  
   3:Generated_Source\PSoC4/CommTimeoutISR.c **** * Version 1.70
   4:Generated_Source\PSoC4/CommTimeoutISR.c **** *
   5:Generated_Source\PSoC4/CommTimeoutISR.c **** *  Description:
   6:Generated_Source\PSoC4/CommTimeoutISR.c **** *   API for controlling the state of an interrupt.
   7:Generated_Source\PSoC4/CommTimeoutISR.c **** *
   8:Generated_Source\PSoC4/CommTimeoutISR.c **** *
   9:Generated_Source\PSoC4/CommTimeoutISR.c **** *  Note:
  10:Generated_Source\PSoC4/CommTimeoutISR.c **** *
  11:Generated_Source\PSoC4/CommTimeoutISR.c **** ********************************************************************************
  12:Generated_Source\PSoC4/CommTimeoutISR.c **** * Copyright 2008-2015, Cypress Semiconductor Corporation.  All rights reserved.
  13:Generated_Source\PSoC4/CommTimeoutISR.c **** * You may use this file only in accordance with the license, terms, conditions, 
  14:Generated_Source\PSoC4/CommTimeoutISR.c **** * disclaimers, and limitations in the end user license agreement accompanying 
  15:Generated_Source\PSoC4/CommTimeoutISR.c **** * the software package with which this file was provided.
  16:Generated_Source\PSoC4/CommTimeoutISR.c **** *******************************************************************************/
  17:Generated_Source\PSoC4/CommTimeoutISR.c **** 
  18:Generated_Source\PSoC4/CommTimeoutISR.c **** 
  19:Generated_Source\PSoC4/CommTimeoutISR.c **** #include <cydevice_trm.h>
  20:Generated_Source\PSoC4/CommTimeoutISR.c **** #include <CyLib.h>
  21:Generated_Source\PSoC4/CommTimeoutISR.c **** #include <CommTimeoutISR.h>
  22:Generated_Source\PSoC4/CommTimeoutISR.c **** 
  23:Generated_Source\PSoC4/CommTimeoutISR.c **** 
  24:Generated_Source\PSoC4/CommTimeoutISR.c **** #if !defined(CommTimeoutISR__REMOVED) /* Check for removal by optimization */
  25:Generated_Source\PSoC4/CommTimeoutISR.c **** 
  26:Generated_Source\PSoC4/CommTimeoutISR.c **** /*******************************************************************************
  27:Generated_Source\PSoC4/CommTimeoutISR.c **** *  Place your includes, defines and code here 
  28:Generated_Source\PSoC4/CommTimeoutISR.c **** ********************************************************************************/
  29:Generated_Source\PSoC4/CommTimeoutISR.c **** /* `#START CommTimeoutISR_intc` */
  30:Generated_Source\PSoC4/CommTimeoutISR.c **** 
ARM GAS  C:\Users\kylep\AppData\Local\Temp\ccRh8esq.s 			page 2


  31:Generated_Source\PSoC4/CommTimeoutISR.c **** #include "BrightnessCommManager.h"
  32:Generated_Source\PSoC4/CommTimeoutISR.c ****     
  33:Generated_Source\PSoC4/CommTimeoutISR.c **** /* `#END` */
  34:Generated_Source\PSoC4/CommTimeoutISR.c **** 
  35:Generated_Source\PSoC4/CommTimeoutISR.c **** extern cyisraddress CyRamVectors[CYINT_IRQ_BASE + CY_NUM_INTERRUPTS];
  36:Generated_Source\PSoC4/CommTimeoutISR.c **** 
  37:Generated_Source\PSoC4/CommTimeoutISR.c **** /* Declared in startup, used to set unused interrupts to. */
  38:Generated_Source\PSoC4/CommTimeoutISR.c **** CY_ISR_PROTO(IntDefaultHandler);
  39:Generated_Source\PSoC4/CommTimeoutISR.c **** 
  40:Generated_Source\PSoC4/CommTimeoutISR.c **** 
  41:Generated_Source\PSoC4/CommTimeoutISR.c **** /*******************************************************************************
  42:Generated_Source\PSoC4/CommTimeoutISR.c **** * Function Name: CommTimeoutISR_Start
  43:Generated_Source\PSoC4/CommTimeoutISR.c **** ********************************************************************************
  44:Generated_Source\PSoC4/CommTimeoutISR.c **** *
  45:Generated_Source\PSoC4/CommTimeoutISR.c **** * Summary:
  46:Generated_Source\PSoC4/CommTimeoutISR.c **** *  Set up the interrupt and enable it. This function disables the interrupt, 
  47:Generated_Source\PSoC4/CommTimeoutISR.c **** *  sets the default interrupt vector, sets the priority from the value in the
  48:Generated_Source\PSoC4/CommTimeoutISR.c **** *  Design Wide Resources Interrupt Editor, then enables the interrupt to the 
  49:Generated_Source\PSoC4/CommTimeoutISR.c **** *  interrupt controller.
  50:Generated_Source\PSoC4/CommTimeoutISR.c **** *
  51:Generated_Source\PSoC4/CommTimeoutISR.c **** * Parameters:  
  52:Generated_Source\PSoC4/CommTimeoutISR.c **** *   None
  53:Generated_Source\PSoC4/CommTimeoutISR.c **** *
  54:Generated_Source\PSoC4/CommTimeoutISR.c **** * Return:
  55:Generated_Source\PSoC4/CommTimeoutISR.c **** *   None
  56:Generated_Source\PSoC4/CommTimeoutISR.c **** *
  57:Generated_Source\PSoC4/CommTimeoutISR.c **** *******************************************************************************/
  58:Generated_Source\PSoC4/CommTimeoutISR.c **** void CommTimeoutISR_Start(void)
  59:Generated_Source\PSoC4/CommTimeoutISR.c **** {
  60:Generated_Source\PSoC4/CommTimeoutISR.c ****     /* For all we know the interrupt is active. */
  61:Generated_Source\PSoC4/CommTimeoutISR.c ****     CommTimeoutISR_Disable();
  62:Generated_Source\PSoC4/CommTimeoutISR.c **** 
  63:Generated_Source\PSoC4/CommTimeoutISR.c ****     /* Set the ISR to point to the CommTimeoutISR Interrupt. */
  64:Generated_Source\PSoC4/CommTimeoutISR.c ****     CommTimeoutISR_SetVector(&CommTimeoutISR_Interrupt);
  65:Generated_Source\PSoC4/CommTimeoutISR.c **** 
  66:Generated_Source\PSoC4/CommTimeoutISR.c ****     /* Set the priority. */
  67:Generated_Source\PSoC4/CommTimeoutISR.c ****     CommTimeoutISR_SetPriority((uint8)CommTimeoutISR_INTC_PRIOR_NUMBER);
  68:Generated_Source\PSoC4/CommTimeoutISR.c **** 
  69:Generated_Source\PSoC4/CommTimeoutISR.c ****     /* Enable it. */
  70:Generated_Source\PSoC4/CommTimeoutISR.c ****     CommTimeoutISR_Enable();
  71:Generated_Source\PSoC4/CommTimeoutISR.c **** }
  72:Generated_Source\PSoC4/CommTimeoutISR.c **** 
  73:Generated_Source\PSoC4/CommTimeoutISR.c **** 
  74:Generated_Source\PSoC4/CommTimeoutISR.c **** /*******************************************************************************
  75:Generated_Source\PSoC4/CommTimeoutISR.c **** * Function Name: CommTimeoutISR_StartEx
  76:Generated_Source\PSoC4/CommTimeoutISR.c **** ********************************************************************************
  77:Generated_Source\PSoC4/CommTimeoutISR.c **** *
  78:Generated_Source\PSoC4/CommTimeoutISR.c **** * Summary:
  79:Generated_Source\PSoC4/CommTimeoutISR.c **** *  Sets up the interrupt and enables it. This function disables the interrupt,
  80:Generated_Source\PSoC4/CommTimeoutISR.c **** *  sets the interrupt vector based on the address passed in, sets the priority 
  81:Generated_Source\PSoC4/CommTimeoutISR.c **** *  from the value in the Design Wide Resources Interrupt Editor, then enables 
  82:Generated_Source\PSoC4/CommTimeoutISR.c **** *  the interrupt to the interrupt controller.
  83:Generated_Source\PSoC4/CommTimeoutISR.c **** *  
  84:Generated_Source\PSoC4/CommTimeoutISR.c **** *  When defining ISR functions, the CY_ISR and CY_ISR_PROTO macros should be 
  85:Generated_Source\PSoC4/CommTimeoutISR.c **** *  used to provide consistent definition across compilers:
  86:Generated_Source\PSoC4/CommTimeoutISR.c **** *  
  87:Generated_Source\PSoC4/CommTimeoutISR.c **** *  Function definition example:
ARM GAS  C:\Users\kylep\AppData\Local\Temp\ccRh8esq.s 			page 3


  88:Generated_Source\PSoC4/CommTimeoutISR.c **** *   CY_ISR(MyISR)
  89:Generated_Source\PSoC4/CommTimeoutISR.c **** *   {
  90:Generated_Source\PSoC4/CommTimeoutISR.c **** *   }
  91:Generated_Source\PSoC4/CommTimeoutISR.c **** *   Function prototype example:
  92:Generated_Source\PSoC4/CommTimeoutISR.c **** *   CY_ISR_PROTO(MyISR);
  93:Generated_Source\PSoC4/CommTimeoutISR.c **** *
  94:Generated_Source\PSoC4/CommTimeoutISR.c **** * Parameters:  
  95:Generated_Source\PSoC4/CommTimeoutISR.c **** *   address: Address of the ISR to set in the interrupt vector table.
  96:Generated_Source\PSoC4/CommTimeoutISR.c **** *
  97:Generated_Source\PSoC4/CommTimeoutISR.c **** * Return:
  98:Generated_Source\PSoC4/CommTimeoutISR.c **** *   None
  99:Generated_Source\PSoC4/CommTimeoutISR.c **** *
 100:Generated_Source\PSoC4/CommTimeoutISR.c **** *******************************************************************************/
 101:Generated_Source\PSoC4/CommTimeoutISR.c **** void CommTimeoutISR_StartEx(cyisraddress address)
 102:Generated_Source\PSoC4/CommTimeoutISR.c **** {
 103:Generated_Source\PSoC4/CommTimeoutISR.c ****     /* For all we know the interrupt is active. */
 104:Generated_Source\PSoC4/CommTimeoutISR.c ****     CommTimeoutISR_Disable();
 105:Generated_Source\PSoC4/CommTimeoutISR.c **** 
 106:Generated_Source\PSoC4/CommTimeoutISR.c ****     /* Set the ISR to point to the CommTimeoutISR Interrupt. */
 107:Generated_Source\PSoC4/CommTimeoutISR.c ****     CommTimeoutISR_SetVector(address);
 108:Generated_Source\PSoC4/CommTimeoutISR.c **** 
 109:Generated_Source\PSoC4/CommTimeoutISR.c ****     /* Set the priority. */
 110:Generated_Source\PSoC4/CommTimeoutISR.c ****     CommTimeoutISR_SetPriority((uint8)CommTimeoutISR_INTC_PRIOR_NUMBER);
 111:Generated_Source\PSoC4/CommTimeoutISR.c **** 
 112:Generated_Source\PSoC4/CommTimeoutISR.c ****     /* Enable it. */
 113:Generated_Source\PSoC4/CommTimeoutISR.c ****     CommTimeoutISR_Enable();
 114:Generated_Source\PSoC4/CommTimeoutISR.c **** }
 115:Generated_Source\PSoC4/CommTimeoutISR.c **** 
 116:Generated_Source\PSoC4/CommTimeoutISR.c **** 
 117:Generated_Source\PSoC4/CommTimeoutISR.c **** /*******************************************************************************
 118:Generated_Source\PSoC4/CommTimeoutISR.c **** * Function Name: CommTimeoutISR_Stop
 119:Generated_Source\PSoC4/CommTimeoutISR.c **** ********************************************************************************
 120:Generated_Source\PSoC4/CommTimeoutISR.c **** *
 121:Generated_Source\PSoC4/CommTimeoutISR.c **** * Summary:
 122:Generated_Source\PSoC4/CommTimeoutISR.c **** *   Disables and removes the interrupt.
 123:Generated_Source\PSoC4/CommTimeoutISR.c **** *
 124:Generated_Source\PSoC4/CommTimeoutISR.c **** * Parameters:  
 125:Generated_Source\PSoC4/CommTimeoutISR.c **** *   None
 126:Generated_Source\PSoC4/CommTimeoutISR.c **** *
 127:Generated_Source\PSoC4/CommTimeoutISR.c **** * Return:
 128:Generated_Source\PSoC4/CommTimeoutISR.c **** *   None
 129:Generated_Source\PSoC4/CommTimeoutISR.c **** *
 130:Generated_Source\PSoC4/CommTimeoutISR.c **** *******************************************************************************/
 131:Generated_Source\PSoC4/CommTimeoutISR.c **** void CommTimeoutISR_Stop(void)
 132:Generated_Source\PSoC4/CommTimeoutISR.c **** {
 133:Generated_Source\PSoC4/CommTimeoutISR.c ****     /* Disable this interrupt. */
 134:Generated_Source\PSoC4/CommTimeoutISR.c ****     CommTimeoutISR_Disable();
 135:Generated_Source\PSoC4/CommTimeoutISR.c **** 
 136:Generated_Source\PSoC4/CommTimeoutISR.c ****     /* Set the ISR to point to the passive one. */
 137:Generated_Source\PSoC4/CommTimeoutISR.c ****     CommTimeoutISR_SetVector(&IntDefaultHandler);
 138:Generated_Source\PSoC4/CommTimeoutISR.c **** }
 139:Generated_Source\PSoC4/CommTimeoutISR.c **** 
 140:Generated_Source\PSoC4/CommTimeoutISR.c **** 
 141:Generated_Source\PSoC4/CommTimeoutISR.c **** /*******************************************************************************
 142:Generated_Source\PSoC4/CommTimeoutISR.c **** * Function Name: CommTimeoutISR_Interrupt
 143:Generated_Source\PSoC4/CommTimeoutISR.c **** ********************************************************************************
 144:Generated_Source\PSoC4/CommTimeoutISR.c **** *
ARM GAS  C:\Users\kylep\AppData\Local\Temp\ccRh8esq.s 			page 4


 145:Generated_Source\PSoC4/CommTimeoutISR.c **** * Summary:
 146:Generated_Source\PSoC4/CommTimeoutISR.c **** *   The default Interrupt Service Routine for CommTimeoutISR.
 147:Generated_Source\PSoC4/CommTimeoutISR.c **** *
 148:Generated_Source\PSoC4/CommTimeoutISR.c **** *   Add custom code between the START and END comments to keep the next version
 149:Generated_Source\PSoC4/CommTimeoutISR.c **** *   of this file from over-writing your code.
 150:Generated_Source\PSoC4/CommTimeoutISR.c **** *
 151:Generated_Source\PSoC4/CommTimeoutISR.c **** *   Note You may use either the default ISR by using this API, or you may define
 152:Generated_Source\PSoC4/CommTimeoutISR.c **** *   your own separate ISR through ISR_StartEx().
 153:Generated_Source\PSoC4/CommTimeoutISR.c **** *
 154:Generated_Source\PSoC4/CommTimeoutISR.c **** * Parameters:  
 155:Generated_Source\PSoC4/CommTimeoutISR.c **** *   None
 156:Generated_Source\PSoC4/CommTimeoutISR.c **** *
 157:Generated_Source\PSoC4/CommTimeoutISR.c **** * Return:
 158:Generated_Source\PSoC4/CommTimeoutISR.c **** *   None
 159:Generated_Source\PSoC4/CommTimeoutISR.c **** *
 160:Generated_Source\PSoC4/CommTimeoutISR.c **** *******************************************************************************/
 161:Generated_Source\PSoC4/CommTimeoutISR.c **** CY_ISR(CommTimeoutISR_Interrupt)
 162:Generated_Source\PSoC4/CommTimeoutISR.c **** {
  28              		.loc 1 162 0
  29              		.cfi_startproc
  30              		@ args = 0, pretend = 0, frame = 0
  31              		@ frame_needed = 0, uses_anonymous_args = 0
  32 0000 10B5     		push	{r4, lr}
  33              		.cfi_def_cfa_offset 8
  34              		.cfi_offset 4, -8
  35              		.cfi_offset 14, -4
 163:Generated_Source\PSoC4/CommTimeoutISR.c ****     #ifdef CommTimeoutISR_INTERRUPT_INTERRUPT_CALLBACK
 164:Generated_Source\PSoC4/CommTimeoutISR.c ****         CommTimeoutISR_Interrupt_InterruptCallback();
 165:Generated_Source\PSoC4/CommTimeoutISR.c ****     #endif /* CommTimeoutISR_INTERRUPT_INTERRUPT_CALLBACK */ 
 166:Generated_Source\PSoC4/CommTimeoutISR.c **** 
 167:Generated_Source\PSoC4/CommTimeoutISR.c ****     /*  Place your Interrupt code here. */
 168:Generated_Source\PSoC4/CommTimeoutISR.c ****     /* `#START CommTimeoutISR_Interrupt` */
 169:Generated_Source\PSoC4/CommTimeoutISR.c **** 
 170:Generated_Source\PSoC4/CommTimeoutISR.c ****     processTimeoutTimerRoutine();
  36              		.loc 1 170 0
  37 0002 FFF7FEFF 		bl	processTimeoutTimerRoutine
  38              	.LVL0:
 171:Generated_Source\PSoC4/CommTimeoutISR.c ****     
 172:Generated_Source\PSoC4/CommTimeoutISR.c ****     /* `#END` */
 173:Generated_Source\PSoC4/CommTimeoutISR.c **** }
  39              		.loc 1 173 0
  40              		@ sp needed
  41 0006 10BD     		pop	{r4, pc}
  42              		.cfi_endproc
  43              	.LFE35:
  44              		.size	CommTimeoutISR_Interrupt, .-CommTimeoutISR_Interrupt
  45              		.section	.text.CommTimeoutISR_SetVector,"ax",%progbits
  46              		.align	2
  47              		.global	CommTimeoutISR_SetVector
  48              		.code	16
  49              		.thumb_func
  50              		.type	CommTimeoutISR_SetVector, %function
  51              	CommTimeoutISR_SetVector:
  52              	.LFB36:
 174:Generated_Source\PSoC4/CommTimeoutISR.c **** 
 175:Generated_Source\PSoC4/CommTimeoutISR.c **** 
 176:Generated_Source\PSoC4/CommTimeoutISR.c **** /*******************************************************************************
ARM GAS  C:\Users\kylep\AppData\Local\Temp\ccRh8esq.s 			page 5


 177:Generated_Source\PSoC4/CommTimeoutISR.c **** * Function Name: CommTimeoutISR_SetVector
 178:Generated_Source\PSoC4/CommTimeoutISR.c **** ********************************************************************************
 179:Generated_Source\PSoC4/CommTimeoutISR.c **** *
 180:Generated_Source\PSoC4/CommTimeoutISR.c **** * Summary:
 181:Generated_Source\PSoC4/CommTimeoutISR.c **** *   Change the ISR vector for the Interrupt. Note calling CommTimeoutISR_Start
 182:Generated_Source\PSoC4/CommTimeoutISR.c **** *   will override any effect this method would have had. To set the vector 
 183:Generated_Source\PSoC4/CommTimeoutISR.c **** *   before the component has been started use CommTimeoutISR_StartEx instead.
 184:Generated_Source\PSoC4/CommTimeoutISR.c **** * 
 185:Generated_Source\PSoC4/CommTimeoutISR.c **** *   When defining ISR functions, the CY_ISR and CY_ISR_PROTO macros should be 
 186:Generated_Source\PSoC4/CommTimeoutISR.c **** *   used to provide consistent definition across compilers:
 187:Generated_Source\PSoC4/CommTimeoutISR.c **** *
 188:Generated_Source\PSoC4/CommTimeoutISR.c **** *   Function definition example:
 189:Generated_Source\PSoC4/CommTimeoutISR.c **** *   CY_ISR(MyISR)
 190:Generated_Source\PSoC4/CommTimeoutISR.c **** *   {
 191:Generated_Source\PSoC4/CommTimeoutISR.c **** *   }
 192:Generated_Source\PSoC4/CommTimeoutISR.c **** *
 193:Generated_Source\PSoC4/CommTimeoutISR.c **** *   Function prototype example:
 194:Generated_Source\PSoC4/CommTimeoutISR.c **** *     CY_ISR_PROTO(MyISR);
 195:Generated_Source\PSoC4/CommTimeoutISR.c **** *
 196:Generated_Source\PSoC4/CommTimeoutISR.c **** * Parameters:
 197:Generated_Source\PSoC4/CommTimeoutISR.c **** *   address: Address of the ISR to set in the interrupt vector table.
 198:Generated_Source\PSoC4/CommTimeoutISR.c **** *
 199:Generated_Source\PSoC4/CommTimeoutISR.c **** * Return:
 200:Generated_Source\PSoC4/CommTimeoutISR.c **** *   None
 201:Generated_Source\PSoC4/CommTimeoutISR.c **** *
 202:Generated_Source\PSoC4/CommTimeoutISR.c **** *******************************************************************************/
 203:Generated_Source\PSoC4/CommTimeoutISR.c **** void CommTimeoutISR_SetVector(cyisraddress address)
 204:Generated_Source\PSoC4/CommTimeoutISR.c **** {
  53              		.loc 1 204 0
  54              		.cfi_startproc
  55              		@ args = 0, pretend = 0, frame = 0
  56              		@ frame_needed = 0, uses_anonymous_args = 0
  57              		@ link register save eliminated.
  58              	.LVL1:
 205:Generated_Source\PSoC4/CommTimeoutISR.c ****     CyRamVectors[CYINT_IRQ_BASE + CommTimeoutISR__INTC_NUMBER] = address;
  59              		.loc 1 205 0
  60 0000 014B     		ldr	r3, .L3
  61 0002 9864     		str	r0, [r3, #72]
 206:Generated_Source\PSoC4/CommTimeoutISR.c **** }
  62              		.loc 1 206 0
  63              		@ sp needed
  64 0004 7047     		bx	lr
  65              	.L4:
  66 0006 C046     		.align	2
  67              	.L3:
  68 0008 00000000 		.word	CyRamVectors
  69              		.cfi_endproc
  70              	.LFE36:
  71              		.size	CommTimeoutISR_SetVector, .-CommTimeoutISR_SetVector
  72              		.section	.text.CommTimeoutISR_GetVector,"ax",%progbits
  73              		.align	2
  74              		.global	CommTimeoutISR_GetVector
  75              		.code	16
  76              		.thumb_func
  77              		.type	CommTimeoutISR_GetVector, %function
  78              	CommTimeoutISR_GetVector:
  79              	.LFB37:
ARM GAS  C:\Users\kylep\AppData\Local\Temp\ccRh8esq.s 			page 6


 207:Generated_Source\PSoC4/CommTimeoutISR.c **** 
 208:Generated_Source\PSoC4/CommTimeoutISR.c **** 
 209:Generated_Source\PSoC4/CommTimeoutISR.c **** /*******************************************************************************
 210:Generated_Source\PSoC4/CommTimeoutISR.c **** * Function Name: CommTimeoutISR_GetVector
 211:Generated_Source\PSoC4/CommTimeoutISR.c **** ********************************************************************************
 212:Generated_Source\PSoC4/CommTimeoutISR.c **** *
 213:Generated_Source\PSoC4/CommTimeoutISR.c **** * Summary:
 214:Generated_Source\PSoC4/CommTimeoutISR.c **** *   Gets the "address" of the current ISR vector for the Interrupt.
 215:Generated_Source\PSoC4/CommTimeoutISR.c **** *
 216:Generated_Source\PSoC4/CommTimeoutISR.c **** * Parameters:
 217:Generated_Source\PSoC4/CommTimeoutISR.c **** *   None
 218:Generated_Source\PSoC4/CommTimeoutISR.c **** *
 219:Generated_Source\PSoC4/CommTimeoutISR.c **** * Return:
 220:Generated_Source\PSoC4/CommTimeoutISR.c **** *   Address of the ISR in the interrupt vector table.
 221:Generated_Source\PSoC4/CommTimeoutISR.c **** *
 222:Generated_Source\PSoC4/CommTimeoutISR.c **** *******************************************************************************/
 223:Generated_Source\PSoC4/CommTimeoutISR.c **** cyisraddress CommTimeoutISR_GetVector(void)
 224:Generated_Source\PSoC4/CommTimeoutISR.c **** {
  80              		.loc 1 224 0
  81              		.cfi_startproc
  82              		@ args = 0, pretend = 0, frame = 0
  83              		@ frame_needed = 0, uses_anonymous_args = 0
  84              		@ link register save eliminated.
 225:Generated_Source\PSoC4/CommTimeoutISR.c ****     return CyRamVectors[CYINT_IRQ_BASE + CommTimeoutISR__INTC_NUMBER];
  85              		.loc 1 225 0
  86 0000 014B     		ldr	r3, .L6
  87 0002 986C     		ldr	r0, [r3, #72]
 226:Generated_Source\PSoC4/CommTimeoutISR.c **** }
  88              		.loc 1 226 0
  89              		@ sp needed
  90 0004 7047     		bx	lr
  91              	.L7:
  92 0006 C046     		.align	2
  93              	.L6:
  94 0008 00000000 		.word	CyRamVectors
  95              		.cfi_endproc
  96              	.LFE37:
  97              		.size	CommTimeoutISR_GetVector, .-CommTimeoutISR_GetVector
  98              		.section	.text.CommTimeoutISR_SetPriority,"ax",%progbits
  99              		.align	2
 100              		.global	CommTimeoutISR_SetPriority
 101              		.code	16
 102              		.thumb_func
 103              		.type	CommTimeoutISR_SetPriority, %function
 104              	CommTimeoutISR_SetPriority:
 105              	.LFB38:
 227:Generated_Source\PSoC4/CommTimeoutISR.c **** 
 228:Generated_Source\PSoC4/CommTimeoutISR.c **** 
 229:Generated_Source\PSoC4/CommTimeoutISR.c **** /*******************************************************************************
 230:Generated_Source\PSoC4/CommTimeoutISR.c **** * Function Name: CommTimeoutISR_SetPriority
 231:Generated_Source\PSoC4/CommTimeoutISR.c **** ********************************************************************************
 232:Generated_Source\PSoC4/CommTimeoutISR.c **** *
 233:Generated_Source\PSoC4/CommTimeoutISR.c **** * Summary:
 234:Generated_Source\PSoC4/CommTimeoutISR.c **** *   Sets the Priority of the Interrupt. 
 235:Generated_Source\PSoC4/CommTimeoutISR.c **** *
 236:Generated_Source\PSoC4/CommTimeoutISR.c **** *   Note calling CommTimeoutISR_Start or CommTimeoutISR_StartEx will 
 237:Generated_Source\PSoC4/CommTimeoutISR.c **** *   override any effect this API would have had. This API should only be called
ARM GAS  C:\Users\kylep\AppData\Local\Temp\ccRh8esq.s 			page 7


 238:Generated_Source\PSoC4/CommTimeoutISR.c **** *   after CommTimeoutISR_Start or CommTimeoutISR_StartEx has been called. 
 239:Generated_Source\PSoC4/CommTimeoutISR.c **** *   To set the initial priority for the component, use the Design-Wide Resources
 240:Generated_Source\PSoC4/CommTimeoutISR.c **** *   Interrupt Editor.
 241:Generated_Source\PSoC4/CommTimeoutISR.c **** *
 242:Generated_Source\PSoC4/CommTimeoutISR.c **** *   Note This API has no effect on Non-maskable interrupt NMI).
 243:Generated_Source\PSoC4/CommTimeoutISR.c **** *
 244:Generated_Source\PSoC4/CommTimeoutISR.c **** * Parameters:
 245:Generated_Source\PSoC4/CommTimeoutISR.c **** *   priority: Priority of the interrupt, 0 being the highest priority
 246:Generated_Source\PSoC4/CommTimeoutISR.c **** *             PSoC 3 and PSoC 5LP: Priority is from 0 to 7.
 247:Generated_Source\PSoC4/CommTimeoutISR.c **** *             PSoC 4: Priority is from 0 to 3.
 248:Generated_Source\PSoC4/CommTimeoutISR.c **** *
 249:Generated_Source\PSoC4/CommTimeoutISR.c **** * Return:
 250:Generated_Source\PSoC4/CommTimeoutISR.c **** *   None
 251:Generated_Source\PSoC4/CommTimeoutISR.c **** *
 252:Generated_Source\PSoC4/CommTimeoutISR.c **** *******************************************************************************/
 253:Generated_Source\PSoC4/CommTimeoutISR.c **** void CommTimeoutISR_SetPriority(uint8 priority)
 254:Generated_Source\PSoC4/CommTimeoutISR.c **** {
 106              		.loc 1 254 0
 107              		.cfi_startproc
 108              		@ args = 0, pretend = 0, frame = 0
 109              		@ frame_needed = 0, uses_anonymous_args = 0
 110              	.LVL2:
 111 0000 10B5     		push	{r4, lr}
 112              		.cfi_def_cfa_offset 8
 113              		.cfi_offset 4, -8
 114              		.cfi_offset 14, -4
 115 0002 0400     		movs	r4, r0
 116              	.LVL3:
 255:Generated_Source\PSoC4/CommTimeoutISR.c **** 	uint8 interruptState;
 256:Generated_Source\PSoC4/CommTimeoutISR.c ****     uint32 priorityOffset = ((CommTimeoutISR__INTC_NUMBER % 4u) * 8u) + 6u;
 257:Generated_Source\PSoC4/CommTimeoutISR.c ****     
 258:Generated_Source\PSoC4/CommTimeoutISR.c **** 	interruptState = CyEnterCriticalSection();
 117              		.loc 1 258 0
 118 0004 FFF7FEFF 		bl	CyEnterCriticalSection
 119              	.LVL4:
 259:Generated_Source\PSoC4/CommTimeoutISR.c ****     *CommTimeoutISR_INTC_PRIOR = (*CommTimeoutISR_INTC_PRIOR & (uint32)(~CommTimeoutISR__INTC_PRIOR
 120              		.loc 1 259 0
 121 0008 044A     		ldr	r2, .L9
 122 000a 1168     		ldr	r1, [r2]
 123 000c 044B     		ldr	r3, .L9+4
 124 000e 0B40     		ands	r3, r1
 260:Generated_Source\PSoC4/CommTimeoutISR.c ****                                     ((uint32)priority << priorityOffset);
 125              		.loc 1 260 0
 126 0010 A405     		lsls	r4, r4, #22
 259:Generated_Source\PSoC4/CommTimeoutISR.c ****     *CommTimeoutISR_INTC_PRIOR = (*CommTimeoutISR_INTC_PRIOR & (uint32)(~CommTimeoutISR__INTC_PRIOR
 127              		.loc 1 259 0
 128 0012 1C43     		orrs	r4, r3
 129 0014 1460     		str	r4, [r2]
 261:Generated_Source\PSoC4/CommTimeoutISR.c **** 	CyExitCriticalSection(interruptState);
 130              		.loc 1 261 0
 131 0016 FFF7FEFF 		bl	CyExitCriticalSection
 132              	.LVL5:
 262:Generated_Source\PSoC4/CommTimeoutISR.c **** }
 133              		.loc 1 262 0
 134              		@ sp needed
 135 001a 10BD     		pop	{r4, pc}
 136              	.L10:
ARM GAS  C:\Users\kylep\AppData\Local\Temp\ccRh8esq.s 			page 8


 137              		.align	2
 138              	.L9:
 139 001c 00E400E0 		.word	-536812544
 140 0020 FFFF3FFF 		.word	-12582913
 141              		.cfi_endproc
 142              	.LFE38:
 143              		.size	CommTimeoutISR_SetPriority, .-CommTimeoutISR_SetPriority
 144              		.section	.text.CommTimeoutISR_GetPriority,"ax",%progbits
 145              		.align	2
 146              		.global	CommTimeoutISR_GetPriority
 147              		.code	16
 148              		.thumb_func
 149              		.type	CommTimeoutISR_GetPriority, %function
 150              	CommTimeoutISR_GetPriority:
 151              	.LFB39:
 263:Generated_Source\PSoC4/CommTimeoutISR.c **** 
 264:Generated_Source\PSoC4/CommTimeoutISR.c **** 
 265:Generated_Source\PSoC4/CommTimeoutISR.c **** /*******************************************************************************
 266:Generated_Source\PSoC4/CommTimeoutISR.c **** * Function Name: CommTimeoutISR_GetPriority
 267:Generated_Source\PSoC4/CommTimeoutISR.c **** ********************************************************************************
 268:Generated_Source\PSoC4/CommTimeoutISR.c **** *
 269:Generated_Source\PSoC4/CommTimeoutISR.c **** * Summary:
 270:Generated_Source\PSoC4/CommTimeoutISR.c **** *   Gets the Priority of the Interrupt.
 271:Generated_Source\PSoC4/CommTimeoutISR.c **** *
 272:Generated_Source\PSoC4/CommTimeoutISR.c **** * Parameters:
 273:Generated_Source\PSoC4/CommTimeoutISR.c **** *   None
 274:Generated_Source\PSoC4/CommTimeoutISR.c **** *
 275:Generated_Source\PSoC4/CommTimeoutISR.c **** * Return:
 276:Generated_Source\PSoC4/CommTimeoutISR.c **** *   Priority of the interrupt, 0 being the highest priority
 277:Generated_Source\PSoC4/CommTimeoutISR.c **** *    PSoC 3 and PSoC 5LP: Priority is from 0 to 7.
 278:Generated_Source\PSoC4/CommTimeoutISR.c **** *    PSoC 4: Priority is from 0 to 3.
 279:Generated_Source\PSoC4/CommTimeoutISR.c **** *
 280:Generated_Source\PSoC4/CommTimeoutISR.c **** *******************************************************************************/
 281:Generated_Source\PSoC4/CommTimeoutISR.c **** uint8 CommTimeoutISR_GetPriority(void)
 282:Generated_Source\PSoC4/CommTimeoutISR.c **** {
 152              		.loc 1 282 0
 153              		.cfi_startproc
 154              		@ args = 0, pretend = 0, frame = 0
 155              		@ frame_needed = 0, uses_anonymous_args = 0
 156              		@ link register save eliminated.
 157              	.LVL6:
 283:Generated_Source\PSoC4/CommTimeoutISR.c ****     uint32 priority;
 284:Generated_Source\PSoC4/CommTimeoutISR.c **** 	uint32 priorityOffset = ((CommTimeoutISR__INTC_NUMBER % 4u) * 8u) + 6u;
 285:Generated_Source\PSoC4/CommTimeoutISR.c **** 
 286:Generated_Source\PSoC4/CommTimeoutISR.c ****     priority = (*CommTimeoutISR_INTC_PRIOR & CommTimeoutISR__INTC_PRIOR_MASK) >> priorityOffset;
 158              		.loc 1 286 0
 159 0000 024B     		ldr	r3, .L12
 160 0002 1868     		ldr	r0, [r3]
 161 0004 800D     		lsrs	r0, r0, #22
 162              	.LVL7:
 287:Generated_Source\PSoC4/CommTimeoutISR.c **** 
 288:Generated_Source\PSoC4/CommTimeoutISR.c ****     return (uint8)priority;
 163              		.loc 1 288 0
 164 0006 0323     		movs	r3, #3
 165 0008 1840     		ands	r0, r3
 166              	.LVL8:
 289:Generated_Source\PSoC4/CommTimeoutISR.c **** }
ARM GAS  C:\Users\kylep\AppData\Local\Temp\ccRh8esq.s 			page 9


 167              		.loc 1 289 0
 168              		@ sp needed
 169 000a 7047     		bx	lr
 170              	.L13:
 171              		.align	2
 172              	.L12:
 173 000c 00E400E0 		.word	-536812544
 174              		.cfi_endproc
 175              	.LFE39:
 176              		.size	CommTimeoutISR_GetPriority, .-CommTimeoutISR_GetPriority
 177              		.section	.text.CommTimeoutISR_Enable,"ax",%progbits
 178              		.align	2
 179              		.global	CommTimeoutISR_Enable
 180              		.code	16
 181              		.thumb_func
 182              		.type	CommTimeoutISR_Enable, %function
 183              	CommTimeoutISR_Enable:
 184              	.LFB40:
 290:Generated_Source\PSoC4/CommTimeoutISR.c **** 
 291:Generated_Source\PSoC4/CommTimeoutISR.c **** 
 292:Generated_Source\PSoC4/CommTimeoutISR.c **** /*******************************************************************************
 293:Generated_Source\PSoC4/CommTimeoutISR.c **** * Function Name: CommTimeoutISR_Enable
 294:Generated_Source\PSoC4/CommTimeoutISR.c **** ********************************************************************************
 295:Generated_Source\PSoC4/CommTimeoutISR.c **** *
 296:Generated_Source\PSoC4/CommTimeoutISR.c **** * Summary:
 297:Generated_Source\PSoC4/CommTimeoutISR.c **** *   Enables the interrupt to the interrupt controller. Do not call this function
 298:Generated_Source\PSoC4/CommTimeoutISR.c **** *   unless ISR_Start() has been called or the functionality of the ISR_Start() 
 299:Generated_Source\PSoC4/CommTimeoutISR.c **** *   function, which sets the vector and the priority, has been called.
 300:Generated_Source\PSoC4/CommTimeoutISR.c **** *
 301:Generated_Source\PSoC4/CommTimeoutISR.c **** * Parameters:
 302:Generated_Source\PSoC4/CommTimeoutISR.c **** *   None
 303:Generated_Source\PSoC4/CommTimeoutISR.c **** *
 304:Generated_Source\PSoC4/CommTimeoutISR.c **** * Return:
 305:Generated_Source\PSoC4/CommTimeoutISR.c **** *   None
 306:Generated_Source\PSoC4/CommTimeoutISR.c **** *
 307:Generated_Source\PSoC4/CommTimeoutISR.c **** *******************************************************************************/
 308:Generated_Source\PSoC4/CommTimeoutISR.c **** void CommTimeoutISR_Enable(void)
 309:Generated_Source\PSoC4/CommTimeoutISR.c **** {
 185              		.loc 1 309 0
 186              		.cfi_startproc
 187              		@ args = 0, pretend = 0, frame = 0
 188              		@ frame_needed = 0, uses_anonymous_args = 0
 189              		@ link register save eliminated.
 310:Generated_Source\PSoC4/CommTimeoutISR.c ****     /* Enable the general interrupt. */
 311:Generated_Source\PSoC4/CommTimeoutISR.c ****     *CommTimeoutISR_INTC_SET_EN = CommTimeoutISR__INTC_MASK;
 190              		.loc 1 311 0
 191 0000 0422     		movs	r2, #4
 192 0002 014B     		ldr	r3, .L15
 193 0004 1A60     		str	r2, [r3]
 312:Generated_Source\PSoC4/CommTimeoutISR.c **** }
 194              		.loc 1 312 0
 195              		@ sp needed
 196 0006 7047     		bx	lr
 197              	.L16:
 198              		.align	2
 199              	.L15:
 200 0008 00E100E0 		.word	-536813312
ARM GAS  C:\Users\kylep\AppData\Local\Temp\ccRh8esq.s 			page 10


 201              		.cfi_endproc
 202              	.LFE40:
 203              		.size	CommTimeoutISR_Enable, .-CommTimeoutISR_Enable
 204              		.section	.text.CommTimeoutISR_GetState,"ax",%progbits
 205              		.align	2
 206              		.global	CommTimeoutISR_GetState
 207              		.code	16
 208              		.thumb_func
 209              		.type	CommTimeoutISR_GetState, %function
 210              	CommTimeoutISR_GetState:
 211              	.LFB41:
 313:Generated_Source\PSoC4/CommTimeoutISR.c **** 
 314:Generated_Source\PSoC4/CommTimeoutISR.c **** 
 315:Generated_Source\PSoC4/CommTimeoutISR.c **** /*******************************************************************************
 316:Generated_Source\PSoC4/CommTimeoutISR.c **** * Function Name: CommTimeoutISR_GetState
 317:Generated_Source\PSoC4/CommTimeoutISR.c **** ********************************************************************************
 318:Generated_Source\PSoC4/CommTimeoutISR.c **** *
 319:Generated_Source\PSoC4/CommTimeoutISR.c **** * Summary:
 320:Generated_Source\PSoC4/CommTimeoutISR.c **** *   Gets the state (enabled, disabled) of the Interrupt.
 321:Generated_Source\PSoC4/CommTimeoutISR.c **** *
 322:Generated_Source\PSoC4/CommTimeoutISR.c **** * Parameters:
 323:Generated_Source\PSoC4/CommTimeoutISR.c **** *   None
 324:Generated_Source\PSoC4/CommTimeoutISR.c **** *
 325:Generated_Source\PSoC4/CommTimeoutISR.c **** * Return:
 326:Generated_Source\PSoC4/CommTimeoutISR.c **** *   1 if enabled, 0 if disabled.
 327:Generated_Source\PSoC4/CommTimeoutISR.c **** *
 328:Generated_Source\PSoC4/CommTimeoutISR.c **** *******************************************************************************/
 329:Generated_Source\PSoC4/CommTimeoutISR.c **** uint8 CommTimeoutISR_GetState(void)
 330:Generated_Source\PSoC4/CommTimeoutISR.c **** {
 212              		.loc 1 330 0
 213              		.cfi_startproc
 214              		@ args = 0, pretend = 0, frame = 0
 215              		@ frame_needed = 0, uses_anonymous_args = 0
 216              		@ link register save eliminated.
 331:Generated_Source\PSoC4/CommTimeoutISR.c ****     /* Get the state of the general interrupt. */
 332:Generated_Source\PSoC4/CommTimeoutISR.c ****     return ((*CommTimeoutISR_INTC_SET_EN & (uint32)CommTimeoutISR__INTC_MASK) != 0u) ? 1u:0u;
 217              		.loc 1 332 0
 218 0000 034B     		ldr	r3, .L20
 219 0002 1B68     		ldr	r3, [r3]
 220 0004 5B07     		lsls	r3, r3, #29
 221 0006 01D5     		bpl	.L19
 222 0008 0120     		movs	r0, #1
 223 000a 00E0     		b	.L18
 224              	.L19:
 225 000c 0020     		movs	r0, #0
 226              	.L18:
 333:Generated_Source\PSoC4/CommTimeoutISR.c **** }
 227              		.loc 1 333 0 discriminator 4
 228              		@ sp needed
 229 000e 7047     		bx	lr
 230              	.L21:
 231              		.align	2
 232              	.L20:
 233 0010 00E100E0 		.word	-536813312
 234              		.cfi_endproc
 235              	.LFE41:
 236              		.size	CommTimeoutISR_GetState, .-CommTimeoutISR_GetState
ARM GAS  C:\Users\kylep\AppData\Local\Temp\ccRh8esq.s 			page 11


 237              		.section	.text.CommTimeoutISR_Disable,"ax",%progbits
 238              		.align	2
 239              		.global	CommTimeoutISR_Disable
 240              		.code	16
 241              		.thumb_func
 242              		.type	CommTimeoutISR_Disable, %function
 243              	CommTimeoutISR_Disable:
 244              	.LFB42:
 334:Generated_Source\PSoC4/CommTimeoutISR.c **** 
 335:Generated_Source\PSoC4/CommTimeoutISR.c **** 
 336:Generated_Source\PSoC4/CommTimeoutISR.c **** /*******************************************************************************
 337:Generated_Source\PSoC4/CommTimeoutISR.c **** * Function Name: CommTimeoutISR_Disable
 338:Generated_Source\PSoC4/CommTimeoutISR.c **** ********************************************************************************
 339:Generated_Source\PSoC4/CommTimeoutISR.c **** *
 340:Generated_Source\PSoC4/CommTimeoutISR.c **** * Summary:
 341:Generated_Source\PSoC4/CommTimeoutISR.c **** *   Disables the Interrupt in the interrupt controller.
 342:Generated_Source\PSoC4/CommTimeoutISR.c **** *
 343:Generated_Source\PSoC4/CommTimeoutISR.c **** * Parameters:
 344:Generated_Source\PSoC4/CommTimeoutISR.c **** *   None
 345:Generated_Source\PSoC4/CommTimeoutISR.c **** *
 346:Generated_Source\PSoC4/CommTimeoutISR.c **** * Return:
 347:Generated_Source\PSoC4/CommTimeoutISR.c **** *   None
 348:Generated_Source\PSoC4/CommTimeoutISR.c **** *
 349:Generated_Source\PSoC4/CommTimeoutISR.c **** *******************************************************************************/
 350:Generated_Source\PSoC4/CommTimeoutISR.c **** void CommTimeoutISR_Disable(void)
 351:Generated_Source\PSoC4/CommTimeoutISR.c **** {
 245              		.loc 1 351 0
 246              		.cfi_startproc
 247              		@ args = 0, pretend = 0, frame = 0
 248              		@ frame_needed = 0, uses_anonymous_args = 0
 249              		@ link register save eliminated.
 352:Generated_Source\PSoC4/CommTimeoutISR.c ****     /* Disable the general interrupt. */
 353:Generated_Source\PSoC4/CommTimeoutISR.c ****     *CommTimeoutISR_INTC_CLR_EN = CommTimeoutISR__INTC_MASK;
 250              		.loc 1 353 0
 251 0000 0422     		movs	r2, #4
 252 0002 014B     		ldr	r3, .L23
 253 0004 1A60     		str	r2, [r3]
 354:Generated_Source\PSoC4/CommTimeoutISR.c **** }
 254              		.loc 1 354 0
 255              		@ sp needed
 256 0006 7047     		bx	lr
 257              	.L24:
 258              		.align	2
 259              	.L23:
 260 0008 80E100E0 		.word	-536813184
 261              		.cfi_endproc
 262              	.LFE42:
 263              		.size	CommTimeoutISR_Disable, .-CommTimeoutISR_Disable
 264              		.section	.text.CommTimeoutISR_Start,"ax",%progbits
 265              		.align	2
 266              		.global	CommTimeoutISR_Start
 267              		.code	16
 268              		.thumb_func
 269              		.type	CommTimeoutISR_Start, %function
 270              	CommTimeoutISR_Start:
 271              	.LFB32:
  59:Generated_Source\PSoC4/CommTimeoutISR.c ****     /* For all we know the interrupt is active. */
ARM GAS  C:\Users\kylep\AppData\Local\Temp\ccRh8esq.s 			page 12


 272              		.loc 1 59 0
 273              		.cfi_startproc
 274              		@ args = 0, pretend = 0, frame = 0
 275              		@ frame_needed = 0, uses_anonymous_args = 0
 276 0000 10B5     		push	{r4, lr}
 277              		.cfi_def_cfa_offset 8
 278              		.cfi_offset 4, -8
 279              		.cfi_offset 14, -4
  61:Generated_Source\PSoC4/CommTimeoutISR.c **** 
 280              		.loc 1 61 0
 281 0002 FFF7FEFF 		bl	CommTimeoutISR_Disable
 282              	.LVL9:
  64:Generated_Source\PSoC4/CommTimeoutISR.c **** 
 283              		.loc 1 64 0
 284 0006 0448     		ldr	r0, .L26
 285 0008 FFF7FEFF 		bl	CommTimeoutISR_SetVector
 286              	.LVL10:
  67:Generated_Source\PSoC4/CommTimeoutISR.c **** 
 287              		.loc 1 67 0
 288 000c 0320     		movs	r0, #3
 289 000e FFF7FEFF 		bl	CommTimeoutISR_SetPriority
 290              	.LVL11:
  70:Generated_Source\PSoC4/CommTimeoutISR.c **** }
 291              		.loc 1 70 0
 292 0012 FFF7FEFF 		bl	CommTimeoutISR_Enable
 293              	.LVL12:
  71:Generated_Source\PSoC4/CommTimeoutISR.c **** 
 294              		.loc 1 71 0
 295              		@ sp needed
 296 0016 10BD     		pop	{r4, pc}
 297              	.L27:
 298              		.align	2
 299              	.L26:
 300 0018 00000000 		.word	CommTimeoutISR_Interrupt
 301              		.cfi_endproc
 302              	.LFE32:
 303              		.size	CommTimeoutISR_Start, .-CommTimeoutISR_Start
 304              		.section	.text.CommTimeoutISR_StartEx,"ax",%progbits
 305              		.align	2
 306              		.global	CommTimeoutISR_StartEx
 307              		.code	16
 308              		.thumb_func
 309              		.type	CommTimeoutISR_StartEx, %function
 310              	CommTimeoutISR_StartEx:
 311              	.LFB33:
 102:Generated_Source\PSoC4/CommTimeoutISR.c ****     /* For all we know the interrupt is active. */
 312              		.loc 1 102 0
 313              		.cfi_startproc
 314              		@ args = 0, pretend = 0, frame = 0
 315              		@ frame_needed = 0, uses_anonymous_args = 0
 316              	.LVL13:
 317 0000 10B5     		push	{r4, lr}
 318              		.cfi_def_cfa_offset 8
 319              		.cfi_offset 4, -8
 320              		.cfi_offset 14, -4
 321 0002 0400     		movs	r4, r0
 104:Generated_Source\PSoC4/CommTimeoutISR.c **** 
ARM GAS  C:\Users\kylep\AppData\Local\Temp\ccRh8esq.s 			page 13


 322              		.loc 1 104 0
 323 0004 FFF7FEFF 		bl	CommTimeoutISR_Disable
 324              	.LVL14:
 107:Generated_Source\PSoC4/CommTimeoutISR.c **** 
 325              		.loc 1 107 0
 326 0008 2000     		movs	r0, r4
 327 000a FFF7FEFF 		bl	CommTimeoutISR_SetVector
 328              	.LVL15:
 110:Generated_Source\PSoC4/CommTimeoutISR.c **** 
 329              		.loc 1 110 0
 330 000e 0320     		movs	r0, #3
 331 0010 FFF7FEFF 		bl	CommTimeoutISR_SetPriority
 332              	.LVL16:
 113:Generated_Source\PSoC4/CommTimeoutISR.c **** }
 333              		.loc 1 113 0
 334 0014 FFF7FEFF 		bl	CommTimeoutISR_Enable
 335              	.LVL17:
 114:Generated_Source\PSoC4/CommTimeoutISR.c **** 
 336              		.loc 1 114 0
 337              		@ sp needed
 338              	.LVL18:
 339 0018 10BD     		pop	{r4, pc}
 340              		.cfi_endproc
 341              	.LFE33:
 342              		.size	CommTimeoutISR_StartEx, .-CommTimeoutISR_StartEx
 343 001a C046     		.section	.text.CommTimeoutISR_Stop,"ax",%progbits
 344              		.align	2
 345              		.global	CommTimeoutISR_Stop
 346              		.code	16
 347              		.thumb_func
 348              		.type	CommTimeoutISR_Stop, %function
 349              	CommTimeoutISR_Stop:
 350              	.LFB34:
 132:Generated_Source\PSoC4/CommTimeoutISR.c ****     /* Disable this interrupt. */
 351              		.loc 1 132 0
 352              		.cfi_startproc
 353              		@ args = 0, pretend = 0, frame = 0
 354              		@ frame_needed = 0, uses_anonymous_args = 0
 355 0000 10B5     		push	{r4, lr}
 356              		.cfi_def_cfa_offset 8
 357              		.cfi_offset 4, -8
 358              		.cfi_offset 14, -4
 134:Generated_Source\PSoC4/CommTimeoutISR.c **** 
 359              		.loc 1 134 0
 360 0002 FFF7FEFF 		bl	CommTimeoutISR_Disable
 361              	.LVL19:
 137:Generated_Source\PSoC4/CommTimeoutISR.c **** }
 362              		.loc 1 137 0
 363 0006 0248     		ldr	r0, .L30
 364 0008 FFF7FEFF 		bl	CommTimeoutISR_SetVector
 365              	.LVL20:
 138:Generated_Source\PSoC4/CommTimeoutISR.c **** 
 366              		.loc 1 138 0
 367              		@ sp needed
 368 000c 10BD     		pop	{r4, pc}
 369              	.L31:
 370 000e C046     		.align	2
ARM GAS  C:\Users\kylep\AppData\Local\Temp\ccRh8esq.s 			page 14


 371              	.L30:
 372 0010 00000000 		.word	IntDefaultHandler
 373              		.cfi_endproc
 374              	.LFE34:
 375              		.size	CommTimeoutISR_Stop, .-CommTimeoutISR_Stop
 376              		.section	.text.CommTimeoutISR_SetPending,"ax",%progbits
 377              		.align	2
 378              		.global	CommTimeoutISR_SetPending
 379              		.code	16
 380              		.thumb_func
 381              		.type	CommTimeoutISR_SetPending, %function
 382              	CommTimeoutISR_SetPending:
 383              	.LFB43:
 355:Generated_Source\PSoC4/CommTimeoutISR.c **** 
 356:Generated_Source\PSoC4/CommTimeoutISR.c **** 
 357:Generated_Source\PSoC4/CommTimeoutISR.c **** /*******************************************************************************
 358:Generated_Source\PSoC4/CommTimeoutISR.c **** * Function Name: CommTimeoutISR_SetPending
 359:Generated_Source\PSoC4/CommTimeoutISR.c **** ********************************************************************************
 360:Generated_Source\PSoC4/CommTimeoutISR.c **** *
 361:Generated_Source\PSoC4/CommTimeoutISR.c **** * Summary:
 362:Generated_Source\PSoC4/CommTimeoutISR.c **** *   Causes the Interrupt to enter the pending state, a software method of
 363:Generated_Source\PSoC4/CommTimeoutISR.c **** *   generating the interrupt.
 364:Generated_Source\PSoC4/CommTimeoutISR.c **** *
 365:Generated_Source\PSoC4/CommTimeoutISR.c **** * Parameters:
 366:Generated_Source\PSoC4/CommTimeoutISR.c **** *   None
 367:Generated_Source\PSoC4/CommTimeoutISR.c **** *
 368:Generated_Source\PSoC4/CommTimeoutISR.c **** * Return:
 369:Generated_Source\PSoC4/CommTimeoutISR.c **** *   None
 370:Generated_Source\PSoC4/CommTimeoutISR.c **** *
 371:Generated_Source\PSoC4/CommTimeoutISR.c **** * Side Effects:
 372:Generated_Source\PSoC4/CommTimeoutISR.c **** *   If interrupts are enabled and the interrupt is set up properly, the ISR is
 373:Generated_Source\PSoC4/CommTimeoutISR.c **** *   entered (depending on the priority of this interrupt and other pending 
 374:Generated_Source\PSoC4/CommTimeoutISR.c **** *   interrupts).
 375:Generated_Source\PSoC4/CommTimeoutISR.c **** *
 376:Generated_Source\PSoC4/CommTimeoutISR.c **** *******************************************************************************/
 377:Generated_Source\PSoC4/CommTimeoutISR.c **** void CommTimeoutISR_SetPending(void)
 378:Generated_Source\PSoC4/CommTimeoutISR.c **** {
 384              		.loc 1 378 0
 385              		.cfi_startproc
 386              		@ args = 0, pretend = 0, frame = 0
 387              		@ frame_needed = 0, uses_anonymous_args = 0
 388              		@ link register save eliminated.
 379:Generated_Source\PSoC4/CommTimeoutISR.c ****     *CommTimeoutISR_INTC_SET_PD = CommTimeoutISR__INTC_MASK;
 389              		.loc 1 379 0
 390 0000 0422     		movs	r2, #4
 391 0002 014B     		ldr	r3, .L33
 392 0004 1A60     		str	r2, [r3]
 380:Generated_Source\PSoC4/CommTimeoutISR.c **** }
 393              		.loc 1 380 0
 394              		@ sp needed
 395 0006 7047     		bx	lr
 396              	.L34:
 397              		.align	2
 398              	.L33:
 399 0008 00E200E0 		.word	-536813056
 400              		.cfi_endproc
 401              	.LFE43:
ARM GAS  C:\Users\kylep\AppData\Local\Temp\ccRh8esq.s 			page 15


 402              		.size	CommTimeoutISR_SetPending, .-CommTimeoutISR_SetPending
 403              		.section	.text.CommTimeoutISR_ClearPending,"ax",%progbits
 404              		.align	2
 405              		.global	CommTimeoutISR_ClearPending
 406              		.code	16
 407              		.thumb_func
 408              		.type	CommTimeoutISR_ClearPending, %function
 409              	CommTimeoutISR_ClearPending:
 410              	.LFB44:
 381:Generated_Source\PSoC4/CommTimeoutISR.c **** 
 382:Generated_Source\PSoC4/CommTimeoutISR.c **** 
 383:Generated_Source\PSoC4/CommTimeoutISR.c **** /*******************************************************************************
 384:Generated_Source\PSoC4/CommTimeoutISR.c **** * Function Name: CommTimeoutISR_ClearPending
 385:Generated_Source\PSoC4/CommTimeoutISR.c **** ********************************************************************************
 386:Generated_Source\PSoC4/CommTimeoutISR.c **** *
 387:Generated_Source\PSoC4/CommTimeoutISR.c **** * Summary:
 388:Generated_Source\PSoC4/CommTimeoutISR.c **** *   Clears a pending interrupt in the interrupt controller.
 389:Generated_Source\PSoC4/CommTimeoutISR.c **** *
 390:Generated_Source\PSoC4/CommTimeoutISR.c **** *   Note Some interrupt sources are clear-on-read and require the block 
 391:Generated_Source\PSoC4/CommTimeoutISR.c **** *   interrupt/status register to be read/cleared with the appropriate block API 
 392:Generated_Source\PSoC4/CommTimeoutISR.c **** *   (GPIO, UART, and so on). Otherwise the ISR will continue to remain in 
 393:Generated_Source\PSoC4/CommTimeoutISR.c **** *   pending state even though the interrupt itself is cleared using this API.
 394:Generated_Source\PSoC4/CommTimeoutISR.c **** *
 395:Generated_Source\PSoC4/CommTimeoutISR.c **** * Parameters:
 396:Generated_Source\PSoC4/CommTimeoutISR.c **** *   None
 397:Generated_Source\PSoC4/CommTimeoutISR.c **** *
 398:Generated_Source\PSoC4/CommTimeoutISR.c **** * Return:
 399:Generated_Source\PSoC4/CommTimeoutISR.c **** *   None
 400:Generated_Source\PSoC4/CommTimeoutISR.c **** *
 401:Generated_Source\PSoC4/CommTimeoutISR.c **** *******************************************************************************/
 402:Generated_Source\PSoC4/CommTimeoutISR.c **** void CommTimeoutISR_ClearPending(void)
 403:Generated_Source\PSoC4/CommTimeoutISR.c **** {
 411              		.loc 1 403 0
 412              		.cfi_startproc
 413              		@ args = 0, pretend = 0, frame = 0
 414              		@ frame_needed = 0, uses_anonymous_args = 0
 415              		@ link register save eliminated.
 404:Generated_Source\PSoC4/CommTimeoutISR.c ****     *CommTimeoutISR_INTC_CLR_PD = CommTimeoutISR__INTC_MASK;
 416              		.loc 1 404 0
 417 0000 0422     		movs	r2, #4
 418 0002 014B     		ldr	r3, .L36
 419 0004 1A60     		str	r2, [r3]
 405:Generated_Source\PSoC4/CommTimeoutISR.c **** }
 420              		.loc 1 405 0
 421              		@ sp needed
 422 0006 7047     		bx	lr
 423              	.L37:
 424              		.align	2
 425              	.L36:
 426 0008 80E200E0 		.word	-536812928
 427              		.cfi_endproc
 428              	.LFE44:
 429              		.size	CommTimeoutISR_ClearPending, .-CommTimeoutISR_ClearPending
 430              		.text
 431              	.Letext0:
 432              		.file 2 "Generated_Source\\PSoC4/cytypes.h"
 433              		.file 3 "./BrightnessCommManager.h"
ARM GAS  C:\Users\kylep\AppData\Local\Temp\ccRh8esq.s 			page 16


 434              		.file 4 "Generated_Source\\PSoC4/CyLib.h"