ARM GAS  C:\Users\kylep\AppData\Local\Temp\ccfw51TI.s 			page 1


   1              		.syntax unified
   2              		.cpu cortex-m0
   3              		.fpu softvfp
   4              		.eabi_attribute 20, 1
   5              		.eabi_attribute 21, 1
   6              		.eabi_attribute 23, 3
   7              		.eabi_attribute 24, 1
   8              		.eabi_attribute 25, 1
   9              		.eabi_attribute 26, 1
  10              		.eabi_attribute 30, 1
  11              		.eabi_attribute 34, 0
  12              		.eabi_attribute 18, 4
  13              		.thumb
  14              		.syntax unified
  15              		.file	"cyfitter_cfg.c"
  16              		.text
  17              	.Ltext0:
  18              		.cfi_sections	.debug_frame
  19              		.section	.text.cfg_write_bytes32,"ax",%progbits
  20              		.align	2
  21              		.code	16
  22              		.thumb_func
  23              		.type	cfg_write_bytes32, %function
  24              	cfg_write_bytes32:
  25              	.LFB3:
  26              		.file 1 "Generated_Source\\PSoC4\\cyfitter_cfg.c"
   1:Generated_Source\PSoC4/cyfitter_cfg.c **** 
   2:Generated_Source\PSoC4/cyfitter_cfg.c **** /*******************************************************************************
   3:Generated_Source\PSoC4/cyfitter_cfg.c **** * File Name: cyfitter_cfg.c
   4:Generated_Source\PSoC4/cyfitter_cfg.c **** * 
   5:Generated_Source\PSoC4/cyfitter_cfg.c **** * PSoC Creator  4.1 Update 1
   6:Generated_Source\PSoC4/cyfitter_cfg.c **** *
   7:Generated_Source\PSoC4/cyfitter_cfg.c **** * Description:
   8:Generated_Source\PSoC4/cyfitter_cfg.c **** * This file contains device initialization code.
   9:Generated_Source\PSoC4/cyfitter_cfg.c **** * Except for the user defined sections in CyClockStartupError(), this file should not be modified.
  10:Generated_Source\PSoC4/cyfitter_cfg.c **** * This file is automatically generated by PSoC Creator.
  11:Generated_Source\PSoC4/cyfitter_cfg.c **** *
  12:Generated_Source\PSoC4/cyfitter_cfg.c **** ********************************************************************************
  13:Generated_Source\PSoC4/cyfitter_cfg.c **** * Copyright (c) 2007-2017 Cypress Semiconductor.  All rights reserved.
  14:Generated_Source\PSoC4/cyfitter_cfg.c **** * You may use this file only in accordance with the license, terms, conditions, 
  15:Generated_Source\PSoC4/cyfitter_cfg.c **** * disclaimers, and limitations in the end user license agreement accompanying 
  16:Generated_Source\PSoC4/cyfitter_cfg.c **** * the software package with which this file was provided.
  17:Generated_Source\PSoC4/cyfitter_cfg.c **** ********************************************************************************/
  18:Generated_Source\PSoC4/cyfitter_cfg.c **** 
  19:Generated_Source\PSoC4/cyfitter_cfg.c **** #include <string.h>
  20:Generated_Source\PSoC4/cyfitter_cfg.c **** #include "cytypes.h"
  21:Generated_Source\PSoC4/cyfitter_cfg.c **** #include "cydevice_trm.h"
  22:Generated_Source\PSoC4/cyfitter_cfg.c **** #include "cyfitter.h"
  23:Generated_Source\PSoC4/cyfitter_cfg.c **** #include "CyLib.h"
  24:Generated_Source\PSoC4/cyfitter_cfg.c **** #include "CyLFClk.h"
  25:Generated_Source\PSoC4/cyfitter_cfg.c **** #include "cyfitter_cfg.h"
  26:Generated_Source\PSoC4/cyfitter_cfg.c **** 
  27:Generated_Source\PSoC4/cyfitter_cfg.c **** 
  28:Generated_Source\PSoC4/cyfitter_cfg.c **** #if defined(__GNUC__) || defined(__ARMCC_VERSION)
  29:Generated_Source\PSoC4/cyfitter_cfg.c ****     #define CYPACKED 
  30:Generated_Source\PSoC4/cyfitter_cfg.c ****     #define CYPACKED_ATTR __attribute__ ((packed))
  31:Generated_Source\PSoC4/cyfitter_cfg.c ****     #define CYALIGNED __attribute__ ((aligned))
ARM GAS  C:\Users\kylep\AppData\Local\Temp\ccfw51TI.s 			page 2


  32:Generated_Source\PSoC4/cyfitter_cfg.c ****     #define CY_CFG_UNUSED __attribute__ ((unused))
  33:Generated_Source\PSoC4/cyfitter_cfg.c ****     #ifndef CY_CFG_SECTION
  34:Generated_Source\PSoC4/cyfitter_cfg.c ****         #define CY_CFG_SECTION __attribute__ ((section(".psocinit")))
  35:Generated_Source\PSoC4/cyfitter_cfg.c ****     #endif
  36:Generated_Source\PSoC4/cyfitter_cfg.c ****     
  37:Generated_Source\PSoC4/cyfitter_cfg.c ****     #if defined(__ARMCC_VERSION)
  38:Generated_Source\PSoC4/cyfitter_cfg.c ****         #define CY_CFG_MEMORY_BARRIER() __memory_changed()
  39:Generated_Source\PSoC4/cyfitter_cfg.c ****     #else
  40:Generated_Source\PSoC4/cyfitter_cfg.c ****         #define CY_CFG_MEMORY_BARRIER() __sync_synchronize()
  41:Generated_Source\PSoC4/cyfitter_cfg.c ****     #endif
  42:Generated_Source\PSoC4/cyfitter_cfg.c ****     
  43:Generated_Source\PSoC4/cyfitter_cfg.c **** #elif defined(__ICCARM__)
  44:Generated_Source\PSoC4/cyfitter_cfg.c ****     #include <intrinsics.h>
  45:Generated_Source\PSoC4/cyfitter_cfg.c **** 
  46:Generated_Source\PSoC4/cyfitter_cfg.c ****     #define CYPACKED __packed
  47:Generated_Source\PSoC4/cyfitter_cfg.c ****     #define CYPACKED_ATTR 
  48:Generated_Source\PSoC4/cyfitter_cfg.c ****     #define CYALIGNED _Pragma("data_alignment=4")
  49:Generated_Source\PSoC4/cyfitter_cfg.c ****     #define CY_CFG_UNUSED _Pragma("diag_suppress=Pe177")
  50:Generated_Source\PSoC4/cyfitter_cfg.c ****     #define CY_CFG_SECTION _Pragma("location=\".psocinit\"")
  51:Generated_Source\PSoC4/cyfitter_cfg.c ****     
  52:Generated_Source\PSoC4/cyfitter_cfg.c ****     #define CY_CFG_MEMORY_BARRIER() __DMB()
  53:Generated_Source\PSoC4/cyfitter_cfg.c ****     
  54:Generated_Source\PSoC4/cyfitter_cfg.c **** #else
  55:Generated_Source\PSoC4/cyfitter_cfg.c ****     #error Unsupported toolchain
  56:Generated_Source\PSoC4/cyfitter_cfg.c **** #endif
  57:Generated_Source\PSoC4/cyfitter_cfg.c **** 
  58:Generated_Source\PSoC4/cyfitter_cfg.c **** #ifndef CYCODE
  59:Generated_Source\PSoC4/cyfitter_cfg.c ****     #define CYCODE
  60:Generated_Source\PSoC4/cyfitter_cfg.c **** #endif
  61:Generated_Source\PSoC4/cyfitter_cfg.c **** #ifndef CYDATA
  62:Generated_Source\PSoC4/cyfitter_cfg.c ****     #define CYDATA
  63:Generated_Source\PSoC4/cyfitter_cfg.c **** #endif
  64:Generated_Source\PSoC4/cyfitter_cfg.c **** #ifndef CYFAR
  65:Generated_Source\PSoC4/cyfitter_cfg.c ****     #define CYFAR
  66:Generated_Source\PSoC4/cyfitter_cfg.c **** #endif
  67:Generated_Source\PSoC4/cyfitter_cfg.c **** #ifndef CYXDATA
  68:Generated_Source\PSoC4/cyfitter_cfg.c ****     #define CYXDATA
  69:Generated_Source\PSoC4/cyfitter_cfg.c **** #endif
  70:Generated_Source\PSoC4/cyfitter_cfg.c **** 
  71:Generated_Source\PSoC4/cyfitter_cfg.c **** 
  72:Generated_Source\PSoC4/cyfitter_cfg.c **** CY_CFG_UNUSED
  73:Generated_Source\PSoC4/cyfitter_cfg.c **** static void CYMEMZERO(void *s, size_t n);
  74:Generated_Source\PSoC4/cyfitter_cfg.c **** CY_CFG_UNUSED
  75:Generated_Source\PSoC4/cyfitter_cfg.c **** static void CYMEMZERO(void *s, size_t n)
  76:Generated_Source\PSoC4/cyfitter_cfg.c **** {
  77:Generated_Source\PSoC4/cyfitter_cfg.c **** 	(void)memset(s, 0, n);
  78:Generated_Source\PSoC4/cyfitter_cfg.c **** }
  79:Generated_Source\PSoC4/cyfitter_cfg.c **** CY_CFG_UNUSED
  80:Generated_Source\PSoC4/cyfitter_cfg.c **** static void CYCONFIGCPY(void *dest, const void *src, size_t n);
  81:Generated_Source\PSoC4/cyfitter_cfg.c **** CY_CFG_UNUSED
  82:Generated_Source\PSoC4/cyfitter_cfg.c **** static void CYCONFIGCPY(void *dest, const void *src, size_t n)
  83:Generated_Source\PSoC4/cyfitter_cfg.c **** {
  84:Generated_Source\PSoC4/cyfitter_cfg.c **** 	(void)memcpy(dest, src, n);
  85:Generated_Source\PSoC4/cyfitter_cfg.c **** }
  86:Generated_Source\PSoC4/cyfitter_cfg.c **** CY_CFG_UNUSED
  87:Generated_Source\PSoC4/cyfitter_cfg.c **** static void CYCONFIGCPYCODE(void *dest, const void *src, size_t n);
  88:Generated_Source\PSoC4/cyfitter_cfg.c **** CY_CFG_UNUSED
ARM GAS  C:\Users\kylep\AppData\Local\Temp\ccfw51TI.s 			page 3


  89:Generated_Source\PSoC4/cyfitter_cfg.c **** static void CYCONFIGCPYCODE(void *dest, const void *src, size_t n)
  90:Generated_Source\PSoC4/cyfitter_cfg.c **** {
  91:Generated_Source\PSoC4/cyfitter_cfg.c **** 	(void)memcpy(dest, src, n);
  92:Generated_Source\PSoC4/cyfitter_cfg.c **** }
  93:Generated_Source\PSoC4/cyfitter_cfg.c **** 
  94:Generated_Source\PSoC4/cyfitter_cfg.c **** 
  95:Generated_Source\PSoC4/cyfitter_cfg.c **** 
  96:Generated_Source\PSoC4/cyfitter_cfg.c **** 
  97:Generated_Source\PSoC4/cyfitter_cfg.c **** /* Clock startup error codes                                                   */
  98:Generated_Source\PSoC4/cyfitter_cfg.c **** #define CYCLOCKSTART_NO_ERROR    0u
  99:Generated_Source\PSoC4/cyfitter_cfg.c **** #define CYCLOCKSTART_XTAL_ERROR  1u
 100:Generated_Source\PSoC4/cyfitter_cfg.c **** #define CYCLOCKSTART_32KHZ_ERROR 2u
 101:Generated_Source\PSoC4/cyfitter_cfg.c **** #define CYCLOCKSTART_PLL_ERROR   3u
 102:Generated_Source\PSoC4/cyfitter_cfg.c **** #define CYCLOCKSTART_FLL_ERROR   4u
 103:Generated_Source\PSoC4/cyfitter_cfg.c **** 
 104:Generated_Source\PSoC4/cyfitter_cfg.c **** 
 105:Generated_Source\PSoC4/cyfitter_cfg.c **** #ifdef CY_NEED_CYCLOCKSTARTUPERROR
 106:Generated_Source\PSoC4/cyfitter_cfg.c **** /*******************************************************************************
 107:Generated_Source\PSoC4/cyfitter_cfg.c **** * Function Name: CyClockStartupError
 108:Generated_Source\PSoC4/cyfitter_cfg.c **** ********************************************************************************
 109:Generated_Source\PSoC4/cyfitter_cfg.c **** * Summary:
 110:Generated_Source\PSoC4/cyfitter_cfg.c **** *  If an error is encountered during clock configuration (crystal startup error,
 111:Generated_Source\PSoC4/cyfitter_cfg.c **** *  PLL lock error, etc.), the system will end up here.  Unless reimplemented by
 112:Generated_Source\PSoC4/cyfitter_cfg.c **** *  the customer, this function will stop in an infinite loop.
 113:Generated_Source\PSoC4/cyfitter_cfg.c **** *
 114:Generated_Source\PSoC4/cyfitter_cfg.c **** * Parameters:
 115:Generated_Source\PSoC4/cyfitter_cfg.c **** *   void
 116:Generated_Source\PSoC4/cyfitter_cfg.c **** *
 117:Generated_Source\PSoC4/cyfitter_cfg.c **** * Return:
 118:Generated_Source\PSoC4/cyfitter_cfg.c **** *   void
 119:Generated_Source\PSoC4/cyfitter_cfg.c **** *
 120:Generated_Source\PSoC4/cyfitter_cfg.c **** *******************************************************************************/
 121:Generated_Source\PSoC4/cyfitter_cfg.c **** CY_CFG_UNUSED
 122:Generated_Source\PSoC4/cyfitter_cfg.c **** static void CyClockStartupError(uint8 errorCode);
 123:Generated_Source\PSoC4/cyfitter_cfg.c **** CY_CFG_UNUSED
 124:Generated_Source\PSoC4/cyfitter_cfg.c **** static void CyClockStartupError(uint8 errorCode)
 125:Generated_Source\PSoC4/cyfitter_cfg.c **** {
 126:Generated_Source\PSoC4/cyfitter_cfg.c ****     /* To remove the compiler warning if errorCode not used. */
 127:Generated_Source\PSoC4/cyfitter_cfg.c **** #if defined(CY_PSOC3) && (CY_PSOC3)
 128:Generated_Source\PSoC4/cyfitter_cfg.c ****     errorCode = errorCode;
 129:Generated_Source\PSoC4/cyfitter_cfg.c **** #else
 130:Generated_Source\PSoC4/cyfitter_cfg.c ****     (void)errorCode;
 131:Generated_Source\PSoC4/cyfitter_cfg.c **** #endif /* CY_PSOC3 */
 132:Generated_Source\PSoC4/cyfitter_cfg.c **** 
 133:Generated_Source\PSoC4/cyfitter_cfg.c ****     /* If we have a clock startup error (bad MHz crystal, PLL lock, etc.),  */
 134:Generated_Source\PSoC4/cyfitter_cfg.c ****     /* we will end up here to allow the customer to implement something to  */
 135:Generated_Source\PSoC4/cyfitter_cfg.c ****     /* deal with the clock condition.                                       */
 136:Generated_Source\PSoC4/cyfitter_cfg.c **** 
 137:Generated_Source\PSoC4/cyfitter_cfg.c **** #ifdef CY_CFG_CLOCK_STARTUP_ERROR_CALLBACK
 138:Generated_Source\PSoC4/cyfitter_cfg.c ****     CY_CFG_Clock_Startup_ErrorCallback();
 139:Generated_Source\PSoC4/cyfitter_cfg.c **** #else
 140:Generated_Source\PSoC4/cyfitter_cfg.c ****     /*  If not using CY_CFG_CLOCK_STARTUP_ERROR_CALLBACK, place your clock startup code here. */
 141:Generated_Source\PSoC4/cyfitter_cfg.c ****     /* `#START CyClockStartupError` */
 142:Generated_Source\PSoC4/cyfitter_cfg.c **** 
 143:Generated_Source\PSoC4/cyfitter_cfg.c ****     /* If we have a clock startup error (bad MHz crystal, PLL lock, etc.),  */
 144:Generated_Source\PSoC4/cyfitter_cfg.c ****     /* we will end up here to allow the customer to implement something to  */
 145:Generated_Source\PSoC4/cyfitter_cfg.c ****     /* deal with the clock condition.                                       */
ARM GAS  C:\Users\kylep\AppData\Local\Temp\ccfw51TI.s 			page 4


 146:Generated_Source\PSoC4/cyfitter_cfg.c **** 
 147:Generated_Source\PSoC4/cyfitter_cfg.c ****     /* `#END` */
 148:Generated_Source\PSoC4/cyfitter_cfg.c **** 
 149:Generated_Source\PSoC4/cyfitter_cfg.c ****     while(1) {}
 150:Generated_Source\PSoC4/cyfitter_cfg.c **** #endif /* CY_CFG_CLOCK_STARTUP_ERROR_CALLBACK */
 151:Generated_Source\PSoC4/cyfitter_cfg.c **** }
 152:Generated_Source\PSoC4/cyfitter_cfg.c **** #endif
 153:Generated_Source\PSoC4/cyfitter_cfg.c **** 
 154:Generated_Source\PSoC4/cyfitter_cfg.c **** #define CY_CFG_BASE_ADDR_COUNT 8u
 155:Generated_Source\PSoC4/cyfitter_cfg.c **** CYPACKED typedef struct
 156:Generated_Source\PSoC4/cyfitter_cfg.c **** {
 157:Generated_Source\PSoC4/cyfitter_cfg.c **** 	uint8 offset;
 158:Generated_Source\PSoC4/cyfitter_cfg.c **** 	uint8 value;
 159:Generated_Source\PSoC4/cyfitter_cfg.c **** } CYPACKED_ATTR cy_cfg_addrvalue_t;
 160:Generated_Source\PSoC4/cyfitter_cfg.c **** 
 161:Generated_Source\PSoC4/cyfitter_cfg.c **** 
 162:Generated_Source\PSoC4/cyfitter_cfg.c **** 
 163:Generated_Source\PSoC4/cyfitter_cfg.c **** /*******************************************************************************
 164:Generated_Source\PSoC4/cyfitter_cfg.c **** * Function Name: cfg_write_bytes32
 165:Generated_Source\PSoC4/cyfitter_cfg.c **** ********************************************************************************
 166:Generated_Source\PSoC4/cyfitter_cfg.c **** * Summary:
 167:Generated_Source\PSoC4/cyfitter_cfg.c **** *  This function is used for setting up the chip configuration areas that
 168:Generated_Source\PSoC4/cyfitter_cfg.c **** *  contain relatively sparse data.
 169:Generated_Source\PSoC4/cyfitter_cfg.c **** *
 170:Generated_Source\PSoC4/cyfitter_cfg.c **** * Parameters:
 171:Generated_Source\PSoC4/cyfitter_cfg.c **** *   void
 172:Generated_Source\PSoC4/cyfitter_cfg.c **** *
 173:Generated_Source\PSoC4/cyfitter_cfg.c **** * Return:
 174:Generated_Source\PSoC4/cyfitter_cfg.c **** *   void
 175:Generated_Source\PSoC4/cyfitter_cfg.c **** *
 176:Generated_Source\PSoC4/cyfitter_cfg.c **** *******************************************************************************/
 177:Generated_Source\PSoC4/cyfitter_cfg.c **** static void cfg_write_bytes32(const uint32 addr_table[], const cy_cfg_addrvalue_t data_table[]);
 178:Generated_Source\PSoC4/cyfitter_cfg.c **** static void cfg_write_bytes32(const uint32 addr_table[], const cy_cfg_addrvalue_t data_table[])
 179:Generated_Source\PSoC4/cyfitter_cfg.c **** {
  27              		.loc 1 179 0
  28              		.cfi_startproc
  29              		@ args = 0, pretend = 0, frame = 0
  30              		@ frame_needed = 0, uses_anonymous_args = 0
  31              	.LVL0:
  32 0000 F0B5     		push	{r4, r5, r6, r7, lr}
  33              		.cfi_def_cfa_offset 20
  34              		.cfi_offset 4, -20
  35              		.cfi_offset 5, -16
  36              		.cfi_offset 6, -12
  37              		.cfi_offset 7, -8
  38              		.cfi_offset 14, -4
  39              	.LVL1:
 180:Generated_Source\PSoC4/cyfitter_cfg.c **** 	/* For 32-bit little-endian architectures */
 181:Generated_Source\PSoC4/cyfitter_cfg.c **** 	uint32 i, j = 0u;
  40              		.loc 1 181 0
  41 0002 0025     		movs	r5, #0
 182:Generated_Source\PSoC4/cyfitter_cfg.c **** 	for (i = 0u; i < CY_CFG_BASE_ADDR_COUNT; i++)
  42              		.loc 1 182 0
  43 0004 0027     		movs	r7, #0
  44 0006 11E0     		b	.L2
  45              	.LVL2:
  46              	.L5:
ARM GAS  C:\Users\kylep\AppData\Local\Temp\ccfw51TI.s 			page 5


  47              	.LBB2:
 183:Generated_Source\PSoC4/cyfitter_cfg.c **** 	{
 184:Generated_Source\PSoC4/cyfitter_cfg.c **** 		uint32 baseAddr = addr_table[i];
  48              		.loc 1 184 0
  49 0008 BB00     		lsls	r3, r7, #2
  50 000a C658     		ldr	r6, [r0, r3]
  51              	.LVL3:
 185:Generated_Source\PSoC4/cyfitter_cfg.c **** 		uint8 count = (uint8)baseAddr;
  52              		.loc 1 185 0
  53 000c F3B2     		uxtb	r3, r6
  54              	.LVL4:
 186:Generated_Source\PSoC4/cyfitter_cfg.c **** 		baseAddr &= 0xFFFFFF00u;
  55              		.loc 1 186 0
  56 000e FF22     		movs	r2, #255
  57 0010 9643     		bics	r6, r2
  58              	.LVL5:
 187:Generated_Source\PSoC4/cyfitter_cfg.c **** 		while (count != 0u)
  59              		.loc 1 187 0
  60 0012 08E0     		b	.L3
  61              	.L4:
 188:Generated_Source\PSoC4/cyfitter_cfg.c **** 		{
 189:Generated_Source\PSoC4/cyfitter_cfg.c **** 			CY_SET_REG8((void *)(baseAddr + data_table[j].offset), data_table[j].value);
  62              		.loc 1 189 0
  63 0014 6A00     		lsls	r2, r5, #1
  64 0016 8A18     		adds	r2, r1, r2
  65 0018 1478     		ldrb	r4, [r2]
  66 001a A419     		adds	r4, r4, r6
  67 001c 5278     		ldrb	r2, [r2, #1]
  68 001e 2270     		strb	r2, [r4]
 190:Generated_Source\PSoC4/cyfitter_cfg.c **** 			j++;
  69              		.loc 1 190 0
  70 0020 0135     		adds	r5, r5, #1
  71              	.LVL6:
 191:Generated_Source\PSoC4/cyfitter_cfg.c **** 			count--;
  72              		.loc 1 191 0
  73 0022 013B     		subs	r3, r3, #1
  74              	.LVL7:
  75 0024 DBB2     		uxtb	r3, r3
  76              	.LVL8:
  77              	.L3:
 187:Generated_Source\PSoC4/cyfitter_cfg.c **** 		{
  78              		.loc 1 187 0
  79 0026 002B     		cmp	r3, #0
  80 0028 F4D1     		bne	.L4
  81              	.LBE2:
 182:Generated_Source\PSoC4/cyfitter_cfg.c **** 	{
  82              		.loc 1 182 0 discriminator 2
  83 002a 0137     		adds	r7, r7, #1
  84              	.LVL9:
  85              	.L2:
 182:Generated_Source\PSoC4/cyfitter_cfg.c **** 	{
  86              		.loc 1 182 0 is_stmt 0 discriminator 1
  87 002c 072F     		cmp	r7, #7
  88 002e EBD9     		bls	.L5
 192:Generated_Source\PSoC4/cyfitter_cfg.c **** 		}
 193:Generated_Source\PSoC4/cyfitter_cfg.c **** 	}
 194:Generated_Source\PSoC4/cyfitter_cfg.c **** }
ARM GAS  C:\Users\kylep\AppData\Local\Temp\ccfw51TI.s 			page 6


  89              		.loc 1 194 0 is_stmt 1
  90              		@ sp needed
  91              	.LVL10:
  92              	.LVL11:
  93 0030 F0BD     		pop	{r4, r5, r6, r7, pc}
  94              		.cfi_endproc
  95              	.LFE3:
  96              		.size	cfg_write_bytes32, .-cfg_write_bytes32
  97 0032 C046     		.section	.text.AnalogSetDefault,"ax",%progbits
  98              		.align	2
  99              		.code	16
 100              		.thumb_func
 101              		.type	AnalogSetDefault, %function
 102              	AnalogSetDefault:
 103              	.LFB5:
 195:Generated_Source\PSoC4/cyfitter_cfg.c **** 
 196:Generated_Source\PSoC4/cyfitter_cfg.c **** 
 197:Generated_Source\PSoC4/cyfitter_cfg.c **** /*******************************************************************************
 198:Generated_Source\PSoC4/cyfitter_cfg.c **** * Function Name: ClockSetup
 199:Generated_Source\PSoC4/cyfitter_cfg.c **** ********************************************************************************
 200:Generated_Source\PSoC4/cyfitter_cfg.c **** *
 201:Generated_Source\PSoC4/cyfitter_cfg.c **** * Summary:
 202:Generated_Source\PSoC4/cyfitter_cfg.c **** *   Performs the initialization of all of the clocks in the device based on the
 203:Generated_Source\PSoC4/cyfitter_cfg.c **** *   settings in the Clock tab of the DWR.  This includes enabling the requested
 204:Generated_Source\PSoC4/cyfitter_cfg.c **** *   clocks and setting the necessary dividers to produce the desired frequency. 
 205:Generated_Source\PSoC4/cyfitter_cfg.c **** *
 206:Generated_Source\PSoC4/cyfitter_cfg.c **** * Parameters:
 207:Generated_Source\PSoC4/cyfitter_cfg.c **** *   void
 208:Generated_Source\PSoC4/cyfitter_cfg.c **** *
 209:Generated_Source\PSoC4/cyfitter_cfg.c **** * Return:
 210:Generated_Source\PSoC4/cyfitter_cfg.c **** *   void
 211:Generated_Source\PSoC4/cyfitter_cfg.c **** *
 212:Generated_Source\PSoC4/cyfitter_cfg.c **** *******************************************************************************/
 213:Generated_Source\PSoC4/cyfitter_cfg.c **** static void ClockSetup(void);
 214:Generated_Source\PSoC4/cyfitter_cfg.c **** CY_CFG_SECTION
 215:Generated_Source\PSoC4/cyfitter_cfg.c **** static void ClockSetup(void)
 216:Generated_Source\PSoC4/cyfitter_cfg.c **** {
 217:Generated_Source\PSoC4/cyfitter_cfg.c **** 	/* Enable HALF_EN before trimming for the flash accelerator. */
 218:Generated_Source\PSoC4/cyfitter_cfg.c **** 	CY_SET_REG32((void CYXDATA *)(CYREG_CLK_SELECT), (CY_GET_REG32((void *)CYREG_CLK_SELECT) | 0x00040
 219:Generated_Source\PSoC4/cyfitter_cfg.c **** 
 220:Generated_Source\PSoC4/cyfitter_cfg.c **** 	/* Setup and trim IMO based on desired frequency. */
 221:Generated_Source\PSoC4/cyfitter_cfg.c **** 	CySysClkWriteImoFreq(48u);
 222:Generated_Source\PSoC4/cyfitter_cfg.c **** 	/* CYDEV_CLK_ILO_CONFIG Starting address: CYDEV_CLK_ILO_CONFIG */
 223:Generated_Source\PSoC4/cyfitter_cfg.c **** 	CY_SET_REG32((void *)(CYREG_CLK_ILO_CONFIG), 0x80000006u);
 224:Generated_Source\PSoC4/cyfitter_cfg.c **** 
 225:Generated_Source\PSoC4/cyfitter_cfg.c **** 
 226:Generated_Source\PSoC4/cyfitter_cfg.c **** 	/* CYDEV_CLK_SELECT00 Starting address: CYDEV_CLK_SELECT00 */
 227:Generated_Source\PSoC4/cyfitter_cfg.c **** 	CY_SET_REG32((void *)(CYREG_CLK_SELECT03), 0x00000011u);
 228:Generated_Source\PSoC4/cyfitter_cfg.c **** 	CY_SET_REG32((void *)(CYREG_CLK_SELECT07), 0x00000030u);
 229:Generated_Source\PSoC4/cyfitter_cfg.c **** 	CY_SET_REG32((void *)(CYREG_CLK_SELECT08), 0x00000012u);
 230:Generated_Source\PSoC4/cyfitter_cfg.c **** 	CY_SET_REG32((void *)(CYREG_CLK_SELECT09), 0x00000022u);
 231:Generated_Source\PSoC4/cyfitter_cfg.c **** 	CY_SET_REG32((void *)(CYREG_CLK_SELECT10), 0x00000013u);
 232:Generated_Source\PSoC4/cyfitter_cfg.c **** 	CY_SET_REG32((void *)(CYREG_CLK_SELECT11), 0x00000031u);
 233:Generated_Source\PSoC4/cyfitter_cfg.c **** 	CY_SET_REG32((void *)(CYREG_CLK_SELECT12), 0x00000033u);
 234:Generated_Source\PSoC4/cyfitter_cfg.c **** 	CY_SET_REG32((void *)(CYREG_CLK_SELECT13), 0x00000020u);
 235:Generated_Source\PSoC4/cyfitter_cfg.c **** 	CY_SET_REG32((void *)(CYREG_CLK_SELECT14), 0x00000032u);
 236:Generated_Source\PSoC4/cyfitter_cfg.c **** 	CY_SET_REG32((void *)(CYREG_CLK_SELECT15), 0x00000021u);
ARM GAS  C:\Users\kylep\AppData\Local\Temp\ccfw51TI.s 			page 7


 237:Generated_Source\PSoC4/cyfitter_cfg.c **** 
 238:Generated_Source\PSoC4/cyfitter_cfg.c **** 	/* CYDEV_CLK_IMO_CONFIG Starting address: CYDEV_CLK_IMO_CONFIG */
 239:Generated_Source\PSoC4/cyfitter_cfg.c **** 	CY_SET_REG32((void *)(CYREG_CLK_IMO_CONFIG), 0x82000000u);
 240:Generated_Source\PSoC4/cyfitter_cfg.c **** 
 241:Generated_Source\PSoC4/cyfitter_cfg.c **** 	/* CYDEV_CLK_SELECT Starting address: CYDEV_CLK_SELECT */
 242:Generated_Source\PSoC4/cyfitter_cfg.c **** 	CY_SET_REG32((void *)(CYREG_CLK_SELECT), 0x00040000u);
 243:Generated_Source\PSoC4/cyfitter_cfg.c **** 
 244:Generated_Source\PSoC4/cyfitter_cfg.c **** 	/* CYDEV_CLK_DIVIDER_A00 Starting address: CYDEV_CLK_DIVIDER_A00 */
 245:Generated_Source\PSoC4/cyfitter_cfg.c **** 	CY_SET_REG32((void *)(CYREG_CLK_DIVIDER_A00), 0x8000BB7Fu);
 246:Generated_Source\PSoC4/cyfitter_cfg.c **** 
 247:Generated_Source\PSoC4/cyfitter_cfg.c **** 	/* CYDEV_CLK_DIVIDER_B00 Starting address: CYDEV_CLK_DIVIDER_B00 */
 248:Generated_Source\PSoC4/cyfitter_cfg.c **** 	CY_SET_REG32((void *)(CYREG_CLK_DIVIDER_B00), 0x80000008u);
 249:Generated_Source\PSoC4/cyfitter_cfg.c **** 
 250:Generated_Source\PSoC4/cyfitter_cfg.c **** 	/* CYDEV_CLK_DIVIDER_C00 Starting address: CYDEV_CLK_DIVIDER_C00 */
 251:Generated_Source\PSoC4/cyfitter_cfg.c **** 	CY_SET_REG32((void *)(CYREG_CLK_DIVIDER_C00), 0x8000000Au);
 252:Generated_Source\PSoC4/cyfitter_cfg.c **** 
 253:Generated_Source\PSoC4/cyfitter_cfg.c **** 	/* CYDEV_CLK_DIVIDER_A01 Starting address: CYDEV_CLK_DIVIDER_A01 */
 254:Generated_Source\PSoC4/cyfitter_cfg.c **** 	CY_SET_REG32((void *)(CYREG_CLK_DIVIDER_A01), 0x80000022u);
 255:Generated_Source\PSoC4/cyfitter_cfg.c **** 
 256:Generated_Source\PSoC4/cyfitter_cfg.c **** 	/* CYDEV_CLK_DIVIDER_B01 Starting address: CYDEV_CLK_DIVIDER_B01 */
 257:Generated_Source\PSoC4/cyfitter_cfg.c **** 	CY_SET_REG32((void *)(CYREG_CLK_DIVIDER_B01), 0x8000002Fu);
 258:Generated_Source\PSoC4/cyfitter_cfg.c **** 
 259:Generated_Source\PSoC4/cyfitter_cfg.c **** 	/* CYDEV_CLK_DIVIDER_C01 Starting address: CYDEV_CLK_DIVIDER_C01 */
 260:Generated_Source\PSoC4/cyfitter_cfg.c **** 	CY_SET_REG32((void *)(CYREG_CLK_DIVIDER_C01), 0x8000002Fu);
 261:Generated_Source\PSoC4/cyfitter_cfg.c **** 
 262:Generated_Source\PSoC4/cyfitter_cfg.c **** 	/* CYDEV_CLK_DIVIDER_A02 Starting address: CYDEV_CLK_DIVIDER_A02 */
 263:Generated_Source\PSoC4/cyfitter_cfg.c **** 	CY_SET_REG32((void *)(CYREG_CLK_DIVIDER_A02), 0x8000002Fu);
 264:Generated_Source\PSoC4/cyfitter_cfg.c **** 
 265:Generated_Source\PSoC4/cyfitter_cfg.c **** 	/* CYDEV_CLK_DIVIDER_B02 Starting address: CYDEV_CLK_DIVIDER_B02 */
 266:Generated_Source\PSoC4/cyfitter_cfg.c **** 	CY_SET_REG32((void *)(CYREG_CLK_DIVIDER_B02), 0x8000002Fu);
 267:Generated_Source\PSoC4/cyfitter_cfg.c **** 
 268:Generated_Source\PSoC4/cyfitter_cfg.c **** 	/* CYDEV_CLK_DIVIDER_C02 Starting address: CYDEV_CLK_DIVIDER_C02 */
 269:Generated_Source\PSoC4/cyfitter_cfg.c **** 	CY_SET_REG32((void *)(CYREG_CLK_DIVIDER_C02), 0x800003ACu);
 270:Generated_Source\PSoC4/cyfitter_cfg.c **** 
 271:Generated_Source\PSoC4/cyfitter_cfg.c **** 	/* CYDEV_CLK_DIVIDER_FRAC_A00 Starting address: CYDEV_CLK_DIVIDER_FRAC_A00 */
 272:Generated_Source\PSoC4/cyfitter_cfg.c **** 	CY_SET_REG32((void *)(CYREG_CLK_DIVIDER_FRAC_A00), 0x8000BB7Fu);
 273:Generated_Source\PSoC4/cyfitter_cfg.c **** 
 274:Generated_Source\PSoC4/cyfitter_cfg.c **** 	/* CYDEV_CLK_DIVIDER_FRAC_B00 Starting address: CYDEV_CLK_DIVIDER_FRAC_B00 */
 275:Generated_Source\PSoC4/cyfitter_cfg.c **** 	CY_SET_REG32((void *)(CYREG_CLK_DIVIDER_FRAC_B00), 0x800003E7u);
 276:Generated_Source\PSoC4/cyfitter_cfg.c **** 
 277:Generated_Source\PSoC4/cyfitter_cfg.c **** 	/* CYDEV_CLK_DIVIDER_FRAC_C00 Starting address: CYDEV_CLK_DIVIDER_FRAC_C00 */
 278:Generated_Source\PSoC4/cyfitter_cfg.c **** 	CY_SET_REG32((void *)(CYREG_CLK_DIVIDER_FRAC_C00), 0xC000031Fu);
 279:Generated_Source\PSoC4/cyfitter_cfg.c **** 
 280:Generated_Source\PSoC4/cyfitter_cfg.c **** 	(void)CyIntSetVector(9u, &CySysWdtIsr);
 281:Generated_Source\PSoC4/cyfitter_cfg.c **** 	CyIntEnable(9u);
 282:Generated_Source\PSoC4/cyfitter_cfg.c **** 	CY_SET_REG32((void *)(CYREG_WDT_CONFIG), 0x00000000u);
 283:Generated_Source\PSoC4/cyfitter_cfg.c **** }
 284:Generated_Source\PSoC4/cyfitter_cfg.c **** 
 285:Generated_Source\PSoC4/cyfitter_cfg.c **** 
 286:Generated_Source\PSoC4/cyfitter_cfg.c **** /* Analog API Functions */
 287:Generated_Source\PSoC4/cyfitter_cfg.c **** 
 288:Generated_Source\PSoC4/cyfitter_cfg.c **** 
 289:Generated_Source\PSoC4/cyfitter_cfg.c **** /*******************************************************************************
 290:Generated_Source\PSoC4/cyfitter_cfg.c **** * Function Name: AnalogSetDefault
 291:Generated_Source\PSoC4/cyfitter_cfg.c **** ********************************************************************************
 292:Generated_Source\PSoC4/cyfitter_cfg.c **** *
 293:Generated_Source\PSoC4/cyfitter_cfg.c **** * Summary:
ARM GAS  C:\Users\kylep\AppData\Local\Temp\ccfw51TI.s 			page 8


 294:Generated_Source\PSoC4/cyfitter_cfg.c **** *  Sets up the analog portions of the chip to default values based on chip
 295:Generated_Source\PSoC4/cyfitter_cfg.c **** *  configuration options from the project.
 296:Generated_Source\PSoC4/cyfitter_cfg.c **** *
 297:Generated_Source\PSoC4/cyfitter_cfg.c **** * Parameters:
 298:Generated_Source\PSoC4/cyfitter_cfg.c **** *  void
 299:Generated_Source\PSoC4/cyfitter_cfg.c **** *
 300:Generated_Source\PSoC4/cyfitter_cfg.c **** * Return:
 301:Generated_Source\PSoC4/cyfitter_cfg.c **** *  void
 302:Generated_Source\PSoC4/cyfitter_cfg.c **** *
 303:Generated_Source\PSoC4/cyfitter_cfg.c **** *******************************************************************************/
 304:Generated_Source\PSoC4/cyfitter_cfg.c **** static void AnalogSetDefault(void);
 305:Generated_Source\PSoC4/cyfitter_cfg.c **** static void AnalogSetDefault(void)
 306:Generated_Source\PSoC4/cyfitter_cfg.c **** {
 104              		.loc 1 306 0
 105              		.cfi_startproc
 106              		@ args = 0, pretend = 0, frame = 0
 107              		@ frame_needed = 0, uses_anonymous_args = 0
 108              		@ link register save eliminated.
 307:Generated_Source\PSoC4/cyfitter_cfg.c **** 	CY_SET_XTND_REG32((void CYFAR *)CYREG_SAR_MUX_SWITCH0, 0x000300D8u);
 109              		.loc 1 307 0
 110 0000 024B     		ldr	r3, .L7
 111 0002 034A     		ldr	r2, .L7+4
 112 0004 1360     		str	r3, [r2]
 308:Generated_Source\PSoC4/cyfitter_cfg.c **** 	CY_SET_XTND_REG32((void CYFAR *)CYREG_SAR_MUX_SWITCH_HW_CTRL, 0x000300D8u);
 113              		.loc 1 308 0
 114 0006 034A     		ldr	r2, .L7+8
 115 0008 1360     		str	r3, [r2]
 309:Generated_Source\PSoC4/cyfitter_cfg.c **** 	/* Variable VDDA is selected; no pumps are enabled by default */
 310:Generated_Source\PSoC4/cyfitter_cfg.c **** }
 116              		.loc 1 310 0
 117              		@ sp needed
 118 000a 7047     		bx	lr
 119              	.L8:
 120              		.align	2
 121              	.L7:
 122 000c D8000300 		.word	196824
 123 0010 00031A40 		.word	1075446528
 124 0014 40031A40 		.word	1075446592
 125              		.cfi_endproc
 126              	.LFE5:
 127              		.size	AnalogSetDefault, .-AnalogSetDefault
 128              		.section	.text.CYMEMZERO,"ax",%progbits
 129              		.align	2
 130              		.code	16
 131              		.thumb_func
 132              		.type	CYMEMZERO, %function
 133              	CYMEMZERO:
 134              	.LFB0:
  76:Generated_Source\PSoC4/cyfitter_cfg.c **** 	(void)memset(s, 0, n);
 135              		.loc 1 76 0
 136              		.cfi_startproc
 137              		@ args = 0, pretend = 0, frame = 0
 138              		@ frame_needed = 0, uses_anonymous_args = 0
 139              	.LVL12:
 140 0000 10B5     		push	{r4, lr}
 141              		.cfi_def_cfa_offset 8
 142              		.cfi_offset 4, -8
ARM GAS  C:\Users\kylep\AppData\Local\Temp\ccfw51TI.s 			page 9


 143              		.cfi_offset 14, -4
 144 0002 0A00     		movs	r2, r1
  77:Generated_Source\PSoC4/cyfitter_cfg.c **** }
 145              		.loc 1 77 0
 146 0004 0021     		movs	r1, #0
 147              	.LVL13:
 148 0006 FFF7FEFF 		bl	memset
 149              	.LVL14:
  78:Generated_Source\PSoC4/cyfitter_cfg.c **** CY_CFG_UNUSED
 150              		.loc 1 78 0
 151              		@ sp needed
 152 000a 10BD     		pop	{r4, pc}
 153              		.cfi_endproc
 154              	.LFE0:
 155              		.size	CYMEMZERO, .-CYMEMZERO
 156              		.section	.psocinit,"ax",%progbits
 157              		.align	2
 158              		.code	16
 159              		.thumb_func
 160              		.type	ClockSetup, %function
 161              	ClockSetup:
 162              	.LFB4:
 216:Generated_Source\PSoC4/cyfitter_cfg.c **** 	/* Enable HALF_EN before trimming for the flash accelerator. */
 163              		.loc 1 216 0
 164              		.cfi_startproc
 165              		@ args = 0, pretend = 0, frame = 0
 166              		@ frame_needed = 0, uses_anonymous_args = 0
 167 0000 70B5     		push	{r4, r5, r6, lr}
 168              		.cfi_def_cfa_offset 16
 169              		.cfi_offset 4, -16
 170              		.cfi_offset 5, -12
 171              		.cfi_offset 6, -8
 172              		.cfi_offset 14, -4
 218:Generated_Source\PSoC4/cyfitter_cfg.c **** 
 173              		.loc 1 218 0
 174 0002 2D4C     		ldr	r4, .L11
 175 0004 2368     		ldr	r3, [r4]
 176 0006 8025     		movs	r5, #128
 177 0008 ED02     		lsls	r5, r5, #11
 178 000a 2B43     		orrs	r3, r5
 179 000c 2360     		str	r3, [r4]
 221:Generated_Source\PSoC4/cyfitter_cfg.c **** 	/* CYDEV_CLK_ILO_CONFIG Starting address: CYDEV_CLK_ILO_CONFIG */
 180              		.loc 1 221 0
 181 000e 3020     		movs	r0, #48
 182 0010 FFF7FEFF 		bl	CySysClkWriteImoFreq
 183              	.LVL15:
 223:Generated_Source\PSoC4/cyfitter_cfg.c **** 
 184              		.loc 1 223 0
 185 0014 294A     		ldr	r2, .L11+4
 186 0016 2A4B     		ldr	r3, .L11+8
 187 0018 1A60     		str	r2, [r3]
 227:Generated_Source\PSoC4/cyfitter_cfg.c **** 	CY_SET_REG32((void *)(CYREG_CLK_SELECT07), 0x00000030u);
 188              		.loc 1 227 0
 189 001a 1122     		movs	r2, #17
 190 001c 294B     		ldr	r3, .L11+12
 191 001e 1A60     		str	r2, [r3]
 228:Generated_Source\PSoC4/cyfitter_cfg.c **** 	CY_SET_REG32((void *)(CYREG_CLK_SELECT08), 0x00000012u);
ARM GAS  C:\Users\kylep\AppData\Local\Temp\ccfw51TI.s 			page 10


 192              		.loc 1 228 0
 193 0020 1F32     		adds	r2, r2, #31
 194 0022 294B     		ldr	r3, .L11+16
 195 0024 1A60     		str	r2, [r3]
 229:Generated_Source\PSoC4/cyfitter_cfg.c **** 	CY_SET_REG32((void *)(CYREG_CLK_SELECT09), 0x00000022u);
 196              		.loc 1 229 0
 197 0026 1E3A     		subs	r2, r2, #30
 198 0028 284B     		ldr	r3, .L11+20
 199 002a 1A60     		str	r2, [r3]
 230:Generated_Source\PSoC4/cyfitter_cfg.c **** 	CY_SET_REG32((void *)(CYREG_CLK_SELECT10), 0x00000013u);
 200              		.loc 1 230 0
 201 002c 1032     		adds	r2, r2, #16
 202 002e 284B     		ldr	r3, .L11+24
 203 0030 1A60     		str	r2, [r3]
 231:Generated_Source\PSoC4/cyfitter_cfg.c **** 	CY_SET_REG32((void *)(CYREG_CLK_SELECT11), 0x00000031u);
 204              		.loc 1 231 0
 205 0032 0F3A     		subs	r2, r2, #15
 206 0034 274B     		ldr	r3, .L11+28
 207 0036 1A60     		str	r2, [r3]
 232:Generated_Source\PSoC4/cyfitter_cfg.c **** 	CY_SET_REG32((void *)(CYREG_CLK_SELECT12), 0x00000033u);
 208              		.loc 1 232 0
 209 0038 1E32     		adds	r2, r2, #30
 210 003a 274B     		ldr	r3, .L11+32
 211 003c 1A60     		str	r2, [r3]
 233:Generated_Source\PSoC4/cyfitter_cfg.c **** 	CY_SET_REG32((void *)(CYREG_CLK_SELECT13), 0x00000020u);
 212              		.loc 1 233 0
 213 003e 0232     		adds	r2, r2, #2
 214 0040 264B     		ldr	r3, .L11+36
 215 0042 1A60     		str	r2, [r3]
 234:Generated_Source\PSoC4/cyfitter_cfg.c **** 	CY_SET_REG32((void *)(CYREG_CLK_SELECT14), 0x00000032u);
 216              		.loc 1 234 0
 217 0044 133A     		subs	r2, r2, #19
 218 0046 264B     		ldr	r3, .L11+40
 219 0048 1A60     		str	r2, [r3]
 235:Generated_Source\PSoC4/cyfitter_cfg.c **** 	CY_SET_REG32((void *)(CYREG_CLK_SELECT15), 0x00000021u);
 220              		.loc 1 235 0
 221 004a 1232     		adds	r2, r2, #18
 222 004c 254B     		ldr	r3, .L11+44
 223 004e 1A60     		str	r2, [r3]
 236:Generated_Source\PSoC4/cyfitter_cfg.c **** 
 224              		.loc 1 236 0
 225 0050 113A     		subs	r2, r2, #17
 226 0052 254B     		ldr	r3, .L11+48
 227 0054 1A60     		str	r2, [r3]
 239:Generated_Source\PSoC4/cyfitter_cfg.c **** 
 228              		.loc 1 239 0
 229 0056 8222     		movs	r2, #130
 230 0058 1206     		lsls	r2, r2, #24
 231 005a 244B     		ldr	r3, .L11+52
 232 005c 1A60     		str	r2, [r3]
 242:Generated_Source\PSoC4/cyfitter_cfg.c **** 
 233              		.loc 1 242 0
 234 005e 2560     		str	r5, [r4]
 245:Generated_Source\PSoC4/cyfitter_cfg.c **** 
 235              		.loc 1 245 0
 236 0060 234A     		ldr	r2, .L11+56
 237 0062 244B     		ldr	r3, .L11+60
ARM GAS  C:\Users\kylep\AppData\Local\Temp\ccfw51TI.s 			page 11


 238 0064 1A60     		str	r2, [r3]
 248:Generated_Source\PSoC4/cyfitter_cfg.c **** 
 239              		.loc 1 248 0
 240 0066 2449     		ldr	r1, .L11+64
 241 0068 244B     		ldr	r3, .L11+68
 242 006a 1960     		str	r1, [r3]
 251:Generated_Source\PSoC4/cyfitter_cfg.c **** 
 243              		.loc 1 251 0
 244 006c 2449     		ldr	r1, .L11+72
 245 006e 254B     		ldr	r3, .L11+76
 246 0070 1960     		str	r1, [r3]
 254:Generated_Source\PSoC4/cyfitter_cfg.c **** 
 247              		.loc 1 254 0
 248 0072 2549     		ldr	r1, .L11+80
 249 0074 254B     		ldr	r3, .L11+84
 250 0076 1960     		str	r1, [r3]
 257:Generated_Source\PSoC4/cyfitter_cfg.c **** 
 251              		.loc 1 257 0
 252 0078 254B     		ldr	r3, .L11+88
 253 007a 2649     		ldr	r1, .L11+92
 254 007c 0B60     		str	r3, [r1]
 260:Generated_Source\PSoC4/cyfitter_cfg.c **** 
 255              		.loc 1 260 0
 256 007e 2649     		ldr	r1, .L11+96
 257 0080 0B60     		str	r3, [r1]
 263:Generated_Source\PSoC4/cyfitter_cfg.c **** 
 258              		.loc 1 263 0
 259 0082 2649     		ldr	r1, .L11+100
 260 0084 0B60     		str	r3, [r1]
 266:Generated_Source\PSoC4/cyfitter_cfg.c **** 
 261              		.loc 1 266 0
 262 0086 2649     		ldr	r1, .L11+104
 263 0088 0B60     		str	r3, [r1]
 269:Generated_Source\PSoC4/cyfitter_cfg.c **** 
 264              		.loc 1 269 0
 265 008a 2649     		ldr	r1, .L11+108
 266 008c 264B     		ldr	r3, .L11+112
 267 008e 1960     		str	r1, [r3]
 272:Generated_Source\PSoC4/cyfitter_cfg.c **** 
 268              		.loc 1 272 0
 269 0090 264B     		ldr	r3, .L11+116
 270 0092 1A60     		str	r2, [r3]
 275:Generated_Source\PSoC4/cyfitter_cfg.c **** 
 271              		.loc 1 275 0
 272 0094 264A     		ldr	r2, .L11+120
 273 0096 274B     		ldr	r3, .L11+124
 274 0098 1A60     		str	r2, [r3]
 278:Generated_Source\PSoC4/cyfitter_cfg.c **** 
 275              		.loc 1 278 0
 276 009a 274A     		ldr	r2, .L11+128
 277 009c 274B     		ldr	r3, .L11+132
 278 009e 1A60     		str	r2, [r3]
 280:Generated_Source\PSoC4/cyfitter_cfg.c **** 	CyIntEnable(9u);
 279              		.loc 1 280 0
 280 00a0 2749     		ldr	r1, .L11+136
 281 00a2 0920     		movs	r0, #9
 282 00a4 FFF7FEFF 		bl	CyIntSetVector
ARM GAS  C:\Users\kylep\AppData\Local\Temp\ccfw51TI.s 			page 12


 283              	.LVL16:
 281:Generated_Source\PSoC4/cyfitter_cfg.c **** 	CY_SET_REG32((void *)(CYREG_WDT_CONFIG), 0x00000000u);
 284              		.loc 1 281 0
 285 00a8 0920     		movs	r0, #9
 286 00aa FFF7FEFF 		bl	CyIntEnable
 287              	.LVL17:
 282:Generated_Source\PSoC4/cyfitter_cfg.c **** }
 288              		.loc 1 282 0
 289 00ae 0022     		movs	r2, #0
 290 00b0 244B     		ldr	r3, .L11+140
 291 00b2 1A60     		str	r2, [r3]
 283:Generated_Source\PSoC4/cyfitter_cfg.c **** 
 292              		.loc 1 283 0
 293              		@ sp needed
 294 00b4 70BD     		pop	{r4, r5, r6, pc}
 295              	.L12:
 296 00b6 C046     		.align	2
 297              	.L11:
 298 00b8 00010B40 		.word	1074462976
 299 00bc 06000080 		.word	-2147483642
 300 00c0 04010B40 		.word	1074462980
 301 00c4 0C020240 		.word	1073873420
 302 00c8 1C020240 		.word	1073873436
 303 00cc 20020240 		.word	1073873440
 304 00d0 24020240 		.word	1073873444
 305 00d4 28020240 		.word	1073873448
 306 00d8 2C020240 		.word	1073873452
 307 00dc 30020240 		.word	1073873456
 308 00e0 34020240 		.word	1073873460
 309 00e4 38020240 		.word	1073873464
 310 00e8 3C020240 		.word	1073873468
 311 00ec 08010B40 		.word	1074462984
 312 00f0 7FBB0080 		.word	-2147435649
 313 00f4 00000240 		.word	1073872896
 314 00f8 08000080 		.word	-2147483640
 315 00fc 40000240 		.word	1073872960
 316 0100 0A000080 		.word	-2147483638
 317 0104 80000240 		.word	1073873024
 318 0108 22000080 		.word	-2147483614
 319 010c 04000240 		.word	1073872900
 320 0110 2F000080 		.word	-2147483601
 321 0114 44000240 		.word	1073872964
 322 0118 84000240 		.word	1073873028
 323 011c 08000240 		.word	1073872904
 324 0120 48000240 		.word	1073872968
 325 0124 AC030080 		.word	-2147482708
 326 0128 88000240 		.word	1073873032
 327 012c 00010240 		.word	1073873152
 328 0130 E7030080 		.word	-2147482649
 329 0134 40010240 		.word	1073873216
 330 0138 1F0300C0 		.word	-1073741025
 331 013c 80010240 		.word	1073873280
 332 0140 00000000 		.word	CySysWdtIsr
 333 0144 0C020B40 		.word	1074463244
 334              		.cfi_endproc
 335              	.LFE4:
 336              		.size	ClockSetup, .-ClockSetup
ARM GAS  C:\Users\kylep\AppData\Local\Temp\ccfw51TI.s 			page 13


 337              		.section	.text.SetAnalogRoutingPumps,"ax",%progbits
 338              		.align	2
 339              		.global	SetAnalogRoutingPumps
 340              		.code	16
 341              		.thumb_func
 342              		.type	SetAnalogRoutingPumps, %function
 343              	SetAnalogRoutingPumps:
 344              	.LFB6:
 311:Generated_Source\PSoC4/cyfitter_cfg.c **** 
 312:Generated_Source\PSoC4/cyfitter_cfg.c **** 
 313:Generated_Source\PSoC4/cyfitter_cfg.c **** /*******************************************************************************
 314:Generated_Source\PSoC4/cyfitter_cfg.c **** * Function Name: SetAnalogRoutingPumps
 315:Generated_Source\PSoC4/cyfitter_cfg.c **** ********************************************************************************
 316:Generated_Source\PSoC4/cyfitter_cfg.c **** *
 317:Generated_Source\PSoC4/cyfitter_cfg.c **** * Summary:
 318:Generated_Source\PSoC4/cyfitter_cfg.c **** * Enables or disables the analog pumps feeding analog routing switches.
 319:Generated_Source\PSoC4/cyfitter_cfg.c **** * Intended to be called at startup, based on the Vdda system configuration;
 320:Generated_Source\PSoC4/cyfitter_cfg.c **** * may be called during operation when the user informs us that the Vdda voltage crossed the pump th
 321:Generated_Source\PSoC4/cyfitter_cfg.c **** *
 322:Generated_Source\PSoC4/cyfitter_cfg.c **** * Parameters:
 323:Generated_Source\PSoC4/cyfitter_cfg.c **** *  enabled - 1 to enable the pumps, 0 to disable the pumps
 324:Generated_Source\PSoC4/cyfitter_cfg.c **** *
 325:Generated_Source\PSoC4/cyfitter_cfg.c **** * Return:
 326:Generated_Source\PSoC4/cyfitter_cfg.c **** *  void
 327:Generated_Source\PSoC4/cyfitter_cfg.c **** *
 328:Generated_Source\PSoC4/cyfitter_cfg.c **** *******************************************************************************/
 329:Generated_Source\PSoC4/cyfitter_cfg.c **** void SetAnalogRoutingPumps(uint8 enabled)
 330:Generated_Source\PSoC4/cyfitter_cfg.c **** {
 345              		.loc 1 330 0
 346              		.cfi_startproc
 347              		@ args = 0, pretend = 0, frame = 0
 348              		@ frame_needed = 0, uses_anonymous_args = 0
 349              		@ link register save eliminated.
 350              	.LVL18:
 331:Generated_Source\PSoC4/cyfitter_cfg.c **** 	uint32 regValue = CY_GET_XTND_REG32((void *)(CYREG_SAR_PUMP_CTRL));
 351              		.loc 1 331 0
 352 0000 064B     		ldr	r3, .L16
 353 0002 1B68     		ldr	r3, [r3]
 354              	.LVL19:
 332:Generated_Source\PSoC4/cyfitter_cfg.c **** 	if (enabled != 0u)
 355              		.loc 1 332 0
 356 0004 0028     		cmp	r0, #0
 357 0006 03D0     		beq	.L14
 333:Generated_Source\PSoC4/cyfitter_cfg.c **** 	{
 334:Generated_Source\PSoC4/cyfitter_cfg.c **** 		regValue |= 0x80000000u;
 358              		.loc 1 334 0
 359 0008 8022     		movs	r2, #128
 360 000a 1206     		lsls	r2, r2, #24
 361 000c 1343     		orrs	r3, r2
 362              	.LVL20:
 363 000e 01E0     		b	.L15
 364              	.L14:
 335:Generated_Source\PSoC4/cyfitter_cfg.c **** 	}
 336:Generated_Source\PSoC4/cyfitter_cfg.c **** 	else
 337:Generated_Source\PSoC4/cyfitter_cfg.c **** 	{
 338:Generated_Source\PSoC4/cyfitter_cfg.c **** 		regValue &= ~0x80000000u;
 365              		.loc 1 338 0
ARM GAS  C:\Users\kylep\AppData\Local\Temp\ccfw51TI.s 			page 14


 366 0010 5B00     		lsls	r3, r3, #1
 367              	.LVL21:
 368 0012 5B08     		lsrs	r3, r3, #1
 369              	.LVL22:
 370              	.L15:
 339:Generated_Source\PSoC4/cyfitter_cfg.c **** 	}
 340:Generated_Source\PSoC4/cyfitter_cfg.c **** 	CY_SET_XTND_REG32((void *)(CYREG_SAR_PUMP_CTRL), regValue);
 371              		.loc 1 340 0
 372 0014 014A     		ldr	r2, .L16
 373 0016 1360     		str	r3, [r2]
 341:Generated_Source\PSoC4/cyfitter_cfg.c **** }
 374              		.loc 1 341 0
 375              		@ sp needed
 376 0018 7047     		bx	lr
 377              	.L17:
 378 001a C046     		.align	2
 379              	.L16:
 380 001c 80031A40 		.word	1075446656
 381              		.cfi_endproc
 382              	.LFE6:
 383              		.size	SetAnalogRoutingPumps, .-SetAnalogRoutingPumps
 384              		.section	.psocinit
 385              		.align	2
 386              		.global	cyfitter_cfg
 387              		.code	16
 388              		.thumb_func
 389              		.type	cyfitter_cfg, %function
 390              	cyfitter_cfg:
 391              	.LFB7:
 342:Generated_Source\PSoC4/cyfitter_cfg.c **** 
 343:Generated_Source\PSoC4/cyfitter_cfg.c **** 
 344:Generated_Source\PSoC4/cyfitter_cfg.c **** 
 345:Generated_Source\PSoC4/cyfitter_cfg.c **** 
 346:Generated_Source\PSoC4/cyfitter_cfg.c **** /*******************************************************************************
 347:Generated_Source\PSoC4/cyfitter_cfg.c **** * Function Name: cyfitter_cfg
 348:Generated_Source\PSoC4/cyfitter_cfg.c **** ********************************************************************************
 349:Generated_Source\PSoC4/cyfitter_cfg.c **** * Summary:
 350:Generated_Source\PSoC4/cyfitter_cfg.c **** *  This function is called by the start-up code for the selected device. It
 351:Generated_Source\PSoC4/cyfitter_cfg.c **** *  performs all of the necessary device configuration based on the design
 352:Generated_Source\PSoC4/cyfitter_cfg.c **** *  settings.  This includes settings from the Design Wide Resources (DWR) such
 353:Generated_Source\PSoC4/cyfitter_cfg.c **** *  as Clocks and Pins as well as any component configuration that is necessary.
 354:Generated_Source\PSoC4/cyfitter_cfg.c **** *
 355:Generated_Source\PSoC4/cyfitter_cfg.c **** * Parameters:
 356:Generated_Source\PSoC4/cyfitter_cfg.c **** *   void
 357:Generated_Source\PSoC4/cyfitter_cfg.c **** *
 358:Generated_Source\PSoC4/cyfitter_cfg.c **** * Return:
 359:Generated_Source\PSoC4/cyfitter_cfg.c **** *   void
 360:Generated_Source\PSoC4/cyfitter_cfg.c **** *
 361:Generated_Source\PSoC4/cyfitter_cfg.c **** *******************************************************************************/
 362:Generated_Source\PSoC4/cyfitter_cfg.c **** CY_CFG_SECTION
 363:Generated_Source\PSoC4/cyfitter_cfg.c **** void cyfitter_cfg(void)
 364:Generated_Source\PSoC4/cyfitter_cfg.c **** {
 392              		.loc 1 364 0
 393              		.cfi_startproc
 394              		@ args = 0, pretend = 0, frame = 0
 395              		@ frame_needed = 0, uses_anonymous_args = 0
 396 0148 10B5     		push	{r4, lr}
ARM GAS  C:\Users\kylep\AppData\Local\Temp\ccfw51TI.s 			page 15


 397              		.cfi_def_cfa_offset 8
 398              		.cfi_offset 4, -8
 399              		.cfi_offset 14, -4
 365:Generated_Source\PSoC4/cyfitter_cfg.c **** 	/* Disable interrupts by default. Let user enable if/when they want. */
 366:Generated_Source\PSoC4/cyfitter_cfg.c **** 	CyGlobalIntDisable;
 400              		.loc 1 366 0
 401              		.syntax divided
 402              	@ 366 "Generated_Source\PSoC4\cyfitter_cfg.c" 1
 403 014a 72B6     		CPSID   i
 404              	@ 0 "" 2
 367:Generated_Source\PSoC4/cyfitter_cfg.c **** 
 368:Generated_Source\PSoC4/cyfitter_cfg.c **** 	/* Enable the clock in the interrupt controller for the routed interrupts */
 369:Generated_Source\PSoC4/cyfitter_cfg.c **** 	CY_SET_REG8((void *)CYREG_UDB_UDBIF_INT_CLK_CTL, 0x01u);
 405              		.loc 1 369 0
 406              		.thumb
 407              		.syntax unified
 408 014c 0122     		movs	r2, #1
 409 014e 304B     		ldr	r3, .L21
 410 0150 1A70     		strb	r2, [r3]
 411              	.LVL23:
 412              	.LBB3:
 370:Generated_Source\PSoC4/cyfitter_cfg.c **** 	{
 371:Generated_Source\PSoC4/cyfitter_cfg.c **** 		static const uint32 CYCODE cy_cfg_addr_table[] = {
 372:Generated_Source\PSoC4/cyfitter_cfg.c **** 			0x400F0002u, /* Base address: 0x400F0000 Count: 2 */
 373:Generated_Source\PSoC4/cyfitter_cfg.c **** 			0x400F3059u, /* Base address: 0x400F3000 Count: 89 */
 374:Generated_Source\PSoC4/cyfitter_cfg.c **** 			0x400F3132u, /* Base address: 0x400F3100 Count: 50 */
 375:Generated_Source\PSoC4/cyfitter_cfg.c **** 			0x400F3266u, /* Base address: 0x400F3200 Count: 102 */
 376:Generated_Source\PSoC4/cyfitter_cfg.c **** 			0x400F3342u, /* Base address: 0x400F3300 Count: 66 */
 377:Generated_Source\PSoC4/cyfitter_cfg.c **** 			0x400F4010u, /* Base address: 0x400F4000 Count: 16 */
 378:Generated_Source\PSoC4/cyfitter_cfg.c **** 			0x400F4117u, /* Base address: 0x400F4100 Count: 23 */
 379:Generated_Source\PSoC4/cyfitter_cfg.c **** 			0x400F6002u, /* Base address: 0x400F6000 Count: 2 */
 380:Generated_Source\PSoC4/cyfitter_cfg.c **** 		};
 381:Generated_Source\PSoC4/cyfitter_cfg.c **** 
 382:Generated_Source\PSoC4/cyfitter_cfg.c **** 		static const cy_cfg_addrvalue_t CYCODE cy_cfg_data_table[] = {
 383:Generated_Source\PSoC4/cyfitter_cfg.c **** 			{0x80u, 0x0Du},
 384:Generated_Source\PSoC4/cyfitter_cfg.c **** 			{0x83u, 0x0Du},
 385:Generated_Source\PSoC4/cyfitter_cfg.c **** 			{0x03u, 0x01u},
 386:Generated_Source\PSoC4/cyfitter_cfg.c **** 			{0x06u, 0x06u},
 387:Generated_Source\PSoC4/cyfitter_cfg.c **** 			{0x07u, 0x02u},
 388:Generated_Source\PSoC4/cyfitter_cfg.c **** 			{0x0Eu, 0x08u},
 389:Generated_Source\PSoC4/cyfitter_cfg.c **** 			{0x0Fu, 0x01u},
 390:Generated_Source\PSoC4/cyfitter_cfg.c **** 			{0x12u, 0x01u},
 391:Generated_Source\PSoC4/cyfitter_cfg.c **** 			{0x16u, 0x08u},
 392:Generated_Source\PSoC4/cyfitter_cfg.c **** 			{0x22u, 0x02u},
 393:Generated_Source\PSoC4/cyfitter_cfg.c **** 			{0x26u, 0x04u},
 394:Generated_Source\PSoC4/cyfitter_cfg.c **** 			{0x31u, 0x01u},
 395:Generated_Source\PSoC4/cyfitter_cfg.c **** 			{0x32u, 0x06u},
 396:Generated_Source\PSoC4/cyfitter_cfg.c **** 			{0x34u, 0x01u},
 397:Generated_Source\PSoC4/cyfitter_cfg.c **** 			{0x35u, 0x02u},
 398:Generated_Source\PSoC4/cyfitter_cfg.c **** 			{0x36u, 0x08u},
 399:Generated_Source\PSoC4/cyfitter_cfg.c **** 			{0x3Eu, 0x40u},
 400:Generated_Source\PSoC4/cyfitter_cfg.c **** 			{0x3Fu, 0x01u},
 401:Generated_Source\PSoC4/cyfitter_cfg.c **** 			{0x40u, 0x54u},
 402:Generated_Source\PSoC4/cyfitter_cfg.c **** 			{0x49u, 0xFFu},
 403:Generated_Source\PSoC4/cyfitter_cfg.c **** 			{0x4Au, 0xFFu},
 404:Generated_Source\PSoC4/cyfitter_cfg.c **** 			{0x4Bu, 0xFFu},
 405:Generated_Source\PSoC4/cyfitter_cfg.c **** 			{0x4Fu, 0x01u},
ARM GAS  C:\Users\kylep\AppData\Local\Temp\ccfw51TI.s 			page 16


 406:Generated_Source\PSoC4/cyfitter_cfg.c **** 			{0x50u, 0x18u},
 407:Generated_Source\PSoC4/cyfitter_cfg.c **** 			{0x54u, 0x01u},
 408:Generated_Source\PSoC4/cyfitter_cfg.c **** 			{0x56u, 0x04u},
 409:Generated_Source\PSoC4/cyfitter_cfg.c **** 			{0x58u, 0x04u},
 410:Generated_Source\PSoC4/cyfitter_cfg.c **** 			{0x59u, 0x04u},
 411:Generated_Source\PSoC4/cyfitter_cfg.c **** 			{0x5Au, 0x04u},
 412:Generated_Source\PSoC4/cyfitter_cfg.c **** 			{0x5Bu, 0x04u},
 413:Generated_Source\PSoC4/cyfitter_cfg.c **** 			{0x5Cu, 0x02u},
 414:Generated_Source\PSoC4/cyfitter_cfg.c **** 			{0x5Du, 0x33u},
 415:Generated_Source\PSoC4/cyfitter_cfg.c **** 			{0x5Fu, 0x01u},
 416:Generated_Source\PSoC4/cyfitter_cfg.c **** 			{0x60u, 0x40u},
 417:Generated_Source\PSoC4/cyfitter_cfg.c **** 			{0x62u, 0x40u},
 418:Generated_Source\PSoC4/cyfitter_cfg.c **** 			{0x64u, 0x40u},
 419:Generated_Source\PSoC4/cyfitter_cfg.c **** 			{0x65u, 0x40u},
 420:Generated_Source\PSoC4/cyfitter_cfg.c **** 			{0x66u, 0x80u},
 421:Generated_Source\PSoC4/cyfitter_cfg.c **** 			{0x68u, 0x80u},
 422:Generated_Source\PSoC4/cyfitter_cfg.c **** 			{0x6Au, 0x80u},
 423:Generated_Source\PSoC4/cyfitter_cfg.c **** 			{0x6Cu, 0x80u},
 424:Generated_Source\PSoC4/cyfitter_cfg.c **** 			{0x6Eu, 0x80u},
 425:Generated_Source\PSoC4/cyfitter_cfg.c **** 			{0x80u, 0x02u},
 426:Generated_Source\PSoC4/cyfitter_cfg.c **** 			{0x82u, 0x04u},
 427:Generated_Source\PSoC4/cyfitter_cfg.c **** 			{0x86u, 0x01u},
 428:Generated_Source\PSoC4/cyfitter_cfg.c **** 			{0x88u, 0x04u},
 429:Generated_Source\PSoC4/cyfitter_cfg.c **** 			{0x8Au, 0x02u},
 430:Generated_Source\PSoC4/cyfitter_cfg.c **** 			{0x8Bu, 0x02u},
 431:Generated_Source\PSoC4/cyfitter_cfg.c **** 			{0x91u, 0x08u},
 432:Generated_Source\PSoC4/cyfitter_cfg.c **** 			{0x93u, 0x10u},
 433:Generated_Source\PSoC4/cyfitter_cfg.c **** 			{0x95u, 0x10u},
 434:Generated_Source\PSoC4/cyfitter_cfg.c **** 			{0x96u, 0x08u},
 435:Generated_Source\PSoC4/cyfitter_cfg.c **** 			{0x97u, 0x08u},
 436:Generated_Source\PSoC4/cyfitter_cfg.c **** 			{0x9Bu, 0x01u},
 437:Generated_Source\PSoC4/cyfitter_cfg.c **** 			{0x9Eu, 0x10u},
 438:Generated_Source\PSoC4/cyfitter_cfg.c **** 			{0xA7u, 0x04u},
 439:Generated_Source\PSoC4/cyfitter_cfg.c **** 			{0xB0u, 0x06u},
 440:Generated_Source\PSoC4/cyfitter_cfg.c **** 			{0xB1u, 0x18u},
 441:Generated_Source\PSoC4/cyfitter_cfg.c **** 			{0xB2u, 0x08u},
 442:Generated_Source\PSoC4/cyfitter_cfg.c **** 			{0xB3u, 0x02u},
 443:Generated_Source\PSoC4/cyfitter_cfg.c **** 			{0xB4u, 0x10u},
 444:Generated_Source\PSoC4/cyfitter_cfg.c **** 			{0xB5u, 0x04u},
 445:Generated_Source\PSoC4/cyfitter_cfg.c **** 			{0xB6u, 0x01u},
 446:Generated_Source\PSoC4/cyfitter_cfg.c **** 			{0xB7u, 0x01u},
 447:Generated_Source\PSoC4/cyfitter_cfg.c **** 			{0xC0u, 0x41u},
 448:Generated_Source\PSoC4/cyfitter_cfg.c **** 			{0xC5u, 0xECu},
 449:Generated_Source\PSoC4/cyfitter_cfg.c **** 			{0xC7u, 0x20u},
 450:Generated_Source\PSoC4/cyfitter_cfg.c **** 			{0xC8u, 0x23u},
 451:Generated_Source\PSoC4/cyfitter_cfg.c **** 			{0xC9u, 0xFFu},
 452:Generated_Source\PSoC4/cyfitter_cfg.c **** 			{0xCAu, 0xFFu},
 453:Generated_Source\PSoC4/cyfitter_cfg.c **** 			{0xCBu, 0xFFu},
 454:Generated_Source\PSoC4/cyfitter_cfg.c **** 			{0xCDu, 0x83u},
 455:Generated_Source\PSoC4/cyfitter_cfg.c **** 			{0xCEu, 0x03u},
 456:Generated_Source\PSoC4/cyfitter_cfg.c **** 			{0xCFu, 0x01u},
 457:Generated_Source\PSoC4/cyfitter_cfg.c **** 			{0xD0u, 0x18u},
 458:Generated_Source\PSoC4/cyfitter_cfg.c **** 			{0xD2u, 0x80u},
 459:Generated_Source\PSoC4/cyfitter_cfg.c **** 			{0xD8u, 0x04u},
 460:Generated_Source\PSoC4/cyfitter_cfg.c **** 			{0xD9u, 0x04u},
 461:Generated_Source\PSoC4/cyfitter_cfg.c **** 			{0xDAu, 0x04u},
 462:Generated_Source\PSoC4/cyfitter_cfg.c **** 			{0xDBu, 0x04u},
ARM GAS  C:\Users\kylep\AppData\Local\Temp\ccfw51TI.s 			page 17


 463:Generated_Source\PSoC4/cyfitter_cfg.c **** 			{0xDDu, 0x33u},
 464:Generated_Source\PSoC4/cyfitter_cfg.c **** 			{0xDFu, 0x01u},
 465:Generated_Source\PSoC4/cyfitter_cfg.c **** 			{0xE0u, 0x40u},
 466:Generated_Source\PSoC4/cyfitter_cfg.c **** 			{0xE2u, 0x40u},
 467:Generated_Source\PSoC4/cyfitter_cfg.c **** 			{0xE4u, 0x40u},
 468:Generated_Source\PSoC4/cyfitter_cfg.c **** 			{0xE5u, 0x40u},
 469:Generated_Source\PSoC4/cyfitter_cfg.c **** 			{0xE6u, 0x80u},
 470:Generated_Source\PSoC4/cyfitter_cfg.c **** 			{0xE8u, 0x80u},
 471:Generated_Source\PSoC4/cyfitter_cfg.c **** 			{0xEAu, 0x80u},
 472:Generated_Source\PSoC4/cyfitter_cfg.c **** 			{0xECu, 0x80u},
 473:Generated_Source\PSoC4/cyfitter_cfg.c **** 			{0xEEu, 0x80u},
 474:Generated_Source\PSoC4/cyfitter_cfg.c **** 			{0x00u, 0x04u},
 475:Generated_Source\PSoC4/cyfitter_cfg.c **** 			{0x03u, 0x01u},
 476:Generated_Source\PSoC4/cyfitter_cfg.c **** 			{0x04u, 0x02u},
 477:Generated_Source\PSoC4/cyfitter_cfg.c **** 			{0x05u, 0x14u},
 478:Generated_Source\PSoC4/cyfitter_cfg.c **** 			{0x09u, 0x02u},
 479:Generated_Source\PSoC4/cyfitter_cfg.c **** 			{0x0Au, 0x20u},
 480:Generated_Source\PSoC4/cyfitter_cfg.c **** 			{0x0Du, 0x80u},
 481:Generated_Source\PSoC4/cyfitter_cfg.c **** 			{0x0Eu, 0x10u},
 482:Generated_Source\PSoC4/cyfitter_cfg.c **** 			{0x10u, 0xA0u},
 483:Generated_Source\PSoC4/cyfitter_cfg.c **** 			{0x18u, 0x04u},
 484:Generated_Source\PSoC4/cyfitter_cfg.c **** 			{0x19u, 0x40u},
 485:Generated_Source\PSoC4/cyfitter_cfg.c **** 			{0x1Au, 0x20u},
 486:Generated_Source\PSoC4/cyfitter_cfg.c **** 			{0x1Du, 0x14u},
 487:Generated_Source\PSoC4/cyfitter_cfg.c **** 			{0x1Eu, 0x86u},
 488:Generated_Source\PSoC4/cyfitter_cfg.c **** 			{0x22u, 0x01u},
 489:Generated_Source\PSoC4/cyfitter_cfg.c **** 			{0x23u, 0x08u},
 490:Generated_Source\PSoC4/cyfitter_cfg.c **** 			{0x24u, 0x82u},
 491:Generated_Source\PSoC4/cyfitter_cfg.c **** 			{0x25u, 0x14u},
 492:Generated_Source\PSoC4/cyfitter_cfg.c **** 			{0x26u, 0x10u},
 493:Generated_Source\PSoC4/cyfitter_cfg.c **** 			{0x2Fu, 0x10u},
 494:Generated_Source\PSoC4/cyfitter_cfg.c **** 			{0x35u, 0x14u},
 495:Generated_Source\PSoC4/cyfitter_cfg.c **** 			{0x36u, 0x09u},
 496:Generated_Source\PSoC4/cyfitter_cfg.c **** 			{0x3Au, 0x46u},
 497:Generated_Source\PSoC4/cyfitter_cfg.c **** 			{0x3Du, 0x20u},
 498:Generated_Source\PSoC4/cyfitter_cfg.c **** 			{0x43u, 0x02u},
 499:Generated_Source\PSoC4/cyfitter_cfg.c **** 			{0x46u, 0x42u},
 500:Generated_Source\PSoC4/cyfitter_cfg.c **** 			{0x48u, 0x01u},
 501:Generated_Source\PSoC4/cyfitter_cfg.c **** 			{0x4Du, 0x8Au},
 502:Generated_Source\PSoC4/cyfitter_cfg.c **** 			{0x4Eu, 0x01u},
 503:Generated_Source\PSoC4/cyfitter_cfg.c **** 			{0x56u, 0x02u},
 504:Generated_Source\PSoC4/cyfitter_cfg.c **** 			{0x57u, 0x02u},
 505:Generated_Source\PSoC4/cyfitter_cfg.c **** 			{0x59u, 0x8Au},
 506:Generated_Source\PSoC4/cyfitter_cfg.c **** 			{0x5Eu, 0x65u},
 507:Generated_Source\PSoC4/cyfitter_cfg.c **** 			{0x63u, 0x40u},
 508:Generated_Source\PSoC4/cyfitter_cfg.c **** 			{0x6Bu, 0x01u},
 509:Generated_Source\PSoC4/cyfitter_cfg.c **** 			{0x74u, 0x01u},
 510:Generated_Source\PSoC4/cyfitter_cfg.c **** 			{0x76u, 0x40u},
 511:Generated_Source\PSoC4/cyfitter_cfg.c **** 			{0x87u, 0x40u},
 512:Generated_Source\PSoC4/cyfitter_cfg.c **** 			{0x89u, 0x40u},
 513:Generated_Source\PSoC4/cyfitter_cfg.c **** 			{0xC0u, 0x75u},
 514:Generated_Source\PSoC4/cyfitter_cfg.c **** 			{0xC2u, 0xACu},
 515:Generated_Source\PSoC4/cyfitter_cfg.c **** 			{0xC4u, 0x0Cu},
 516:Generated_Source\PSoC4/cyfitter_cfg.c **** 			{0xCAu, 0x40u},
 517:Generated_Source\PSoC4/cyfitter_cfg.c **** 			{0xCCu, 0xE0u},
 518:Generated_Source\PSoC4/cyfitter_cfg.c **** 			{0xCEu, 0x2Bu},
 519:Generated_Source\PSoC4/cyfitter_cfg.c **** 			{0xD0u, 0x91u},
ARM GAS  C:\Users\kylep\AppData\Local\Temp\ccfw51TI.s 			page 18


 520:Generated_Source\PSoC4/cyfitter_cfg.c **** 			{0xD2u, 0x08u},
 521:Generated_Source\PSoC4/cyfitter_cfg.c **** 			{0xD6u, 0xFBu},
 522:Generated_Source\PSoC4/cyfitter_cfg.c **** 			{0xD8u, 0x01u},
 523:Generated_Source\PSoC4/cyfitter_cfg.c **** 			{0xE2u, 0x80u},
 524:Generated_Source\PSoC4/cyfitter_cfg.c **** 			{0x02u, 0x20u},
 525:Generated_Source\PSoC4/cyfitter_cfg.c **** 			{0x04u, 0x40u},
 526:Generated_Source\PSoC4/cyfitter_cfg.c **** 			{0x05u, 0x04u},
 527:Generated_Source\PSoC4/cyfitter_cfg.c **** 			{0x07u, 0x08u},
 528:Generated_Source\PSoC4/cyfitter_cfg.c **** 			{0x09u, 0x08u},
 529:Generated_Source\PSoC4/cyfitter_cfg.c **** 			{0x0Au, 0x1Fu},
 530:Generated_Source\PSoC4/cyfitter_cfg.c **** 			{0x0Bu, 0x04u},
 531:Generated_Source\PSoC4/cyfitter_cfg.c **** 			{0x0Cu, 0x40u},
 532:Generated_Source\PSoC4/cyfitter_cfg.c **** 			{0x10u, 0x40u},
 533:Generated_Source\PSoC4/cyfitter_cfg.c **** 			{0x14u, 0x18u},
 534:Generated_Source\PSoC4/cyfitter_cfg.c **** 			{0x15u, 0x02u},
 535:Generated_Source\PSoC4/cyfitter_cfg.c **** 			{0x16u, 0x03u},
 536:Generated_Source\PSoC4/cyfitter_cfg.c **** 			{0x17u, 0x01u},
 537:Generated_Source\PSoC4/cyfitter_cfg.c **** 			{0x18u, 0x07u},
 538:Generated_Source\PSoC4/cyfitter_cfg.c **** 			{0x19u, 0x01u},
 539:Generated_Source\PSoC4/cyfitter_cfg.c **** 			{0x1Au, 0x08u},
 540:Generated_Source\PSoC4/cyfitter_cfg.c **** 			{0x1Bu, 0x02u},
 541:Generated_Source\PSoC4/cyfitter_cfg.c **** 			{0x1Cu, 0x10u},
 542:Generated_Source\PSoC4/cyfitter_cfg.c **** 			{0x1Eu, 0x04u},
 543:Generated_Source\PSoC4/cyfitter_cfg.c **** 			{0x20u, 0x06u},
 544:Generated_Source\PSoC4/cyfitter_cfg.c **** 			{0x22u, 0x11u},
 545:Generated_Source\PSoC4/cyfitter_cfg.c **** 			{0x24u, 0x01u},
 546:Generated_Source\PSoC4/cyfitter_cfg.c **** 			{0x26u, 0x12u},
 547:Generated_Source\PSoC4/cyfitter_cfg.c **** 			{0x28u, 0x40u},
 548:Generated_Source\PSoC4/cyfitter_cfg.c **** 			{0x30u, 0x40u},
 549:Generated_Source\PSoC4/cyfitter_cfg.c **** 			{0x32u, 0x1Fu},
 550:Generated_Source\PSoC4/cyfitter_cfg.c **** 			{0x33u, 0x0Cu},
 551:Generated_Source\PSoC4/cyfitter_cfg.c **** 			{0x34u, 0x20u},
 552:Generated_Source\PSoC4/cyfitter_cfg.c **** 			{0x35u, 0x03u},
 553:Generated_Source\PSoC4/cyfitter_cfg.c **** 			{0x38u, 0x02u},
 554:Generated_Source\PSoC4/cyfitter_cfg.c **** 			{0x3Eu, 0x01u},
 555:Generated_Source\PSoC4/cyfitter_cfg.c **** 			{0x40u, 0x20u},
 556:Generated_Source\PSoC4/cyfitter_cfg.c **** 			{0x41u, 0x05u},
 557:Generated_Source\PSoC4/cyfitter_cfg.c **** 			{0x46u, 0x12u},
 558:Generated_Source\PSoC4/cyfitter_cfg.c **** 			{0x48u, 0x0Eu},
 559:Generated_Source\PSoC4/cyfitter_cfg.c **** 			{0x49u, 0xFFu},
 560:Generated_Source\PSoC4/cyfitter_cfg.c **** 			{0x4Au, 0xFFu},
 561:Generated_Source\PSoC4/cyfitter_cfg.c **** 			{0x4Bu, 0xFFu},
 562:Generated_Source\PSoC4/cyfitter_cfg.c **** 			{0x4Du, 0xA0u},
 563:Generated_Source\PSoC4/cyfitter_cfg.c **** 			{0x4Fu, 0x04u},
 564:Generated_Source\PSoC4/cyfitter_cfg.c **** 			{0x50u, 0x18u},
 565:Generated_Source\PSoC4/cyfitter_cfg.c **** 			{0x52u, 0x87u},
 566:Generated_Source\PSoC4/cyfitter_cfg.c **** 			{0x58u, 0x04u},
 567:Generated_Source\PSoC4/cyfitter_cfg.c **** 			{0x59u, 0x04u},
 568:Generated_Source\PSoC4/cyfitter_cfg.c **** 			{0x5Au, 0x04u},
 569:Generated_Source\PSoC4/cyfitter_cfg.c **** 			{0x5Bu, 0x04u},
 570:Generated_Source\PSoC4/cyfitter_cfg.c **** 			{0x5Cu, 0x01u},
 571:Generated_Source\PSoC4/cyfitter_cfg.c **** 			{0x5Du, 0x11u},
 572:Generated_Source\PSoC4/cyfitter_cfg.c **** 			{0x5Fu, 0x01u},
 573:Generated_Source\PSoC4/cyfitter_cfg.c **** 			{0x60u, 0x40u},
 574:Generated_Source\PSoC4/cyfitter_cfg.c **** 			{0x62u, 0xC0u},
 575:Generated_Source\PSoC4/cyfitter_cfg.c **** 			{0x64u, 0x40u},
 576:Generated_Source\PSoC4/cyfitter_cfg.c **** 			{0x65u, 0x40u},
ARM GAS  C:\Users\kylep\AppData\Local\Temp\ccfw51TI.s 			page 19


 577:Generated_Source\PSoC4/cyfitter_cfg.c **** 			{0x66u, 0xC0u},
 578:Generated_Source\PSoC4/cyfitter_cfg.c **** 			{0x68u, 0xC0u},
 579:Generated_Source\PSoC4/cyfitter_cfg.c **** 			{0x6Au, 0xC0u},
 580:Generated_Source\PSoC4/cyfitter_cfg.c **** 			{0x6Cu, 0xC0u},
 581:Generated_Source\PSoC4/cyfitter_cfg.c **** 			{0x6Eu, 0xC0u},
 582:Generated_Source\PSoC4/cyfitter_cfg.c **** 			{0x87u, 0x02u},
 583:Generated_Source\PSoC4/cyfitter_cfg.c **** 			{0x8Cu, 0x03u},
 584:Generated_Source\PSoC4/cyfitter_cfg.c **** 			{0x97u, 0x02u},
 585:Generated_Source\PSoC4/cyfitter_cfg.c **** 			{0xA0u, 0x04u},
 586:Generated_Source\PSoC4/cyfitter_cfg.c **** 			{0xA2u, 0x01u},
 587:Generated_Source\PSoC4/cyfitter_cfg.c **** 			{0xA4u, 0x04u},
 588:Generated_Source\PSoC4/cyfitter_cfg.c **** 			{0xA6u, 0x02u},
 589:Generated_Source\PSoC4/cyfitter_cfg.c **** 			{0xA7u, 0x01u},
 590:Generated_Source\PSoC4/cyfitter_cfg.c **** 			{0xB0u, 0x04u},
 591:Generated_Source\PSoC4/cyfitter_cfg.c **** 			{0xB3u, 0x02u},
 592:Generated_Source\PSoC4/cyfitter_cfg.c **** 			{0xB5u, 0x01u},
 593:Generated_Source\PSoC4/cyfitter_cfg.c **** 			{0xB6u, 0x03u},
 594:Generated_Source\PSoC4/cyfitter_cfg.c **** 			{0xB8u, 0x02u},
 595:Generated_Source\PSoC4/cyfitter_cfg.c **** 			{0xBFu, 0x04u},
 596:Generated_Source\PSoC4/cyfitter_cfg.c **** 			{0xC0u, 0x20u},
 597:Generated_Source\PSoC4/cyfitter_cfg.c **** 			{0xC1u, 0x06u},
 598:Generated_Source\PSoC4/cyfitter_cfg.c **** 			{0xC5u, 0xD0u},
 599:Generated_Source\PSoC4/cyfitter_cfg.c **** 			{0xC6u, 0x10u},
 600:Generated_Source\PSoC4/cyfitter_cfg.c **** 			{0xC7u, 0x02u},
 601:Generated_Source\PSoC4/cyfitter_cfg.c **** 			{0xC8u, 0x1Eu},
 602:Generated_Source\PSoC4/cyfitter_cfg.c **** 			{0xC9u, 0xFFu},
 603:Generated_Source\PSoC4/cyfitter_cfg.c **** 			{0xCAu, 0xFFu},
 604:Generated_Source\PSoC4/cyfitter_cfg.c **** 			{0xCBu, 0xFFu},
 605:Generated_Source\PSoC4/cyfitter_cfg.c **** 			{0xCDu, 0xA0u},
 606:Generated_Source\PSoC4/cyfitter_cfg.c **** 			{0xCFu, 0x04u},
 607:Generated_Source\PSoC4/cyfitter_cfg.c **** 			{0xD0u, 0x18u},
 608:Generated_Source\PSoC4/cyfitter_cfg.c **** 			{0xD2u, 0x80u},
 609:Generated_Source\PSoC4/cyfitter_cfg.c **** 			{0xD4u, 0x05u},
 610:Generated_Source\PSoC4/cyfitter_cfg.c **** 			{0xD8u, 0x04u},
 611:Generated_Source\PSoC4/cyfitter_cfg.c **** 			{0xD9u, 0x04u},
 612:Generated_Source\PSoC4/cyfitter_cfg.c **** 			{0xDAu, 0x04u},
 613:Generated_Source\PSoC4/cyfitter_cfg.c **** 			{0xDBu, 0x04u},
 614:Generated_Source\PSoC4/cyfitter_cfg.c **** 			{0xDCu, 0x02u},
 615:Generated_Source\PSoC4/cyfitter_cfg.c **** 			{0xDDu, 0x22u},
 616:Generated_Source\PSoC4/cyfitter_cfg.c **** 			{0xDFu, 0x01u},
 617:Generated_Source\PSoC4/cyfitter_cfg.c **** 			{0xE0u, 0x40u},
 618:Generated_Source\PSoC4/cyfitter_cfg.c **** 			{0xE2u, 0xC0u},
 619:Generated_Source\PSoC4/cyfitter_cfg.c **** 			{0xE4u, 0x40u},
 620:Generated_Source\PSoC4/cyfitter_cfg.c **** 			{0xE5u, 0x40u},
 621:Generated_Source\PSoC4/cyfitter_cfg.c **** 			{0xE6u, 0xC0u},
 622:Generated_Source\PSoC4/cyfitter_cfg.c **** 			{0xE8u, 0xC0u},
 623:Generated_Source\PSoC4/cyfitter_cfg.c **** 			{0xEAu, 0xC0u},
 624:Generated_Source\PSoC4/cyfitter_cfg.c **** 			{0xECu, 0xC0u},
 625:Generated_Source\PSoC4/cyfitter_cfg.c **** 			{0xEEu, 0xC0u},
 626:Generated_Source\PSoC4/cyfitter_cfg.c **** 			{0x00u, 0x40u},
 627:Generated_Source\PSoC4/cyfitter_cfg.c **** 			{0x04u, 0x88u},
 628:Generated_Source\PSoC4/cyfitter_cfg.c **** 			{0x05u, 0x10u},
 629:Generated_Source\PSoC4/cyfitter_cfg.c **** 			{0x07u, 0x40u},
 630:Generated_Source\PSoC4/cyfitter_cfg.c **** 			{0x0Eu, 0x88u},
 631:Generated_Source\PSoC4/cyfitter_cfg.c **** 			{0x0Fu, 0x22u},
 632:Generated_Source\PSoC4/cyfitter_cfg.c **** 			{0x10u, 0xA0u},
 633:Generated_Source\PSoC4/cyfitter_cfg.c **** 			{0x17u, 0x25u},
ARM GAS  C:\Users\kylep\AppData\Local\Temp\ccfw51TI.s 			page 20


 634:Generated_Source\PSoC4/cyfitter_cfg.c **** 			{0x18u, 0x40u},
 635:Generated_Source\PSoC4/cyfitter_cfg.c **** 			{0x19u, 0x40u},
 636:Generated_Source\PSoC4/cyfitter_cfg.c **** 			{0x1Du, 0x30u},
 637:Generated_Source\PSoC4/cyfitter_cfg.c **** 			{0x1Eu, 0x20u},
 638:Generated_Source\PSoC4/cyfitter_cfg.c **** 			{0x1Fu, 0x01u},
 639:Generated_Source\PSoC4/cyfitter_cfg.c **** 			{0x22u, 0x24u},
 640:Generated_Source\PSoC4/cyfitter_cfg.c **** 			{0x24u, 0x08u},
 641:Generated_Source\PSoC4/cyfitter_cfg.c **** 			{0x27u, 0x20u},
 642:Generated_Source\PSoC4/cyfitter_cfg.c **** 			{0x29u, 0x04u},
 643:Generated_Source\PSoC4/cyfitter_cfg.c **** 			{0x30u, 0x08u},
 644:Generated_Source\PSoC4/cyfitter_cfg.c **** 			{0x35u, 0x04u},
 645:Generated_Source\PSoC4/cyfitter_cfg.c **** 			{0x36u, 0x20u},
 646:Generated_Source\PSoC4/cyfitter_cfg.c **** 			{0x37u, 0x08u},
 647:Generated_Source\PSoC4/cyfitter_cfg.c **** 			{0x38u, 0x04u},
 648:Generated_Source\PSoC4/cyfitter_cfg.c **** 			{0x3Du, 0x28u},
 649:Generated_Source\PSoC4/cyfitter_cfg.c **** 			{0x40u, 0x04u},
 650:Generated_Source\PSoC4/cyfitter_cfg.c **** 			{0x45u, 0x20u},
 651:Generated_Source\PSoC4/cyfitter_cfg.c **** 			{0x48u, 0x08u},
 652:Generated_Source\PSoC4/cyfitter_cfg.c **** 			{0x49u, 0x01u},
 653:Generated_Source\PSoC4/cyfitter_cfg.c **** 			{0x4Fu, 0x82u},
 654:Generated_Source\PSoC4/cyfitter_cfg.c **** 			{0x50u, 0xA8u},
 655:Generated_Source\PSoC4/cyfitter_cfg.c **** 			{0x57u, 0x50u},
 656:Generated_Source\PSoC4/cyfitter_cfg.c **** 			{0x59u, 0x41u},
 657:Generated_Source\PSoC4/cyfitter_cfg.c **** 			{0x5Au, 0x08u},
 658:Generated_Source\PSoC4/cyfitter_cfg.c **** 			{0x6Eu, 0x08u},
 659:Generated_Source\PSoC4/cyfitter_cfg.c **** 			{0x6Fu, 0x05u},
 660:Generated_Source\PSoC4/cyfitter_cfg.c **** 			{0x71u, 0x02u},
 661:Generated_Source\PSoC4/cyfitter_cfg.c **** 			{0x77u, 0x40u},
 662:Generated_Source\PSoC4/cyfitter_cfg.c **** 			{0x82u, 0x04u},
 663:Generated_Source\PSoC4/cyfitter_cfg.c **** 			{0x86u, 0x10u},
 664:Generated_Source\PSoC4/cyfitter_cfg.c **** 			{0x87u, 0x10u},
 665:Generated_Source\PSoC4/cyfitter_cfg.c **** 			{0x89u, 0x80u},
 666:Generated_Source\PSoC4/cyfitter_cfg.c **** 			{0x8Eu, 0x10u},
 667:Generated_Source\PSoC4/cyfitter_cfg.c **** 			{0x8Fu, 0x01u},
 668:Generated_Source\PSoC4/cyfitter_cfg.c **** 			{0x90u, 0x84u},
 669:Generated_Source\PSoC4/cyfitter_cfg.c **** 			{0x96u, 0x10u},
 670:Generated_Source\PSoC4/cyfitter_cfg.c **** 			{0x97u, 0x20u},
 671:Generated_Source\PSoC4/cyfitter_cfg.c **** 			{0x9Bu, 0x08u},
 672:Generated_Source\PSoC4/cyfitter_cfg.c **** 			{0x9Eu, 0x04u},
 673:Generated_Source\PSoC4/cyfitter_cfg.c **** 			{0xA1u, 0x14u},
 674:Generated_Source\PSoC4/cyfitter_cfg.c **** 			{0xA2u, 0x40u},
 675:Generated_Source\PSoC4/cyfitter_cfg.c **** 			{0xA4u, 0xA0u},
 676:Generated_Source\PSoC4/cyfitter_cfg.c **** 			{0xA5u, 0x82u},
 677:Generated_Source\PSoC4/cyfitter_cfg.c **** 			{0xAEu, 0x01u},
 678:Generated_Source\PSoC4/cyfitter_cfg.c **** 			{0xAFu, 0x08u},
 679:Generated_Source\PSoC4/cyfitter_cfg.c **** 			{0xB6u, 0x48u},
 680:Generated_Source\PSoC4/cyfitter_cfg.c **** 			{0xC0u, 0xF1u},
 681:Generated_Source\PSoC4/cyfitter_cfg.c **** 			{0xC2u, 0xF0u},
 682:Generated_Source\PSoC4/cyfitter_cfg.c **** 			{0xC4u, 0x7Cu},
 683:Generated_Source\PSoC4/cyfitter_cfg.c **** 			{0xCAu, 0x02u},
 684:Generated_Source\PSoC4/cyfitter_cfg.c **** 			{0xCCu, 0x62u},
 685:Generated_Source\PSoC4/cyfitter_cfg.c **** 			{0xCEu, 0x62u},
 686:Generated_Source\PSoC4/cyfitter_cfg.c **** 			{0xD0u, 0x24u},
 687:Generated_Source\PSoC4/cyfitter_cfg.c **** 			{0xD2u, 0x14u},
 688:Generated_Source\PSoC4/cyfitter_cfg.c **** 			{0xD6u, 0x0Bu},
 689:Generated_Source\PSoC4/cyfitter_cfg.c **** 			{0xE0u, 0x20u},
 690:Generated_Source\PSoC4/cyfitter_cfg.c **** 			{0xE2u, 0x40u},
ARM GAS  C:\Users\kylep\AppData\Local\Temp\ccfw51TI.s 			page 21


 691:Generated_Source\PSoC4/cyfitter_cfg.c **** 			{0xE4u, 0x10u},
 692:Generated_Source\PSoC4/cyfitter_cfg.c **** 			{0x52u, 0x80u},
 693:Generated_Source\PSoC4/cyfitter_cfg.c **** 			{0x57u, 0x01u},
 694:Generated_Source\PSoC4/cyfitter_cfg.c **** 			{0x6Fu, 0x04u},
 695:Generated_Source\PSoC4/cyfitter_cfg.c **** 			{0x70u, 0x10u},
 696:Generated_Source\PSoC4/cyfitter_cfg.c **** 			{0x73u, 0x10u},
 697:Generated_Source\PSoC4/cyfitter_cfg.c **** 			{0x77u, 0x08u},
 698:Generated_Source\PSoC4/cyfitter_cfg.c **** 			{0x7Au, 0x40u},
 699:Generated_Source\PSoC4/cyfitter_cfg.c **** 			{0x7Du, 0x40u},
 700:Generated_Source\PSoC4/cyfitter_cfg.c **** 			{0x86u, 0x40u},
 701:Generated_Source\PSoC4/cyfitter_cfg.c **** 			{0x8Au, 0x80u},
 702:Generated_Source\PSoC4/cyfitter_cfg.c **** 			{0xD4u, 0x20u},
 703:Generated_Source\PSoC4/cyfitter_cfg.c **** 			{0xD6u, 0x20u},
 704:Generated_Source\PSoC4/cyfitter_cfg.c **** 			{0xDAu, 0x80u},
 705:Generated_Source\PSoC4/cyfitter_cfg.c **** 			{0xDCu, 0xE0u},
 706:Generated_Source\PSoC4/cyfitter_cfg.c **** 			{0xDEu, 0x60u},
 707:Generated_Source\PSoC4/cyfitter_cfg.c **** 			{0xE6u, 0x40u},
 708:Generated_Source\PSoC4/cyfitter_cfg.c **** 			{0x00u, 0x08u},
 709:Generated_Source\PSoC4/cyfitter_cfg.c **** 			{0x03u, 0x08u},
 710:Generated_Source\PSoC4/cyfitter_cfg.c **** 			{0x07u, 0x20u},
 711:Generated_Source\PSoC4/cyfitter_cfg.c **** 			{0x0Du, 0x40u},
 712:Generated_Source\PSoC4/cyfitter_cfg.c **** 			{0x23u, 0x18u},
 713:Generated_Source\PSoC4/cyfitter_cfg.c **** 			{0x24u, 0x20u},
 714:Generated_Source\PSoC4/cyfitter_cfg.c **** 			{0x27u, 0x04u},
 715:Generated_Source\PSoC4/cyfitter_cfg.c **** 			{0x81u, 0x40u},
 716:Generated_Source\PSoC4/cyfitter_cfg.c **** 			{0x87u, 0x09u},
 717:Generated_Source\PSoC4/cyfitter_cfg.c **** 			{0x88u, 0x04u},
 718:Generated_Source\PSoC4/cyfitter_cfg.c **** 			{0x8Du, 0x40u},
 719:Generated_Source\PSoC4/cyfitter_cfg.c **** 			{0x8Fu, 0x20u},
 720:Generated_Source\PSoC4/cyfitter_cfg.c **** 			{0x94u, 0x20u},
 721:Generated_Source\PSoC4/cyfitter_cfg.c **** 			{0x95u, 0x40u},
 722:Generated_Source\PSoC4/cyfitter_cfg.c **** 			{0x97u, 0x10u},
 723:Generated_Source\PSoC4/cyfitter_cfg.c **** 			{0x9Fu, 0x0Cu},
 724:Generated_Source\PSoC4/cyfitter_cfg.c **** 			{0xA7u, 0x01u},
 725:Generated_Source\PSoC4/cyfitter_cfg.c **** 			{0xC0u, 0x70u},
 726:Generated_Source\PSoC4/cyfitter_cfg.c **** 			{0xC2u, 0x80u},
 727:Generated_Source\PSoC4/cyfitter_cfg.c **** 			{0xC8u, 0xF0u},
 728:Generated_Source\PSoC4/cyfitter_cfg.c **** 			{0xE0u, 0x80u},
 729:Generated_Source\PSoC4/cyfitter_cfg.c **** 			{0xE4u, 0x40u},
 730:Generated_Source\PSoC4/cyfitter_cfg.c **** 			{0xE6u, 0x10u},
 731:Generated_Source\PSoC4/cyfitter_cfg.c **** 			{0x01u, 0x0Fu},
 732:Generated_Source\PSoC4/cyfitter_cfg.c **** 			{0x10u, 0x0Fu},
 733:Generated_Source\PSoC4/cyfitter_cfg.c **** 		};
 734:Generated_Source\PSoC4/cyfitter_cfg.c **** 
 735:Generated_Source\PSoC4/cyfitter_cfg.c **** 
 736:Generated_Source\PSoC4/cyfitter_cfg.c **** 
 737:Generated_Source\PSoC4/cyfitter_cfg.c **** 		CYPACKED typedef struct {
 738:Generated_Source\PSoC4/cyfitter_cfg.c **** 			void CYFAR *address;
 739:Generated_Source\PSoC4/cyfitter_cfg.c **** 			uint16 size;
 740:Generated_Source\PSoC4/cyfitter_cfg.c **** 		} CYPACKED_ATTR cfg_memset_t;
 741:Generated_Source\PSoC4/cyfitter_cfg.c **** 
 742:Generated_Source\PSoC4/cyfitter_cfg.c **** 		static const cfg_memset_t CYCODE cfg_memset_list[] = {
 743:Generated_Source\PSoC4/cyfitter_cfg.c **** 			/* address, size */
 744:Generated_Source\PSoC4/cyfitter_cfg.c **** 			{(void CYFAR *)(CYDEV_UDB_P0_U0_BASE), 1024u},
 745:Generated_Source\PSoC4/cyfitter_cfg.c **** 			{(void CYFAR *)(CYDEV_UDB_DSI0_BASE), 1024u},
 746:Generated_Source\PSoC4/cyfitter_cfg.c **** 		};
 747:Generated_Source\PSoC4/cyfitter_cfg.c **** 
ARM GAS  C:\Users\kylep\AppData\Local\Temp\ccfw51TI.s 			page 22


 748:Generated_Source\PSoC4/cyfitter_cfg.c **** 		uint8 CYDATA i;
 749:Generated_Source\PSoC4/cyfitter_cfg.c **** 
 750:Generated_Source\PSoC4/cyfitter_cfg.c **** 		/* Zero out critical memory blocks before beginning configuration */
 751:Generated_Source\PSoC4/cyfitter_cfg.c **** 		for (i = 0u; i < (sizeof(cfg_memset_list)/sizeof(cfg_memset_list[0])); i++)
 413              		.loc 1 751 0
 414 0152 0024     		movs	r4, #0
 415 0154 0FE0     		b	.L19
 416              	.LVL24:
 417              	.L20:
 418              	.LBB4:
 752:Generated_Source\PSoC4/cyfitter_cfg.c **** 		{
 753:Generated_Source\PSoC4/cyfitter_cfg.c **** 			const cfg_memset_t CYCODE * CYDATA ms = &cfg_memset_list[i];
 754:Generated_Source\PSoC4/cyfitter_cfg.c **** 			CYMEMZERO(ms->address, (size_t)(uint32)(ms->size));
 419              		.loc 1 754 0 discriminator 3
 420 0156 2F48     		ldr	r0, .L21+4
 421 0158 6200     		lsls	r2, r4, #1
 422 015a 1319     		adds	r3, r2, r4
 423 015c 5900     		lsls	r1, r3, #1
 424 015e 0B00     		movs	r3, r1
 425 0160 4118     		adds	r1, r0, r1
 426 0162 8988     		ldrh	r1, [r1, #4]
 427 0164 1A5A     		ldrh	r2, [r3, r0]
 428 0166 C318     		adds	r3, r0, r3
 429 0168 5888     		ldrh	r0, [r3, #2]
 430 016a 0004     		lsls	r0, r0, #16
 431 016c 1043     		orrs	r0, r2
 432 016e FFF7FEFF 		bl	CYMEMZERO
 433              	.LVL25:
 434              	.LBE4:
 751:Generated_Source\PSoC4/cyfitter_cfg.c **** 		{
 435              		.loc 1 751 0 discriminator 3
 436 0172 0134     		adds	r4, r4, #1
 437              	.LVL26:
 438 0174 E4B2     		uxtb	r4, r4
 439              	.LVL27:
 440              	.L19:
 751:Generated_Source\PSoC4/cyfitter_cfg.c **** 		{
 441              		.loc 1 751 0 is_stmt 0 discriminator 1
 442 0176 012C     		cmp	r4, #1
 443 0178 EDD9     		bls	.L20
 755:Generated_Source\PSoC4/cyfitter_cfg.c **** 		}
 756:Generated_Source\PSoC4/cyfitter_cfg.c **** 
 757:Generated_Source\PSoC4/cyfitter_cfg.c **** 		cfg_write_bytes32(cy_cfg_addr_table, cy_cfg_data_table);
 444              		.loc 1 757 0 is_stmt 1
 445 017a 2649     		ldr	r1, .L21+4
 446 017c 0C31     		adds	r1, r1, #12
 447 017e 2648     		ldr	r0, .L21+8
 448 0180 4830     		adds	r0, r0, #72
 449 0182 FFF7FEFF 		bl	cfg_write_bytes32
 450              	.LVL28:
 758:Generated_Source\PSoC4/cyfitter_cfg.c **** 
 759:Generated_Source\PSoC4/cyfitter_cfg.c **** 		/* HSIOM Starting address: CYDEV_HSIOM_BASE */
 760:Generated_Source\PSoC4/cyfitter_cfg.c **** 		CY_SET_REG32((void *)(CYDEV_HSIOM_BASE), 0x00003030u);
 451              		.loc 1 760 0
 452 0186 254A     		ldr	r2, .L21+12
 453 0188 254B     		ldr	r3, .L21+16
 454 018a 1A60     		str	r2, [r3]
ARM GAS  C:\Users\kylep\AppData\Local\Temp\ccfw51TI.s 			page 23


 761:Generated_Source\PSoC4/cyfitter_cfg.c **** 		CY_SET_REG32((void *)(CYREG_HSIOM_PORT_SEL3), 0x0000EE09u);
 455              		.loc 1 761 0
 456 018c 254A     		ldr	r2, .L21+20
 457 018e 264B     		ldr	r3, .L21+24
 458 0190 1A60     		str	r2, [r3]
 762:Generated_Source\PSoC4/cyfitter_cfg.c **** 
 763:Generated_Source\PSoC4/cyfitter_cfg.c **** 		/* UDB_PA_0 Starting address: CYDEV_UDB_PA0_BASE */
 764:Generated_Source\PSoC4/cyfitter_cfg.c **** 		CY_SET_REG32((void *)(CYDEV_UDB_PA0_BASE), 0x00990000u);
 459              		.loc 1 764 0
 460 0192 9923     		movs	r3, #153
 461 0194 1B04     		lsls	r3, r3, #16
 462 0196 254A     		ldr	r2, .L21+28
 463 0198 1360     		str	r3, [r2]
 765:Generated_Source\PSoC4/cyfitter_cfg.c **** 		CY_SET_REG32((void *)(CYREG_UDB_PA0_CFG8), 0x00D10000u);
 464              		.loc 1 765 0
 465 019a D121     		movs	r1, #209
 466 019c 0904     		lsls	r1, r1, #16
 467 019e 244A     		ldr	r2, .L21+32
 468 01a0 1160     		str	r1, [r2]
 766:Generated_Source\PSoC4/cyfitter_cfg.c **** 
 767:Generated_Source\PSoC4/cyfitter_cfg.c **** 		/* UDB_PA_1 Starting address: CYDEV_UDB_PA1_BASE */
 768:Generated_Source\PSoC4/cyfitter_cfg.c **** 		CY_SET_REG32((void *)(CYDEV_UDB_PA1_BASE), 0x00990000u);
 469              		.loc 1 768 0
 470 01a2 244A     		ldr	r2, .L21+36
 471 01a4 1360     		str	r3, [r2]
 769:Generated_Source\PSoC4/cyfitter_cfg.c **** 
 770:Generated_Source\PSoC4/cyfitter_cfg.c **** 		/* UDB_PA_2 Starting address: CYDEV_UDB_PA2_BASE */
 771:Generated_Source\PSoC4/cyfitter_cfg.c **** 		CY_SET_REG32((void *)(CYDEV_UDB_PA2_BASE), 0x00990000u);
 472              		.loc 1 771 0
 473 01a6 244A     		ldr	r2, .L21+40
 474 01a8 1360     		str	r3, [r2]
 772:Generated_Source\PSoC4/cyfitter_cfg.c **** 
 773:Generated_Source\PSoC4/cyfitter_cfg.c **** 		/* UDB_PA_3 Starting address: CYDEV_UDB_PA3_BASE */
 774:Generated_Source\PSoC4/cyfitter_cfg.c **** 		CY_SET_REG32((void *)(CYDEV_UDB_PA3_BASE), 0x00990000u);
 475              		.loc 1 774 0
 476 01aa 244A     		ldr	r2, .L21+44
 477 01ac 1360     		str	r3, [r2]
 775:Generated_Source\PSoC4/cyfitter_cfg.c **** 
 776:Generated_Source\PSoC4/cyfitter_cfg.c **** 		/* INT_SELECT Starting address: CYDEV_CPUSS_INTR_SELECT */
 777:Generated_Source\PSoC4/cyfitter_cfg.c **** 		CY_SET_REG32((void *)(CYREG_CPUSS_INTR_SELECT), 0x0000007Eu);
 478              		.loc 1 777 0
 479 01ae 7E22     		movs	r2, #126
 480 01b0 234B     		ldr	r3, .L21+48
 481 01b2 1A60     		str	r2, [r3]
 778:Generated_Source\PSoC4/cyfitter_cfg.c **** 
 779:Generated_Source\PSoC4/cyfitter_cfg.c **** 		/* INT_CONFIG Starting address: CYDEV_UDB_INT_CFG */
 780:Generated_Source\PSoC4/cyfitter_cfg.c **** 		CY_SET_REG32((void *)(CYREG_UDB_INT_CFG), 0x00000068u);
 482              		.loc 1 780 0
 483 01b4 163A     		subs	r2, r2, #22
 484 01b6 234B     		ldr	r3, .L21+52
 485 01b8 1A60     		str	r2, [r3]
 781:Generated_Source\PSoC4/cyfitter_cfg.c **** 
 782:Generated_Source\PSoC4/cyfitter_cfg.c **** 		/* Enable UDB array and digital routing */
 783:Generated_Source\PSoC4/cyfitter_cfg.c **** 		CY_SET_XTND_REG8((void *)CYREG_UDB_UDBIF_WAIT_CFG, (uint8)((CY_GET_XTND_REG8((void *)CYREG_UDB_UD
 486              		.loc 1 783 0
 487 01ba 2349     		ldr	r1, .L21+56
 488 01bc 0B78     		ldrb	r3, [r1]
ARM GAS  C:\Users\kylep\AppData\Local\Temp\ccfw51TI.s 			page 24


 489 01be 2C3A     		subs	r2, r2, #44
 490 01c0 9343     		bics	r3, r2
 491 01c2 1422     		movs	r2, #20
 492 01c4 1343     		orrs	r3, r2
 493 01c6 DBB2     		uxtb	r3, r3
 494 01c8 0B70     		strb	r3, [r1]
 784:Generated_Source\PSoC4/cyfitter_cfg.c **** 		CY_SET_XTND_REG8((void *)CYREG_UDB_UDBIF_BANK_CTL, (uint8)(CY_GET_XTND_REG8((void *)CYREG_UDB_UDB
 495              		.loc 1 784 0
 496 01ca 204A     		ldr	r2, .L21+60
 497 01cc 1178     		ldrb	r1, [r2]
 498 01ce 1623     		movs	r3, #22
 499 01d0 0B43     		orrs	r3, r1
 500 01d2 DBB2     		uxtb	r3, r3
 501 01d4 1370     		strb	r3, [r2]
 502              	.LBE3:
 785:Generated_Source\PSoC4/cyfitter_cfg.c **** 	}
 786:Generated_Source\PSoC4/cyfitter_cfg.c **** 
 787:Generated_Source\PSoC4/cyfitter_cfg.c **** 	/* Perform second pass device configuration. These items must be configured in specific order afte
 788:Generated_Source\PSoC4/cyfitter_cfg.c **** 	/* IOPINS0_0 Starting address: CYDEV_PRT0_BASE */
 789:Generated_Source\PSoC4/cyfitter_cfg.c **** 	CY_SET_REG32((void *)(CYDEV_PRT0_BASE), 0x0000000Bu);
 503              		.loc 1 789 0
 504 01d6 0B22     		movs	r2, #11
 505 01d8 1D4B     		ldr	r3, .L21+64
 506 01da 1A60     		str	r2, [r3]
 790:Generated_Source\PSoC4/cyfitter_cfg.c **** 	CY_SET_REG32((void *)(CYREG_PRT0_PC), 0x000C0CDAu);
 507              		.loc 1 790 0
 508 01dc 1D4A     		ldr	r2, .L21+68
 509 01de 1E4B     		ldr	r3, .L21+72
 510 01e0 1A60     		str	r2, [r3]
 791:Generated_Source\PSoC4/cyfitter_cfg.c **** 	CY_SET_REG32((void *)(CYREG_PRT0_INTCFG), 0x00000002u);
 511              		.loc 1 791 0
 512 01e2 0222     		movs	r2, #2
 513 01e4 1D4B     		ldr	r3, .L21+76
 514 01e6 1A60     		str	r2, [r3]
 792:Generated_Source\PSoC4/cyfitter_cfg.c **** 
 793:Generated_Source\PSoC4/cyfitter_cfg.c **** 	/* IOPINS0_1 Starting address: CYDEV_PRT1_BASE */
 794:Generated_Source\PSoC4/cyfitter_cfg.c **** 	CY_SET_REG32((void *)(CYREG_PRT1_PC), 0x00200049u);
 515              		.loc 1 794 0
 516 01e8 1D4A     		ldr	r2, .L21+80
 517 01ea 1E4B     		ldr	r3, .L21+84
 518 01ec 1A60     		str	r2, [r3]
 795:Generated_Source\PSoC4/cyfitter_cfg.c **** 
 796:Generated_Source\PSoC4/cyfitter_cfg.c **** 	/* IOPINS0_2 Starting address: CYDEV_PRT2_BASE */
 797:Generated_Source\PSoC4/cyfitter_cfg.c **** 	CY_SET_REG32((void *)(CYDEV_PRT2_BASE), 0x000000D0u);
 519              		.loc 1 797 0
 520 01ee D022     		movs	r2, #208
 521 01f0 1D4B     		ldr	r3, .L21+88
 522 01f2 1A60     		str	r2, [r3]
 798:Generated_Source\PSoC4/cyfitter_cfg.c **** 	CY_SET_REG32((void *)(CYREG_PRT2_PC2), 0x000000D8u);
 523              		.loc 1 798 0
 524 01f4 0832     		adds	r2, r2, #8
 525 01f6 1D4B     		ldr	r3, .L21+92
 526 01f8 1A60     		str	r2, [r3]
 799:Generated_Source\PSoC4/cyfitter_cfg.c **** 
 800:Generated_Source\PSoC4/cyfitter_cfg.c **** 	/* IOPINS0_3 Starting address: CYDEV_PRT3_BASE */
 801:Generated_Source\PSoC4/cyfitter_cfg.c **** 	CY_SET_REG32((void *)(CYREG_PRT3_PC), 0x00000D81u);
 527              		.loc 1 801 0
ARM GAS  C:\Users\kylep\AppData\Local\Temp\ccfw51TI.s 			page 25


 528 01fa 1D4A     		ldr	r2, .L21+96
 529 01fc 1D4B     		ldr	r3, .L21+100
 530 01fe 1A60     		str	r2, [r3]
 802:Generated_Source\PSoC4/cyfitter_cfg.c **** 
 803:Generated_Source\PSoC4/cyfitter_cfg.c **** 	/* IOPINS0_4 Starting address: CYDEV_PRT4_BASE */
 804:Generated_Source\PSoC4/cyfitter_cfg.c **** 	CY_SET_REG32((void *)(CYREG_PRT4_PC), 0x00000006u);
 531              		.loc 1 804 0
 532 0200 0622     		movs	r2, #6
 533 0202 1D4B     		ldr	r3, .L21+104
 534 0204 1A60     		str	r2, [r3]
 805:Generated_Source\PSoC4/cyfitter_cfg.c **** 
 806:Generated_Source\PSoC4/cyfitter_cfg.c **** 
 807:Generated_Source\PSoC4/cyfitter_cfg.c **** 	/* Setup clocks based on selections from Clock DWR */
 808:Generated_Source\PSoC4/cyfitter_cfg.c **** 	ClockSetup();
 535              		.loc 1 808 0
 536 0206 FFF7FBFE 		bl	ClockSetup
 537              	.LVL29:
 809:Generated_Source\PSoC4/cyfitter_cfg.c **** 
 810:Generated_Source\PSoC4/cyfitter_cfg.c **** 	/* Perform basic analog initialization to defaults */
 811:Generated_Source\PSoC4/cyfitter_cfg.c **** 	AnalogSetDefault();
 538              		.loc 1 811 0
 539 020a FFF7FEFF 		bl	AnalogSetDefault
 540              	.LVL30:
 812:Generated_Source\PSoC4/cyfitter_cfg.c **** 
 813:Generated_Source\PSoC4/cyfitter_cfg.c **** }
 541              		.loc 1 813 0
 542              		@ sp needed
 543              	.LVL31:
 544 020e 10BD     		pop	{r4, pc}
 545              	.L22:
 546              		.align	2
 547              	.L21:
 548 0210 1C700F40 		.word	1074753564
 549 0214 00000000 		.word	.LANCHOR0
 550 0218 80020000 		.word	.LANCHOR1
 551 021c 30300000 		.word	12336
 552 0220 00000140 		.word	1073807360
 553 0224 09EE0000 		.word	60937
 554 0228 0C000140 		.word	1073807372
 555 022c 00500F40 		.word	1074745344
 556 0230 08500F40 		.word	1074745352
 557 0234 10500F40 		.word	1074745360
 558 0238 20500F40 		.word	1074745376
 559 023c 30500F40 		.word	1074745392
 560 0240 20000040 		.word	1073741856
 561 0244 00800F40 		.word	1074757632
 562 0248 01700F40 		.word	1074753537
 563 024c 00700F40 		.word	1074753536
 564 0250 00000440 		.word	1074003968
 565 0254 DA0C0C00 		.word	789722
 566 0258 08000440 		.word	1074003976
 567 025c 0C000440 		.word	1074003980
 568 0260 49002000 		.word	2097225
 569 0264 08010440 		.word	1074004232
 570 0268 00020440 		.word	1074004480
 571 026c 18020440 		.word	1074004504
 572 0270 810D0000 		.word	3457
ARM GAS  C:\Users\kylep\AppData\Local\Temp\ccfw51TI.s 			page 26


 573 0274 08030440 		.word	1074004744
 574 0278 08040440 		.word	1074005000
 575              		.cfi_endproc
 576              	.LFE7:
 577              		.size	cyfitter_cfg, .-cyfitter_cfg
 578              		.section	.rodata
 579              		.align	2
 580              		.set	.LANCHOR0,. + 0
 581              		.set	.LANCHOR1,. + 640
 582              		.type	cfg_memset_list.4876, %object
 583              		.size	cfg_memset_list.4876, 12
 584              	cfg_memset_list.4876:
 585 0000 00300F40 		.word	1074737152
 586 0004 0004     		.short	1024
 587 0006 00400F40 		.4byte	1074741248
 588 000a 0004     		.short	1024
 589              		.type	cy_cfg_data_table.4871, %object
 590              		.size	cy_cfg_data_table.4871, 700
 591              	cy_cfg_data_table.4871:
 592 000c 80       		.byte	-128
 593 000d 0D       		.byte	13
 594 000e 83       		.byte	-125
 595 000f 0D       		.byte	13
 596 0010 03       		.byte	3
 597 0011 01       		.byte	1
 598 0012 06       		.byte	6
 599 0013 06       		.byte	6
 600 0014 07       		.byte	7
 601 0015 02       		.byte	2
 602 0016 0E       		.byte	14
 603 0017 08       		.byte	8
 604 0018 0F       		.byte	15
 605 0019 01       		.byte	1
 606 001a 12       		.byte	18
 607 001b 01       		.byte	1
 608 001c 16       		.byte	22
 609 001d 08       		.byte	8
 610 001e 22       		.byte	34
 611 001f 02       		.byte	2
 612 0020 26       		.byte	38
 613 0021 04       		.byte	4
 614 0022 31       		.byte	49
 615 0023 01       		.byte	1
 616 0024 32       		.byte	50
 617 0025 06       		.byte	6
 618 0026 34       		.byte	52
 619 0027 01       		.byte	1
 620 0028 35       		.byte	53
 621 0029 02       		.byte	2
 622 002a 36       		.byte	54
 623 002b 08       		.byte	8
 624 002c 3E       		.byte	62
 625 002d 40       		.byte	64
 626 002e 3F       		.byte	63
 627 002f 01       		.byte	1
 628 0030 40       		.byte	64
 629 0031 54       		.byte	84
ARM GAS  C:\Users\kylep\AppData\Local\Temp\ccfw51TI.s 			page 27


 630 0032 49       		.byte	73
 631 0033 FF       		.byte	-1
 632 0034 4A       		.byte	74
 633 0035 FF       		.byte	-1
 634 0036 4B       		.byte	75
 635 0037 FF       		.byte	-1
 636 0038 4F       		.byte	79
 637 0039 01       		.byte	1
 638 003a 50       		.byte	80
 639 003b 18       		.byte	24
 640 003c 54       		.byte	84
 641 003d 01       		.byte	1
 642 003e 56       		.byte	86
 643 003f 04       		.byte	4
 644 0040 58       		.byte	88
 645 0041 04       		.byte	4
 646 0042 59       		.byte	89
 647 0043 04       		.byte	4
 648 0044 5A       		.byte	90
 649 0045 04       		.byte	4
 650 0046 5B       		.byte	91
 651 0047 04       		.byte	4
 652 0048 5C       		.byte	92
 653 0049 02       		.byte	2
 654 004a 5D       		.byte	93
 655 004b 33       		.byte	51
 656 004c 5F       		.byte	95
 657 004d 01       		.byte	1
 658 004e 60       		.byte	96
 659 004f 40       		.byte	64
 660 0050 62       		.byte	98
 661 0051 40       		.byte	64
 662 0052 64       		.byte	100
 663 0053 40       		.byte	64
 664 0054 65       		.byte	101
 665 0055 40       		.byte	64
 666 0056 66       		.byte	102
 667 0057 80       		.byte	-128
 668 0058 68       		.byte	104
 669 0059 80       		.byte	-128
 670 005a 6A       		.byte	106
 671 005b 80       		.byte	-128
 672 005c 6C       		.byte	108
 673 005d 80       		.byte	-128
 674 005e 6E       		.byte	110
 675 005f 80       		.byte	-128
 676 0060 80       		.byte	-128
 677 0061 02       		.byte	2
 678 0062 82       		.byte	-126
 679 0063 04       		.byte	4
 680 0064 86       		.byte	-122
 681 0065 01       		.byte	1
 682 0066 88       		.byte	-120
 683 0067 04       		.byte	4
 684 0068 8A       		.byte	-118
 685 0069 02       		.byte	2
 686 006a 8B       		.byte	-117
ARM GAS  C:\Users\kylep\AppData\Local\Temp\ccfw51TI.s 			page 28


 687 006b 02       		.byte	2
 688 006c 91       		.byte	-111
 689 006d 08       		.byte	8
 690 006e 93       		.byte	-109
 691 006f 10       		.byte	16
 692 0070 95       		.byte	-107
 693 0071 10       		.byte	16
 694 0072 96       		.byte	-106
 695 0073 08       		.byte	8
 696 0074 97       		.byte	-105
 697 0075 08       		.byte	8
 698 0076 9B       		.byte	-101
 699 0077 01       		.byte	1
 700 0078 9E       		.byte	-98
 701 0079 10       		.byte	16
 702 007a A7       		.byte	-89
 703 007b 04       		.byte	4
 704 007c B0       		.byte	-80
 705 007d 06       		.byte	6
 706 007e B1       		.byte	-79
 707 007f 18       		.byte	24
 708 0080 B2       		.byte	-78
 709 0081 08       		.byte	8
 710 0082 B3       		.byte	-77
 711 0083 02       		.byte	2
 712 0084 B4       		.byte	-76
 713 0085 10       		.byte	16
 714 0086 B5       		.byte	-75
 715 0087 04       		.byte	4
 716 0088 B6       		.byte	-74
 717 0089 01       		.byte	1
 718 008a B7       		.byte	-73
 719 008b 01       		.byte	1
 720 008c C0       		.byte	-64
 721 008d 41       		.byte	65
 722 008e C5       		.byte	-59
 723 008f EC       		.byte	-20
 724 0090 C7       		.byte	-57
 725 0091 20       		.byte	32
 726 0092 C8       		.byte	-56
 727 0093 23       		.byte	35
 728 0094 C9       		.byte	-55
 729 0095 FF       		.byte	-1
 730 0096 CA       		.byte	-54
 731 0097 FF       		.byte	-1
 732 0098 CB       		.byte	-53
 733 0099 FF       		.byte	-1
 734 009a CD       		.byte	-51
 735 009b 83       		.byte	-125
 736 009c CE       		.byte	-50
 737 009d 03       		.byte	3
 738 009e CF       		.byte	-49
 739 009f 01       		.byte	1
 740 00a0 D0       		.byte	-48
 741 00a1 18       		.byte	24
 742 00a2 D2       		.byte	-46
 743 00a3 80       		.byte	-128
ARM GAS  C:\Users\kylep\AppData\Local\Temp\ccfw51TI.s 			page 29


 744 00a4 D8       		.byte	-40
 745 00a5 04       		.byte	4
 746 00a6 D9       		.byte	-39
 747 00a7 04       		.byte	4
 748 00a8 DA       		.byte	-38
 749 00a9 04       		.byte	4
 750 00aa DB       		.byte	-37
 751 00ab 04       		.byte	4
 752 00ac DD       		.byte	-35
 753 00ad 33       		.byte	51
 754 00ae DF       		.byte	-33
 755 00af 01       		.byte	1
 756 00b0 E0       		.byte	-32
 757 00b1 40       		.byte	64
 758 00b2 E2       		.byte	-30
 759 00b3 40       		.byte	64
 760 00b4 E4       		.byte	-28
 761 00b5 40       		.byte	64
 762 00b6 E5       		.byte	-27
 763 00b7 40       		.byte	64
 764 00b8 E6       		.byte	-26
 765 00b9 80       		.byte	-128
 766 00ba E8       		.byte	-24
 767 00bb 80       		.byte	-128
 768 00bc EA       		.byte	-22
 769 00bd 80       		.byte	-128
 770 00be EC       		.byte	-20
 771 00bf 80       		.byte	-128
 772 00c0 EE       		.byte	-18
 773 00c1 80       		.byte	-128
 774 00c2 00       		.byte	0
 775 00c3 04       		.byte	4
 776 00c4 03       		.byte	3
 777 00c5 01       		.byte	1
 778 00c6 04       		.byte	4
 779 00c7 02       		.byte	2
 780 00c8 05       		.byte	5
 781 00c9 14       		.byte	20
 782 00ca 09       		.byte	9
 783 00cb 02       		.byte	2
 784 00cc 0A       		.byte	10
 785 00cd 20       		.byte	32
 786 00ce 0D       		.byte	13
 787 00cf 80       		.byte	-128
 788 00d0 0E       		.byte	14
 789 00d1 10       		.byte	16
 790 00d2 10       		.byte	16
 791 00d3 A0       		.byte	-96
 792 00d4 18       		.byte	24
 793 00d5 04       		.byte	4
 794 00d6 19       		.byte	25
 795 00d7 40       		.byte	64
 796 00d8 1A       		.byte	26
 797 00d9 20       		.byte	32
 798 00da 1D       		.byte	29
 799 00db 14       		.byte	20
 800 00dc 1E       		.byte	30
ARM GAS  C:\Users\kylep\AppData\Local\Temp\ccfw51TI.s 			page 30


 801 00dd 86       		.byte	-122
 802 00de 22       		.byte	34
 803 00df 01       		.byte	1
 804 00e0 23       		.byte	35
 805 00e1 08       		.byte	8
 806 00e2 24       		.byte	36
 807 00e3 82       		.byte	-126
 808 00e4 25       		.byte	37
 809 00e5 14       		.byte	20
 810 00e6 26       		.byte	38
 811 00e7 10       		.byte	16
 812 00e8 2F       		.byte	47
 813 00e9 10       		.byte	16
 814 00ea 35       		.byte	53
 815 00eb 14       		.byte	20
 816 00ec 36       		.byte	54
 817 00ed 09       		.byte	9
 818 00ee 3A       		.byte	58
 819 00ef 46       		.byte	70
 820 00f0 3D       		.byte	61
 821 00f1 20       		.byte	32
 822 00f2 43       		.byte	67
 823 00f3 02       		.byte	2
 824 00f4 46       		.byte	70
 825 00f5 42       		.byte	66
 826 00f6 48       		.byte	72
 827 00f7 01       		.byte	1
 828 00f8 4D       		.byte	77
 829 00f9 8A       		.byte	-118
 830 00fa 4E       		.byte	78
 831 00fb 01       		.byte	1
 832 00fc 56       		.byte	86
 833 00fd 02       		.byte	2
 834 00fe 57       		.byte	87
 835 00ff 02       		.byte	2
 836 0100 59       		.byte	89
 837 0101 8A       		.byte	-118
 838 0102 5E       		.byte	94
 839 0103 65       		.byte	101
 840 0104 63       		.byte	99
 841 0105 40       		.byte	64
 842 0106 6B       		.byte	107
 843 0107 01       		.byte	1
 844 0108 74       		.byte	116
 845 0109 01       		.byte	1
 846 010a 76       		.byte	118
 847 010b 40       		.byte	64
 848 010c 87       		.byte	-121
 849 010d 40       		.byte	64
 850 010e 89       		.byte	-119
 851 010f 40       		.byte	64
 852 0110 C0       		.byte	-64
 853 0111 75       		.byte	117
 854 0112 C2       		.byte	-62
 855 0113 AC       		.byte	-84
 856 0114 C4       		.byte	-60
 857 0115 0C       		.byte	12
ARM GAS  C:\Users\kylep\AppData\Local\Temp\ccfw51TI.s 			page 31


 858 0116 CA       		.byte	-54
 859 0117 40       		.byte	64
 860 0118 CC       		.byte	-52
 861 0119 E0       		.byte	-32
 862 011a CE       		.byte	-50
 863 011b 2B       		.byte	43
 864 011c D0       		.byte	-48
 865 011d 91       		.byte	-111
 866 011e D2       		.byte	-46
 867 011f 08       		.byte	8
 868 0120 D6       		.byte	-42
 869 0121 FB       		.byte	-5
 870 0122 D8       		.byte	-40
 871 0123 01       		.byte	1
 872 0124 E2       		.byte	-30
 873 0125 80       		.byte	-128
 874 0126 02       		.byte	2
 875 0127 20       		.byte	32
 876 0128 04       		.byte	4
 877 0129 40       		.byte	64
 878 012a 05       		.byte	5
 879 012b 04       		.byte	4
 880 012c 07       		.byte	7
 881 012d 08       		.byte	8
 882 012e 09       		.byte	9
 883 012f 08       		.byte	8
 884 0130 0A       		.byte	10
 885 0131 1F       		.byte	31
 886 0132 0B       		.byte	11
 887 0133 04       		.byte	4
 888 0134 0C       		.byte	12
 889 0135 40       		.byte	64
 890 0136 10       		.byte	16
 891 0137 40       		.byte	64
 892 0138 14       		.byte	20
 893 0139 18       		.byte	24
 894 013a 15       		.byte	21
 895 013b 02       		.byte	2
 896 013c 16       		.byte	22
 897 013d 03       		.byte	3
 898 013e 17       		.byte	23
 899 013f 01       		.byte	1
 900 0140 18       		.byte	24
 901 0141 07       		.byte	7
 902 0142 19       		.byte	25
 903 0143 01       		.byte	1
 904 0144 1A       		.byte	26
 905 0145 08       		.byte	8
 906 0146 1B       		.byte	27
 907 0147 02       		.byte	2
 908 0148 1C       		.byte	28
 909 0149 10       		.byte	16
 910 014a 1E       		.byte	30
 911 014b 04       		.byte	4
 912 014c 20       		.byte	32
 913 014d 06       		.byte	6
 914 014e 22       		.byte	34
ARM GAS  C:\Users\kylep\AppData\Local\Temp\ccfw51TI.s 			page 32


 915 014f 11       		.byte	17
 916 0150 24       		.byte	36
 917 0151 01       		.byte	1
 918 0152 26       		.byte	38
 919 0153 12       		.byte	18
 920 0154 28       		.byte	40
 921 0155 40       		.byte	64
 922 0156 30       		.byte	48
 923 0157 40       		.byte	64
 924 0158 32       		.byte	50
 925 0159 1F       		.byte	31
 926 015a 33       		.byte	51
 927 015b 0C       		.byte	12
 928 015c 34       		.byte	52
 929 015d 20       		.byte	32
 930 015e 35       		.byte	53
 931 015f 03       		.byte	3
 932 0160 38       		.byte	56
 933 0161 02       		.byte	2
 934 0162 3E       		.byte	62
 935 0163 01       		.byte	1
 936 0164 40       		.byte	64
 937 0165 20       		.byte	32
 938 0166 41       		.byte	65
 939 0167 05       		.byte	5
 940 0168 46       		.byte	70
 941 0169 12       		.byte	18
 942 016a 48       		.byte	72
 943 016b 0E       		.byte	14
 944 016c 49       		.byte	73
 945 016d FF       		.byte	-1
 946 016e 4A       		.byte	74
 947 016f FF       		.byte	-1
 948 0170 4B       		.byte	75
 949 0171 FF       		.byte	-1
 950 0172 4D       		.byte	77
 951 0173 A0       		.byte	-96
 952 0174 4F       		.byte	79
 953 0175 04       		.byte	4
 954 0176 50       		.byte	80
 955 0177 18       		.byte	24
 956 0178 52       		.byte	82
 957 0179 87       		.byte	-121
 958 017a 58       		.byte	88
 959 017b 04       		.byte	4
 960 017c 59       		.byte	89
 961 017d 04       		.byte	4
 962 017e 5A       		.byte	90
 963 017f 04       		.byte	4
 964 0180 5B       		.byte	91
 965 0181 04       		.byte	4
 966 0182 5C       		.byte	92
 967 0183 01       		.byte	1
 968 0184 5D       		.byte	93
 969 0185 11       		.byte	17
 970 0186 5F       		.byte	95
 971 0187 01       		.byte	1
ARM GAS  C:\Users\kylep\AppData\Local\Temp\ccfw51TI.s 			page 33


 972 0188 60       		.byte	96
 973 0189 40       		.byte	64
 974 018a 62       		.byte	98
 975 018b C0       		.byte	-64
 976 018c 64       		.byte	100
 977 018d 40       		.byte	64
 978 018e 65       		.byte	101
 979 018f 40       		.byte	64
 980 0190 66       		.byte	102
 981 0191 C0       		.byte	-64
 982 0192 68       		.byte	104
 983 0193 C0       		.byte	-64
 984 0194 6A       		.byte	106
 985 0195 C0       		.byte	-64
 986 0196 6C       		.byte	108
 987 0197 C0       		.byte	-64
 988 0198 6E       		.byte	110
 989 0199 C0       		.byte	-64
 990 019a 87       		.byte	-121
 991 019b 02       		.byte	2
 992 019c 8C       		.byte	-116
 993 019d 03       		.byte	3
 994 019e 97       		.byte	-105
 995 019f 02       		.byte	2
 996 01a0 A0       		.byte	-96
 997 01a1 04       		.byte	4
 998 01a2 A2       		.byte	-94
 999 01a3 01       		.byte	1
 1000 01a4 A4       		.byte	-92
 1001 01a5 04       		.byte	4
 1002 01a6 A6       		.byte	-90
 1003 01a7 02       		.byte	2
 1004 01a8 A7       		.byte	-89
 1005 01a9 01       		.byte	1
 1006 01aa B0       		.byte	-80
 1007 01ab 04       		.byte	4
 1008 01ac B3       		.byte	-77
 1009 01ad 02       		.byte	2
 1010 01ae B5       		.byte	-75
 1011 01af 01       		.byte	1
 1012 01b0 B6       		.byte	-74
 1013 01b1 03       		.byte	3
 1014 01b2 B8       		.byte	-72
 1015 01b3 02       		.byte	2
 1016 01b4 BF       		.byte	-65
 1017 01b5 04       		.byte	4
 1018 01b6 C0       		.byte	-64
 1019 01b7 20       		.byte	32
 1020 01b8 C1       		.byte	-63
 1021 01b9 06       		.byte	6
 1022 01ba C5       		.byte	-59
 1023 01bb D0       		.byte	-48
 1024 01bc C6       		.byte	-58
 1025 01bd 10       		.byte	16
 1026 01be C7       		.byte	-57
 1027 01bf 02       		.byte	2
 1028 01c0 C8       		.byte	-56
ARM GAS  C:\Users\kylep\AppData\Local\Temp\ccfw51TI.s 			page 34


 1029 01c1 1E       		.byte	30
 1030 01c2 C9       		.byte	-55
 1031 01c3 FF       		.byte	-1
 1032 01c4 CA       		.byte	-54
 1033 01c5 FF       		.byte	-1
 1034 01c6 CB       		.byte	-53
 1035 01c7 FF       		.byte	-1
 1036 01c8 CD       		.byte	-51
 1037 01c9 A0       		.byte	-96
 1038 01ca CF       		.byte	-49
 1039 01cb 04       		.byte	4
 1040 01cc D0       		.byte	-48
 1041 01cd 18       		.byte	24
 1042 01ce D2       		.byte	-46
 1043 01cf 80       		.byte	-128
 1044 01d0 D4       		.byte	-44
 1045 01d1 05       		.byte	5
 1046 01d2 D8       		.byte	-40
 1047 01d3 04       		.byte	4
 1048 01d4 D9       		.byte	-39
 1049 01d5 04       		.byte	4
 1050 01d6 DA       		.byte	-38
 1051 01d7 04       		.byte	4
 1052 01d8 DB       		.byte	-37
 1053 01d9 04       		.byte	4
 1054 01da DC       		.byte	-36
 1055 01db 02       		.byte	2
 1056 01dc DD       		.byte	-35
 1057 01dd 22       		.byte	34
 1058 01de DF       		.byte	-33
 1059 01df 01       		.byte	1
 1060 01e0 E0       		.byte	-32
 1061 01e1 40       		.byte	64
 1062 01e2 E2       		.byte	-30
 1063 01e3 C0       		.byte	-64
 1064 01e4 E4       		.byte	-28
 1065 01e5 40       		.byte	64
 1066 01e6 E5       		.byte	-27
 1067 01e7 40       		.byte	64
 1068 01e8 E6       		.byte	-26
 1069 01e9 C0       		.byte	-64
 1070 01ea E8       		.byte	-24
 1071 01eb C0       		.byte	-64
 1072 01ec EA       		.byte	-22
 1073 01ed C0       		.byte	-64
 1074 01ee EC       		.byte	-20
 1075 01ef C0       		.byte	-64
 1076 01f0 EE       		.byte	-18
 1077 01f1 C0       		.byte	-64
 1078 01f2 00       		.byte	0
 1079 01f3 40       		.byte	64
 1080 01f4 04       		.byte	4
 1081 01f5 88       		.byte	-120
 1082 01f6 05       		.byte	5
 1083 01f7 10       		.byte	16
 1084 01f8 07       		.byte	7
 1085 01f9 40       		.byte	64
ARM GAS  C:\Users\kylep\AppData\Local\Temp\ccfw51TI.s 			page 35


 1086 01fa 0E       		.byte	14
 1087 01fb 88       		.byte	-120
 1088 01fc 0F       		.byte	15
 1089 01fd 22       		.byte	34
 1090 01fe 10       		.byte	16
 1091 01ff A0       		.byte	-96
 1092 0200 17       		.byte	23
 1093 0201 25       		.byte	37
 1094 0202 18       		.byte	24
 1095 0203 40       		.byte	64
 1096 0204 19       		.byte	25
 1097 0205 40       		.byte	64
 1098 0206 1D       		.byte	29
 1099 0207 30       		.byte	48
 1100 0208 1E       		.byte	30
 1101 0209 20       		.byte	32
 1102 020a 1F       		.byte	31
 1103 020b 01       		.byte	1
 1104 020c 22       		.byte	34
 1105 020d 24       		.byte	36
 1106 020e 24       		.byte	36
 1107 020f 08       		.byte	8
 1108 0210 27       		.byte	39
 1109 0211 20       		.byte	32
 1110 0212 29       		.byte	41
 1111 0213 04       		.byte	4
 1112 0214 30       		.byte	48
 1113 0215 08       		.byte	8
 1114 0216 35       		.byte	53
 1115 0217 04       		.byte	4
 1116 0218 36       		.byte	54
 1117 0219 20       		.byte	32
 1118 021a 37       		.byte	55
 1119 021b 08       		.byte	8
 1120 021c 38       		.byte	56
 1121 021d 04       		.byte	4
 1122 021e 3D       		.byte	61
 1123 021f 28       		.byte	40
 1124 0220 40       		.byte	64
 1125 0221 04       		.byte	4
 1126 0222 45       		.byte	69
 1127 0223 20       		.byte	32
 1128 0224 48       		.byte	72
 1129 0225 08       		.byte	8
 1130 0226 49       		.byte	73
 1131 0227 01       		.byte	1
 1132 0228 4F       		.byte	79
 1133 0229 82       		.byte	-126
 1134 022a 50       		.byte	80
 1135 022b A8       		.byte	-88
 1136 022c 57       		.byte	87
 1137 022d 50       		.byte	80
 1138 022e 59       		.byte	89
 1139 022f 41       		.byte	65
 1140 0230 5A       		.byte	90
 1141 0231 08       		.byte	8
 1142 0232 6E       		.byte	110
ARM GAS  C:\Users\kylep\AppData\Local\Temp\ccfw51TI.s 			page 36


 1143 0233 08       		.byte	8
 1144 0234 6F       		.byte	111
 1145 0235 05       		.byte	5
 1146 0236 71       		.byte	113
 1147 0237 02       		.byte	2
 1148 0238 77       		.byte	119
 1149 0239 40       		.byte	64
 1150 023a 82       		.byte	-126
 1151 023b 04       		.byte	4
 1152 023c 86       		.byte	-122
 1153 023d 10       		.byte	16
 1154 023e 87       		.byte	-121
 1155 023f 10       		.byte	16
 1156 0240 89       		.byte	-119
 1157 0241 80       		.byte	-128
 1158 0242 8E       		.byte	-114
 1159 0243 10       		.byte	16
 1160 0244 8F       		.byte	-113
 1161 0245 01       		.byte	1
 1162 0246 90       		.byte	-112
 1163 0247 84       		.byte	-124
 1164 0248 96       		.byte	-106
 1165 0249 10       		.byte	16
 1166 024a 97       		.byte	-105
 1167 024b 20       		.byte	32
 1168 024c 9B       		.byte	-101
 1169 024d 08       		.byte	8
 1170 024e 9E       		.byte	-98
 1171 024f 04       		.byte	4
 1172 0250 A1       		.byte	-95
 1173 0251 14       		.byte	20
 1174 0252 A2       		.byte	-94
 1175 0253 40       		.byte	64
 1176 0254 A4       		.byte	-92
 1177 0255 A0       		.byte	-96
 1178 0256 A5       		.byte	-91
 1179 0257 82       		.byte	-126
 1180 0258 AE       		.byte	-82
 1181 0259 01       		.byte	1
 1182 025a AF       		.byte	-81
 1183 025b 08       		.byte	8
 1184 025c B6       		.byte	-74
 1185 025d 48       		.byte	72
 1186 025e C0       		.byte	-64
 1187 025f F1       		.byte	-15
 1188 0260 C2       		.byte	-62
 1189 0261 F0       		.byte	-16
 1190 0262 C4       		.byte	-60
 1191 0263 7C       		.byte	124
 1192 0264 CA       		.byte	-54
 1193 0265 02       		.byte	2
 1194 0266 CC       		.byte	-52
 1195 0267 62       		.byte	98
 1196 0268 CE       		.byte	-50
 1197 0269 62       		.byte	98
 1198 026a D0       		.byte	-48
 1199 026b 24       		.byte	36
ARM GAS  C:\Users\kylep\AppData\Local\Temp\ccfw51TI.s 			page 37


 1200 026c D2       		.byte	-46
 1201 026d 14       		.byte	20
 1202 026e D6       		.byte	-42
 1203 026f 0B       		.byte	11
 1204 0270 E0       		.byte	-32
 1205 0271 20       		.byte	32
 1206 0272 E2       		.byte	-30
 1207 0273 40       		.byte	64
 1208 0274 E4       		.byte	-28
 1209 0275 10       		.byte	16
 1210 0276 52       		.byte	82
 1211 0277 80       		.byte	-128
 1212 0278 57       		.byte	87
 1213 0279 01       		.byte	1
 1214 027a 6F       		.byte	111
 1215 027b 04       		.byte	4
 1216 027c 70       		.byte	112
 1217 027d 10       		.byte	16
 1218 027e 73       		.byte	115
 1219 027f 10       		.byte	16
 1220 0280 77       		.byte	119
 1221 0281 08       		.byte	8
 1222 0282 7A       		.byte	122
 1223 0283 40       		.byte	64
 1224 0284 7D       		.byte	125
 1225 0285 40       		.byte	64
 1226 0286 86       		.byte	-122
 1227 0287 40       		.byte	64
 1228 0288 8A       		.byte	-118
 1229 0289 80       		.byte	-128
 1230 028a D4       		.byte	-44
 1231 028b 20       		.byte	32
 1232 028c D6       		.byte	-42
 1233 028d 20       		.byte	32
 1234 028e DA       		.byte	-38
 1235 028f 80       		.byte	-128
 1236 0290 DC       		.byte	-36
 1237 0291 E0       		.byte	-32
 1238 0292 DE       		.byte	-34
 1239 0293 60       		.byte	96
 1240 0294 E6       		.byte	-26
 1241 0295 40       		.byte	64
 1242 0296 00       		.byte	0
 1243 0297 08       		.byte	8
 1244 0298 03       		.byte	3
 1245 0299 08       		.byte	8
 1246 029a 07       		.byte	7
 1247 029b 20       		.byte	32
 1248 029c 0D       		.byte	13
 1249 029d 40       		.byte	64
 1250 029e 23       		.byte	35
 1251 029f 18       		.byte	24
 1252 02a0 24       		.byte	36
 1253 02a1 20       		.byte	32
 1254 02a2 27       		.byte	39
 1255 02a3 04       		.byte	4
 1256 02a4 81       		.byte	-127
ARM GAS  C:\Users\kylep\AppData\Local\Temp\ccfw51TI.s 			page 38


 1257 02a5 40       		.byte	64
 1258 02a6 87       		.byte	-121
 1259 02a7 09       		.byte	9
 1260 02a8 88       		.byte	-120
 1261 02a9 04       		.byte	4
 1262 02aa 8D       		.byte	-115
 1263 02ab 40       		.byte	64
 1264 02ac 8F       		.byte	-113
 1265 02ad 20       		.byte	32
 1266 02ae 94       		.byte	-108
 1267 02af 20       		.byte	32
 1268 02b0 95       		.byte	-107
 1269 02b1 40       		.byte	64
 1270 02b2 97       		.byte	-105
 1271 02b3 10       		.byte	16
 1272 02b4 9F       		.byte	-97
 1273 02b5 0C       		.byte	12
 1274 02b6 A7       		.byte	-89
 1275 02b7 01       		.byte	1
 1276 02b8 C0       		.byte	-64
 1277 02b9 70       		.byte	112
 1278 02ba C2       		.byte	-62
 1279 02bb 80       		.byte	-128
 1280 02bc C8       		.byte	-56
 1281 02bd F0       		.byte	-16
 1282 02be E0       		.byte	-32
 1283 02bf 80       		.byte	-128
 1284 02c0 E4       		.byte	-28
 1285 02c1 40       		.byte	64
 1286 02c2 E6       		.byte	-26
 1287 02c3 10       		.byte	16
 1288 02c4 01       		.byte	1
 1289 02c5 0F       		.byte	15
 1290 02c6 10       		.byte	16
 1291 02c7 0F       		.byte	15
 1292              		.type	cy_cfg_addr_table.4870, %object
 1293              		.size	cy_cfg_addr_table.4870, 32
 1294              	cy_cfg_addr_table.4870:
 1295 02c8 02000F40 		.word	1074724866
 1296 02cc 59300F40 		.word	1074737241
 1297 02d0 32310F40 		.word	1074737458
 1298 02d4 66320F40 		.word	1074737766
 1299 02d8 42330F40 		.word	1074737986
 1300 02dc 10400F40 		.word	1074741264
 1301 02e0 17410F40 		.word	1074741527
 1302 02e4 02600F40 		.word	1074749442
 1303              		.text
 1304              	.Letext0:
 1305              		.file 2 "c:\\program files (x86)\\cypress\\psoc creator\\4.1\\psoc creator\\import\\gnu\\arm\\5.4.
 1306              		.file 3 "Generated_Source\\PSoC4\\cytypes.h"
 1307              		.file 4 "Generated_Source\\PSoC4\\CyLib.h"