ARM GAS  C:\Users\kylep\AppData\Local\Temp\ccxuMgqY.s 			page 1


   1              		.syntax unified
   2              		.cpu cortex-m0
   3              		.fpu softvfp
   4              		.eabi_attribute 20, 1
   5              		.eabi_attribute 21, 1
   6              		.eabi_attribute 23, 3
   7              		.eabi_attribute 24, 1
   8              		.eabi_attribute 25, 1
   9              		.eabi_attribute 26, 1
  10              		.eabi_attribute 30, 1
  11              		.eabi_attribute 34, 0
  12              		.eabi_attribute 18, 4
  13              		.thumb
  14              		.syntax unified
  15              		.file	"DriverControl.c"
  16              		.text
  17              	.Ltext0:
  18              		.cfi_sections	.debug_frame
  19              		.section	.text.getTemperatureStatus,"ax",%progbits
  20              		.align	2
  21              		.code	16
  22              		.thumb_func
  23              		.type	getTemperatureStatus, %function
  24              	getTemperatureStatus:
  25              	.LFB46:
  26              		.file 1 "DriverControl.c"
   1:DriverControl.c **** /* ========================================
   2:DriverControl.c ****  *
   3:DriverControl.c ****  * Copyright YOUR COMPANY, THE YEAR
   4:DriverControl.c ****  * All Rights Reserved
   5:DriverControl.c ****  * UNPUBLISHED, LICENSED SOFTWARE.
   6:DriverControl.c ****  *
   7:DriverControl.c ****  * CONFIDENTIAL AND PROPRIETARY INFORMATION
   8:DriverControl.c ****  * WHICH IS THE PROPERTY OF your company.
   9:DriverControl.c ****  *
  10:DriverControl.c ****  * ========================================
  11:DriverControl.c **** */
  12:DriverControl.c **** /**********CHANGE LOG**********/
  13:DriverControl.c **** 
  14:DriverControl.c **** 
  15:DriverControl.c **** /**********PREPROCESSOR DIRECTIVES**********/
  16:DriverControl.c **** #include "CommonVariables.h"
  17:DriverControl.c **** #include "DriverControl.h"
  18:DriverControl.c **** #include "BrightnessCommManager.h"
  19:DriverControl.c **** 
  20:DriverControl.c **** #define MAX_ADC_CONVERSION_WAIT_LIMIT   5
  21:DriverControl.c **** #define SAMPLE_COUNT_PER_CYCLE          1
  22:DriverControl.c **** #define BRIGHTNESS_CHANGE_PER_SAMPLE    1
  23:DriverControl.c **** 
  24:DriverControl.c **** #define RAMP_DOWN_RATE                  1
  25:DriverControl.c **** #define STEADY_INCREASE_RATE            1
  26:DriverControl.c **** #define STEADY_DECREASE_RATE            1
  27:DriverControl.c **** 
  28:DriverControl.c **** #define MAX_SCALING_FACTOR              0xFF
  29:DriverControl.c **** #define SAFE_TEMPERATURE_TOLERANCE      0
  30:DriverControl.c **** 
  31:DriverControl.c **** #define VOLTAGE_SENSE_LOWER_BOUND       670
ARM GAS  C:\Users\kylep\AppData\Local\Temp\ccxuMgqY.s 			page 2


  32:DriverControl.c **** #define VOLTAGE_SENSE_UPPER_BOUND       870
  33:DriverControl.c ****     
  34:DriverControl.c **** /**********DEFINED CONSTANTS**********/
  35:DriverControl.c **** enum RegulationState
  36:DriverControl.c **** {
  37:DriverControl.c ****     STARTUP,
  38:DriverControl.c ****     STEADY_INCREASE,
  39:DriverControl.c ****     STEADY_DECREASE,
  40:DriverControl.c ****     NO_CHANGE
  41:DriverControl.c **** };
  42:DriverControl.c **** 
  43:DriverControl.c **** enum TemperatureStatus
  44:DriverControl.c **** {
  45:DriverControl.c ****     WITHIN_TOLERANCE,
  46:DriverControl.c ****     EXCEEDED_UPPER_BOUND,
  47:DriverControl.c ****     EXCEEDED_LOWER_BOUND,
  48:DriverControl.c ****     ERROR
  49:DriverControl.c **** };
  50:DriverControl.c **** 
  51:DriverControl.c **** typedef struct
  52:DriverControl.c **** {
  53:DriverControl.c ****     const int16 MAX_TEMPERATURE;
  54:DriverControl.c ****     const int16 SAFE_TEMPERATURE;
  55:DriverControl.c **** }ThermalLimit;
  56:DriverControl.c **** 
  57:DriverControl.c **** static ThermalLimit ThermalLimitArray[ADC_SAMPLE_COUNT] = 
  58:DriverControl.c **** {
  59:DriverControl.c ****     {200, 100}, //LED
  60:DriverControl.c ****     {200, 100}, //SwitchNode    
  61:DriverControl.c ****     {25,  5}, //Micro
  62:DriverControl.c ****     {300, 100}  //Ambient
  63:DriverControl.c **** };
  64:DriverControl.c **** 
  65:DriverControl.c **** /**********DATA STRUCTURES**********/
  66:DriverControl.c **** typedef struct
  67:DriverControl.c **** {
  68:DriverControl.c ****     uint8 ID_Number;
  69:DriverControl.c ****     uint8 driverCount;
  70:DriverControl.c ****     uint8 bLastDriverInChain;
  71:DriverControl.c **** }DriverProperties;
  72:DriverControl.c **** 
  73:DriverControl.c **** static DriverProperties PositionData = {0, 0, TRUE};
  74:DriverControl.c **** 
  75:DriverControl.c **** typedef struct
  76:DriverControl.c **** {
  77:DriverControl.c ****     uint8 requestedBrightness;
  78:DriverControl.c ****     uint8 regulatedBrightness;
  79:DriverControl.c ****     uint8 previousBrightness;
  80:DriverControl.c ****     enum RegulationState currentState;
  81:DriverControl.c ****     uint8 scalingFactor;
  82:DriverControl.c **** }RegulationProperties;
  83:DriverControl.c **** 
  84:DriverControl.c **** static RegulationProperties RegulationData = {0, 0, 0, STARTUP, 0xFF};
  85:DriverControl.c **** static RegulationProperties RegulationDataFast = {0, 0, 0, STARTUP, 0xFF};
  86:DriverControl.c **** 
  87:DriverControl.c **** typedef struct
  88:DriverControl.c **** {
ARM GAS  C:\Users\kylep\AppData\Local\Temp\ccxuMgqY.s 			page 3


  89:DriverControl.c ****     uint8 bEnable;
  90:DriverControl.c ****     uint8 scalingFactor;
  91:DriverControl.c **** }VoltageSenseProperties;
  92:DriverControl.c **** 
  93:DriverControl.c **** static VoltageSenseProperties VoltageSenseData = {TRUE, 0xFF};
  94:DriverControl.c **** uint8 regulateBrightnessFaster(int16* TemperatureData, uint8 length);
  95:DriverControl.c **** /**********GLOBAL VARIABLES**********/
  96:DriverControl.c **** 
  97:DriverControl.c **** 
  98:DriverControl.c **** /**********LOCAL FUNCTION PROTOTYPES**********/
  99:DriverControl.c **** static enum TemperatureStatus getTemperatureStatus(int16* TemperatureData,
 100:DriverControl.c ****     uint8 length, int16 tolerance);
 101:DriverControl.c **** 
 102:DriverControl.c **** /**********DEFINED GLOBAL FUNCTIONS**********/
 103:DriverControl.c **** uint8 getPreviousBrightness(void)
 104:DriverControl.c **** {
 105:DriverControl.c ****     return RegulationData.previousBrightness;
 106:DriverControl.c **** }
 107:DriverControl.c **** 
 108:DriverControl.c **** /*******************************************************************************
 109:DriverControl.c **** * Function Name: getDriverID
 110:DriverControl.c **** ********************************************************************************
 111:DriverControl.c **** *
 112:DriverControl.c **** * Summary:
 113:DriverControl.c **** *  Returns the ID number of this driver.
 114:DriverControl.c **** *
 115:DriverControl.c **** * Parameters:
 116:DriverControl.c **** *  None.
 117:DriverControl.c **** *
 118:DriverControl.c **** * Return:
 119:DriverControl.c **** *  Value 1 for head module, 2 - 8 for trailer module
 120:DriverControl.c **** *
 121:DriverControl.c **** *******************************************************************************/
 122:DriverControl.c **** uint8 getDriverID(void)
 123:DriverControl.c **** {
 124:DriverControl.c ****     return PositionData.ID_Number;
 125:DriverControl.c **** }
 126:DriverControl.c **** 
 127:DriverControl.c **** /*******************************************************************************
 128:DriverControl.c **** * Function Name: setIdentityByComm
 129:DriverControl.c **** ********************************************************************************
 130:DriverControl.c **** *
 131:DriverControl.c **** * Summary:
 132:DriverControl.c **** *  Sets the ID number for this driver based on UART communication. The number
 133:DriverControl.c **** *  assigned is the driver position away from the controller.
 134:DriverControl.c **** *
 135:DriverControl.c **** * Parameters:
 136:DriverControl.c **** *  positionNumber: The ID number based on position in the chain.
 137:DriverControl.c **** *
 138:DriverControl.c **** * Return:
 139:DriverControl.c **** *  SUCCESS for valid input, FAILURE otherwise
 140:DriverControl.c **** *
 141:DriverControl.c **** *******************************************************************************/
 142:DriverControl.c **** uint8 setIdentityByComm(uint8 positionNumber)
 143:DriverControl.c **** {
 144:DriverControl.c ****     if(positionNumber < HEAD_MODULE_ID || positionNumber > MAX_DRIVER_COUNT)
 145:DriverControl.c ****         return FAILURE;
ARM GAS  C:\Users\kylep\AppData\Local\Temp\ccxuMgqY.s 			page 4


 146:DriverControl.c ****     
 147:DriverControl.c ****     PositionData.ID_Number = positionNumber;
 148:DriverControl.c ****     
 149:DriverControl.c ****     return SUCCESS;
 150:DriverControl.c **** }
 151:DriverControl.c **** 
 152:DriverControl.c **** /*******************************************************************************
 153:DriverControl.c **** * Function Name: setDriverCount
 154:DriverControl.c **** ********************************************************************************
 155:DriverControl.c **** *
 156:DriverControl.c **** * Summary:
 157:DriverControl.c **** *  Sets the number of drivers in the chain.
 158:DriverControl.c **** *
 159:DriverControl.c **** * Parameters:
 160:DriverControl.c **** *  newDriverCount: The updated number of drivers in the chain.
 161:DriverControl.c **** *
 162:DriverControl.c **** * Return:
 163:DriverControl.c **** *  SUCCESS for valid input, FAILURE otherwise
 164:DriverControl.c **** *
 165:DriverControl.c **** *******************************************************************************/
 166:DriverControl.c **** uint8 setDriverCount(uint8 newDriverCount)
 167:DriverControl.c **** {
 168:DriverControl.c ****     if(newDriverCount < HEAD_MODULE_ID || newDriverCount > MAX_DRIVER_COUNT)
 169:DriverControl.c ****         return FAILURE;
 170:DriverControl.c ****     
 171:DriverControl.c ****     PositionData.driverCount = newDriverCount;
 172:DriverControl.c ****     
 173:DriverControl.c ****     return SUCCESS;
 174:DriverControl.c **** }
 175:DriverControl.c **** 
 176:DriverControl.c **** /*******************************************************************************
 177:DriverControl.c **** * Function Name: isLastDriverInChain
 178:DriverControl.c **** ********************************************************************************
 179:DriverControl.c **** *
 180:DriverControl.c **** * Summary:
 181:DriverControl.c **** *  Determines if this driver is at the end of the chain.
 182:DriverControl.c **** *
 183:DriverControl.c **** * Parameters:
 184:DriverControl.c **** *  None.
 185:DriverControl.c **** *
 186:DriverControl.c **** * Return:
 187:DriverControl.c **** *  TRUE if last driver in the chain, FALSE if otherwise
 188:DriverControl.c **** *
 189:DriverControl.c **** *******************************************************************************/
 190:DriverControl.c **** uint8 isLastDriverInChain(void)
 191:DriverControl.c **** {
 192:DriverControl.c ****     return PositionData.bLastDriverInChain;
 193:DriverControl.c **** }
 194:DriverControl.c **** 
 195:DriverControl.c **** /*******************************************************************************
 196:DriverControl.c **** * Function Name: setAsNotLastDriverInChain
 197:DriverControl.c **** ********************************************************************************
 198:DriverControl.c **** *
 199:DriverControl.c **** * Summary:
 200:DriverControl.c **** *  At the start of the program, this driver is assumed to the be the last driver
 201:DriverControl.c **** *  in the chain. If an ACK packet is received at startup, this function is called
 202:DriverControl.c **** *  to update the status for not being in the last driver.
ARM GAS  C:\Users\kylep\AppData\Local\Temp\ccxuMgqY.s 			page 5


 203:DriverControl.c **** *
 204:DriverControl.c **** * Parameters:
 205:DriverControl.c **** *  None.
 206:DriverControl.c **** *
 207:DriverControl.c **** * Return:
 208:DriverControl.c **** *  None.
 209:DriverControl.c **** *
 210:DriverControl.c **** *******************************************************************************/
 211:DriverControl.c **** void setAsNotLastDriverInChain(void)
 212:DriverControl.c **** {
 213:DriverControl.c ****     PositionData.bLastDriverInChain = FALSE;
 214:DriverControl.c **** }
 215:DriverControl.c **** 
 216:DriverControl.c **** /*******************************************************************************
 217:DriverControl.c **** * Function Name: checkForUnderVoltage
 218:DriverControl.c **** ********************************************************************************
 219:DriverControl.c **** *
 220:DriverControl.c **** * Summary:
 221:DriverControl.c **** *  Takes in the voltage sense reading and updates the undervoltage status.
 222:DriverControl.c **** *
 223:DriverControl.c **** * Parameters:
 224:DriverControl.c **** *  ADC_Value: The voltage sense reading
 225:DriverControl.c **** *
 226:DriverControl.c **** * Return:
 227:DriverControl.c **** *  None.
 228:DriverControl.c **** *
 229:DriverControl.c **** *******************************************************************************/
 230:DriverControl.c **** void checkForUnderVoltage(uint16 ADC_Value)
 231:DriverControl.c **** {
 232:DriverControl.c ****     if((VoltageSenseData.bEnable == TRUE) && (ADC_Value < VOLTAGE_SENSE_LOWER_BOUND))
 233:DriverControl.c ****     {
 234:DriverControl.c ****         VoltageSenseData.bEnable = FALSE;
 235:DriverControl.c ****         LED_Timer_Stop();
 236:DriverControl.c ****         VoltageSenseData.scalingFactor = 0;
 237:DriverControl.c ****     }
 238:DriverControl.c ****     else if((VoltageSenseData.bEnable == FALSE) && (ADC_Value > (VOLTAGE_SENSE_UPPER_BOUND)))
 239:DriverControl.c ****     {
 240:DriverControl.c ****         VoltageSenseData.bEnable = TRUE;
 241:DriverControl.c ****         LED_Timer_Start();
 242:DriverControl.c ****     }
 243:DriverControl.c **** }
 244:DriverControl.c **** 
 245:DriverControl.c **** /*******************************************************************************
 246:DriverControl.c **** * Function Name: processSoftStart
 247:DriverControl.c **** ********************************************************************************
 248:DriverControl.c **** *
 249:DriverControl.c **** * Summary:
 250:DriverControl.c **** *  Called in LED_ISR, increases the brightness from full on to full off in 1 second.
 251:DriverControl.c **** *
 252:DriverControl.c **** * Parameters:
 253:DriverControl.c **** *  None.
 254:DriverControl.c **** *
 255:DriverControl.c **** * Return:
 256:DriverControl.c **** *  None.
 257:DriverControl.c **** *
 258:DriverControl.c **** *******************************************************************************/
 259:DriverControl.c **** void processSoftStart(void)
ARM GAS  C:\Users\kylep\AppData\Local\Temp\ccxuMgqY.s 			page 6


 260:DriverControl.c **** {
 261:DriverControl.c ****     LED_Timer_ClearInterrupt(LED_Timer_INTR_MASK_TC);
 262:DriverControl.c ****     
 263:DriverControl.c ****     if(VoltageSenseData.scalingFactor < 0xFF)
 264:DriverControl.c ****         VoltageSenseData.scalingFactor++;
 265:DriverControl.c ****     else
 266:DriverControl.c ****         LED_Timer_Stop();
 267:DriverControl.c **** }
 268:DriverControl.c **** 
 269:DriverControl.c **** /*******************************************************************************
 270:DriverControl.c **** * Function Name: updateBrightnessLevel
 271:DriverControl.c **** ********************************************************************************
 272:DriverControl.c **** *
 273:DriverControl.c **** * Summary:
 274:DriverControl.c **** *  Updates the brightness of the LED. Resulting brightness may not match the
 275:DriverControl.c **** *  requested brightness depending on temperature regulation state.
 276:DriverControl.c **** *
 277:DriverControl.c **** * Parameters:
 278:DriverControl.c **** *  brightnessLevel: The desired brightness level for the LED.
 279:DriverControl.c **** *
 280:DriverControl.c **** * Return:
 281:DriverControl.c **** *  The resulting brightness level of the LED
 282:DriverControl.c **** *
 283:DriverControl.c **** *******************************************************************************/
 284:DriverControl.c **** uint8 updateBrightnessLevel(uint8 brightnessLevel, uint8 bRegulated)
 285:DriverControl.c **** {
 286:DriverControl.c ****     static uint8 tempBrightness = 0;
 287:DriverControl.c ****     static uint8 tempPreviousRequestedBrightness = 0;
 288:DriverControl.c ****     
 289:DriverControl.c ****     if(bRegulated != TRUE && bRegulated != FALSE)
 290:DriverControl.c ****     return 0;
 291:DriverControl.c ****     
 292:DriverControl.c ****    // brightnessLevel = (uint8)((uint16)(VoltageSenseData.scalingFactor)*
 293:DriverControl.c ****    //                     (uint16)(brightnessLevel) / MAX_SCALING_FACTOR);
 294:DriverControl.c ****     
 295:DriverControl.c ****     if(brightnessLevel != RegulationData.requestedBrightness)
 296:DriverControl.c ****         RegulationData.requestedBrightness = brightnessLevel;
 297:DriverControl.c ****     
 298:DriverControl.c ****     if((PositionData.ID_Number != HEAD_MODULE_ID) || (bRegulated == FALSE))
 299:DriverControl.c ****     {   
 300:DriverControl.c ****         if(RegulationData.requestedBrightness != RegulationData.previousBrightness)
 301:DriverControl.c ****         {
 302:DriverControl.c ****             if(RegulationData.requestedBrightness > 0)
 303:DriverControl.c ****             {
 304:DriverControl.c ****                 PWM_Enable_Write(TRUE);
 305:DriverControl.c ****                 PWM_WriteCompare(RegulationData.requestedBrightness);
 306:DriverControl.c ****             }
 307:DriverControl.c ****             else
 308:DriverControl.c ****             {
 309:DriverControl.c ****                 PWM_Enable_Write(FALSE);
 310:DriverControl.c ****             }
 311:DriverControl.c ****         };
 312:DriverControl.c ****         
 313:DriverControl.c ****         RegulationData.previousBrightness = RegulationData.requestedBrightness;
 314:DriverControl.c ****         return RegulationData.requestedBrightness;
 315:DriverControl.c ****     }
 316:DriverControl.c ****     
ARM GAS  C:\Users\kylep\AppData\Local\Temp\ccxuMgqY.s 			page 7


 317:DriverControl.c ****     if(RegulationData.regulatedBrightness != RegulationData.previousBrightness)
 318:DriverControl.c ****     {
 319:DriverControl.c ****         if((RegulationData.requestedBrightness>RegulationData.regulatedBrightness)) //&& (Regulatio
 320:DriverControl.c ****         {
 321:DriverControl.c ****             tempBrightness = RegulationData.regulatedBrightness;
 322:DriverControl.c ****         }
 323:DriverControl.c ****         else
 324:DriverControl.c ****         {
 325:DriverControl.c ****             tempBrightness = RegulationData.requestedBrightness;
 326:DriverControl.c ****         }
 327:DriverControl.c ****         if(tempBrightness > 0)
 328:DriverControl.c ****         {
 329:DriverControl.c ****             PWM_Enable_Write(TRUE);
 330:DriverControl.c ****             PWM_WriteCompare(tempBrightness);
 331:DriverControl.c ****         }
 332:DriverControl.c ****         else
 333:DriverControl.c ****             PWM_Enable_Write(FALSE);
 334:DriverControl.c ****     }
 335:DriverControl.c ****     
 336:DriverControl.c ****     tempPreviousRequestedBrightness = RegulationData.requestedBrightness;
 337:DriverControl.c ****     RegulationData.previousBrightness = tempBrightness;    
 338:DriverControl.c ****     return tempBrightness;
 339:DriverControl.c **** }
 340:DriverControl.c **** 
 341:DriverControl.c **** /*******************************************************************************
 342:DriverControl.c **** * Function Name: getMaxTemperature
 343:DriverControl.c **** ********************************************************************************
 344:DriverControl.c **** *
 345:DriverControl.c **** * Summary:
 346:DriverControl.c **** *  Obtains the next temperature sample from ADC.
 347:DriverControl.c **** *
 348:DriverControl.c **** * Parameters:
 349:DriverControl.c **** *  None.
 350:DriverControl.c **** *
 351:DriverControl.c **** * Return:
 352:DriverControl.c **** *  The next temperature sample from ADC
 353:DriverControl.c **** *
 354:DriverControl.c **** *******************************************************************************/
 355:DriverControl.c **** int16 getMaxTemperature(enum TemperaturePoint channelNumber)
 356:DriverControl.c **** {
 357:DriverControl.c ****     if(channelNumber < LED || channelNumber > MICRO)
 358:DriverControl.c ****         return 0;
 359:DriverControl.c ****     
 360:DriverControl.c ****     return ThermalLimitArray[channelNumber].MAX_TEMPERATURE;
 361:DriverControl.c **** }
 362:DriverControl.c **** 
 363:DriverControl.c **** /*******************************************************************************
 364:DriverControl.c **** * Function Name: getTemperatureSample
 365:DriverControl.c **** ********************************************************************************
 366:DriverControl.c **** *
 367:DriverControl.c **** * Summary:
 368:DriverControl.c **** *  Obtains the next temperature sample(s) from ADC. This function can return a
 369:DriverControl.c **** *  single sample or multiple samples in one call.
 370:DriverControl.c **** *
 371:DriverControl.c **** * Parameters:
 372:DriverControl.c **** *  bSingleSample: TRUE for single sample, FALSE for multiple samples
 373:DriverControl.c **** *  channelNumber: Channel selection for single sample: LED, SWITCH_NODE, AMBIENT, or MICRO
ARM GAS  C:\Users\kylep\AppData\Local\Temp\ccxuMgqY.s 			page 8


 374:DriverControl.c **** *  sampleArray: Reference to the array that contains 4 temperature samples
 375:DriverControl.c **** *  length: Size of the array in # of temperature points
 376:DriverControl.c **** *
 377:DriverControl.c **** * Return:
 378:DriverControl.c **** *  Single temperature value or Reference to array of 4 temperature samples
 379:DriverControl.c **** *
 380:DriverControl.c **** *******************************************************************************/
 381:DriverControl.c **** int16 getTemperatureSample(uint8 bSingleSample, enum TemperaturePoint channelNumber, 
 382:DriverControl.c ****     int16* sampleArray, uint8 length)
 383:DriverControl.c **** {  
 384:DriverControl.c ****     uint8 ADC_WaitCount = 0;
 385:DriverControl.c ****     int16 temperatureSample_16 = 0;
 386:DriverControl.c ****     float temperatureSample_float = 0;
 387:DriverControl.c ****     uint32 channelIndex = 0;    
 388:DriverControl.c ****     
 389:DriverControl.c ****     if((bSingleSample != TRUE) && (bSingleSample != FALSE))
 390:DriverControl.c ****         return 0;
 391:DriverControl.c ****     
 392:DriverControl.c ****     if(bSingleSample)
 393:DriverControl.c ****     {   //Input check for single sample
 394:DriverControl.c ****         if(channelNumber < LED || channelNumber > VOLTAGE_SENSE)
 395:DriverControl.c ****             return 0;
 396:DriverControl.c ****     }
 397:DriverControl.c ****     else
 398:DriverControl.c ****     {   //Input check for multiple samples
 399:DriverControl.c ****         if(sampleArray == NULL || length > ADC_SAMPLE_COUNT)
 400:DriverControl.c ****             return 0;
 401:DriverControl.c ****     }
 402:DriverControl.c ****     
 403:DriverControl.c ****     while(!ADC_SAR_Seq_IsEndConversion(ADC_SAR_Seq_RETURN_STATUS) 
 404:DriverControl.c ****         && (ADC_WaitCount < MAX_ADC_CONVERSION_WAIT_LIMIT))
 405:DriverControl.c ****     {   //Wait for ADC conversion to complete
 406:DriverControl.c ****         ADC_WaitCount++;
 407:DriverControl.c ****         CyDelayUs(8);
 408:DriverControl.c ****     }
 409:DriverControl.c ****     
 410:DriverControl.c ****     if(ADC_WaitCount > MAX_ADC_CONVERSION_WAIT_LIMIT)
 411:DriverControl.c ****         return 0;   //For case when conversion doesn't complete
 412:DriverControl.c ****     
 413:DriverControl.c ****     if(bSingleSample)
 414:DriverControl.c ****     {   //Get single sample
 415:DriverControl.c ****         if(channelNumber == MICRO)
 416:DriverControl.c ****         {
 417:DriverControl.c ****             //temperatureSample_float = (float)(ADC_SAR_Seq_GetResult16(VOLTAGE_SENSE));
 418:DriverControl.c ****             temperatureSample_float = temperatureSample_float * 5 / 1.024;
 419:DriverControl.c ****             temperatureSample_16 = (int16)(DieTemp_CountsTo_Celsius((int32)(temperatureSample_float
 420:DriverControl.c ****         }
 421:DriverControl.c ****         else
 422:DriverControl.c ****         {
 423:DriverControl.c ****             if(channelNumber == VOLTAGE_SENSE)
 424:DriverControl.c ****                 temperatureSample_16 = ADC_SAR_Seq_GetResult16((uint32)(MICRO));
 425:DriverControl.c ****             else
 426:DriverControl.c ****                 temperatureSample_16 = ADC_SAR_Seq_GetResult16((uint32)(channelNumber));
 427:DriverControl.c ****         }
 428:DriverControl.c ****     }
 429:DriverControl.c ****     else
 430:DriverControl.c ****     {   //Get 4 temperature samples
ARM GAS  C:\Users\kylep\AppData\Local\Temp\ccxuMgqY.s 			page 9


 431:DriverControl.c ****         for(channelIndex = 0; channelIndex < (ADC_SAMPLE_COUNT - 2); channelIndex++)
 432:DriverControl.c ****         {
 433:DriverControl.c ****             temperatureSample_16 = ADC_SAR_Seq_GetResult16(channelIndex);
 434:DriverControl.c ****             sampleArray[channelIndex] = temperatureSample_16;
 435:DriverControl.c ****         }
 436:DriverControl.c ****             
 437:DriverControl.c ****         //temperatureSample_float = (float)(ADC_SAR_Seq_GetResult16(MICRO));
 438:DriverControl.c ****         //temperatureSample_float = temperatureSample_float * 5 / 1.024;
 439:DriverControl.c ****         //sampleArray[ADC_SAMPLE_COUNT - 2]
 440:DriverControl.c ****         //    = (int16)(DieTemp_CountsTo_Celsius((int32)(temperatureSample_float)));
 441:DriverControl.c ****             
 442:DriverControl.c ****         //temperatureSample_16 = ADC_SAR_Seq_GetResult16(MICRO);
 443:DriverControl.c ****         //    sampleArray[ADC_SAMPLE_COUNT - 1] = temperatureSample_16;
 444:DriverControl.c ****     }
 445:DriverControl.c ****     
 446:DriverControl.c ****     return temperatureSample_16;
 447:DriverControl.c **** }
 448:DriverControl.c **** 
 449:DriverControl.c **** /*******************************************************************************
 450:DriverControl.c **** * Function Name: getNewMaxBrightness
 451:DriverControl.c **** ********************************************************************************
 452:DriverControl.c **** *
 453:DriverControl.c **** * Summary:
 454:DriverControl.c **** *  Returns the new max brightness that was adjusted during regulation.
 455:DriverControl.c **** *
 456:DriverControl.c **** * Parameters:
 457:DriverControl.c **** *  None
 458:DriverControl.c **** *
 459:DriverControl.c **** * Return:
 460:DriverControl.c **** *  Adjusted max brightness
 461:DriverControl.c **** *
 462:DriverControl.c **** *******************************************************************************/
 463:DriverControl.c **** uint8 getNewMaxBrightness(void)
 464:DriverControl.c **** {
 465:DriverControl.c ****     return RegulationData.scalingFactor;
 466:DriverControl.c **** }
 467:DriverControl.c **** 
 468:DriverControl.c **** /*******************************************************************************
 469:DriverControl.c **** * Function Name: regulateBrightness
 470:DriverControl.c **** ********************************************************************************
 471:DriverControl.c **** *
 472:DriverControl.c **** * Summary:
 473:DriverControl.c **** *  Adjusts the brightness of the LED based on 4 temperature readings
 474:DriverControl.c **** *  and the current regulation state.
 475:DriverControl.c **** *
 476:DriverControl.c **** * Parameters:
 477:DriverControl.c **** *  TemperatureData: Reference to the 4 temperature points
 478:DriverControl.c **** *  length: Size of array in # of temperature points
 479:DriverControl.c **** *
 480:DriverControl.c **** * Return:
 481:DriverControl.c **** *  The updated brightness based on regulation
 482:DriverControl.c **** *
 483:DriverControl.c **** *******************************************************************************/
 484:DriverControl.c **** uint8 regulateBrightness(int16* TemperatureData, uint8 length)
 485:DriverControl.c **** {
 486:DriverControl.c ****     static uint8 timerCountLocal = 0;
 487:DriverControl.c ****     enum TemperatureStatus temperatureStatus = WITHIN_TOLERANCE;
ARM GAS  C:\Users\kylep\AppData\Local\Temp\ccxuMgqY.s 			page 10


 488:DriverControl.c ****     
 489:DriverControl.c ****     if(TemperatureData == NULL || length > ADC_SAMPLE_COUNT || PositionData.ID_Number != 1)
 490:DriverControl.c ****         return 0;
 491:DriverControl.c ****     
 492:DriverControl.c ****     switch(RegulationData.currentState)
 493:DriverControl.c ****     {
 494:DriverControl.c ****         case STARTUP:
 495:DriverControl.c ****             if((timerCountLocal % SAMPLE_COUNT_PER_CYCLE) == 0)
 496:DriverControl.c ****             {
 497:DriverControl.c ****                 RegulationData.scalingFactor = MAX_SCALING_FACTOR;
 498:DriverControl.c ****                 RegulationData.regulatedBrightness = RegulationData.requestedBrightness;
 499:DriverControl.c ****             }
 500:DriverControl.c ****             if((timerCountLocal % (SAMPLE_COUNT_PER_CYCLE * BRIGHTNESS_CHANGE_PER_SAMPLE)) == 0)
 501:DriverControl.c ****             {
 502:DriverControl.c ****                 temperatureStatus = getTemperatureStatus(TemperatureData, length, 0);
 503:DriverControl.c ****                 if(temperatureStatus == EXCEEDED_UPPER_BOUND)
 504:DriverControl.c ****                     RegulationData.currentState = STEADY_DECREASE;
 505:DriverControl.c ****             }
 506:DriverControl.c ****             break;            
 507:DriverControl.c ****         case STEADY_DECREASE:  
 508:DriverControl.c ****             if((timerCountLocal % SAMPLE_COUNT_PER_CYCLE) == 0)
 509:DriverControl.c ****             {
 510:DriverControl.c ****                 if(RegulationData.scalingFactor > 0)
 511:DriverControl.c ****                     RegulationData.scalingFactor--;
 512:DriverControl.c ****             
 513:DriverControl.c ****                 RegulationData.regulatedBrightness = (uint8)((uint16)(RegulationData.requestedBrigh
 514:DriverControl.c ****                     (uint16)(RegulationData.scalingFactor) / MAX_SCALING_FACTOR);
 515:DriverControl.c ****             }
 516:DriverControl.c ****             if((timerCountLocal % (SAMPLE_COUNT_PER_CYCLE * BRIGHTNESS_CHANGE_PER_SAMPLE)) == 0)
 517:DriverControl.c ****             {
 518:DriverControl.c ****                             temperatureStatus = getTemperatureStatus(TemperatureData, length,
 519:DriverControl.c ****                     SAFE_TEMPERATURE_TOLERANCE);
 520:DriverControl.c ****                 
 521:DriverControl.c ****                 if(temperatureStatus == WITHIN_TOLERANCE)
 522:DriverControl.c ****                     RegulationData.currentState = NO_CHANGE;
 523:DriverControl.c ****                 else if(temperatureStatus == EXCEEDED_LOWER_BOUND)
 524:DriverControl.c ****                     RegulationData.currentState = STEADY_INCREASE;
 525:DriverControl.c ****             }
 526:DriverControl.c ****             break;
 527:DriverControl.c ****         case STEADY_INCREASE:
 528:DriverControl.c ****             if((timerCountLocal % SAMPLE_COUNT_PER_CYCLE) == 0)
 529:DriverControl.c ****             {
 530:DriverControl.c ****                 if(RegulationData.scalingFactor < MAX_SCALING_FACTOR)
 531:DriverControl.c ****                     RegulationData.scalingFactor++;
 532:DriverControl.c ****             
 533:DriverControl.c ****                 RegulationData.regulatedBrightness = (uint8)((uint16)(RegulationData.requestedBrigh
 534:DriverControl.c ****                     (uint16)(RegulationData.scalingFactor) / MAX_SCALING_FACTOR);
 535:DriverControl.c ****             }
 536:DriverControl.c ****             if((timerCountLocal % (SAMPLE_COUNT_PER_CYCLE * BRIGHTNESS_CHANGE_PER_SAMPLE)) == 0)
 537:DriverControl.c ****             {
 538:DriverControl.c ****                 temperatureStatus = getTemperatureStatus(TemperatureData, length,
 539:DriverControl.c ****                     SAFE_TEMPERATURE_TOLERANCE);
 540:DriverControl.c ****                 
 541:DriverControl.c ****                 if(temperatureStatus == EXCEEDED_UPPER_BOUND)
 542:DriverControl.c ****                     RegulationData.currentState = STEADY_DECREASE;
 543:DriverControl.c ****                 else if(temperatureStatus == WITHIN_TOLERANCE)
 544:DriverControl.c ****                     RegulationData.currentState = NO_CHANGE;
ARM GAS  C:\Users\kylep\AppData\Local\Temp\ccxuMgqY.s 			page 11


 545:DriverControl.c ****             }
 546:DriverControl.c ****             break;
 547:DriverControl.c ****         case NO_CHANGE:
 548:DriverControl.c ****             if((timerCountLocal % SAMPLE_COUNT_PER_CYCLE) == 0)
 549:DriverControl.c ****             {
 550:DriverControl.c ****                 RegulationData.regulatedBrightness = (uint8)((uint16)(RegulationData.requestedBrigh
 551:DriverControl.c ****                     (uint16)(RegulationData.scalingFactor) / MAX_SCALING_FACTOR);
 552:DriverControl.c ****             }
 553:DriverControl.c ****             if((timerCountLocal % (SAMPLE_COUNT_PER_CYCLE * BRIGHTNESS_CHANGE_PER_SAMPLE)) == 0)
 554:DriverControl.c ****             {
 555:DriverControl.c ****                 temperatureStatus = getTemperatureStatus(TemperatureData, length,
 556:DriverControl.c ****                     SAFE_TEMPERATURE_TOLERANCE);
 557:DriverControl.c ****                 
 558:DriverControl.c ****                 if(temperatureStatus == EXCEEDED_UPPER_BOUND)
 559:DriverControl.c ****                     RegulationData.currentState = STEADY_DECREASE;
 560:DriverControl.c ****                 else if(temperatureStatus == EXCEEDED_LOWER_BOUND)
 561:DriverControl.c ****                     RegulationData.currentState = STEADY_INCREASE;
 562:DriverControl.c ****             }
 563:DriverControl.c ****             break;
 564:DriverControl.c ****     }
 565:DriverControl.c ****     
 566:DriverControl.c ****     timerCountLocal = (timerCountLocal + 1) % (SAMPLE_COUNT_PER_CYCLE * BRIGHTNESS_CHANGE_PER_SAMPL
 567:DriverControl.c ****     return RegulationData.regulatedBrightness;    
 568:DriverControl.c **** }
 569:DriverControl.c **** 
 570:DriverControl.c **** uint8 regulateBrightnessFaster(int16* TemperatureData, uint8 length)
 571:DriverControl.c **** {
 572:DriverControl.c ****     static uint8 timerCountLocalFaster = 0;
 573:DriverControl.c ****     enum TemperatureStatus temperatureStatusFaster = WITHIN_TOLERANCE;
 574:DriverControl.c ****     
 575:DriverControl.c ****     if(TemperatureData == NULL || length > ADC_SAMPLE_COUNT || PositionData.ID_Number != 1)
 576:DriverControl.c ****         return 0;
 577:DriverControl.c ****     
 578:DriverControl.c ****     switch(RegulationDataFast.currentState)
 579:DriverControl.c ****     {
 580:DriverControl.c ****         case STARTUP:
 581:DriverControl.c ****             if((timerCountLocalFaster % SAMPLE_COUNT_PER_CYCLE) == 0)
 582:DriverControl.c ****             {
 583:DriverControl.c ****                 RegulationDataFast.scalingFactor = MAX_SCALING_FACTOR;
 584:DriverControl.c ****                 RegulationDataFast.regulatedBrightness = RegulationDataFast.requestedBrightness;
 585:DriverControl.c ****             }
 586:DriverControl.c ****             if((timerCountLocalFaster % (SAMPLE_COUNT_PER_CYCLE * BRIGHTNESS_CHANGE_PER_SAMPLE)) ==
 587:DriverControl.c ****             {
 588:DriverControl.c ****                 temperatureStatusFaster = getTemperatureStatus(TemperatureData, length, 0);
 589:DriverControl.c ****                 if(temperatureStatusFaster == EXCEEDED_UPPER_BOUND)
 590:DriverControl.c ****                     RegulationDataFast.currentState = STEADY_DECREASE;
 591:DriverControl.c ****             }
 592:DriverControl.c ****             break;            
 593:DriverControl.c ****         case STEADY_DECREASE:  
 594:DriverControl.c ****             if((timerCountLocalFaster % SAMPLE_COUNT_PER_CYCLE) == 0)
 595:DriverControl.c ****             {
 596:DriverControl.c ****                 if(RegulationDataFast.scalingFactor > 0)
 597:DriverControl.c ****                     RegulationDataFast.scalingFactor--;
 598:DriverControl.c ****             
 599:DriverControl.c ****                 RegulationDataFast.regulatedBrightness = (uint8)((uint16)(RegulationDataFast.reques
 600:DriverControl.c ****                     (uint16)(RegulationDataFast.scalingFactor) / MAX_SCALING_FACTOR);
 601:DriverControl.c ****             }
ARM GAS  C:\Users\kylep\AppData\Local\Temp\ccxuMgqY.s 			page 12


 602:DriverControl.c ****             if((timerCountLocalFaster % (SAMPLE_COUNT_PER_CYCLE * BRIGHTNESS_CHANGE_PER_SAMPLE)) ==
 603:DriverControl.c ****             {
 604:DriverControl.c ****                             temperatureStatusFaster = getTemperatureStatus(TemperatureData, length,
 605:DriverControl.c ****                     SAFE_TEMPERATURE_TOLERANCE);
 606:DriverControl.c ****                 
 607:DriverControl.c ****                 if(temperatureStatusFaster == WITHIN_TOLERANCE)
 608:DriverControl.c ****                     RegulationDataFast.currentState = NO_CHANGE;
 609:DriverControl.c ****                 else if(temperatureStatusFaster == EXCEEDED_LOWER_BOUND)
 610:DriverControl.c ****                     RegulationDataFast.currentState = STEADY_INCREASE;
 611:DriverControl.c ****             }
 612:DriverControl.c ****             break;
 613:DriverControl.c ****         case STEADY_INCREASE:
 614:DriverControl.c ****             if((timerCountLocalFaster % SAMPLE_COUNT_PER_CYCLE) == 0)
 615:DriverControl.c ****             {
 616:DriverControl.c ****                 if(RegulationDataFast.scalingFactor < MAX_SCALING_FACTOR)
 617:DriverControl.c ****                     RegulationDataFast.scalingFactor++;
 618:DriverControl.c ****             
 619:DriverControl.c ****                 RegulationDataFast.regulatedBrightness = (uint8)((uint16)(RegulationDataFast.reques
 620:DriverControl.c ****                     (uint16)(RegulationDataFast.scalingFactor) / MAX_SCALING_FACTOR);
 621:DriverControl.c ****             }
 622:DriverControl.c ****             if((timerCountLocalFaster % (SAMPLE_COUNT_PER_CYCLE * BRIGHTNESS_CHANGE_PER_SAMPLE)) ==
 623:DriverControl.c ****             {
 624:DriverControl.c ****                 temperatureStatusFaster = getTemperatureStatus(TemperatureData, length,
 625:DriverControl.c ****                     SAFE_TEMPERATURE_TOLERANCE);
 626:DriverControl.c ****                 
 627:DriverControl.c ****                 if(temperatureStatusFaster == EXCEEDED_UPPER_BOUND)
 628:DriverControl.c ****                     RegulationDataFast.currentState = STEADY_DECREASE;
 629:DriverControl.c ****                 else if(temperatureStatusFaster == WITHIN_TOLERANCE)
 630:DriverControl.c ****                     RegulationDataFast.currentState = NO_CHANGE;
 631:DriverControl.c ****             }
 632:DriverControl.c ****             break;
 633:DriverControl.c ****         case NO_CHANGE:
 634:DriverControl.c ****             if((timerCountLocalFaster % SAMPLE_COUNT_PER_CYCLE) == 0)
 635:DriverControl.c ****             {
 636:DriverControl.c ****                 RegulationDataFast.regulatedBrightness = (uint8)((uint16)(RegulationDataFast.reques
 637:DriverControl.c ****                     (uint16)(RegulationDataFast.scalingFactor) / MAX_SCALING_FACTOR);
 638:DriverControl.c ****             }
 639:DriverControl.c ****             if((timerCountLocalFaster % (SAMPLE_COUNT_PER_CYCLE * BRIGHTNESS_CHANGE_PER_SAMPLE)) ==
 640:DriverControl.c ****             {
 641:DriverControl.c ****                 temperatureStatusFaster = getTemperatureStatus(TemperatureData, length,
 642:DriverControl.c ****                     SAFE_TEMPERATURE_TOLERANCE);
 643:DriverControl.c ****                 
 644:DriverControl.c ****                 if(temperatureStatusFaster == EXCEEDED_UPPER_BOUND)
 645:DriverControl.c ****                     RegulationDataFast.currentState = STEADY_DECREASE;
 646:DriverControl.c ****                 else if(temperatureStatusFaster == EXCEEDED_LOWER_BOUND)
 647:DriverControl.c ****                     RegulationDataFast.currentState = STEADY_INCREASE;
 648:DriverControl.c ****             }
 649:DriverControl.c ****             break;
 650:DriverControl.c ****     }
 651:DriverControl.c ****     
 652:DriverControl.c ****     timerCountLocalFaster = (timerCountLocalFaster + 1) % (SAMPLE_COUNT_PER_CYCLE * BRIGHTNESS_CHAN
 653:DriverControl.c ****     return RegulationDataFast.regulatedBrightness;    
 654:DriverControl.c **** }
 655:DriverControl.c **** 
 656:DriverControl.c **** /**********DEFINED LOCAL FUNCTIONS**********/
 657:DriverControl.c **** /*******************************************************************************
 658:DriverControl.c **** * Function Name: getTemperatureStatus
ARM GAS  C:\Users\kylep\AppData\Local\Temp\ccxuMgqY.s 			page 13


 659:DriverControl.c **** ********************************************************************************
 660:DriverControl.c **** *
 661:DriverControl.c **** * Summary:
 662:DriverControl.c **** *  Returns temperature status based on 4 temperature points
 663:DriverControl.c **** *
 664:DriverControl.c **** * Parameters:
 665:DriverControl.c **** *  TemperatureData: Reference to the 4 temperature samples to check
 666:DriverControl.c **** *  length: Size of int16 array
 667:DriverControl.c **** *  tolerance: Tolerance amount for regulation (Range: temperature +/- tolerance)
 668:DriverControl.c **** *
 669:DriverControl.c **** * Return:
 670:DriverControl.c **** *  EXCEEDED_UPPER_BOUND, EXCEEDED_LOWER_BOUND, or WITHIN_TOLERANCE as valid inputs,
 671:DriverControl.c **** *  ERROR otherwise
 672:DriverControl.c **** *
 673:DriverControl.c **** *******************************************************************************/
 674:DriverControl.c **** static enum TemperatureStatus getTemperatureStatus(int16* TemperatureData,
 675:DriverControl.c ****     uint8 length, int16 tolerance)
 676:DriverControl.c **** {
  27              		.loc 1 676 0
  28              		.cfi_startproc
  29              		@ args = 0, pretend = 0, frame = 0
  30              		@ frame_needed = 0, uses_anonymous_args = 0
  31              	.LVL0:
  32 0000 70B5     		push	{r4, r5, r6, lr}
  33              		.cfi_def_cfa_offset 16
  34              		.cfi_offset 4, -16
  35              		.cfi_offset 5, -12
  36              		.cfi_offset 6, -8
  37              		.cfi_offset 14, -4
  38              	.LVL1:
 677:DriverControl.c ****     enum TemperaturePoint dataIndex = LED;
 678:DriverControl.c ****     
 679:DriverControl.c ****     if(TemperatureData == NULL)
  39              		.loc 1 679 0
  40 0002 0028     		cmp	r0, #0
  41 0004 1FD0     		beq	.L7
 680:DriverControl.c ****         return ERROR;
 681:DriverControl.c ****     
 682:DriverControl.c ****     if(length > ADC_SAMPLE_COUNT)
  42              		.loc 1 682 0
  43 0006 0429     		cmp	r1, #4
  44 0008 1FD8     		bhi	.L8
  45 000a 0023     		movs	r3, #0
  46 000c 09E0     		b	.L3
  47              	.LVL2:
  48              	.L4:
 683:DriverControl.c ****         return ERROR;
 684:DriverControl.c ****     
 685:DriverControl.c ****     for(dataIndex = LED; dataIndex < length; dataIndex++)
 686:DriverControl.c ****     {
 687:DriverControl.c ****         if(TemperatureData[dataIndex] > 
  49              		.loc 1 687 0
  50 000e 5C00     		lsls	r4, r3, #1
  51 0010 255E     		ldrsh	r5, [r4, r0]
 688:DriverControl.c ****             (ThermalLimitArray[dataIndex].MAX_TEMPERATURE + tolerance))
  52              		.loc 1 688 0
  53 0012 9C00     		lsls	r4, r3, #2
ARM GAS  C:\Users\kylep\AppData\Local\Temp\ccxuMgqY.s 			page 14


  54 0014 104E     		ldr	r6, .L11
  55 0016 A45F     		ldrsh	r4, [r4, r6]
  56 0018 A418     		adds	r4, r4, r2
 687:DriverControl.c ****             (ThermalLimitArray[dataIndex].MAX_TEMPERATURE + tolerance))
  57              		.loc 1 687 0
  58 001a A542     		cmp	r5, r4
  59 001c 17DC     		bgt	.L9
 685:DriverControl.c ****     {
  60              		.loc 1 685 0 discriminator 2
  61 001e 0133     		adds	r3, r3, #1
  62              	.LVL3:
  63 0020 DBB2     		uxtb	r3, r3
  64              	.LVL4:
  65              	.L3:
 685:DriverControl.c ****     {
  66              		.loc 1 685 0 is_stmt 0 discriminator 1
  67 0022 8B42     		cmp	r3, r1
  68 0024 F3D3     		bcc	.L4
  69 0026 0023     		movs	r3, #0
  70              	.LVL5:
  71 0028 09E0     		b	.L5
  72              	.LVL6:
  73              	.L6:
 689:DriverControl.c ****             return EXCEEDED_UPPER_BOUND;
 690:DriverControl.c ****     }
 691:DriverControl.c ****     
 692:DriverControl.c ****     for(dataIndex = LED; dataIndex < length; dataIndex++)
 693:DriverControl.c ****     {
 694:DriverControl.c ****         if(TemperatureData[dataIndex] < 
  74              		.loc 1 694 0 is_stmt 1
  75 002a 5C00     		lsls	r4, r3, #1
  76 002c 255E     		ldrsh	r5, [r4, r0]
 695:DriverControl.c ****             (ThermalLimitArray[dataIndex].MAX_TEMPERATURE - tolerance))
  77              		.loc 1 695 0
  78 002e 9C00     		lsls	r4, r3, #2
  79 0030 094E     		ldr	r6, .L11
  80 0032 A45F     		ldrsh	r4, [r4, r6]
  81 0034 A41A     		subs	r4, r4, r2
 694:DriverControl.c ****             (ThermalLimitArray[dataIndex].MAX_TEMPERATURE - tolerance))
  82              		.loc 1 694 0
  83 0036 A542     		cmp	r5, r4
  84 0038 0BDB     		blt	.L10
 692:DriverControl.c ****     {
  85              		.loc 1 692 0 discriminator 2
  86 003a 0133     		adds	r3, r3, #1
  87              	.LVL7:
  88 003c DBB2     		uxtb	r3, r3
  89              	.LVL8:
  90              	.L5:
 692:DriverControl.c ****     {
  91              		.loc 1 692 0 is_stmt 0 discriminator 1
  92 003e 8B42     		cmp	r3, r1
  93 0040 F3D3     		bcc	.L6
 696:DriverControl.c ****             return EXCEEDED_LOWER_BOUND;
 697:DriverControl.c ****     }
 698:DriverControl.c ****     
 699:DriverControl.c ****     return WITHIN_TOLERANCE;
ARM GAS  C:\Users\kylep\AppData\Local\Temp\ccxuMgqY.s 			page 15


  94              		.loc 1 699 0 is_stmt 1
  95 0042 0020     		movs	r0, #0
  96              	.LVL9:
  97 0044 06E0     		b	.L2
  98              	.LVL10:
  99              	.L7:
 680:DriverControl.c ****     
 100              		.loc 1 680 0
 101 0046 0320     		movs	r0, #3
 102              	.LVL11:
 103 0048 04E0     		b	.L2
 104              	.LVL12:
 105              	.L8:
 683:DriverControl.c ****     
 106              		.loc 1 683 0
 107 004a 0320     		movs	r0, #3
 108              	.LVL13:
 109 004c 02E0     		b	.L2
 110              	.LVL14:
 111              	.L9:
 689:DriverControl.c ****     }
 112              		.loc 1 689 0
 113 004e 0120     		movs	r0, #1
 114              	.LVL15:
 115 0050 00E0     		b	.L2
 116              	.LVL16:
 117              	.L10:
 696:DriverControl.c ****     }
 118              		.loc 1 696 0
 119 0052 0220     		movs	r0, #2
 120              	.LVL17:
 121              	.L2:
 700:DriverControl.c **** }
 122              		.loc 1 700 0
 123              		@ sp needed
 124 0054 70BD     		pop	{r4, r5, r6, pc}
 125              	.L12:
 126 0056 C046     		.align	2
 127              	.L11:
 128 0058 00000000 		.word	.LANCHOR0
 129              		.cfi_endproc
 130              	.LFE46:
 131              		.size	getTemperatureStatus, .-getTemperatureStatus
 132              		.section	.text.getPreviousBrightness,"ax",%progbits
 133              		.align	2
 134              		.global	getPreviousBrightness
 135              		.code	16
 136              		.thumb_func
 137              		.type	getPreviousBrightness, %function
 138              	getPreviousBrightness:
 139              	.LFB32:
 104:DriverControl.c ****     return RegulationData.previousBrightness;
 140              		.loc 1 104 0
 141              		.cfi_startproc
 142              		@ args = 0, pretend = 0, frame = 0
 143              		@ frame_needed = 0, uses_anonymous_args = 0
 144              		@ link register save eliminated.
ARM GAS  C:\Users\kylep\AppData\Local\Temp\ccxuMgqY.s 			page 16


 105:DriverControl.c **** }
 145              		.loc 1 105 0
 146 0000 014B     		ldr	r3, .L14
 147 0002 9878     		ldrb	r0, [r3, #2]
 106:DriverControl.c **** 
 148              		.loc 1 106 0
 149              		@ sp needed
 150 0004 7047     		bx	lr
 151              	.L15:
 152 0006 C046     		.align	2
 153              	.L14:
 154 0008 00000000 		.word	.LANCHOR1
 155              		.cfi_endproc
 156              	.LFE32:
 157              		.size	getPreviousBrightness, .-getPreviousBrightness
 158              		.section	.text.getDriverID,"ax",%progbits
 159              		.align	2
 160              		.global	getDriverID
 161              		.code	16
 162              		.thumb_func
 163              		.type	getDriverID, %function
 164              	getDriverID:
 165              	.LFB33:
 123:DriverControl.c ****     return PositionData.ID_Number;
 166              		.loc 1 123 0
 167              		.cfi_startproc
 168              		@ args = 0, pretend = 0, frame = 0
 169              		@ frame_needed = 0, uses_anonymous_args = 0
 170              		@ link register save eliminated.
 124:DriverControl.c **** }
 171              		.loc 1 124 0
 172 0000 014B     		ldr	r3, .L17
 173 0002 187A     		ldrb	r0, [r3, #8]
 125:DriverControl.c **** 
 174              		.loc 1 125 0
 175              		@ sp needed
 176 0004 7047     		bx	lr
 177              	.L18:
 178 0006 C046     		.align	2
 179              	.L17:
 180 0008 00000000 		.word	.LANCHOR1
 181              		.cfi_endproc
 182              	.LFE33:
 183              		.size	getDriverID, .-getDriverID
 184              		.section	.text.setIdentityByComm,"ax",%progbits
 185              		.align	2
 186              		.global	setIdentityByComm
 187              		.code	16
 188              		.thumb_func
 189              		.type	setIdentityByComm, %function
 190              	setIdentityByComm:
 191              	.LFB34:
 143:DriverControl.c ****     if(positionNumber < HEAD_MODULE_ID || positionNumber > MAX_DRIVER_COUNT)
 192              		.loc 1 143 0
 193              		.cfi_startproc
 194              		@ args = 0, pretend = 0, frame = 0
 195              		@ frame_needed = 0, uses_anonymous_args = 0
ARM GAS  C:\Users\kylep\AppData\Local\Temp\ccxuMgqY.s 			page 17


 196              		@ link register save eliminated.
 197              	.LVL18:
 144:DriverControl.c ****         return FAILURE;
 198              		.loc 1 144 0
 199 0000 431E     		subs	r3, r0, #1
 200 0002 DBB2     		uxtb	r3, r3
 201 0004 072B     		cmp	r3, #7
 202 0006 03D8     		bhi	.L21
 147:DriverControl.c ****     
 203              		.loc 1 147 0
 204 0008 024B     		ldr	r3, .L22
 205 000a 1872     		strb	r0, [r3, #8]
 149:DriverControl.c **** }
 206              		.loc 1 149 0
 207 000c 0020     		movs	r0, #0
 208              	.LVL19:
 209 000e 00E0     		b	.L20
 210              	.LVL20:
 211              	.L21:
 145:DriverControl.c ****     
 212              		.loc 1 145 0
 213 0010 0120     		movs	r0, #1
 214              	.LVL21:
 215              	.L20:
 150:DriverControl.c **** 
 216              		.loc 1 150 0
 217              		@ sp needed
 218 0012 7047     		bx	lr
 219              	.L23:
 220              		.align	2
 221              	.L22:
 222 0014 00000000 		.word	.LANCHOR1
 223              		.cfi_endproc
 224              	.LFE34:
 225              		.size	setIdentityByComm, .-setIdentityByComm
 226              		.section	.text.setDriverCount,"ax",%progbits
 227              		.align	2
 228              		.global	setDriverCount
 229              		.code	16
 230              		.thumb_func
 231              		.type	setDriverCount, %function
 232              	setDriverCount:
 233              	.LFB35:
 167:DriverControl.c ****     if(newDriverCount < HEAD_MODULE_ID || newDriverCount > MAX_DRIVER_COUNT)
 234              		.loc 1 167 0
 235              		.cfi_startproc
 236              		@ args = 0, pretend = 0, frame = 0
 237              		@ frame_needed = 0, uses_anonymous_args = 0
 238              		@ link register save eliminated.
 239              	.LVL22:
 168:DriverControl.c ****         return FAILURE;
 240              		.loc 1 168 0
 241 0000 431E     		subs	r3, r0, #1
 242 0002 DBB2     		uxtb	r3, r3
 243 0004 072B     		cmp	r3, #7
 244 0006 03D8     		bhi	.L26
 171:DriverControl.c ****     
ARM GAS  C:\Users\kylep\AppData\Local\Temp\ccxuMgqY.s 			page 18


 245              		.loc 1 171 0
 246 0008 024B     		ldr	r3, .L27
 247 000a 5872     		strb	r0, [r3, #9]
 173:DriverControl.c **** }
 248              		.loc 1 173 0
 249 000c 0020     		movs	r0, #0
 250              	.LVL23:
 251 000e 00E0     		b	.L25
 252              	.LVL24:
 253              	.L26:
 169:DriverControl.c ****     
 254              		.loc 1 169 0
 255 0010 0120     		movs	r0, #1
 256              	.LVL25:
 257              	.L25:
 174:DriverControl.c **** 
 258              		.loc 1 174 0
 259              		@ sp needed
 260 0012 7047     		bx	lr
 261              	.L28:
 262              		.align	2
 263              	.L27:
 264 0014 00000000 		.word	.LANCHOR1
 265              		.cfi_endproc
 266              	.LFE35:
 267              		.size	setDriverCount, .-setDriverCount
 268              		.section	.text.isLastDriverInChain,"ax",%progbits
 269              		.align	2
 270              		.global	isLastDriverInChain
 271              		.code	16
 272              		.thumb_func
 273              		.type	isLastDriverInChain, %function
 274              	isLastDriverInChain:
 275              	.LFB36:
 191:DriverControl.c ****     return PositionData.bLastDriverInChain;
 276              		.loc 1 191 0
 277              		.cfi_startproc
 278              		@ args = 0, pretend = 0, frame = 0
 279              		@ frame_needed = 0, uses_anonymous_args = 0
 280              		@ link register save eliminated.
 192:DriverControl.c **** }
 281              		.loc 1 192 0
 282 0000 014B     		ldr	r3, .L30
 283 0002 987A     		ldrb	r0, [r3, #10]
 193:DriverControl.c **** 
 284              		.loc 1 193 0
 285              		@ sp needed
 286 0004 7047     		bx	lr
 287              	.L31:
 288 0006 C046     		.align	2
 289              	.L30:
 290 0008 00000000 		.word	.LANCHOR1
 291              		.cfi_endproc
 292              	.LFE36:
 293              		.size	isLastDriverInChain, .-isLastDriverInChain
 294              		.section	.text.setAsNotLastDriverInChain,"ax",%progbits
 295              		.align	2
ARM GAS  C:\Users\kylep\AppData\Local\Temp\ccxuMgqY.s 			page 19


 296              		.global	setAsNotLastDriverInChain
 297              		.code	16
 298              		.thumb_func
 299              		.type	setAsNotLastDriverInChain, %function
 300              	setAsNotLastDriverInChain:
 301              	.LFB37:
 212:DriverControl.c ****     PositionData.bLastDriverInChain = FALSE;
 302              		.loc 1 212 0
 303              		.cfi_startproc
 304              		@ args = 0, pretend = 0, frame = 0
 305              		@ frame_needed = 0, uses_anonymous_args = 0
 306              		@ link register save eliminated.
 213:DriverControl.c **** }
 307              		.loc 1 213 0
 308 0000 0022     		movs	r2, #0
 309 0002 014B     		ldr	r3, .L33
 310 0004 9A72     		strb	r2, [r3, #10]
 214:DriverControl.c **** 
 311              		.loc 1 214 0
 312              		@ sp needed
 313 0006 7047     		bx	lr
 314              	.L34:
 315              		.align	2
 316              	.L33:
 317 0008 00000000 		.word	.LANCHOR1
 318              		.cfi_endproc
 319              	.LFE37:
 320              		.size	setAsNotLastDriverInChain, .-setAsNotLastDriverInChain
 321              		.section	.text.checkForUnderVoltage,"ax",%progbits
 322              		.align	2
 323              		.global	checkForUnderVoltage
 324              		.code	16
 325              		.thumb_func
 326              		.type	checkForUnderVoltage, %function
 327              	checkForUnderVoltage:
 328              	.LFB38:
 231:DriverControl.c ****     if((VoltageSenseData.bEnable == TRUE) && (ADC_Value < VOLTAGE_SENSE_LOWER_BOUND))
 329              		.loc 1 231 0
 330              		.cfi_startproc
 331              		@ args = 0, pretend = 0, frame = 0
 332              		@ frame_needed = 0, uses_anonymous_args = 0
 333              	.LVL26:
 334 0000 70B5     		push	{r4, r5, r6, lr}
 335              		.cfi_def_cfa_offset 16
 336              		.cfi_offset 4, -16
 337              		.cfi_offset 5, -12
 338              		.cfi_offset 6, -8
 339              		.cfi_offset 14, -4
 232:DriverControl.c ****     {
 340              		.loc 1 232 0
 341 0002 0C4B     		ldr	r3, .L38
 342 0004 1B7B     		ldrb	r3, [r3, #12]
 343 0006 012B     		cmp	r3, #1
 344 0008 09D1     		bne	.L36
 232:DriverControl.c ****     {
 345              		.loc 1 232 0 is_stmt 0 discriminator 1
 346 000a 0B4A     		ldr	r2, .L38+4
ARM GAS  C:\Users\kylep\AppData\Local\Temp\ccxuMgqY.s 			page 20


 347 000c 9042     		cmp	r0, r2
 348 000e 06D8     		bhi	.L36
 234:DriverControl.c ****         LED_Timer_Stop();
 349              		.loc 1 234 0 is_stmt 1
 350 0010 084C     		ldr	r4, .L38
 351 0012 0025     		movs	r5, #0
 352 0014 2573     		strb	r5, [r4, #12]
 235:DriverControl.c ****         VoltageSenseData.scalingFactor = 0;
 353              		.loc 1 235 0
 354 0016 FFF7FEFF 		bl	LED_Timer_Stop
 355              	.LVL27:
 236:DriverControl.c ****     }
 356              		.loc 1 236 0
 357 001a 6573     		strb	r5, [r4, #13]
 358 001c 09E0     		b	.L35
 359              	.LVL28:
 360              	.L36:
 238:DriverControl.c ****     {
 361              		.loc 1 238 0
 362 001e 002B     		cmp	r3, #0
 363 0020 07D1     		bne	.L35
 238:DriverControl.c ****     {
 364              		.loc 1 238 0 is_stmt 0 discriminator 1
 365 0022 064B     		ldr	r3, .L38+8
 366 0024 9842     		cmp	r0, r3
 367 0026 04D9     		bls	.L35
 240:DriverControl.c ****         LED_Timer_Start();
 368              		.loc 1 240 0 is_stmt 1
 369 0028 0122     		movs	r2, #1
 370 002a 024B     		ldr	r3, .L38
 371 002c 1A73     		strb	r2, [r3, #12]
 241:DriverControl.c ****     }
 372              		.loc 1 241 0
 373 002e FFF7FEFF 		bl	LED_Timer_Start
 374              	.LVL29:
 375              	.L35:
 243:DriverControl.c **** 
 376              		.loc 1 243 0
 377              		@ sp needed
 378 0032 70BD     		pop	{r4, r5, r6, pc}
 379              	.L39:
 380              		.align	2
 381              	.L38:
 382 0034 00000000 		.word	.LANCHOR1
 383 0038 9D020000 		.word	669
 384 003c 66030000 		.word	870
 385              		.cfi_endproc
 386              	.LFE38:
 387              		.size	checkForUnderVoltage, .-checkForUnderVoltage
 388              		.section	.text.processSoftStart,"ax",%progbits
 389              		.align	2
 390              		.global	processSoftStart
 391              		.code	16
 392              		.thumb_func
 393              		.type	processSoftStart, %function
 394              	processSoftStart:
 395              	.LFB39:
ARM GAS  C:\Users\kylep\AppData\Local\Temp\ccxuMgqY.s 			page 21


 260:DriverControl.c ****     LED_Timer_ClearInterrupt(LED_Timer_INTR_MASK_TC);
 396              		.loc 1 260 0
 397              		.cfi_startproc
 398              		@ args = 0, pretend = 0, frame = 0
 399              		@ frame_needed = 0, uses_anonymous_args = 0
 400 0000 10B5     		push	{r4, lr}
 401              		.cfi_def_cfa_offset 8
 402              		.cfi_offset 4, -8
 403              		.cfi_offset 14, -4
 261:DriverControl.c ****     
 404              		.loc 1 261 0
 405 0002 0120     		movs	r0, #1
 406 0004 FFF7FEFF 		bl	LED_Timer_ClearInterrupt
 407              	.LVL30:
 263:DriverControl.c ****         VoltageSenseData.scalingFactor++;
 408              		.loc 1 263 0
 409 0008 054B     		ldr	r3, .L43
 410 000a 5B7B     		ldrb	r3, [r3, #13]
 411 000c FF2B     		cmp	r3, #255
 412 000e 03D0     		beq	.L41
 264:DriverControl.c ****     else
 413              		.loc 1 264 0
 414 0010 0133     		adds	r3, r3, #1
 415 0012 034A     		ldr	r2, .L43
 416 0014 5373     		strb	r3, [r2, #13]
 417 0016 01E0     		b	.L40
 418              	.L41:
 266:DriverControl.c **** }
 419              		.loc 1 266 0
 420 0018 FFF7FEFF 		bl	LED_Timer_Stop
 421              	.LVL31:
 422              	.L40:
 267:DriverControl.c **** 
 423              		.loc 1 267 0
 424              		@ sp needed
 425 001c 10BD     		pop	{r4, pc}
 426              	.L44:
 427 001e C046     		.align	2
 428              	.L43:
 429 0020 00000000 		.word	.LANCHOR1
 430              		.cfi_endproc
 431              	.LFE39:
 432              		.size	processSoftStart, .-processSoftStart
 433              		.section	.text.updateBrightnessLevel,"ax",%progbits
 434              		.align	2
 435              		.global	updateBrightnessLevel
 436              		.code	16
 437              		.thumb_func
 438              		.type	updateBrightnessLevel, %function
 439              	updateBrightnessLevel:
 440              	.LFB40:
 285:DriverControl.c ****     static uint8 tempBrightness = 0;
 441              		.loc 1 285 0
 442              		.cfi_startproc
 443              		@ args = 0, pretend = 0, frame = 0
 444              		@ frame_needed = 0, uses_anonymous_args = 0
 445              	.LVL32:
ARM GAS  C:\Users\kylep\AppData\Local\Temp\ccxuMgqY.s 			page 22


 446 0000 10B5     		push	{r4, lr}
 447              		.cfi_def_cfa_offset 8
 448              		.cfi_offset 4, -8
 449              		.cfi_offset 14, -4
 289:DriverControl.c ****     return 0;
 450              		.loc 1 289 0
 451 0002 0129     		cmp	r1, #1
 452 0004 43D8     		bhi	.L56
 295:DriverControl.c ****         RegulationData.requestedBrightness = brightnessLevel;
 453              		.loc 1 295 0
 454 0006 234B     		ldr	r3, .L57
 455 0008 1B78     		ldrb	r3, [r3]
 456 000a 8342     		cmp	r3, r0
 457 000c 01D0     		beq	.L47
 296:DriverControl.c ****     
 458              		.loc 1 296 0
 459 000e 214B     		ldr	r3, .L57
 460 0010 1870     		strb	r0, [r3]
 461              	.L47:
 298:DriverControl.c ****     {   
 462              		.loc 1 298 0
 463 0012 204B     		ldr	r3, .L57
 464 0014 1B7A     		ldrb	r3, [r3, #8]
 465 0016 012B     		cmp	r3, #1
 466 0018 01D1     		bne	.L48
 298:DriverControl.c ****     {   
 467              		.loc 1 298 0 is_stmt 0 discriminator 1
 468 001a 0029     		cmp	r1, #0
 469 001c 15D1     		bne	.L49
 470              	.L48:
 300:DriverControl.c ****         {
 471              		.loc 1 300 0 is_stmt 1
 472 001e 1D4B     		ldr	r3, .L57
 473 0020 1A78     		ldrb	r2, [r3]
 474 0022 9B78     		ldrb	r3, [r3, #2]
 475 0024 9A42     		cmp	r2, r3
 476 0026 0CD0     		beq	.L50
 302:DriverControl.c ****             {
 477              		.loc 1 302 0
 478 0028 002A     		cmp	r2, #0
 479 002a 07D0     		beq	.L51
 304:DriverControl.c ****                 PWM_WriteCompare(RegulationData.requestedBrightness);
 480              		.loc 1 304 0
 481 002c 0120     		movs	r0, #1
 482              	.LVL33:
 483 002e FFF7FEFF 		bl	PWM_Enable_Write
 484              	.LVL34:
 305:DriverControl.c ****             }
 485              		.loc 1 305 0
 486 0032 184B     		ldr	r3, .L57
 487 0034 1878     		ldrb	r0, [r3]
 488 0036 FFF7FEFF 		bl	PWM_WriteCompare
 489              	.LVL35:
 490 003a 02E0     		b	.L50
 491              	.LVL36:
 492              	.L51:
 309:DriverControl.c ****             }
ARM GAS  C:\Users\kylep\AppData\Local\Temp\ccxuMgqY.s 			page 23


 493              		.loc 1 309 0
 494 003c 0020     		movs	r0, #0
 495              	.LVL37:
 496 003e FFF7FEFF 		bl	PWM_Enable_Write
 497              	.LVL38:
 498              	.L50:
 313:DriverControl.c ****         return RegulationData.requestedBrightness;
 499              		.loc 1 313 0
 500 0042 144B     		ldr	r3, .L57
 501 0044 1878     		ldrb	r0, [r3]
 502 0046 9870     		strb	r0, [r3, #2]
 314:DriverControl.c ****     }
 503              		.loc 1 314 0
 504 0048 22E0     		b	.L46
 505              	.LVL39:
 506              	.L49:
 317:DriverControl.c ****     {
 507              		.loc 1 317 0
 508 004a 124A     		ldr	r2, .L57
 509 004c 5378     		ldrb	r3, [r2, #1]
 510 004e 9278     		ldrb	r2, [r2, #2]
 511 0050 9342     		cmp	r3, r2
 512 0052 17D0     		beq	.L52
 319:DriverControl.c ****         {
 513              		.loc 1 319 0
 514 0054 0F4A     		ldr	r2, .L57
 515 0056 1278     		ldrb	r2, [r2]
 516 0058 9342     		cmp	r3, r2
 517 005a 02D2     		bcs	.L53
 321:DriverControl.c ****         }
 518              		.loc 1 321 0
 519 005c 0E4A     		ldr	r2, .L57+4
 520 005e 1370     		strb	r3, [r2]
 521 0060 01E0     		b	.L54
 522              	.L53:
 325:DriverControl.c ****         }
 523              		.loc 1 325 0
 524 0062 0D4B     		ldr	r3, .L57+4
 525 0064 1A70     		strb	r2, [r3]
 526              	.L54:
 327:DriverControl.c ****         {
 527              		.loc 1 327 0
 528 0066 0C4B     		ldr	r3, .L57+4
 529 0068 1B78     		ldrb	r3, [r3]
 530 006a 002B     		cmp	r3, #0
 531 006c 07D0     		beq	.L55
 329:DriverControl.c ****             PWM_WriteCompare(tempBrightness);
 532              		.loc 1 329 0
 533 006e 0120     		movs	r0, #1
 534              	.LVL40:
 535 0070 FFF7FEFF 		bl	PWM_Enable_Write
 536              	.LVL41:
 330:DriverControl.c ****         }
 537              		.loc 1 330 0
 538 0074 084B     		ldr	r3, .L57+4
 539 0076 1878     		ldrb	r0, [r3]
 540 0078 FFF7FEFF 		bl	PWM_WriteCompare
ARM GAS  C:\Users\kylep\AppData\Local\Temp\ccxuMgqY.s 			page 24


 541              	.LVL42:
 542 007c 02E0     		b	.L52
 543              	.LVL43:
 544              	.L55:
 333:DriverControl.c ****     }
 545              		.loc 1 333 0
 546 007e 0020     		movs	r0, #0
 547              	.LVL44:
 548 0080 FFF7FEFF 		bl	PWM_Enable_Write
 549              	.LVL45:
 550              	.L52:
 337:DriverControl.c ****     return tempBrightness;
 551              		.loc 1 337 0
 552 0084 044B     		ldr	r3, .L57+4
 553 0086 1878     		ldrb	r0, [r3]
 554 0088 024B     		ldr	r3, .L57
 555 008a 9870     		strb	r0, [r3, #2]
 338:DriverControl.c **** }
 556              		.loc 1 338 0
 557 008c 00E0     		b	.L46
 558              	.LVL46:
 559              	.L56:
 290:DriverControl.c ****     
 560              		.loc 1 290 0
 561 008e 0020     		movs	r0, #0
 562              	.LVL47:
 563              	.L46:
 339:DriverControl.c **** 
 564              		.loc 1 339 0
 565              		@ sp needed
 566 0090 10BD     		pop	{r4, pc}
 567              	.L58:
 568 0092 C046     		.align	2
 569              	.L57:
 570 0094 00000000 		.word	.LANCHOR1
 571 0098 00000000 		.word	.LANCHOR2
 572              		.cfi_endproc
 573              	.LFE40:
 574              		.size	updateBrightnessLevel, .-updateBrightnessLevel
 575              		.section	.text.getMaxTemperature,"ax",%progbits
 576              		.align	2
 577              		.global	getMaxTemperature
 578              		.code	16
 579              		.thumb_func
 580              		.type	getMaxTemperature, %function
 581              	getMaxTemperature:
 582              	.LFB41:
 356:DriverControl.c ****     if(channelNumber < LED || channelNumber > MICRO)
 583              		.loc 1 356 0
 584              		.cfi_startproc
 585              		@ args = 0, pretend = 0, frame = 0
 586              		@ frame_needed = 0, uses_anonymous_args = 0
 587              		@ link register save eliminated.
 588              	.LVL48:
 357:DriverControl.c ****         return 0;
 589              		.loc 1 357 0
 590 0000 0428     		cmp	r0, #4
ARM GAS  C:\Users\kylep\AppData\Local\Temp\ccxuMgqY.s 			page 25


 591 0002 03D8     		bhi	.L61
 360:DriverControl.c **** }
 592              		.loc 1 360 0
 593 0004 8000     		lsls	r0, r0, #2
 594              	.LVL49:
 595 0006 024B     		ldr	r3, .L62
 596 0008 C05E     		ldrsh	r0, [r0, r3]
 597 000a 00E0     		b	.L60
 598              	.LVL50:
 599              	.L61:
 358:DriverControl.c ****     
 600              		.loc 1 358 0
 601 000c 0020     		movs	r0, #0
 602              	.LVL51:
 603              	.L60:
 361:DriverControl.c **** 
 604              		.loc 1 361 0
 605              		@ sp needed
 606 000e 7047     		bx	lr
 607              	.L63:
 608              		.align	2
 609              	.L62:
 610 0010 00000000 		.word	.LANCHOR0
 611              		.cfi_endproc
 612              	.LFE41:
 613              		.size	getMaxTemperature, .-getMaxTemperature
 614              		.section	.text.getTemperatureSample,"ax",%progbits
 615              		.align	2
 616              		.global	getTemperatureSample
 617              		.code	16
 618              		.thumb_func
 619              		.type	getTemperatureSample, %function
 620              	getTemperatureSample:
 621              	.LFB42:
 383:DriverControl.c ****     uint8 ADC_WaitCount = 0;
 622              		.loc 1 383 0
 623              		.cfi_startproc
 624              		@ args = 0, pretend = 0, frame = 0
 625              		@ frame_needed = 0, uses_anonymous_args = 0
 626              	.LVL52:
 627 0000 F8B5     		push	{r3, r4, r5, r6, r7, lr}
 628              		.cfi_def_cfa_offset 24
 629              		.cfi_offset 3, -24
 630              		.cfi_offset 4, -20
 631              		.cfi_offset 5, -16
 632              		.cfi_offset 6, -12
 633              		.cfi_offset 7, -8
 634              		.cfi_offset 14, -4
 635 0002 0700     		movs	r7, r0
 636 0004 0D00     		movs	r5, r1
 637 0006 1600     		movs	r6, r2
 638              	.LVL53:
 389:DriverControl.c ****         return 0;
 639              		.loc 1 389 0
 640 0008 0128     		cmp	r0, #1
 641 000a 3AD8     		bhi	.L74
 392:DriverControl.c ****     {   //Input check for single sample
ARM GAS  C:\Users\kylep\AppData\Local\Temp\ccxuMgqY.s 			page 26


 642              		.loc 1 392 0
 643 000c 0028     		cmp	r0, #0
 644 000e 03D0     		beq	.L66
 394:DriverControl.c ****             return 0;
 645              		.loc 1 394 0
 646 0010 0229     		cmp	r1, #2
 647 0012 38D8     		bhi	.L75
 648 0014 0024     		movs	r4, #0
 649 0016 0AE0     		b	.L67
 650              	.L66:
 399:DriverControl.c ****             return 0;
 651              		.loc 1 399 0
 652 0018 002A     		cmp	r2, #0
 653 001a 36D0     		beq	.L76
 399:DriverControl.c ****             return 0;
 654              		.loc 1 399 0 is_stmt 0 discriminator 1
 655 001c 042B     		cmp	r3, #4
 656 001e 36D8     		bhi	.L77
 657 0020 0024     		movs	r4, #0
 658 0022 04E0     		b	.L67
 659              	.LVL54:
 660              	.L69:
 406:DriverControl.c ****         CyDelayUs(8);
 661              		.loc 1 406 0 is_stmt 1
 662 0024 0134     		adds	r4, r4, #1
 663              	.LVL55:
 664 0026 E4B2     		uxtb	r4, r4
 665              	.LVL56:
 407:DriverControl.c ****     }
 666              		.loc 1 407 0
 667 0028 0820     		movs	r0, #8
 668 002a FFF7FEFF 		bl	CyDelayUs
 669              	.LVL57:
 670              	.L67:
 403:DriverControl.c ****         && (ADC_WaitCount < MAX_ADC_CONVERSION_WAIT_LIMIT))
 671              		.loc 1 403 0
 672 002e 0120     		movs	r0, #1
 673 0030 FFF7FEFF 		bl	ADC_SAR_Seq_IsEndConversion
 674              	.LVL58:
 675 0034 0028     		cmp	r0, #0
 676 0036 01D1     		bne	.L68
 404:DriverControl.c ****     {   //Wait for ADC conversion to complete
 677              		.loc 1 404 0
 678 0038 042C     		cmp	r4, #4
 679 003a F3D9     		bls	.L69
 680              	.L68:
 410:DriverControl.c ****         return 0;   //For case when conversion doesn't complete
 681              		.loc 1 410 0
 682 003c 052C     		cmp	r4, #5
 683 003e 28D8     		bhi	.L78
 413:DriverControl.c ****     {   //Get single sample
 684              		.loc 1 413 0
 685 0040 002F     		cmp	r7, #0
 686 0042 18D0     		beq	.L79
 415:DriverControl.c ****         {
 687              		.loc 1 415 0
 688 0044 042D     		cmp	r5, #4
ARM GAS  C:\Users\kylep\AppData\Local\Temp\ccxuMgqY.s 			page 27


 689 0046 04D1     		bne	.L71
 419:DriverControl.c ****         }
 690              		.loc 1 419 0
 691 0048 0020     		movs	r0, #0
 692 004a FFF7FEFF 		bl	DieTemp_CountsTo_Celsius
 693              	.LVL59:
 694 004e 00B2     		sxth	r0, r0
 695 0050 20E0     		b	.L65
 696              	.LVL60:
 697              	.L71:
 423:DriverControl.c ****                 temperatureSample_16 = ADC_SAR_Seq_GetResult16((uint32)(MICRO));
 698              		.loc 1 423 0
 699 0052 022D     		cmp	r5, #2
 700 0054 03D1     		bne	.L72
 424:DriverControl.c ****             else
 701              		.loc 1 424 0
 702 0056 0420     		movs	r0, #4
 703 0058 FFF7FEFF 		bl	ADC_SAR_Seq_GetResult16
 704              	.LVL61:
 705 005c 1AE0     		b	.L65
 706              	.LVL62:
 707              	.L72:
 426:DriverControl.c ****         }
 708              		.loc 1 426 0
 709 005e 2800     		movs	r0, r5
 710 0060 FFF7FEFF 		bl	ADC_SAR_Seq_GetResult16
 711              	.LVL63:
 712 0064 16E0     		b	.L65
 713              	.LVL64:
 714              	.L73:
 433:DriverControl.c ****             sampleArray[channelIndex] = temperatureSample_16;
 715              		.loc 1 433 0 discriminator 3
 716 0066 2000     		movs	r0, r4
 717 0068 FFF7FEFF 		bl	ADC_SAR_Seq_GetResult16
 718              	.LVL65:
 719 006c 0300     		movs	r3, r0
 720              	.LVL66:
 434:DriverControl.c ****         }
 721              		.loc 1 434 0 discriminator 3
 722 006e 6200     		lsls	r2, r4, #1
 723 0070 B052     		strh	r0, [r6, r2]
 431:DriverControl.c ****         {
 724              		.loc 1 431 0 discriminator 3
 725 0072 0134     		adds	r4, r4, #1
 726              	.LVL67:
 727 0074 01E0     		b	.L70
 728              	.LVL68:
 729              	.L79:
 730 0076 0024     		movs	r4, #0
 731              	.LVL69:
 732 0078 0023     		movs	r3, #0
 733              	.LVL70:
 734              	.L70:
 431:DriverControl.c ****         {
 735              		.loc 1 431 0 is_stmt 0 discriminator 1
 736 007a 012C     		cmp	r4, #1
 737 007c F3D9     		bls	.L73
ARM GAS  C:\Users\kylep\AppData\Local\Temp\ccxuMgqY.s 			page 28


 738 007e 1800     		movs	r0, r3
 739 0080 08E0     		b	.L65
 740              	.LVL71:
 741              	.L74:
 390:DriverControl.c ****     
 742              		.loc 1 390 0 is_stmt 1
 743 0082 0020     		movs	r0, #0
 744              	.LVL72:
 745 0084 06E0     		b	.L65
 746              	.LVL73:
 747              	.L75:
 395:DriverControl.c ****     }
 748              		.loc 1 395 0
 749 0086 0020     		movs	r0, #0
 750              	.LVL74:
 751 0088 04E0     		b	.L65
 752              	.LVL75:
 753              	.L76:
 400:DriverControl.c ****     }
 754              		.loc 1 400 0
 755 008a 0020     		movs	r0, #0
 756              	.LVL76:
 757 008c 02E0     		b	.L65
 758              	.LVL77:
 759              	.L77:
 760 008e 0020     		movs	r0, #0
 761              	.LVL78:
 762 0090 00E0     		b	.L65
 763              	.LVL79:
 764              	.L78:
 411:DriverControl.c ****     
 765              		.loc 1 411 0
 766 0092 0020     		movs	r0, #0
 767              	.LVL80:
 768              	.L65:
 447:DriverControl.c **** 
 769              		.loc 1 447 0
 770              		@ sp needed
 771              	.LVL81:
 772 0094 F8BD     		pop	{r3, r4, r5, r6, r7, pc}
 773              		.cfi_endproc
 774              	.LFE42:
 775              		.size	getTemperatureSample, .-getTemperatureSample
 776 0096 C046     		.section	.text.getNewMaxBrightness,"ax",%progbits
 777              		.align	2
 778              		.global	getNewMaxBrightness
 779              		.code	16
 780              		.thumb_func
 781              		.type	getNewMaxBrightness, %function
 782              	getNewMaxBrightness:
 783              	.LFB43:
 464:DriverControl.c ****     return RegulationData.scalingFactor;
 784              		.loc 1 464 0
 785              		.cfi_startproc
 786              		@ args = 0, pretend = 0, frame = 0
 787              		@ frame_needed = 0, uses_anonymous_args = 0
 788              		@ link register save eliminated.
ARM GAS  C:\Users\kylep\AppData\Local\Temp\ccxuMgqY.s 			page 29


 465:DriverControl.c **** }
 789              		.loc 1 465 0
 790 0000 014B     		ldr	r3, .L81
 791 0002 1879     		ldrb	r0, [r3, #4]
 466:DriverControl.c **** 
 792              		.loc 1 466 0
 793              		@ sp needed
 794 0004 7047     		bx	lr
 795              	.L82:
 796 0006 C046     		.align	2
 797              	.L81:
 798 0008 00000000 		.word	.LANCHOR1
 799              		.cfi_endproc
 800              	.LFE43:
 801              		.size	getNewMaxBrightness, .-getNewMaxBrightness
 802              		.global	__aeabi_idiv
 803              		.section	.text.regulateBrightness,"ax",%progbits
 804              		.align	2
 805              		.global	regulateBrightness
 806              		.code	16
 807              		.thumb_func
 808              		.type	regulateBrightness, %function
 809              	regulateBrightness:
 810              	.LFB44:
 485:DriverControl.c ****     static uint8 timerCountLocal = 0;
 811              		.loc 1 485 0
 812              		.cfi_startproc
 813              		@ args = 0, pretend = 0, frame = 0
 814              		@ frame_needed = 0, uses_anonymous_args = 0
 815              	.LVL82:
 816 0000 70B5     		push	{r4, r5, r6, lr}
 817              		.cfi_def_cfa_offset 16
 818              		.cfi_offset 4, -16
 819              		.cfi_offset 5, -12
 820              		.cfi_offset 6, -8
 821              		.cfi_offset 14, -4
 822 0002 0400     		movs	r4, r0
 823 0004 0D00     		movs	r5, r1
 824              	.LVL83:
 489:DriverControl.c ****         return 0;
 825              		.loc 1 489 0
 826 0006 0028     		cmp	r0, #0
 827 0008 79D0     		beq	.L95
 489:DriverControl.c ****         return 0;
 828              		.loc 1 489 0 is_stmt 0 discriminator 1
 829 000a 0429     		cmp	r1, #4
 830 000c 79D8     		bhi	.L96
 489:DriverControl.c ****         return 0;
 831              		.loc 1 489 0 discriminator 2
 832 000e 3F4B     		ldr	r3, .L98
 833 0010 1B7A     		ldrb	r3, [r3, #8]
 834 0012 012B     		cmp	r3, #1
 835 0014 77D1     		bne	.L97
 492:DriverControl.c ****     {
 836              		.loc 1 492 0 is_stmt 1
 837 0016 3D4B     		ldr	r3, .L98
 838 0018 DB78     		ldrb	r3, [r3, #3]
ARM GAS  C:\Users\kylep\AppData\Local\Temp\ccxuMgqY.s 			page 30


 839 001a 012B     		cmp	r3, #1
 840 001c 34D0     		beq	.L86
 841 001e 002B     		cmp	r3, #0
 842 0020 04D0     		beq	.L87
 843 0022 022B     		cmp	r3, #2
 844 0024 10D0     		beq	.L88
 845 0026 032B     		cmp	r3, #3
 846 0028 4ED0     		beq	.L89
 847 002a 65E0     		b	.L85
 848              	.L87:
 497:DriverControl.c ****                 RegulationData.regulatedBrightness = RegulationData.requestedBrightness;
 849              		.loc 1 497 0
 850 002c 374B     		ldr	r3, .L98
 851 002e FF22     		movs	r2, #255
 852 0030 1A71     		strb	r2, [r3, #4]
 498:DriverControl.c ****             }
 853              		.loc 1 498 0
 854 0032 1A78     		ldrb	r2, [r3]
 855 0034 5A70     		strb	r2, [r3, #1]
 502:DriverControl.c ****                 if(temperatureStatus == EXCEEDED_UPPER_BOUND)
 856              		.loc 1 502 0
 857 0036 0022     		movs	r2, #0
 858 0038 FFF7FEFF 		bl	getTemperatureStatus
 859              	.LVL84:
 503:DriverControl.c ****                     RegulationData.currentState = STEADY_DECREASE;
 860              		.loc 1 503 0
 861 003c 0128     		cmp	r0, #1
 862 003e 5BD1     		bne	.L85
 504:DriverControl.c ****             }
 863              		.loc 1 504 0
 864 0040 0222     		movs	r2, #2
 865 0042 324B     		ldr	r3, .L98
 866 0044 DA70     		strb	r2, [r3, #3]
 867 0046 57E0     		b	.L85
 868              	.LVL85:
 869              	.L88:
 510:DriverControl.c ****                     RegulationData.scalingFactor--;
 870              		.loc 1 510 0
 871 0048 304B     		ldr	r3, .L98
 872 004a 1B79     		ldrb	r3, [r3, #4]
 873 004c 002B     		cmp	r3, #0
 874 004e 02D0     		beq	.L90
 511:DriverControl.c ****             
 875              		.loc 1 511 0
 876 0050 013B     		subs	r3, r3, #1
 877 0052 2E4A     		ldr	r2, .L98
 878 0054 1371     		strb	r3, [r2, #4]
 879              	.L90:
 513:DriverControl.c ****                     (uint16)(RegulationData.scalingFactor) / MAX_SCALING_FACTOR);
 880              		.loc 1 513 0
 881 0056 2D4E     		ldr	r6, .L98
 882 0058 3078     		ldrb	r0, [r6]
 883              	.LVL86:
 514:DriverControl.c ****             }
 884              		.loc 1 514 0
 885 005a 3379     		ldrb	r3, [r6, #4]
 513:DriverControl.c ****                     (uint16)(RegulationData.scalingFactor) / MAX_SCALING_FACTOR);
ARM GAS  C:\Users\kylep\AppData\Local\Temp\ccxuMgqY.s 			page 31


 886              		.loc 1 513 0
 887 005c 5843     		muls	r0, r3
 514:DriverControl.c ****             }
 888              		.loc 1 514 0
 889 005e FF21     		movs	r1, #255
 890              	.LVL87:
 891 0060 FFF7FEFF 		bl	__aeabi_idiv
 892              	.LVL88:
 513:DriverControl.c ****                     (uint16)(RegulationData.scalingFactor) / MAX_SCALING_FACTOR);
 893              		.loc 1 513 0
 894 0064 7070     		strb	r0, [r6, #1]
 518:DriverControl.c ****                     SAFE_TEMPERATURE_TOLERANCE);
 895              		.loc 1 518 0
 896 0066 0022     		movs	r2, #0
 897 0068 2900     		movs	r1, r5
 898 006a 2000     		movs	r0, r4
 899 006c FFF7FEFF 		bl	getTemperatureStatus
 900              	.LVL89:
 521:DriverControl.c ****                     RegulationData.currentState = NO_CHANGE;
 901              		.loc 1 521 0
 902 0070 0028     		cmp	r0, #0
 903 0072 03D1     		bne	.L91
 522:DriverControl.c ****                 else if(temperatureStatus == EXCEEDED_LOWER_BOUND)
 904              		.loc 1 522 0
 905 0074 0322     		movs	r2, #3
 906 0076 254B     		ldr	r3, .L98
 907 0078 DA70     		strb	r2, [r3, #3]
 908 007a 3DE0     		b	.L85
 909              	.L91:
 523:DriverControl.c ****                     RegulationData.currentState = STEADY_INCREASE;
 910              		.loc 1 523 0
 911 007c 0228     		cmp	r0, #2
 912 007e 3BD1     		bne	.L85
 524:DriverControl.c ****             }
 913              		.loc 1 524 0
 914 0080 0122     		movs	r2, #1
 915 0082 224B     		ldr	r3, .L98
 916 0084 DA70     		strb	r2, [r3, #3]
 917 0086 37E0     		b	.L85
 918              	.LVL90:
 919              	.L86:
 530:DriverControl.c ****                     RegulationData.scalingFactor++;
 920              		.loc 1 530 0
 921 0088 204B     		ldr	r3, .L98
 922 008a 1B79     		ldrb	r3, [r3, #4]
 923 008c FF2B     		cmp	r3, #255
 924 008e 02D0     		beq	.L92
 531:DriverControl.c ****             
 925              		.loc 1 531 0
 926 0090 0133     		adds	r3, r3, #1
 927 0092 1E4A     		ldr	r2, .L98
 928 0094 1371     		strb	r3, [r2, #4]
 929              	.L92:
 533:DriverControl.c ****                     (uint16)(RegulationData.scalingFactor) / MAX_SCALING_FACTOR);
 930              		.loc 1 533 0
 931 0096 1D4E     		ldr	r6, .L98
 932 0098 3078     		ldrb	r0, [r6]
ARM GAS  C:\Users\kylep\AppData\Local\Temp\ccxuMgqY.s 			page 32


 933              	.LVL91:
 534:DriverControl.c ****             }
 934              		.loc 1 534 0
 935 009a 3379     		ldrb	r3, [r6, #4]
 533:DriverControl.c ****                     (uint16)(RegulationData.scalingFactor) / MAX_SCALING_FACTOR);
 936              		.loc 1 533 0
 937 009c 5843     		muls	r0, r3
 534:DriverControl.c ****             }
 938              		.loc 1 534 0
 939 009e FF21     		movs	r1, #255
 940              	.LVL92:
 941 00a0 FFF7FEFF 		bl	__aeabi_idiv
 942              	.LVL93:
 533:DriverControl.c ****                     (uint16)(RegulationData.scalingFactor) / MAX_SCALING_FACTOR);
 943              		.loc 1 533 0
 944 00a4 7070     		strb	r0, [r6, #1]
 538:DriverControl.c ****                     SAFE_TEMPERATURE_TOLERANCE);
 945              		.loc 1 538 0
 946 00a6 0022     		movs	r2, #0
 947 00a8 2900     		movs	r1, r5
 948 00aa 2000     		movs	r0, r4
 949 00ac FFF7FEFF 		bl	getTemperatureStatus
 950              	.LVL94:
 541:DriverControl.c ****                     RegulationData.currentState = STEADY_DECREASE;
 951              		.loc 1 541 0
 952 00b0 0128     		cmp	r0, #1
 953 00b2 03D1     		bne	.L93
 542:DriverControl.c ****                 else if(temperatureStatus == WITHIN_TOLERANCE)
 954              		.loc 1 542 0
 955 00b4 0222     		movs	r2, #2
 956 00b6 154B     		ldr	r3, .L98
 957 00b8 DA70     		strb	r2, [r3, #3]
 958 00ba 1DE0     		b	.L85
 959              	.L93:
 543:DriverControl.c ****                     RegulationData.currentState = NO_CHANGE;
 960              		.loc 1 543 0
 961 00bc 0028     		cmp	r0, #0
 962 00be 1BD1     		bne	.L85
 544:DriverControl.c ****             }
 963              		.loc 1 544 0
 964 00c0 0322     		movs	r2, #3
 965 00c2 124B     		ldr	r3, .L98
 966 00c4 DA70     		strb	r2, [r3, #3]
 967 00c6 17E0     		b	.L85
 968              	.LVL95:
 969              	.L89:
 550:DriverControl.c ****                     (uint16)(RegulationData.scalingFactor) / MAX_SCALING_FACTOR);
 970              		.loc 1 550 0
 971 00c8 104E     		ldr	r6, .L98
 972 00ca 3078     		ldrb	r0, [r6]
 973              	.LVL96:
 551:DriverControl.c ****             }
 974              		.loc 1 551 0
 975 00cc 3379     		ldrb	r3, [r6, #4]
 550:DriverControl.c ****                     (uint16)(RegulationData.scalingFactor) / MAX_SCALING_FACTOR);
 976              		.loc 1 550 0
 977 00ce 5843     		muls	r0, r3
ARM GAS  C:\Users\kylep\AppData\Local\Temp\ccxuMgqY.s 			page 33


 551:DriverControl.c ****             }
 978              		.loc 1 551 0
 979 00d0 FF21     		movs	r1, #255
 980              	.LVL97:
 981 00d2 FFF7FEFF 		bl	__aeabi_idiv
 982              	.LVL98:
 550:DriverControl.c ****                     (uint16)(RegulationData.scalingFactor) / MAX_SCALING_FACTOR);
 983              		.loc 1 550 0
 984 00d6 7070     		strb	r0, [r6, #1]
 555:DriverControl.c ****                     SAFE_TEMPERATURE_TOLERANCE);
 985              		.loc 1 555 0
 986 00d8 0022     		movs	r2, #0
 987 00da 2900     		movs	r1, r5
 988 00dc 2000     		movs	r0, r4
 989 00de FFF7FEFF 		bl	getTemperatureStatus
 990              	.LVL99:
 558:DriverControl.c ****                     RegulationData.currentState = STEADY_DECREASE;
 991              		.loc 1 558 0
 992 00e2 0128     		cmp	r0, #1
 993 00e4 03D1     		bne	.L94
 559:DriverControl.c ****                 else if(temperatureStatus == EXCEEDED_LOWER_BOUND)
 994              		.loc 1 559 0
 995 00e6 0222     		movs	r2, #2
 996 00e8 084B     		ldr	r3, .L98
 997 00ea DA70     		strb	r2, [r3, #3]
 998 00ec 04E0     		b	.L85
 999              	.L94:
 560:DriverControl.c ****                     RegulationData.currentState = STEADY_INCREASE;
 1000              		.loc 1 560 0
 1001 00ee 0228     		cmp	r0, #2
 1002 00f0 02D1     		bne	.L85
 561:DriverControl.c ****             }
 1003              		.loc 1 561 0
 1004 00f2 0122     		movs	r2, #1
 1005 00f4 054B     		ldr	r3, .L98
 1006 00f6 DA70     		strb	r2, [r3, #3]
 1007              	.LVL100:
 1008              	.L85:
 567:DriverControl.c **** }
 1009              		.loc 1 567 0
 1010 00f8 044B     		ldr	r3, .L98
 1011 00fa 5878     		ldrb	r0, [r3, #1]
 1012 00fc 04E0     		b	.L84
 1013              	.LVL101:
 1014              	.L95:
 490:DriverControl.c ****     
 1015              		.loc 1 490 0
 1016 00fe 0020     		movs	r0, #0
 1017              	.LVL102:
 1018 0100 02E0     		b	.L84
 1019              	.LVL103:
 1020              	.L96:
 1021 0102 0020     		movs	r0, #0
 1022              	.LVL104:
 1023 0104 00E0     		b	.L84
 1024              	.LVL105:
 1025              	.L97:
ARM GAS  C:\Users\kylep\AppData\Local\Temp\ccxuMgqY.s 			page 34


 1026 0106 0020     		movs	r0, #0
 1027              	.LVL106:
 1028              	.L84:
 568:DriverControl.c **** 
 1029              		.loc 1 568 0
 1030              		@ sp needed
 1031              	.LVL107:
 1032 0108 70BD     		pop	{r4, r5, r6, pc}
 1033              	.L99:
 1034 010a C046     		.align	2
 1035              	.L98:
 1036 010c 00000000 		.word	.LANCHOR1
 1037              		.cfi_endproc
 1038              	.LFE44:
 1039              		.size	regulateBrightness, .-regulateBrightness
 1040              		.section	.text.regulateBrightnessFaster,"ax",%progbits
 1041              		.align	2
 1042              		.global	regulateBrightnessFaster
 1043              		.code	16
 1044              		.thumb_func
 1045              		.type	regulateBrightnessFaster, %function
 1046              	regulateBrightnessFaster:
 1047              	.LFB45:
 571:DriverControl.c ****     static uint8 timerCountLocalFaster = 0;
 1048              		.loc 1 571 0
 1049              		.cfi_startproc
 1050              		@ args = 0, pretend = 0, frame = 0
 1051              		@ frame_needed = 0, uses_anonymous_args = 0
 1052              	.LVL108:
 1053 0000 70B5     		push	{r4, r5, r6, lr}
 1054              		.cfi_def_cfa_offset 16
 1055              		.cfi_offset 4, -16
 1056              		.cfi_offset 5, -12
 1057              		.cfi_offset 6, -8
 1058              		.cfi_offset 14, -4
 1059 0002 0400     		movs	r4, r0
 1060 0004 0D00     		movs	r5, r1
 1061              	.LVL109:
 575:DriverControl.c ****         return 0;
 1062              		.loc 1 575 0
 1063 0006 0028     		cmp	r0, #0
 1064 0008 79D0     		beq	.L112
 575:DriverControl.c ****         return 0;
 1065              		.loc 1 575 0 is_stmt 0 discriminator 1
 1066 000a 0429     		cmp	r1, #4
 1067 000c 79D8     		bhi	.L113
 575:DriverControl.c ****         return 0;
 1068              		.loc 1 575 0 discriminator 2
 1069 000e 3F4B     		ldr	r3, .L115
 1070 0010 1B7A     		ldrb	r3, [r3, #8]
 1071 0012 012B     		cmp	r3, #1
 1072 0014 77D1     		bne	.L114
 578:DriverControl.c ****     {
 1073              		.loc 1 578 0 is_stmt 1
 1074 0016 3D4B     		ldr	r3, .L115
 1075 0018 DB7C     		ldrb	r3, [r3, #19]
 1076 001a 012B     		cmp	r3, #1
ARM GAS  C:\Users\kylep\AppData\Local\Temp\ccxuMgqY.s 			page 35


 1077 001c 34D0     		beq	.L103
 1078 001e 002B     		cmp	r3, #0
 1079 0020 04D0     		beq	.L104
 1080 0022 022B     		cmp	r3, #2
 1081 0024 10D0     		beq	.L105
 1082 0026 032B     		cmp	r3, #3
 1083 0028 4ED0     		beq	.L106
 1084 002a 65E0     		b	.L102
 1085              	.L104:
 583:DriverControl.c ****                 RegulationDataFast.regulatedBrightness = RegulationDataFast.requestedBrightness;
 1086              		.loc 1 583 0
 1087 002c 374B     		ldr	r3, .L115
 1088 002e FF22     		movs	r2, #255
 1089 0030 1A75     		strb	r2, [r3, #20]
 584:DriverControl.c ****             }
 1090              		.loc 1 584 0
 1091 0032 1A7C     		ldrb	r2, [r3, #16]
 1092 0034 5A74     		strb	r2, [r3, #17]
 588:DriverControl.c ****                 if(temperatureStatusFaster == EXCEEDED_UPPER_BOUND)
 1093              		.loc 1 588 0
 1094 0036 0022     		movs	r2, #0
 1095 0038 FFF7FEFF 		bl	getTemperatureStatus
 1096              	.LVL110:
 589:DriverControl.c ****                     RegulationDataFast.currentState = STEADY_DECREASE;
 1097              		.loc 1 589 0
 1098 003c 0128     		cmp	r0, #1
 1099 003e 5BD1     		bne	.L102
 590:DriverControl.c ****             }
 1100              		.loc 1 590 0
 1101 0040 0222     		movs	r2, #2
 1102 0042 324B     		ldr	r3, .L115
 1103 0044 DA74     		strb	r2, [r3, #19]
 1104 0046 57E0     		b	.L102
 1105              	.LVL111:
 1106              	.L105:
 596:DriverControl.c ****                     RegulationDataFast.scalingFactor--;
 1107              		.loc 1 596 0
 1108 0048 304B     		ldr	r3, .L115
 1109 004a 1B7D     		ldrb	r3, [r3, #20]
 1110 004c 002B     		cmp	r3, #0
 1111 004e 02D0     		beq	.L107
 597:DriverControl.c ****             
 1112              		.loc 1 597 0
 1113 0050 013B     		subs	r3, r3, #1
 1114 0052 2E4A     		ldr	r2, .L115
 1115 0054 1375     		strb	r3, [r2, #20]
 1116              	.L107:
 599:DriverControl.c ****                     (uint16)(RegulationDataFast.scalingFactor) / MAX_SCALING_FACTOR);
 1117              		.loc 1 599 0
 1118 0056 2D4E     		ldr	r6, .L115
 1119 0058 307C     		ldrb	r0, [r6, #16]
 1120              	.LVL112:
 600:DriverControl.c ****             }
 1121              		.loc 1 600 0
 1122 005a 337D     		ldrb	r3, [r6, #20]
 599:DriverControl.c ****                     (uint16)(RegulationDataFast.scalingFactor) / MAX_SCALING_FACTOR);
 1123              		.loc 1 599 0
ARM GAS  C:\Users\kylep\AppData\Local\Temp\ccxuMgqY.s 			page 36


 1124 005c 5843     		muls	r0, r3
 600:DriverControl.c ****             }
 1125              		.loc 1 600 0
 1126 005e FF21     		movs	r1, #255
 1127              	.LVL113:
 1128 0060 FFF7FEFF 		bl	__aeabi_idiv
 1129              	.LVL114:
 599:DriverControl.c ****                     (uint16)(RegulationDataFast.scalingFactor) / MAX_SCALING_FACTOR);
 1130              		.loc 1 599 0
 1131 0064 7074     		strb	r0, [r6, #17]
 604:DriverControl.c ****                     SAFE_TEMPERATURE_TOLERANCE);
 1132              		.loc 1 604 0
 1133 0066 0022     		movs	r2, #0
 1134 0068 2900     		movs	r1, r5
 1135 006a 2000     		movs	r0, r4
 1136 006c FFF7FEFF 		bl	getTemperatureStatus
 1137              	.LVL115:
 607:DriverControl.c ****                     RegulationDataFast.currentState = NO_CHANGE;
 1138              		.loc 1 607 0
 1139 0070 0028     		cmp	r0, #0
 1140 0072 03D1     		bne	.L108
 608:DriverControl.c ****                 else if(temperatureStatusFaster == EXCEEDED_LOWER_BOUND)
 1141              		.loc 1 608 0
 1142 0074 0322     		movs	r2, #3
 1143 0076 254B     		ldr	r3, .L115
 1144 0078 DA74     		strb	r2, [r3, #19]
 1145 007a 3DE0     		b	.L102
 1146              	.L108:
 609:DriverControl.c ****                     RegulationDataFast.currentState = STEADY_INCREASE;
 1147              		.loc 1 609 0
 1148 007c 0228     		cmp	r0, #2
 1149 007e 3BD1     		bne	.L102
 610:DriverControl.c ****             }
 1150              		.loc 1 610 0
 1151 0080 0122     		movs	r2, #1
 1152 0082 224B     		ldr	r3, .L115
 1153 0084 DA74     		strb	r2, [r3, #19]
 1154 0086 37E0     		b	.L102
 1155              	.LVL116:
 1156              	.L103:
 616:DriverControl.c ****                     RegulationDataFast.scalingFactor++;
 1157              		.loc 1 616 0
 1158 0088 204B     		ldr	r3, .L115
 1159 008a 1B7D     		ldrb	r3, [r3, #20]
 1160 008c FF2B     		cmp	r3, #255
 1161 008e 02D0     		beq	.L109
 617:DriverControl.c ****             
 1162              		.loc 1 617 0
 1163 0090 0133     		adds	r3, r3, #1
 1164 0092 1E4A     		ldr	r2, .L115
 1165 0094 1375     		strb	r3, [r2, #20]
 1166              	.L109:
 619:DriverControl.c ****                     (uint16)(RegulationDataFast.scalingFactor) / MAX_SCALING_FACTOR);
 1167              		.loc 1 619 0
 1168 0096 1D4E     		ldr	r6, .L115
 1169 0098 307C     		ldrb	r0, [r6, #16]
 1170              	.LVL117:
ARM GAS  C:\Users\kylep\AppData\Local\Temp\ccxuMgqY.s 			page 37


 620:DriverControl.c ****             }
 1171              		.loc 1 620 0
 1172 009a 337D     		ldrb	r3, [r6, #20]
 619:DriverControl.c ****                     (uint16)(RegulationDataFast.scalingFactor) / MAX_SCALING_FACTOR);
 1173              		.loc 1 619 0
 1174 009c 5843     		muls	r0, r3
 620:DriverControl.c ****             }
 1175              		.loc 1 620 0
 1176 009e FF21     		movs	r1, #255
 1177              	.LVL118:
 1178 00a0 FFF7FEFF 		bl	__aeabi_idiv
 1179              	.LVL119:
 619:DriverControl.c ****                     (uint16)(RegulationDataFast.scalingFactor) / MAX_SCALING_FACTOR);
 1180              		.loc 1 619 0
 1181 00a4 7074     		strb	r0, [r6, #17]
 624:DriverControl.c ****                     SAFE_TEMPERATURE_TOLERANCE);
 1182              		.loc 1 624 0
 1183 00a6 0022     		movs	r2, #0
 1184 00a8 2900     		movs	r1, r5
 1185 00aa 2000     		movs	r0, r4
 1186 00ac FFF7FEFF 		bl	getTemperatureStatus
 1187              	.LVL120:
 627:DriverControl.c ****                     RegulationDataFast.currentState = STEADY_DECREASE;
 1188              		.loc 1 627 0
 1189 00b0 0128     		cmp	r0, #1
 1190 00b2 03D1     		bne	.L110
 628:DriverControl.c ****                 else if(temperatureStatusFaster == WITHIN_TOLERANCE)
 1191              		.loc 1 628 0
 1192 00b4 0222     		movs	r2, #2
 1193 00b6 154B     		ldr	r3, .L115
 1194 00b8 DA74     		strb	r2, [r3, #19]
 1195 00ba 1DE0     		b	.L102
 1196              	.L110:
 629:DriverControl.c ****                     RegulationDataFast.currentState = NO_CHANGE;
 1197              		.loc 1 629 0
 1198 00bc 0028     		cmp	r0, #0
 1199 00be 1BD1     		bne	.L102
 630:DriverControl.c ****             }
 1200              		.loc 1 630 0
 1201 00c0 0322     		movs	r2, #3
 1202 00c2 124B     		ldr	r3, .L115
 1203 00c4 DA74     		strb	r2, [r3, #19]
 1204 00c6 17E0     		b	.L102
 1205              	.LVL121:
 1206              	.L106:
 636:DriverControl.c ****                     (uint16)(RegulationDataFast.scalingFactor) / MAX_SCALING_FACTOR);
 1207              		.loc 1 636 0
 1208 00c8 104E     		ldr	r6, .L115
 1209 00ca 307C     		ldrb	r0, [r6, #16]
 1210              	.LVL122:
 637:DriverControl.c ****             }
 1211              		.loc 1 637 0
 1212 00cc 337D     		ldrb	r3, [r6, #20]
 636:DriverControl.c ****                     (uint16)(RegulationDataFast.scalingFactor) / MAX_SCALING_FACTOR);
 1213              		.loc 1 636 0
 1214 00ce 5843     		muls	r0, r3
 637:DriverControl.c ****             }
ARM GAS  C:\Users\kylep\AppData\Local\Temp\ccxuMgqY.s 			page 38


 1215              		.loc 1 637 0
 1216 00d0 FF21     		movs	r1, #255
 1217              	.LVL123:
 1218 00d2 FFF7FEFF 		bl	__aeabi_idiv
 1219              	.LVL124:
 636:DriverControl.c ****                     (uint16)(RegulationDataFast.scalingFactor) / MAX_SCALING_FACTOR);
 1220              		.loc 1 636 0
 1221 00d6 7074     		strb	r0, [r6, #17]
 641:DriverControl.c ****                     SAFE_TEMPERATURE_TOLERANCE);
 1222              		.loc 1 641 0
 1223 00d8 0022     		movs	r2, #0
 1224 00da 2900     		movs	r1, r5
 1225 00dc 2000     		movs	r0, r4
 1226 00de FFF7FEFF 		bl	getTemperatureStatus
 1227              	.LVL125:
 644:DriverControl.c ****                     RegulationDataFast.currentState = STEADY_DECREASE;
 1228              		.loc 1 644 0
 1229 00e2 0128     		cmp	r0, #1
 1230 00e4 03D1     		bne	.L111
 645:DriverControl.c ****                 else if(temperatureStatusFaster == EXCEEDED_LOWER_BOUND)
 1231              		.loc 1 645 0
 1232 00e6 0222     		movs	r2, #2
 1233 00e8 084B     		ldr	r3, .L115
 1234 00ea DA74     		strb	r2, [r3, #19]
 1235 00ec 04E0     		b	.L102
 1236              	.L111:
 646:DriverControl.c ****                     RegulationDataFast.currentState = STEADY_INCREASE;
 1237              		.loc 1 646 0
 1238 00ee 0228     		cmp	r0, #2
 1239 00f0 02D1     		bne	.L102
 647:DriverControl.c ****             }
 1240              		.loc 1 647 0
 1241 00f2 0122     		movs	r2, #1
 1242 00f4 054B     		ldr	r3, .L115
 1243 00f6 DA74     		strb	r2, [r3, #19]
 1244              	.LVL126:
 1245              	.L102:
 653:DriverControl.c **** }
 1246              		.loc 1 653 0
 1247 00f8 044B     		ldr	r3, .L115
 1248 00fa 587C     		ldrb	r0, [r3, #17]
 1249 00fc 04E0     		b	.L101
 1250              	.LVL127:
 1251              	.L112:
 576:DriverControl.c ****     
 1252              		.loc 1 576 0
 1253 00fe 0020     		movs	r0, #0
 1254              	.LVL128:
 1255 0100 02E0     		b	.L101
 1256              	.LVL129:
 1257              	.L113:
 1258 0102 0020     		movs	r0, #0
 1259              	.LVL130:
 1260 0104 00E0     		b	.L101
 1261              	.LVL131:
 1262              	.L114:
 1263 0106 0020     		movs	r0, #0
ARM GAS  C:\Users\kylep\AppData\Local\Temp\ccxuMgqY.s 			page 39


 1264              	.LVL132:
 1265              	.L101:
 654:DriverControl.c **** 
 1266              		.loc 1 654 0
 1267              		@ sp needed
 1268              	.LVL133:
 1269 0108 70BD     		pop	{r4, r5, r6, pc}
 1270              	.L116:
 1271 010a C046     		.align	2
 1272              	.L115:
 1273 010c 00000000 		.word	.LANCHOR1
 1274              		.cfi_endproc
 1275              	.LFE45:
 1276              		.size	regulateBrightnessFaster, .-regulateBrightnessFaster
 1277              		.section	.text.setBrightness,"ax",%progbits
 1278              		.align	2
 1279              		.global	setBrightness
 1280              		.code	16
 1281              		.thumb_func
 1282              		.type	setBrightness, %function
 1283              	setBrightness:
 1284              	.LFB47:
 701:DriverControl.c **** 
 702:DriverControl.c **** void setBrightness(unsigned char localBrightness)
 703:DriverControl.c **** {
 1285              		.loc 1 703 0
 1286              		.cfi_startproc
 1287              		@ args = 0, pretend = 0, frame = 0
 1288              		@ frame_needed = 0, uses_anonymous_args = 0
 1289              	.LVL134:
 1290 0000 10B5     		push	{r4, lr}
 1291              		.cfi_def_cfa_offset 8
 1292              		.cfi_offset 4, -8
 1293              		.cfi_offset 14, -4
 1294 0002 0400     		movs	r4, r0
 704:DriverControl.c ****     static uint8 previousBrightnessLocal = 0;
 705:DriverControl.c ****     
 706:DriverControl.c ****     RegulationData.requestedBrightness = localBrightness;
 1295              		.loc 1 706 0
 1296 0004 074B     		ldr	r3, .L120
 1297 0006 1870     		strb	r0, [r3]
 707:DriverControl.c ****     
 708:DriverControl.c ****     if(previousBrightnessLocal != RegulationData.requestedBrightness)
 1298              		.loc 1 708 0
 1299 0008 074B     		ldr	r3, .L120+4
 1300 000a 5B78     		ldrb	r3, [r3, #1]
 1301 000c 9842     		cmp	r0, r3
 1302 000e 03D0     		beq	.L118
 709:DriverControl.c ****     {
 710:DriverControl.c ****         updateBrightnessLevel(RegulationData.requestedBrightness, FALSE);
 1303              		.loc 1 710 0
 1304 0010 0021     		movs	r1, #0
 1305 0012 FFF7FEFF 		bl	updateBrightnessLevel
 1306              	.LVL135:
 1307 0016 02E0     		b	.L119
 1308              	.LVL136:
 1309              	.L118:
ARM GAS  C:\Users\kylep\AppData\Local\Temp\ccxuMgqY.s 			page 40


 711:DriverControl.c ****     }
 712:DriverControl.c ****     else
 713:DriverControl.c ****     {
 714:DriverControl.c ****         updateBrightnessLevel(RegulationData.requestedBrightness, TRUE);
 1310              		.loc 1 714 0
 1311 0018 0121     		movs	r1, #1
 1312 001a FFF7FEFF 		bl	updateBrightnessLevel
 1313              	.LVL137:
 1314              	.L119:
 715:DriverControl.c ****     }
 716:DriverControl.c ****     
 717:DriverControl.c ****     previousBrightnessLocal = localBrightness;
 1315              		.loc 1 717 0
 1316 001e 024B     		ldr	r3, .L120+4
 1317 0020 5C70     		strb	r4, [r3, #1]
 718:DriverControl.c **** }
 1318              		.loc 1 718 0
 1319              		@ sp needed
 1320 0022 10BD     		pop	{r4, pc}
 1321              	.L121:
 1322              		.align	2
 1323              	.L120:
 1324 0024 00000000 		.word	.LANCHOR1
 1325 0028 00000000 		.word	.LANCHOR2
 1326              		.cfi_endproc
 1327              	.LFE47:
 1328              		.size	setBrightness, .-setBrightness
 1329              		.section	.rodata
 1330              		.align	2
 1331              		.set	.LANCHOR0,. + 0
 1332              		.type	ThermalLimitArray, %object
 1333              		.size	ThermalLimitArray, 16
 1334              	ThermalLimitArray:
 1335 0000 C800     		.short	200
 1336 0002 6400     		.short	100
 1337 0004 C800     		.short	200
 1338 0006 6400     		.short	100
 1339 0008 1900     		.short	25
 1340 000a 0500     		.short	5
 1341 000c 2C01     		.short	300
 1342 000e 6400     		.short	100
 1343              		.data
 1344              		.align	2
 1345              		.set	.LANCHOR1,. + 0
 1346              		.type	RegulationData, %object
 1347              		.size	RegulationData, 5
 1348              	RegulationData:
 1349 0000 00       		.byte	0
 1350 0001 00       		.byte	0
 1351 0002 00       		.byte	0
 1352 0003 00       		.byte	0
 1353 0004 FF       		.byte	-1
 1354 0005 000000   		.space	3
 1355              		.type	PositionData, %object
 1356              		.size	PositionData, 3
 1357              	PositionData:
 1358 0008 00       		.byte	0
ARM GAS  C:\Users\kylep\AppData\Local\Temp\ccxuMgqY.s 			page 41


 1359 0009 00       		.byte	0
 1360 000a 01       		.byte	1
 1361 000b 00       		.space	1
 1362              		.type	VoltageSenseData, %object
 1363              		.size	VoltageSenseData, 2
 1364              	VoltageSenseData:
 1365 000c 01       		.byte	1
 1366 000d FF       		.byte	-1
 1367 000e 0000     		.space	2
 1368              		.type	RegulationDataFast, %object
 1369              		.size	RegulationDataFast, 5
 1370              	RegulationDataFast:
 1371 0010 00       		.byte	0
 1372 0011 00       		.byte	0
 1373 0012 00       		.byte	0
 1374 0013 00       		.byte	0
 1375 0014 FF       		.byte	-1
 1376              		.bss
 1377              		.set	.LANCHOR2,. + 0
 1378              		.type	tempBrightness.6579, %object
 1379              		.size	tempBrightness.6579, 1
 1380              	tempBrightness.6579:
 1381 0000 00       		.space	1
 1382              		.type	previousBrightnessLocal.6640, %object
 1383              		.size	previousBrightnessLocal.6640, 1
 1384              	previousBrightnessLocal.6640:
 1385 0001 00       		.space	1
 1386              		.text
 1387              	.Letext0:
 1388              		.file 2 "Generated_Source\\PSoC4/cytypes.h"
 1389              		.file 3 "DriverControl.h"
 1390              		.file 4 "Generated_Source\\PSoC4/LED_Timer.h"
 1391              		.file 5 "Generated_Source\\PSoC4/PWM_Enable.h"
 1392              		.file 6 "Generated_Source\\PSoC4/PWM.h"
 1393              		.file 7 "Generated_Source\\PSoC4/CyLib.h"
 1394              		.file 8 "Generated_Source\\PSoC4/ADC_SAR_Seq.h"
 1395              		.file 9 "Generated_Source\\PSoC4/DieTemp.h"