ARM GAS  C:\Users\kylep\AppData\Local\Temp\ccVpdkJX.s 			page 1


   1              		.syntax unified
   2              		.cpu cortex-m0
   3              		.fpu softvfp
   4              		.eabi_attribute 20, 1
   5              		.eabi_attribute 21, 1
   6              		.eabi_attribute 23, 3
   7              		.eabi_attribute 24, 1
   8              		.eabi_attribute 25, 1
   9              		.eabi_attribute 26, 1
  10              		.eabi_attribute 30, 1
  11              		.eabi_attribute 34, 0
  12              		.eabi_attribute 18, 4
  13              		.thumb
  14              		.syntax unified
  15              		.file	"LED_ISR.c"
  16              		.text
  17              	.Ltext0:
  18              		.cfi_sections	.debug_frame
  19              		.section	.text.LED_ISR_Interrupt,"ax",%progbits
  20              		.align	2
  21              		.global	LED_ISR_Interrupt
  22              		.code	16
  23              		.thumb_func
  24              		.type	LED_ISR_Interrupt, %function
  25              	LED_ISR_Interrupt:
  26              	.LFB35:
  27              		.file 1 "Generated_Source\\PSoC4\\LED_ISR.c"
   1:Generated_Source\PSoC4/LED_ISR.c **** /*******************************************************************************
   2:Generated_Source\PSoC4/LED_ISR.c **** * File Name: LED_ISR.c  
   3:Generated_Source\PSoC4/LED_ISR.c **** * Version 1.70
   4:Generated_Source\PSoC4/LED_ISR.c **** *
   5:Generated_Source\PSoC4/LED_ISR.c **** *  Description:
   6:Generated_Source\PSoC4/LED_ISR.c **** *   API for controlling the state of an interrupt.
   7:Generated_Source\PSoC4/LED_ISR.c **** *
   8:Generated_Source\PSoC4/LED_ISR.c **** *
   9:Generated_Source\PSoC4/LED_ISR.c **** *  Note:
  10:Generated_Source\PSoC4/LED_ISR.c **** *
  11:Generated_Source\PSoC4/LED_ISR.c **** ********************************************************************************
  12:Generated_Source\PSoC4/LED_ISR.c **** * Copyright 2008-2015, Cypress Semiconductor Corporation.  All rights reserved.
  13:Generated_Source\PSoC4/LED_ISR.c **** * You may use this file only in accordance with the license, terms, conditions, 
  14:Generated_Source\PSoC4/LED_ISR.c **** * disclaimers, and limitations in the end user license agreement accompanying 
  15:Generated_Source\PSoC4/LED_ISR.c **** * the software package with which this file was provided.
  16:Generated_Source\PSoC4/LED_ISR.c **** *******************************************************************************/
  17:Generated_Source\PSoC4/LED_ISR.c **** 
  18:Generated_Source\PSoC4/LED_ISR.c **** 
  19:Generated_Source\PSoC4/LED_ISR.c **** #include <cydevice_trm.h>
  20:Generated_Source\PSoC4/LED_ISR.c **** #include <CyLib.h>
  21:Generated_Source\PSoC4/LED_ISR.c **** #include <LED_ISR.h>
  22:Generated_Source\PSoC4/LED_ISR.c **** 
  23:Generated_Source\PSoC4/LED_ISR.c **** 
  24:Generated_Source\PSoC4/LED_ISR.c **** #if !defined(LED_ISR__REMOVED) /* Check for removal by optimization */
  25:Generated_Source\PSoC4/LED_ISR.c **** 
  26:Generated_Source\PSoC4/LED_ISR.c **** /*******************************************************************************
  27:Generated_Source\PSoC4/LED_ISR.c **** *  Place your includes, defines and code here 
  28:Generated_Source\PSoC4/LED_ISR.c **** ********************************************************************************/
  29:Generated_Source\PSoC4/LED_ISR.c **** /* `#START LED_ISR_intc` */
  30:Generated_Source\PSoC4/LED_ISR.c **** 
ARM GAS  C:\Users\kylep\AppData\Local\Temp\ccVpdkJX.s 			page 2


  31:Generated_Source\PSoC4/LED_ISR.c **** #include "DriverControl.h"    
  32:Generated_Source\PSoC4/LED_ISR.c ****     
  33:Generated_Source\PSoC4/LED_ISR.c **** /* `#END` */
  34:Generated_Source\PSoC4/LED_ISR.c **** 
  35:Generated_Source\PSoC4/LED_ISR.c **** extern cyisraddress CyRamVectors[CYINT_IRQ_BASE + CY_NUM_INTERRUPTS];
  36:Generated_Source\PSoC4/LED_ISR.c **** 
  37:Generated_Source\PSoC4/LED_ISR.c **** /* Declared in startup, used to set unused interrupts to. */
  38:Generated_Source\PSoC4/LED_ISR.c **** CY_ISR_PROTO(IntDefaultHandler);
  39:Generated_Source\PSoC4/LED_ISR.c **** 
  40:Generated_Source\PSoC4/LED_ISR.c **** 
  41:Generated_Source\PSoC4/LED_ISR.c **** /*******************************************************************************
  42:Generated_Source\PSoC4/LED_ISR.c **** * Function Name: LED_ISR_Start
  43:Generated_Source\PSoC4/LED_ISR.c **** ********************************************************************************
  44:Generated_Source\PSoC4/LED_ISR.c **** *
  45:Generated_Source\PSoC4/LED_ISR.c **** * Summary:
  46:Generated_Source\PSoC4/LED_ISR.c **** *  Set up the interrupt and enable it. This function disables the interrupt, 
  47:Generated_Source\PSoC4/LED_ISR.c **** *  sets the default interrupt vector, sets the priority from the value in the
  48:Generated_Source\PSoC4/LED_ISR.c **** *  Design Wide Resources Interrupt Editor, then enables the interrupt to the 
  49:Generated_Source\PSoC4/LED_ISR.c **** *  interrupt controller.
  50:Generated_Source\PSoC4/LED_ISR.c **** *
  51:Generated_Source\PSoC4/LED_ISR.c **** * Parameters:  
  52:Generated_Source\PSoC4/LED_ISR.c **** *   None
  53:Generated_Source\PSoC4/LED_ISR.c **** *
  54:Generated_Source\PSoC4/LED_ISR.c **** * Return:
  55:Generated_Source\PSoC4/LED_ISR.c **** *   None
  56:Generated_Source\PSoC4/LED_ISR.c **** *
  57:Generated_Source\PSoC4/LED_ISR.c **** *******************************************************************************/
  58:Generated_Source\PSoC4/LED_ISR.c **** void LED_ISR_Start(void)
  59:Generated_Source\PSoC4/LED_ISR.c **** {
  60:Generated_Source\PSoC4/LED_ISR.c ****     /* For all we know the interrupt is active. */
  61:Generated_Source\PSoC4/LED_ISR.c ****     LED_ISR_Disable();
  62:Generated_Source\PSoC4/LED_ISR.c **** 
  63:Generated_Source\PSoC4/LED_ISR.c ****     /* Set the ISR to point to the LED_ISR Interrupt. */
  64:Generated_Source\PSoC4/LED_ISR.c ****     LED_ISR_SetVector(&LED_ISR_Interrupt);
  65:Generated_Source\PSoC4/LED_ISR.c **** 
  66:Generated_Source\PSoC4/LED_ISR.c ****     /* Set the priority. */
  67:Generated_Source\PSoC4/LED_ISR.c ****     LED_ISR_SetPriority((uint8)LED_ISR_INTC_PRIOR_NUMBER);
  68:Generated_Source\PSoC4/LED_ISR.c **** 
  69:Generated_Source\PSoC4/LED_ISR.c ****     /* Enable it. */
  70:Generated_Source\PSoC4/LED_ISR.c ****     LED_ISR_Enable();
  71:Generated_Source\PSoC4/LED_ISR.c **** }
  72:Generated_Source\PSoC4/LED_ISR.c **** 
  73:Generated_Source\PSoC4/LED_ISR.c **** 
  74:Generated_Source\PSoC4/LED_ISR.c **** /*******************************************************************************
  75:Generated_Source\PSoC4/LED_ISR.c **** * Function Name: LED_ISR_StartEx
  76:Generated_Source\PSoC4/LED_ISR.c **** ********************************************************************************
  77:Generated_Source\PSoC4/LED_ISR.c **** *
  78:Generated_Source\PSoC4/LED_ISR.c **** * Summary:
  79:Generated_Source\PSoC4/LED_ISR.c **** *  Sets up the interrupt and enables it. This function disables the interrupt,
  80:Generated_Source\PSoC4/LED_ISR.c **** *  sets the interrupt vector based on the address passed in, sets the priority 
  81:Generated_Source\PSoC4/LED_ISR.c **** *  from the value in the Design Wide Resources Interrupt Editor, then enables 
  82:Generated_Source\PSoC4/LED_ISR.c **** *  the interrupt to the interrupt controller.
  83:Generated_Source\PSoC4/LED_ISR.c **** *  
  84:Generated_Source\PSoC4/LED_ISR.c **** *  When defining ISR functions, the CY_ISR and CY_ISR_PROTO macros should be 
  85:Generated_Source\PSoC4/LED_ISR.c **** *  used to provide consistent definition across compilers:
  86:Generated_Source\PSoC4/LED_ISR.c **** *  
  87:Generated_Source\PSoC4/LED_ISR.c **** *  Function definition example:
ARM GAS  C:\Users\kylep\AppData\Local\Temp\ccVpdkJX.s 			page 3


  88:Generated_Source\PSoC4/LED_ISR.c **** *   CY_ISR(MyISR)
  89:Generated_Source\PSoC4/LED_ISR.c **** *   {
  90:Generated_Source\PSoC4/LED_ISR.c **** *   }
  91:Generated_Source\PSoC4/LED_ISR.c **** *   Function prototype example:
  92:Generated_Source\PSoC4/LED_ISR.c **** *   CY_ISR_PROTO(MyISR);
  93:Generated_Source\PSoC4/LED_ISR.c **** *
  94:Generated_Source\PSoC4/LED_ISR.c **** * Parameters:  
  95:Generated_Source\PSoC4/LED_ISR.c **** *   address: Address of the ISR to set in the interrupt vector table.
  96:Generated_Source\PSoC4/LED_ISR.c **** *
  97:Generated_Source\PSoC4/LED_ISR.c **** * Return:
  98:Generated_Source\PSoC4/LED_ISR.c **** *   None
  99:Generated_Source\PSoC4/LED_ISR.c **** *
 100:Generated_Source\PSoC4/LED_ISR.c **** *******************************************************************************/
 101:Generated_Source\PSoC4/LED_ISR.c **** void LED_ISR_StartEx(cyisraddress address)
 102:Generated_Source\PSoC4/LED_ISR.c **** {
 103:Generated_Source\PSoC4/LED_ISR.c ****     /* For all we know the interrupt is active. */
 104:Generated_Source\PSoC4/LED_ISR.c ****     LED_ISR_Disable();
 105:Generated_Source\PSoC4/LED_ISR.c **** 
 106:Generated_Source\PSoC4/LED_ISR.c ****     /* Set the ISR to point to the LED_ISR Interrupt. */
 107:Generated_Source\PSoC4/LED_ISR.c ****     LED_ISR_SetVector(address);
 108:Generated_Source\PSoC4/LED_ISR.c **** 
 109:Generated_Source\PSoC4/LED_ISR.c ****     /* Set the priority. */
 110:Generated_Source\PSoC4/LED_ISR.c ****     LED_ISR_SetPriority((uint8)LED_ISR_INTC_PRIOR_NUMBER);
 111:Generated_Source\PSoC4/LED_ISR.c **** 
 112:Generated_Source\PSoC4/LED_ISR.c ****     /* Enable it. */
 113:Generated_Source\PSoC4/LED_ISR.c ****     LED_ISR_Enable();
 114:Generated_Source\PSoC4/LED_ISR.c **** }
 115:Generated_Source\PSoC4/LED_ISR.c **** 
 116:Generated_Source\PSoC4/LED_ISR.c **** 
 117:Generated_Source\PSoC4/LED_ISR.c **** /*******************************************************************************
 118:Generated_Source\PSoC4/LED_ISR.c **** * Function Name: LED_ISR_Stop
 119:Generated_Source\PSoC4/LED_ISR.c **** ********************************************************************************
 120:Generated_Source\PSoC4/LED_ISR.c **** *
 121:Generated_Source\PSoC4/LED_ISR.c **** * Summary:
 122:Generated_Source\PSoC4/LED_ISR.c **** *   Disables and removes the interrupt.
 123:Generated_Source\PSoC4/LED_ISR.c **** *
 124:Generated_Source\PSoC4/LED_ISR.c **** * Parameters:  
 125:Generated_Source\PSoC4/LED_ISR.c **** *   None
 126:Generated_Source\PSoC4/LED_ISR.c **** *
 127:Generated_Source\PSoC4/LED_ISR.c **** * Return:
 128:Generated_Source\PSoC4/LED_ISR.c **** *   None
 129:Generated_Source\PSoC4/LED_ISR.c **** *
 130:Generated_Source\PSoC4/LED_ISR.c **** *******************************************************************************/
 131:Generated_Source\PSoC4/LED_ISR.c **** void LED_ISR_Stop(void)
 132:Generated_Source\PSoC4/LED_ISR.c **** {
 133:Generated_Source\PSoC4/LED_ISR.c ****     /* Disable this interrupt. */
 134:Generated_Source\PSoC4/LED_ISR.c ****     LED_ISR_Disable();
 135:Generated_Source\PSoC4/LED_ISR.c **** 
 136:Generated_Source\PSoC4/LED_ISR.c ****     /* Set the ISR to point to the passive one. */
 137:Generated_Source\PSoC4/LED_ISR.c ****     LED_ISR_SetVector(&IntDefaultHandler);
 138:Generated_Source\PSoC4/LED_ISR.c **** }
 139:Generated_Source\PSoC4/LED_ISR.c **** 
 140:Generated_Source\PSoC4/LED_ISR.c **** 
 141:Generated_Source\PSoC4/LED_ISR.c **** /*******************************************************************************
 142:Generated_Source\PSoC4/LED_ISR.c **** * Function Name: LED_ISR_Interrupt
 143:Generated_Source\PSoC4/LED_ISR.c **** ********************************************************************************
 144:Generated_Source\PSoC4/LED_ISR.c **** *
ARM GAS  C:\Users\kylep\AppData\Local\Temp\ccVpdkJX.s 			page 4


 145:Generated_Source\PSoC4/LED_ISR.c **** * Summary:
 146:Generated_Source\PSoC4/LED_ISR.c **** *   The default Interrupt Service Routine for LED_ISR.
 147:Generated_Source\PSoC4/LED_ISR.c **** *
 148:Generated_Source\PSoC4/LED_ISR.c **** *   Add custom code between the START and END comments to keep the next version
 149:Generated_Source\PSoC4/LED_ISR.c **** *   of this file from over-writing your code.
 150:Generated_Source\PSoC4/LED_ISR.c **** *
 151:Generated_Source\PSoC4/LED_ISR.c **** *   Note You may use either the default ISR by using this API, or you may define
 152:Generated_Source\PSoC4/LED_ISR.c **** *   your own separate ISR through ISR_StartEx().
 153:Generated_Source\PSoC4/LED_ISR.c **** *
 154:Generated_Source\PSoC4/LED_ISR.c **** * Parameters:  
 155:Generated_Source\PSoC4/LED_ISR.c **** *   None
 156:Generated_Source\PSoC4/LED_ISR.c **** *
 157:Generated_Source\PSoC4/LED_ISR.c **** * Return:
 158:Generated_Source\PSoC4/LED_ISR.c **** *   None
 159:Generated_Source\PSoC4/LED_ISR.c **** *
 160:Generated_Source\PSoC4/LED_ISR.c **** *******************************************************************************/
 161:Generated_Source\PSoC4/LED_ISR.c **** CY_ISR(LED_ISR_Interrupt)
 162:Generated_Source\PSoC4/LED_ISR.c **** {
  28              		.loc 1 162 0
  29              		.cfi_startproc
  30              		@ args = 0, pretend = 0, frame = 0
  31              		@ frame_needed = 0, uses_anonymous_args = 0
  32 0000 10B5     		push	{r4, lr}
  33              		.cfi_def_cfa_offset 8
  34              		.cfi_offset 4, -8
  35              		.cfi_offset 14, -4
 163:Generated_Source\PSoC4/LED_ISR.c ****     #ifdef LED_ISR_INTERRUPT_INTERRUPT_CALLBACK
 164:Generated_Source\PSoC4/LED_ISR.c ****         LED_ISR_Interrupt_InterruptCallback();
 165:Generated_Source\PSoC4/LED_ISR.c ****     #endif /* LED_ISR_INTERRUPT_INTERRUPT_CALLBACK */ 
 166:Generated_Source\PSoC4/LED_ISR.c **** 
 167:Generated_Source\PSoC4/LED_ISR.c ****     /*  Place your Interrupt code here. */
 168:Generated_Source\PSoC4/LED_ISR.c ****     /* `#START LED_ISR_Interrupt` */
 169:Generated_Source\PSoC4/LED_ISR.c **** 
 170:Generated_Source\PSoC4/LED_ISR.c ****     processSoftStart();
  36              		.loc 1 170 0
  37 0002 FFF7FEFF 		bl	processSoftStart
  38              	.LVL0:
 171:Generated_Source\PSoC4/LED_ISR.c ****     
 172:Generated_Source\PSoC4/LED_ISR.c ****     /* `#END` */
 173:Generated_Source\PSoC4/LED_ISR.c **** }
  39              		.loc 1 173 0
  40              		@ sp needed
  41 0006 10BD     		pop	{r4, pc}
  42              		.cfi_endproc
  43              	.LFE35:
  44              		.size	LED_ISR_Interrupt, .-LED_ISR_Interrupt
  45              		.section	.text.LED_ISR_SetVector,"ax",%progbits
  46              		.align	2
  47              		.global	LED_ISR_SetVector
  48              		.code	16
  49              		.thumb_func
  50              		.type	LED_ISR_SetVector, %function
  51              	LED_ISR_SetVector:
  52              	.LFB36:
 174:Generated_Source\PSoC4/LED_ISR.c **** 
 175:Generated_Source\PSoC4/LED_ISR.c **** 
 176:Generated_Source\PSoC4/LED_ISR.c **** /*******************************************************************************
ARM GAS  C:\Users\kylep\AppData\Local\Temp\ccVpdkJX.s 			page 5


 177:Generated_Source\PSoC4/LED_ISR.c **** * Function Name: LED_ISR_SetVector
 178:Generated_Source\PSoC4/LED_ISR.c **** ********************************************************************************
 179:Generated_Source\PSoC4/LED_ISR.c **** *
 180:Generated_Source\PSoC4/LED_ISR.c **** * Summary:
 181:Generated_Source\PSoC4/LED_ISR.c **** *   Change the ISR vector for the Interrupt. Note calling LED_ISR_Start
 182:Generated_Source\PSoC4/LED_ISR.c **** *   will override any effect this method would have had. To set the vector 
 183:Generated_Source\PSoC4/LED_ISR.c **** *   before the component has been started use LED_ISR_StartEx instead.
 184:Generated_Source\PSoC4/LED_ISR.c **** * 
 185:Generated_Source\PSoC4/LED_ISR.c **** *   When defining ISR functions, the CY_ISR and CY_ISR_PROTO macros should be 
 186:Generated_Source\PSoC4/LED_ISR.c **** *   used to provide consistent definition across compilers:
 187:Generated_Source\PSoC4/LED_ISR.c **** *
 188:Generated_Source\PSoC4/LED_ISR.c **** *   Function definition example:
 189:Generated_Source\PSoC4/LED_ISR.c **** *   CY_ISR(MyISR)
 190:Generated_Source\PSoC4/LED_ISR.c **** *   {
 191:Generated_Source\PSoC4/LED_ISR.c **** *   }
 192:Generated_Source\PSoC4/LED_ISR.c **** *
 193:Generated_Source\PSoC4/LED_ISR.c **** *   Function prototype example:
 194:Generated_Source\PSoC4/LED_ISR.c **** *     CY_ISR_PROTO(MyISR);
 195:Generated_Source\PSoC4/LED_ISR.c **** *
 196:Generated_Source\PSoC4/LED_ISR.c **** * Parameters:
 197:Generated_Source\PSoC4/LED_ISR.c **** *   address: Address of the ISR to set in the interrupt vector table.
 198:Generated_Source\PSoC4/LED_ISR.c **** *
 199:Generated_Source\PSoC4/LED_ISR.c **** * Return:
 200:Generated_Source\PSoC4/LED_ISR.c **** *   None
 201:Generated_Source\PSoC4/LED_ISR.c **** *
 202:Generated_Source\PSoC4/LED_ISR.c **** *******************************************************************************/
 203:Generated_Source\PSoC4/LED_ISR.c **** void LED_ISR_SetVector(cyisraddress address)
 204:Generated_Source\PSoC4/LED_ISR.c **** {
  53              		.loc 1 204 0
  54              		.cfi_startproc
  55              		@ args = 0, pretend = 0, frame = 0
  56              		@ frame_needed = 0, uses_anonymous_args = 0
  57              		@ link register save eliminated.
  58              	.LVL1:
 205:Generated_Source\PSoC4/LED_ISR.c ****     CyRamVectors[CYINT_IRQ_BASE + LED_ISR__INTC_NUMBER] = address;
  59              		.loc 1 205 0
  60 0000 014B     		ldr	r3, .L3
  61 0002 D864     		str	r0, [r3, #76]
 206:Generated_Source\PSoC4/LED_ISR.c **** }
  62              		.loc 1 206 0
  63              		@ sp needed
  64 0004 7047     		bx	lr
  65              	.L4:
  66 0006 C046     		.align	2
  67              	.L3:
  68 0008 00000000 		.word	CyRamVectors
  69              		.cfi_endproc
  70              	.LFE36:
  71              		.size	LED_ISR_SetVector, .-LED_ISR_SetVector
  72              		.section	.text.LED_ISR_GetVector,"ax",%progbits
  73              		.align	2
  74              		.global	LED_ISR_GetVector
  75              		.code	16
  76              		.thumb_func
  77              		.type	LED_ISR_GetVector, %function
  78              	LED_ISR_GetVector:
  79              	.LFB37:
ARM GAS  C:\Users\kylep\AppData\Local\Temp\ccVpdkJX.s 			page 6


 207:Generated_Source\PSoC4/LED_ISR.c **** 
 208:Generated_Source\PSoC4/LED_ISR.c **** 
 209:Generated_Source\PSoC4/LED_ISR.c **** /*******************************************************************************
 210:Generated_Source\PSoC4/LED_ISR.c **** * Function Name: LED_ISR_GetVector
 211:Generated_Source\PSoC4/LED_ISR.c **** ********************************************************************************
 212:Generated_Source\PSoC4/LED_ISR.c **** *
 213:Generated_Source\PSoC4/LED_ISR.c **** * Summary:
 214:Generated_Source\PSoC4/LED_ISR.c **** *   Gets the "address" of the current ISR vector for the Interrupt.
 215:Generated_Source\PSoC4/LED_ISR.c **** *
 216:Generated_Source\PSoC4/LED_ISR.c **** * Parameters:
 217:Generated_Source\PSoC4/LED_ISR.c **** *   None
 218:Generated_Source\PSoC4/LED_ISR.c **** *
 219:Generated_Source\PSoC4/LED_ISR.c **** * Return:
 220:Generated_Source\PSoC4/LED_ISR.c **** *   Address of the ISR in the interrupt vector table.
 221:Generated_Source\PSoC4/LED_ISR.c **** *
 222:Generated_Source\PSoC4/LED_ISR.c **** *******************************************************************************/
 223:Generated_Source\PSoC4/LED_ISR.c **** cyisraddress LED_ISR_GetVector(void)
 224:Generated_Source\PSoC4/LED_ISR.c **** {
  80              		.loc 1 224 0
  81              		.cfi_startproc
  82              		@ args = 0, pretend = 0, frame = 0
  83              		@ frame_needed = 0, uses_anonymous_args = 0
  84              		@ link register save eliminated.
 225:Generated_Source\PSoC4/LED_ISR.c ****     return CyRamVectors[CYINT_IRQ_BASE + LED_ISR__INTC_NUMBER];
  85              		.loc 1 225 0
  86 0000 014B     		ldr	r3, .L6
  87 0002 D86C     		ldr	r0, [r3, #76]
 226:Generated_Source\PSoC4/LED_ISR.c **** }
  88              		.loc 1 226 0
  89              		@ sp needed
  90 0004 7047     		bx	lr
  91              	.L7:
  92 0006 C046     		.align	2
  93              	.L6:
  94 0008 00000000 		.word	CyRamVectors
  95              		.cfi_endproc
  96              	.LFE37:
  97              		.size	LED_ISR_GetVector, .-LED_ISR_GetVector
  98              		.section	.text.LED_ISR_SetPriority,"ax",%progbits
  99              		.align	2
 100              		.global	LED_ISR_SetPriority
 101              		.code	16
 102              		.thumb_func
 103              		.type	LED_ISR_SetPriority, %function
 104              	LED_ISR_SetPriority:
 105              	.LFB38:
 227:Generated_Source\PSoC4/LED_ISR.c **** 
 228:Generated_Source\PSoC4/LED_ISR.c **** 
 229:Generated_Source\PSoC4/LED_ISR.c **** /*******************************************************************************
 230:Generated_Source\PSoC4/LED_ISR.c **** * Function Name: LED_ISR_SetPriority
 231:Generated_Source\PSoC4/LED_ISR.c **** ********************************************************************************
 232:Generated_Source\PSoC4/LED_ISR.c **** *
 233:Generated_Source\PSoC4/LED_ISR.c **** * Summary:
 234:Generated_Source\PSoC4/LED_ISR.c **** *   Sets the Priority of the Interrupt. 
 235:Generated_Source\PSoC4/LED_ISR.c **** *
 236:Generated_Source\PSoC4/LED_ISR.c **** *   Note calling LED_ISR_Start or LED_ISR_StartEx will 
 237:Generated_Source\PSoC4/LED_ISR.c **** *   override any effect this API would have had. This API should only be called
ARM GAS  C:\Users\kylep\AppData\Local\Temp\ccVpdkJX.s 			page 7


 238:Generated_Source\PSoC4/LED_ISR.c **** *   after LED_ISR_Start or LED_ISR_StartEx has been called. 
 239:Generated_Source\PSoC4/LED_ISR.c **** *   To set the initial priority for the component, use the Design-Wide Resources
 240:Generated_Source\PSoC4/LED_ISR.c **** *   Interrupt Editor.
 241:Generated_Source\PSoC4/LED_ISR.c **** *
 242:Generated_Source\PSoC4/LED_ISR.c **** *   Note This API has no effect on Non-maskable interrupt NMI).
 243:Generated_Source\PSoC4/LED_ISR.c **** *
 244:Generated_Source\PSoC4/LED_ISR.c **** * Parameters:
 245:Generated_Source\PSoC4/LED_ISR.c **** *   priority: Priority of the interrupt, 0 being the highest priority
 246:Generated_Source\PSoC4/LED_ISR.c **** *             PSoC 3 and PSoC 5LP: Priority is from 0 to 7.
 247:Generated_Source\PSoC4/LED_ISR.c **** *             PSoC 4: Priority is from 0 to 3.
 248:Generated_Source\PSoC4/LED_ISR.c **** *
 249:Generated_Source\PSoC4/LED_ISR.c **** * Return:
 250:Generated_Source\PSoC4/LED_ISR.c **** *   None
 251:Generated_Source\PSoC4/LED_ISR.c **** *
 252:Generated_Source\PSoC4/LED_ISR.c **** *******************************************************************************/
 253:Generated_Source\PSoC4/LED_ISR.c **** void LED_ISR_SetPriority(uint8 priority)
 254:Generated_Source\PSoC4/LED_ISR.c **** {
 106              		.loc 1 254 0
 107              		.cfi_startproc
 108              		@ args = 0, pretend = 0, frame = 0
 109              		@ frame_needed = 0, uses_anonymous_args = 0
 110              	.LVL2:
 111 0000 10B5     		push	{r4, lr}
 112              		.cfi_def_cfa_offset 8
 113              		.cfi_offset 4, -8
 114              		.cfi_offset 14, -4
 115 0002 0400     		movs	r4, r0
 116              	.LVL3:
 255:Generated_Source\PSoC4/LED_ISR.c **** 	uint8 interruptState;
 256:Generated_Source\PSoC4/LED_ISR.c ****     uint32 priorityOffset = ((LED_ISR__INTC_NUMBER % 4u) * 8u) + 6u;
 257:Generated_Source\PSoC4/LED_ISR.c ****     
 258:Generated_Source\PSoC4/LED_ISR.c **** 	interruptState = CyEnterCriticalSection();
 117              		.loc 1 258 0
 118 0004 FFF7FEFF 		bl	CyEnterCriticalSection
 119              	.LVL4:
 259:Generated_Source\PSoC4/LED_ISR.c ****     *LED_ISR_INTC_PRIOR = (*LED_ISR_INTC_PRIOR & (uint32)(~LED_ISR__INTC_PRIOR_MASK)) |
 120              		.loc 1 259 0
 121 0008 044A     		ldr	r2, .L9
 122 000a 1368     		ldr	r3, [r2]
 123 000c 9B00     		lsls	r3, r3, #2
 124 000e 9B08     		lsrs	r3, r3, #2
 260:Generated_Source\PSoC4/LED_ISR.c ****                                     ((uint32)priority << priorityOffset);
 125              		.loc 1 260 0
 126 0010 A407     		lsls	r4, r4, #30
 259:Generated_Source\PSoC4/LED_ISR.c ****     *LED_ISR_INTC_PRIOR = (*LED_ISR_INTC_PRIOR & (uint32)(~LED_ISR__INTC_PRIOR_MASK)) |
 127              		.loc 1 259 0
 128 0012 1C43     		orrs	r4, r3
 129 0014 1460     		str	r4, [r2]
 261:Generated_Source\PSoC4/LED_ISR.c **** 	CyExitCriticalSection(interruptState);
 130              		.loc 1 261 0
 131 0016 FFF7FEFF 		bl	CyExitCriticalSection
 132              	.LVL5:
 262:Generated_Source\PSoC4/LED_ISR.c **** }
 133              		.loc 1 262 0
 134              		@ sp needed
 135 001a 10BD     		pop	{r4, pc}
 136              	.L10:
ARM GAS  C:\Users\kylep\AppData\Local\Temp\ccVpdkJX.s 			page 8


 137              		.align	2
 138              	.L9:
 139 001c 00E400E0 		.word	-536812544
 140              		.cfi_endproc
 141              	.LFE38:
 142              		.size	LED_ISR_SetPriority, .-LED_ISR_SetPriority
 143              		.section	.text.LED_ISR_GetPriority,"ax",%progbits
 144              		.align	2
 145              		.global	LED_ISR_GetPriority
 146              		.code	16
 147              		.thumb_func
 148              		.type	LED_ISR_GetPriority, %function
 149              	LED_ISR_GetPriority:
 150              	.LFB39:
 263:Generated_Source\PSoC4/LED_ISR.c **** 
 264:Generated_Source\PSoC4/LED_ISR.c **** 
 265:Generated_Source\PSoC4/LED_ISR.c **** /*******************************************************************************
 266:Generated_Source\PSoC4/LED_ISR.c **** * Function Name: LED_ISR_GetPriority
 267:Generated_Source\PSoC4/LED_ISR.c **** ********************************************************************************
 268:Generated_Source\PSoC4/LED_ISR.c **** *
 269:Generated_Source\PSoC4/LED_ISR.c **** * Summary:
 270:Generated_Source\PSoC4/LED_ISR.c **** *   Gets the Priority of the Interrupt.
 271:Generated_Source\PSoC4/LED_ISR.c **** *
 272:Generated_Source\PSoC4/LED_ISR.c **** * Parameters:
 273:Generated_Source\PSoC4/LED_ISR.c **** *   None
 274:Generated_Source\PSoC4/LED_ISR.c **** *
 275:Generated_Source\PSoC4/LED_ISR.c **** * Return:
 276:Generated_Source\PSoC4/LED_ISR.c **** *   Priority of the interrupt, 0 being the highest priority
 277:Generated_Source\PSoC4/LED_ISR.c **** *    PSoC 3 and PSoC 5LP: Priority is from 0 to 7.
 278:Generated_Source\PSoC4/LED_ISR.c **** *    PSoC 4: Priority is from 0 to 3.
 279:Generated_Source\PSoC4/LED_ISR.c **** *
 280:Generated_Source\PSoC4/LED_ISR.c **** *******************************************************************************/
 281:Generated_Source\PSoC4/LED_ISR.c **** uint8 LED_ISR_GetPriority(void)
 282:Generated_Source\PSoC4/LED_ISR.c **** {
 151              		.loc 1 282 0
 152              		.cfi_startproc
 153              		@ args = 0, pretend = 0, frame = 0
 154              		@ frame_needed = 0, uses_anonymous_args = 0
 155              		@ link register save eliminated.
 156              	.LVL6:
 283:Generated_Source\PSoC4/LED_ISR.c ****     uint32 priority;
 284:Generated_Source\PSoC4/LED_ISR.c **** 	uint32 priorityOffset = ((LED_ISR__INTC_NUMBER % 4u) * 8u) + 6u;
 285:Generated_Source\PSoC4/LED_ISR.c **** 
 286:Generated_Source\PSoC4/LED_ISR.c ****     priority = (*LED_ISR_INTC_PRIOR & LED_ISR__INTC_PRIOR_MASK) >> priorityOffset;
 157              		.loc 1 286 0
 158 0000 014B     		ldr	r3, .L12
 159 0002 1868     		ldr	r0, [r3]
 160              	.LVL7:
 287:Generated_Source\PSoC4/LED_ISR.c **** 
 288:Generated_Source\PSoC4/LED_ISR.c ****     return (uint8)priority;
 161              		.loc 1 288 0
 162 0004 800F     		lsrs	r0, r0, #30
 163              	.LVL8:
 289:Generated_Source\PSoC4/LED_ISR.c **** }
 164              		.loc 1 289 0
 165              		@ sp needed
 166 0006 7047     		bx	lr
ARM GAS  C:\Users\kylep\AppData\Local\Temp\ccVpdkJX.s 			page 9


 167              	.L13:
 168              		.align	2
 169              	.L12:
 170 0008 00E400E0 		.word	-536812544
 171              		.cfi_endproc
 172              	.LFE39:
 173              		.size	LED_ISR_GetPriority, .-LED_ISR_GetPriority
 174              		.section	.text.LED_ISR_Enable,"ax",%progbits
 175              		.align	2
 176              		.global	LED_ISR_Enable
 177              		.code	16
 178              		.thumb_func
 179              		.type	LED_ISR_Enable, %function
 180              	LED_ISR_Enable:
 181              	.LFB40:
 290:Generated_Source\PSoC4/LED_ISR.c **** 
 291:Generated_Source\PSoC4/LED_ISR.c **** 
 292:Generated_Source\PSoC4/LED_ISR.c **** /*******************************************************************************
 293:Generated_Source\PSoC4/LED_ISR.c **** * Function Name: LED_ISR_Enable
 294:Generated_Source\PSoC4/LED_ISR.c **** ********************************************************************************
 295:Generated_Source\PSoC4/LED_ISR.c **** *
 296:Generated_Source\PSoC4/LED_ISR.c **** * Summary:
 297:Generated_Source\PSoC4/LED_ISR.c **** *   Enables the interrupt to the interrupt controller. Do not call this function
 298:Generated_Source\PSoC4/LED_ISR.c **** *   unless ISR_Start() has been called or the functionality of the ISR_Start() 
 299:Generated_Source\PSoC4/LED_ISR.c **** *   function, which sets the vector and the priority, has been called.
 300:Generated_Source\PSoC4/LED_ISR.c **** *
 301:Generated_Source\PSoC4/LED_ISR.c **** * Parameters:
 302:Generated_Source\PSoC4/LED_ISR.c **** *   None
 303:Generated_Source\PSoC4/LED_ISR.c **** *
 304:Generated_Source\PSoC4/LED_ISR.c **** * Return:
 305:Generated_Source\PSoC4/LED_ISR.c **** *   None
 306:Generated_Source\PSoC4/LED_ISR.c **** *
 307:Generated_Source\PSoC4/LED_ISR.c **** *******************************************************************************/
 308:Generated_Source\PSoC4/LED_ISR.c **** void LED_ISR_Enable(void)
 309:Generated_Source\PSoC4/LED_ISR.c **** {
 182              		.loc 1 309 0
 183              		.cfi_startproc
 184              		@ args = 0, pretend = 0, frame = 0
 185              		@ frame_needed = 0, uses_anonymous_args = 0
 186              		@ link register save eliminated.
 310:Generated_Source\PSoC4/LED_ISR.c ****     /* Enable the general interrupt. */
 311:Generated_Source\PSoC4/LED_ISR.c ****     *LED_ISR_INTC_SET_EN = LED_ISR__INTC_MASK;
 187              		.loc 1 311 0
 188 0000 0822     		movs	r2, #8
 189 0002 014B     		ldr	r3, .L15
 190 0004 1A60     		str	r2, [r3]
 312:Generated_Source\PSoC4/LED_ISR.c **** }
 191              		.loc 1 312 0
 192              		@ sp needed
 193 0006 7047     		bx	lr
 194              	.L16:
 195              		.align	2
 196              	.L15:
 197 0008 00E100E0 		.word	-536813312
 198              		.cfi_endproc
 199              	.LFE40:
 200              		.size	LED_ISR_Enable, .-LED_ISR_Enable
ARM GAS  C:\Users\kylep\AppData\Local\Temp\ccVpdkJX.s 			page 10


 201              		.section	.text.LED_ISR_GetState,"ax",%progbits
 202              		.align	2
 203              		.global	LED_ISR_GetState
 204              		.code	16
 205              		.thumb_func
 206              		.type	LED_ISR_GetState, %function
 207              	LED_ISR_GetState:
 208              	.LFB41:
 313:Generated_Source\PSoC4/LED_ISR.c **** 
 314:Generated_Source\PSoC4/LED_ISR.c **** 
 315:Generated_Source\PSoC4/LED_ISR.c **** /*******************************************************************************
 316:Generated_Source\PSoC4/LED_ISR.c **** * Function Name: LED_ISR_GetState
 317:Generated_Source\PSoC4/LED_ISR.c **** ********************************************************************************
 318:Generated_Source\PSoC4/LED_ISR.c **** *
 319:Generated_Source\PSoC4/LED_ISR.c **** * Summary:
 320:Generated_Source\PSoC4/LED_ISR.c **** *   Gets the state (enabled, disabled) of the Interrupt.
 321:Generated_Source\PSoC4/LED_ISR.c **** *
 322:Generated_Source\PSoC4/LED_ISR.c **** * Parameters:
 323:Generated_Source\PSoC4/LED_ISR.c **** *   None
 324:Generated_Source\PSoC4/LED_ISR.c **** *
 325:Generated_Source\PSoC4/LED_ISR.c **** * Return:
 326:Generated_Source\PSoC4/LED_ISR.c **** *   1 if enabled, 0 if disabled.
 327:Generated_Source\PSoC4/LED_ISR.c **** *
 328:Generated_Source\PSoC4/LED_ISR.c **** *******************************************************************************/
 329:Generated_Source\PSoC4/LED_ISR.c **** uint8 LED_ISR_GetState(void)
 330:Generated_Source\PSoC4/LED_ISR.c **** {
 209              		.loc 1 330 0
 210              		.cfi_startproc
 211              		@ args = 0, pretend = 0, frame = 0
 212              		@ frame_needed = 0, uses_anonymous_args = 0
 213              		@ link register save eliminated.
 331:Generated_Source\PSoC4/LED_ISR.c ****     /* Get the state of the general interrupt. */
 332:Generated_Source\PSoC4/LED_ISR.c ****     return ((*LED_ISR_INTC_SET_EN & (uint32)LED_ISR__INTC_MASK) != 0u) ? 1u:0u;
 214              		.loc 1 332 0
 215 0000 034B     		ldr	r3, .L20
 216 0002 1B68     		ldr	r3, [r3]
 217 0004 1B07     		lsls	r3, r3, #28
 218 0006 01D5     		bpl	.L19
 219 0008 0120     		movs	r0, #1
 220 000a 00E0     		b	.L18
 221              	.L19:
 222 000c 0020     		movs	r0, #0
 223              	.L18:
 333:Generated_Source\PSoC4/LED_ISR.c **** }
 224              		.loc 1 333 0 discriminator 4
 225              		@ sp needed
 226 000e 7047     		bx	lr
 227              	.L21:
 228              		.align	2
 229              	.L20:
 230 0010 00E100E0 		.word	-536813312
 231              		.cfi_endproc
 232              	.LFE41:
 233              		.size	LED_ISR_GetState, .-LED_ISR_GetState
 234              		.section	.text.LED_ISR_Disable,"ax",%progbits
 235              		.align	2
 236              		.global	LED_ISR_Disable
ARM GAS  C:\Users\kylep\AppData\Local\Temp\ccVpdkJX.s 			page 11


 237              		.code	16
 238              		.thumb_func
 239              		.type	LED_ISR_Disable, %function
 240              	LED_ISR_Disable:
 241              	.LFB42:
 334:Generated_Source\PSoC4/LED_ISR.c **** 
 335:Generated_Source\PSoC4/LED_ISR.c **** 
 336:Generated_Source\PSoC4/LED_ISR.c **** /*******************************************************************************
 337:Generated_Source\PSoC4/LED_ISR.c **** * Function Name: LED_ISR_Disable
 338:Generated_Source\PSoC4/LED_ISR.c **** ********************************************************************************
 339:Generated_Source\PSoC4/LED_ISR.c **** *
 340:Generated_Source\PSoC4/LED_ISR.c **** * Summary:
 341:Generated_Source\PSoC4/LED_ISR.c **** *   Disables the Interrupt in the interrupt controller.
 342:Generated_Source\PSoC4/LED_ISR.c **** *
 343:Generated_Source\PSoC4/LED_ISR.c **** * Parameters:
 344:Generated_Source\PSoC4/LED_ISR.c **** *   None
 345:Generated_Source\PSoC4/LED_ISR.c **** *
 346:Generated_Source\PSoC4/LED_ISR.c **** * Return:
 347:Generated_Source\PSoC4/LED_ISR.c **** *   None
 348:Generated_Source\PSoC4/LED_ISR.c **** *
 349:Generated_Source\PSoC4/LED_ISR.c **** *******************************************************************************/
 350:Generated_Source\PSoC4/LED_ISR.c **** void LED_ISR_Disable(void)
 351:Generated_Source\PSoC4/LED_ISR.c **** {
 242              		.loc 1 351 0
 243              		.cfi_startproc
 244              		@ args = 0, pretend = 0, frame = 0
 245              		@ frame_needed = 0, uses_anonymous_args = 0
 246              		@ link register save eliminated.
 352:Generated_Source\PSoC4/LED_ISR.c ****     /* Disable the general interrupt. */
 353:Generated_Source\PSoC4/LED_ISR.c ****     *LED_ISR_INTC_CLR_EN = LED_ISR__INTC_MASK;
 247              		.loc 1 353 0
 248 0000 0822     		movs	r2, #8
 249 0002 014B     		ldr	r3, .L23
 250 0004 1A60     		str	r2, [r3]
 354:Generated_Source\PSoC4/LED_ISR.c **** }
 251              		.loc 1 354 0
 252              		@ sp needed
 253 0006 7047     		bx	lr
 254              	.L24:
 255              		.align	2
 256              	.L23:
 257 0008 80E100E0 		.word	-536813184
 258              		.cfi_endproc
 259              	.LFE42:
 260              		.size	LED_ISR_Disable, .-LED_ISR_Disable
 261              		.section	.text.LED_ISR_Start,"ax",%progbits
 262              		.align	2
 263              		.global	LED_ISR_Start
 264              		.code	16
 265              		.thumb_func
 266              		.type	LED_ISR_Start, %function
 267              	LED_ISR_Start:
 268              	.LFB32:
  59:Generated_Source\PSoC4/LED_ISR.c ****     /* For all we know the interrupt is active. */
 269              		.loc 1 59 0
 270              		.cfi_startproc
 271              		@ args = 0, pretend = 0, frame = 0
ARM GAS  C:\Users\kylep\AppData\Local\Temp\ccVpdkJX.s 			page 12


 272              		@ frame_needed = 0, uses_anonymous_args = 0
 273 0000 10B5     		push	{r4, lr}
 274              		.cfi_def_cfa_offset 8
 275              		.cfi_offset 4, -8
 276              		.cfi_offset 14, -4
  61:Generated_Source\PSoC4/LED_ISR.c **** 
 277              		.loc 1 61 0
 278 0002 FFF7FEFF 		bl	LED_ISR_Disable
 279              	.LVL9:
  64:Generated_Source\PSoC4/LED_ISR.c **** 
 280              		.loc 1 64 0
 281 0006 0448     		ldr	r0, .L26
 282 0008 FFF7FEFF 		bl	LED_ISR_SetVector
 283              	.LVL10:
  67:Generated_Source\PSoC4/LED_ISR.c **** 
 284              		.loc 1 67 0
 285 000c 0320     		movs	r0, #3
 286 000e FFF7FEFF 		bl	LED_ISR_SetPriority
 287              	.LVL11:
  70:Generated_Source\PSoC4/LED_ISR.c **** }
 288              		.loc 1 70 0
 289 0012 FFF7FEFF 		bl	LED_ISR_Enable
 290              	.LVL12:
  71:Generated_Source\PSoC4/LED_ISR.c **** 
 291              		.loc 1 71 0
 292              		@ sp needed
 293 0016 10BD     		pop	{r4, pc}
 294              	.L27:
 295              		.align	2
 296              	.L26:
 297 0018 00000000 		.word	LED_ISR_Interrupt
 298              		.cfi_endproc
 299              	.LFE32:
 300              		.size	LED_ISR_Start, .-LED_ISR_Start
 301              		.section	.text.LED_ISR_StartEx,"ax",%progbits
 302              		.align	2
 303              		.global	LED_ISR_StartEx
 304              		.code	16
 305              		.thumb_func
 306              		.type	LED_ISR_StartEx, %function
 307              	LED_ISR_StartEx:
 308              	.LFB33:
 102:Generated_Source\PSoC4/LED_ISR.c ****     /* For all we know the interrupt is active. */
 309              		.loc 1 102 0
 310              		.cfi_startproc
 311              		@ args = 0, pretend = 0, frame = 0
 312              		@ frame_needed = 0, uses_anonymous_args = 0
 313              	.LVL13:
 314 0000 10B5     		push	{r4, lr}
 315              		.cfi_def_cfa_offset 8
 316              		.cfi_offset 4, -8
 317              		.cfi_offset 14, -4
 318 0002 0400     		movs	r4, r0
 104:Generated_Source\PSoC4/LED_ISR.c **** 
 319              		.loc 1 104 0
 320 0004 FFF7FEFF 		bl	LED_ISR_Disable
 321              	.LVL14:
ARM GAS  C:\Users\kylep\AppData\Local\Temp\ccVpdkJX.s 			page 13


 107:Generated_Source\PSoC4/LED_ISR.c **** 
 322              		.loc 1 107 0
 323 0008 2000     		movs	r0, r4
 324 000a FFF7FEFF 		bl	LED_ISR_SetVector
 325              	.LVL15:
 110:Generated_Source\PSoC4/LED_ISR.c **** 
 326              		.loc 1 110 0
 327 000e 0320     		movs	r0, #3
 328 0010 FFF7FEFF 		bl	LED_ISR_SetPriority
 329              	.LVL16:
 113:Generated_Source\PSoC4/LED_ISR.c **** }
 330              		.loc 1 113 0
 331 0014 FFF7FEFF 		bl	LED_ISR_Enable
 332              	.LVL17:
 114:Generated_Source\PSoC4/LED_ISR.c **** 
 333              		.loc 1 114 0
 334              		@ sp needed
 335              	.LVL18:
 336 0018 10BD     		pop	{r4, pc}
 337              		.cfi_endproc
 338              	.LFE33:
 339              		.size	LED_ISR_StartEx, .-LED_ISR_StartEx
 340 001a C046     		.section	.text.LED_ISR_Stop,"ax",%progbits
 341              		.align	2
 342              		.global	LED_ISR_Stop
 343              		.code	16
 344              		.thumb_func
 345              		.type	LED_ISR_Stop, %function
 346              	LED_ISR_Stop:
 347              	.LFB34:
 132:Generated_Source\PSoC4/LED_ISR.c ****     /* Disable this interrupt. */
 348              		.loc 1 132 0
 349              		.cfi_startproc
 350              		@ args = 0, pretend = 0, frame = 0
 351              		@ frame_needed = 0, uses_anonymous_args = 0
 352 0000 10B5     		push	{r4, lr}
 353              		.cfi_def_cfa_offset 8
 354              		.cfi_offset 4, -8
 355              		.cfi_offset 14, -4
 134:Generated_Source\PSoC4/LED_ISR.c **** 
 356              		.loc 1 134 0
 357 0002 FFF7FEFF 		bl	LED_ISR_Disable
 358              	.LVL19:
 137:Generated_Source\PSoC4/LED_ISR.c **** }
 359              		.loc 1 137 0
 360 0006 0248     		ldr	r0, .L30
 361 0008 FFF7FEFF 		bl	LED_ISR_SetVector
 362              	.LVL20:
 138:Generated_Source\PSoC4/LED_ISR.c **** 
 363              		.loc 1 138 0
 364              		@ sp needed
 365 000c 10BD     		pop	{r4, pc}
 366              	.L31:
 367 000e C046     		.align	2
 368              	.L30:
 369 0010 00000000 		.word	IntDefaultHandler
 370              		.cfi_endproc
ARM GAS  C:\Users\kylep\AppData\Local\Temp\ccVpdkJX.s 			page 14


 371              	.LFE34:
 372              		.size	LED_ISR_Stop, .-LED_ISR_Stop
 373              		.section	.text.LED_ISR_SetPending,"ax",%progbits
 374              		.align	2
 375              		.global	LED_ISR_SetPending
 376              		.code	16
 377              		.thumb_func
 378              		.type	LED_ISR_SetPending, %function
 379              	LED_ISR_SetPending:
 380              	.LFB43:
 355:Generated_Source\PSoC4/LED_ISR.c **** 
 356:Generated_Source\PSoC4/LED_ISR.c **** 
 357:Generated_Source\PSoC4/LED_ISR.c **** /*******************************************************************************
 358:Generated_Source\PSoC4/LED_ISR.c **** * Function Name: LED_ISR_SetPending
 359:Generated_Source\PSoC4/LED_ISR.c **** ********************************************************************************
 360:Generated_Source\PSoC4/LED_ISR.c **** *
 361:Generated_Source\PSoC4/LED_ISR.c **** * Summary:
 362:Generated_Source\PSoC4/LED_ISR.c **** *   Causes the Interrupt to enter the pending state, a software method of
 363:Generated_Source\PSoC4/LED_ISR.c **** *   generating the interrupt.
 364:Generated_Source\PSoC4/LED_ISR.c **** *
 365:Generated_Source\PSoC4/LED_ISR.c **** * Parameters:
 366:Generated_Source\PSoC4/LED_ISR.c **** *   None
 367:Generated_Source\PSoC4/LED_ISR.c **** *
 368:Generated_Source\PSoC4/LED_ISR.c **** * Return:
 369:Generated_Source\PSoC4/LED_ISR.c **** *   None
 370:Generated_Source\PSoC4/LED_ISR.c **** *
 371:Generated_Source\PSoC4/LED_ISR.c **** * Side Effects:
 372:Generated_Source\PSoC4/LED_ISR.c **** *   If interrupts are enabled and the interrupt is set up properly, the ISR is
 373:Generated_Source\PSoC4/LED_ISR.c **** *   entered (depending on the priority of this interrupt and other pending 
 374:Generated_Source\PSoC4/LED_ISR.c **** *   interrupts).
 375:Generated_Source\PSoC4/LED_ISR.c **** *
 376:Generated_Source\PSoC4/LED_ISR.c **** *******************************************************************************/
 377:Generated_Source\PSoC4/LED_ISR.c **** void LED_ISR_SetPending(void)
 378:Generated_Source\PSoC4/LED_ISR.c **** {
 381              		.loc 1 378 0
 382              		.cfi_startproc
 383              		@ args = 0, pretend = 0, frame = 0
 384              		@ frame_needed = 0, uses_anonymous_args = 0
 385              		@ link register save eliminated.
 379:Generated_Source\PSoC4/LED_ISR.c ****     *LED_ISR_INTC_SET_PD = LED_ISR__INTC_MASK;
 386              		.loc 1 379 0
 387 0000 0822     		movs	r2, #8
 388 0002 014B     		ldr	r3, .L33
 389 0004 1A60     		str	r2, [r3]
 380:Generated_Source\PSoC4/LED_ISR.c **** }
 390              		.loc 1 380 0
 391              		@ sp needed
 392 0006 7047     		bx	lr
 393              	.L34:
 394              		.align	2
 395              	.L33:
 396 0008 00E200E0 		.word	-536813056
 397              		.cfi_endproc
 398              	.LFE43:
 399              		.size	LED_ISR_SetPending, .-LED_ISR_SetPending
 400              		.section	.text.LED_ISR_ClearPending,"ax",%progbits
 401              		.align	2
ARM GAS  C:\Users\kylep\AppData\Local\Temp\ccVpdkJX.s 			page 15


 402              		.global	LED_ISR_ClearPending
 403              		.code	16
 404              		.thumb_func
 405              		.type	LED_ISR_ClearPending, %function
 406              	LED_ISR_ClearPending:
 407              	.LFB44:
 381:Generated_Source\PSoC4/LED_ISR.c **** 
 382:Generated_Source\PSoC4/LED_ISR.c **** 
 383:Generated_Source\PSoC4/LED_ISR.c **** /*******************************************************************************
 384:Generated_Source\PSoC4/LED_ISR.c **** * Function Name: LED_ISR_ClearPending
 385:Generated_Source\PSoC4/LED_ISR.c **** ********************************************************************************
 386:Generated_Source\PSoC4/LED_ISR.c **** *
 387:Generated_Source\PSoC4/LED_ISR.c **** * Summary:
 388:Generated_Source\PSoC4/LED_ISR.c **** *   Clears a pending interrupt in the interrupt controller.
 389:Generated_Source\PSoC4/LED_ISR.c **** *
 390:Generated_Source\PSoC4/LED_ISR.c **** *   Note Some interrupt sources are clear-on-read and require the block 
 391:Generated_Source\PSoC4/LED_ISR.c **** *   interrupt/status register to be read/cleared with the appropriate block API 
 392:Generated_Source\PSoC4/LED_ISR.c **** *   (GPIO, UART, and so on). Otherwise the ISR will continue to remain in 
 393:Generated_Source\PSoC4/LED_ISR.c **** *   pending state even though the interrupt itself is cleared using this API.
 394:Generated_Source\PSoC4/LED_ISR.c **** *
 395:Generated_Source\PSoC4/LED_ISR.c **** * Parameters:
 396:Generated_Source\PSoC4/LED_ISR.c **** *   None
 397:Generated_Source\PSoC4/LED_ISR.c **** *
 398:Generated_Source\PSoC4/LED_ISR.c **** * Return:
 399:Generated_Source\PSoC4/LED_ISR.c **** *   None
 400:Generated_Source\PSoC4/LED_ISR.c **** *
 401:Generated_Source\PSoC4/LED_ISR.c **** *******************************************************************************/
 402:Generated_Source\PSoC4/LED_ISR.c **** void LED_ISR_ClearPending(void)
 403:Generated_Source\PSoC4/LED_ISR.c **** {
 408              		.loc 1 403 0
 409              		.cfi_startproc
 410              		@ args = 0, pretend = 0, frame = 0
 411              		@ frame_needed = 0, uses_anonymous_args = 0
 412              		@ link register save eliminated.
 404:Generated_Source\PSoC4/LED_ISR.c ****     *LED_ISR_INTC_CLR_PD = LED_ISR__INTC_MASK;
 413              		.loc 1 404 0
 414 0000 0822     		movs	r2, #8
 415 0002 014B     		ldr	r3, .L36
 416 0004 1A60     		str	r2, [r3]
 405:Generated_Source\PSoC4/LED_ISR.c **** }
 417              		.loc 1 405 0
 418              		@ sp needed
 419 0006 7047     		bx	lr
 420              	.L37:
 421              		.align	2
 422              	.L36:
 423 0008 80E200E0 		.word	-536812928
 424              		.cfi_endproc
 425              	.LFE44:
 426              		.size	LED_ISR_ClearPending, .-LED_ISR_ClearPending
 427              		.text
 428              	.Letext0:
 429              		.file 2 "Generated_Source\\PSoC4/cytypes.h"
 430              		.file 3 "./DriverControl.h"
 431              		.file 4 "Generated_Source\\PSoC4/CyLib.h"