ARM GAS  C:\Users\kylep\AppData\Local\Temp\ccbmExmC.s 			page 1


   1              		.syntax unified
   2              		.cpu cortex-m0
   3              		.fpu softvfp
   4              		.eabi_attribute 20, 1
   5              		.eabi_attribute 21, 1
   6              		.eabi_attribute 23, 3
   7              		.eabi_attribute 24, 1
   8              		.eabi_attribute 25, 1
   9              		.eabi_attribute 26, 1
  10              		.eabi_attribute 30, 1
  11              		.eabi_attribute 34, 0
  12              		.eabi_attribute 18, 4
  13              		.thumb
  14              		.syntax unified
  15              		.file	"main.c"
  16              		.text
  17              	.Ltext0:
  18              		.cfi_sections	.debug_frame
  19              		.section	.text.initializePeripherals,"ax",%progbits
  20              		.align	2
  21              		.code	16
  22              		.thumb_func
  23              		.type	initializePeripherals, %function
  24              	initializePeripherals:
  25              	.LFB37:
  26              		.file 1 "main.c"
   1:main.c        **** /* ========================================
   2:main.c        ****  *
   3:main.c        ****  * Copyright YOUR COMPANY, THE YEAR
   4:main.c        ****  * All Rights Reserved
   5:main.c        ****  * UNPUBLISHED, LICENSED SOFTWARE.
   6:main.c        ****  *
   7:main.c        ****  * CONFIDENTIAL AND PROPRIETARY INFORMATION
   8:main.c        ****  * WHICH IS THE PROPERTY OF your company.
   9:main.c        ****  *
  10:main.c        ****  * ========================================
  11:main.c        **** */
  12:main.c        **** /**********CHANGE LOG**********/
  13:main.c        **** 
  14:main.c        **** 
  15:main.c        **** /**********PREPROCESSOR DIRECTIVES**********/
  16:main.c        **** #include "CommonVariables.h"
  17:main.c        **** #include "BrightnessCommManager.h"
  18:main.c        **** #include "TemperatureCommManager.h"
  19:main.c        **** #include "DriverControl.h"
  20:main.c        **** #include "motorControl.h"
  21:main.c        ****     
  22:main.c        **** /**********DEFINED CONSTANTS**********/
  23:main.c        ****     
  24:main.c        **** 
  25:main.c        **** /**********DATA STRUCTURES**********/
  26:main.c        **** 
  27:main.c        **** 
  28:main.c        **** /**********GLOBAL VARIABLES**********/
  29:main.c        **** static const uint8 CYCODE eepromBrightnessMotorPosition[6] = {0xFF, 0x00, 0x00, 0x00,0x00,0x00};   
  30:main.c        **** static uint8 ramBrightnessMotorPosition[6] ={0x00,0x00,0x00,0x00,00,00};
  31:main.c        **** static const uint8 bSetInitializedAlready = 1;
ARM GAS  C:\Users\kylep\AppData\Local\Temp\ccbmExmC.s 			page 2


  32:main.c        **** static uint8 beepromCountAlreadyReset = 0;
  33:main.c        **** static const uint8 *peepromMemory;
  34:main.c        **** extern MotorIO *pMotor;
  35:main.c        **** 
  36:main.c        **** volatile uint8 timerForInputs=0;
  37:main.c        **** volatile uint16 timerForMotorInputs=0;
  38:main.c        **** /**********LOCAL FUNCTION PROTOTYPES**********/
  39:main.c        **** static void initializePeripherals(void);
  40:main.c        **** 
  41:main.c        **** /**********DEFINED GLOBAL FUNCTIONS**********/
  42:main.c        **** 
  43:main.c        **** /*******************************************************************************
  44:main.c        **** * Function Name: main
  45:main.c        **** ********************************************************************************
  46:main.c        **** *
  47:main.c        **** * Summary:
  48:main.c        **** *  Start of program
  49:main.c        **** *
  50:main.c        **** * Parameters:
  51:main.c        **** *  None.
  52:main.c        **** *
  53:main.c        **** * Return:
  54:main.c        **** *  Never returns.
  55:main.c        **** *
  56:main.c        **** *******************************************************************************/
  57:main.c        **** int main()
  58:main.c        **** {   
  59:main.c        ****     {
  60:main.c        ****     CyGlobalIntEnable;
  61:main.c        ****     initializePeripherals();
  62:main.c        ****     modeChangeISR_Start();
  63:main.c        ****     //ADC_SAR_Seq_1_Start();
  64:main.c        ****     //ADC_SAR_Seq_1_GetResult16();
  65:main.c        ****     //inputIncrease_Start();
  66:main.c        ****     //inputTimerISR_Start();
  67:main.c        ****     
  68:main.c        ****    // if(*(volatile uint8 *) &eepromBrightnessMotorPosition[3] == 0)
  69:main.c        ****     {
  70:main.c        ****         //calibrateMotor();
  71:main.c        ****         ramBrightnessMotorPosition[3] = 1;
  72:main.c        ****         ramBrightnessMotorPosition[2] = 0;
  73:main.c        ****         //ramBrightnessMotorPosition[1] = 0xFF;
  74:main.c        ****        // ramBrightnessMotorPosition[4] = pMotor->forwardLimitCS;
  75:main.c        ****        // ramBrightnessMotorPosition[5] = pMotor->backwardLimitCS;
  76:main.c        ****         //EmEEPROM_Write(&ramBrightnessMotorPosition[1],&eepromBrightnessMotorPosition[1],5);
  77:main.c        ****     }
  78:main.c        ****    // else
  79:main.c        ****     {
  80:main.c        ****         //loadLimitSwitchValue();
  81:main.c        ****     }
  82:main.c        ****     
  83:main.c        ****     
  84:main.c        ****     {
  85:main.c        ****         setIdentityByComm(HEAD_MODULE_ID);
  86:main.c        ****     }
  87:main.c        ****     }    
  88:main.c        **** 
ARM GAS  C:\Users\kylep\AppData\Local\Temp\ccbmExmC.s 			page 3


  89:main.c        ****     for(;;)
  90:main.c        ****     {
  91:main.c        ****         timeOutStateMachine(&eepromBrightnessMotorPosition[0]);
  92:main.c        ****         motorControlLoop(0);
  93:main.c        ****         
  94:main.c        ****     }
  95:main.c        **** }
  96:main.c        **** 
  97:main.c        **** /**********DEFINED GLOBAL FUNCTIONS**********/
  98:main.c        **** 
  99:main.c        **** /*******************************************************************************
 100:main.c        **** * Function Name: initializePeripherals
 101:main.c        **** ********************************************************************************
 102:main.c        **** *
 103:main.c        **** * Summary:
 104:main.c        **** *  Sets up all peripherals needed for the project.
 105:main.c        **** *
 106:main.c        **** * Parameters:
 107:main.c        **** *  None.
 108:main.c        **** *
 109:main.c        **** * Return:
 110:main.c        **** *  None.
 111:main.c        **** *
 112:main.c        **** *******************************************************************************/
 113:main.c        **** 
 114:main.c        **** void takeInputValues(void)
 115:main.c        **** {
 116:main.c        ****     volatile uint8 readInputValues = 0;
 117:main.c        ****     volatile uint8 previousReadInputValues = 0;
 118:main.c        ****     uint8 test = 0;
 119:main.c        ****     static uint16 trackBrightness = 0;
 120:main.c        ****     static uint16 trackMotor = 0;
 121:main.c        ****     
 122:main.c        ****     
 123:main.c        ****     if(timerForInputs == 1)
 124:main.c        ****     {
 125:main.c        ****         timerForInputs = 0;
 126:main.c        ****         readInputValues = inputs_Read();
 127:main.c        ****         timerForMotorInputs++;   
 128:main.c        ****         
 129:main.c        ****         if((readInputValues&DIM_PLUS) == DIM_PLUS)
 130:main.c        ****         {
 131:main.c        ****             if(trackBrightness>=254)
 132:main.c        ****             {
 133:main.c        ****                 trackBrightness = 254;
 134:main.c        ****             }
 135:main.c        ****             trackBrightness+=1;
 136:main.c        ****             setBrightness(trackBrightness);
 137:main.c        ****             test = 2;
 138:main.c        ****         }
 139:main.c        ****         else if((readInputValues&DIM_MINUS) == DIM_MINUS)    //DIMMINUS
 140:main.c        ****         {
 141:main.c        ****             if(trackBrightness<=1)
 142:main.c        ****             {
 143:main.c        ****                 trackBrightness = 1;
 144:main.c        ****             }
 145:main.c        ****             //trackBrightness = 100;
ARM GAS  C:\Users\kylep\AppData\Local\Temp\ccbmExmC.s 			page 4


 146:main.c        ****             trackBrightness-=1;
 147:main.c        ****             setBrightness(trackBrightness);
 148:main.c        ****             test = 3;
 149:main.c        ****         }
 150:main.c        ****         setBrightness(trackBrightness);
 151:main.c        ****     }
 152:main.c        ****     
 153:main.c        ****     if(timerForMotorInputs>1) //|| previousReadInputValues!= readInputValues)
 154:main.c        ****     {
 155:main.c        ****         timerForMotorInputs=0;
 156:main.c        ****         
 157:main.c        ****         if((readInputValues&ZOOM_PLUS) == ZOOM_PLUS)
 158:main.c        ****         {
 159:main.c        ****         if(trackMotor>=254)
 160:main.c        ****         {
 161:main.c        ****             trackMotor = 254;
 162:main.c        ****         }
 163:main.c        ****         //trackMotor=254;
 164:main.c        ****         trackMotor+=1;
 165:main.c        ****         setMotorPosition(trackMotor);
 166:main.c        ****         test = 0;
 167:main.c        ****     }
 168:main.c        ****         else if((readInputValues&ZOOM_MINUS) == ZOOM_MINUS)  //DIMPLUS
 169:main.c        ****         {
 170:main.c        ****         if(trackMotor<=1)
 171:main.c        ****         {
 172:main.c        ****             trackMotor = 1;
 173:main.c        ****         }
 174:main.c        ****         //trackMotor=1;
 175:main.c        ****         trackMotor-=1;
 176:main.c        ****         setMotorPosition(trackMotor);
 177:main.c        ****         test = 1;
 178:main.c        ****     }                  
 179:main.c        ****     }
 180:main.c        ****     previousReadInputValues = readInputValues;
 181:main.c        ****     
 182:main.c        **** }
 183:main.c        **** 
 184:main.c        **** void clearInitializeAlreadyEEPROM(void)
 185:main.c        **** {
 186:main.c        ****     static const uint8 detectedAlready = 0;
 187:main.c        ****     //if(beepromCountAlreadyReset == 0)
 188:main.c        ****     //{
 189:main.c        ****         beepromCountAlreadyReset =1;
 190:main.c        ****         EmEEPROM_Write(&detectedAlready,&eepromBrightnessMotorPosition[3],1);
 191:main.c        ****     //}
 192:main.c        **** }
 193:main.c        **** 
 194:main.c        **** const uint8 * getNonVolatileBarStateMemory(void)
 195:main.c        **** {
 196:main.c        ****     return &eepromBrightnessMotorPosition[0];
 197:main.c        **** }
 198:main.c        **** 
 199:main.c        **** uint8 * getVolatileBarStateMemory(void)
 200:main.c        **** {
 201:main.c        ****     return &ramBrightnessMotorPosition[0];
 202:main.c        **** }
ARM GAS  C:\Users\kylep\AppData\Local\Temp\ccbmExmC.s 			page 5


 203:main.c        **** 
 204:main.c        **** /**********DEFINED LOCAL FUNCTIONS**********/
 205:main.c        **** 
 206:main.c        **** static void initializePeripherals(void)
 207:main.c        **** {
  27              		.loc 1 207 0
  28              		.cfi_startproc
  29              		@ args = 0, pretend = 0, frame = 0
  30              		@ frame_needed = 0, uses_anonymous_args = 0
  31 0000 10B5     		push	{r4, lr}
  32              		.cfi_def_cfa_offset 8
  33              		.cfi_offset 4, -8
  34              		.cfi_offset 14, -4
 208:main.c        ****     //UART_LED_Control_Write(TRUE);
 209:main.c        ****     PWM_Enable_Write(FALSE);
  35              		.loc 1 209 0
  36 0002 0020     		movs	r0, #0
  37 0004 FFF7FEFF 		bl	PWM_Enable_Write
  38              	.LVL0:
 210:main.c        ****     
 211:main.c        ****     PWM_Start();
  39              		.loc 1 211 0
  40 0008 FFF7FEFF 		bl	PWM_Start
  41              	.LVL1:
 212:main.c        ****     PWM_WriteCompare(0);
  42              		.loc 1 212 0
  43 000c 0020     		movs	r0, #0
  44 000e FFF7FEFF 		bl	PWM_WriteCompare
  45              	.LVL2:
 213:main.c        **** 
 214:main.c        ****     CommTimeoutISR_Start();
  46              		.loc 1 214 0
  47 0012 FFF7FEFF 		bl	CommTimeoutISR_Start
  48              	.LVL3:
 215:main.c        ****     AckTimeoutISR_Start();
  49              		.loc 1 215 0
  50 0016 FFF7FEFF 		bl	AckTimeoutISR_Start
  51              	.LVL4:
 216:main.c        ****     
 217:main.c        ****     SamplingTimerISR_Start();
  52              		.loc 1 217 0
  53 001a FFF7FEFF 		bl	SamplingTimerISR_Start
  54              	.LVL5:
 218:main.c        ****     ADC_SAR_Seq_Start();
  55              		.loc 1 218 0
  56 001e FFF7FEFF 		bl	ADC_SAR_Seq_Start
  57              	.LVL6:
 219:main.c        ****     ADC_SAR_Seq_StartConvert();
  58              		.loc 1 219 0
  59 0022 FFF7FEFF 		bl	ADC_SAR_Seq_StartConvert
  60              	.LVL7:
 220:main.c        ****     
 221:main.c        ****     UART_LED_ISR_Start();
  61              		.loc 1 221 0
  62 0026 FFF7FEFF 		bl	UART_LED_ISR_Start
  63              	.LVL8:
 222:main.c        ****     UART_LED_Start();
ARM GAS  C:\Users\kylep\AppData\Local\Temp\ccbmExmC.s 			page 6


  64              		.loc 1 222 0
  65 002a FFF7FEFF 		bl	UART_LED_Start
  66              	.LVL9:
 223:main.c        ****     
 224:main.c        ****     //UART_LED_ISR_Start();
 225:main.c        ****     
 226:main.c        ****     //UART_LED_Start();
 227:main.c        ****     //WakeupISR_Start();
 228:main.c        ****     
 229:main.c        ****     LED_ISR_Start(); 
  67              		.loc 1 229 0
  68 002e FFF7FEFF 		bl	LED_ISR_Start
  69              	.LVL10:
 230:main.c        ****     
 231:main.c        ****     SamplingTimer_Start();
  70              		.loc 1 231 0
  71 0032 FFF7FEFF 		bl	SamplingTimer_Start
  72              	.LVL11:
 232:main.c        ****     TimeoutTimer_Start();
  73              		.loc 1 232 0
  74 0036 FFF7FEFF 		bl	TimeoutTimer_Start
  75              	.LVL12:
 233:main.c        ****     
 234:main.c        ****     EmEEPROM_Start();
  76              		.loc 1 234 0
  77 003a FFF7FEFF 		bl	EmEEPROM_Start
  78              	.LVL13:
 235:main.c        ****     
 236:main.c        ****     initializeMotor();
  79              		.loc 1 236 0
  80 003e FFF7FEFF 		bl	initializeMotor
  81              	.LVL14:
 237:main.c        ****     //CyDelay(250);
 238:main.c        ****     //LED_Output_Write(FALSE);
 239:main.c        ****     //UART_LED_Control_Write(FALSE);
 240:main.c        **** }
  82              		.loc 1 240 0
  83              		@ sp needed
  84 0042 10BD     		pop	{r4, pc}
  85              		.cfi_endproc
  86              	.LFE37:
  87              		.size	initializePeripherals, .-initializePeripherals
  88              		.section	.text.main,"ax",%progbits
  89              		.align	2
  90              		.global	main
  91              		.code	16
  92              		.thumb_func
  93              		.type	main, %function
  94              	main:
  95              	.LFB32:
  58:main.c        ****     {
  96              		.loc 1 58 0
  97              		.cfi_startproc
  98              		@ Volatile: function does not return.
  99              		@ args = 0, pretend = 0, frame = 0
 100              		@ frame_needed = 0, uses_anonymous_args = 0
 101 0000 10B5     		push	{r4, lr}
ARM GAS  C:\Users\kylep\AppData\Local\Temp\ccbmExmC.s 			page 7


 102              		.cfi_def_cfa_offset 8
 103              		.cfi_offset 4, -8
 104              		.cfi_offset 14, -4
  60:main.c        ****     initializePeripherals();
 105              		.loc 1 60 0
 106              		.syntax divided
 107              	@ 60 "main.c" 1
 108 0002 62B6     		CPSIE   i
 109              	@ 0 "" 2
  61:main.c        ****     modeChangeISR_Start();
 110              		.loc 1 61 0
 111              		.thumb
 112              		.syntax unified
 113 0004 FFF7FEFF 		bl	initializePeripherals
 114              	.LVL15:
  62:main.c        ****     //ADC_SAR_Seq_1_Start();
 115              		.loc 1 62 0
 116 0008 FFF7FEFF 		bl	modeChangeISR_Start
 117              	.LVL16:
  71:main.c        ****         ramBrightnessMotorPosition[2] = 0;
 118              		.loc 1 71 0
 119 000c 074B     		ldr	r3, .L4
 120 000e 0122     		movs	r2, #1
 121 0010 DA70     		strb	r2, [r3, #3]
  72:main.c        ****         //ramBrightnessMotorPosition[1] = 0xFF;
 122              		.loc 1 72 0
 123 0012 0022     		movs	r2, #0
 124 0014 9A70     		strb	r2, [r3, #2]
  85:main.c        ****     }
 125              		.loc 1 85 0
 126 0016 0120     		movs	r0, #1
 127 0018 FFF7FEFF 		bl	setIdentityByComm
 128              	.LVL17:
 129              	.L3:
  91:main.c        ****         motorControlLoop(0);
 130              		.loc 1 91 0 discriminator 1
 131 001c 0448     		ldr	r0, .L4+4
 132 001e FFF7FEFF 		bl	timeOutStateMachine
 133              	.LVL18:
  92:main.c        ****         
 134              		.loc 1 92 0 discriminator 1
 135 0022 0020     		movs	r0, #0
 136 0024 FFF7FEFF 		bl	motorControlLoop
 137              	.LVL19:
 138 0028 F8E7     		b	.L3
 139              	.L5:
 140 002a C046     		.align	2
 141              	.L4:
 142 002c 00000000 		.word	.LANCHOR0
 143 0030 00000000 		.word	.LANCHOR1
 144              		.cfi_endproc
 145              	.LFE32:
 146              		.size	main, .-main
 147              		.section	.text.takeInputValues,"ax",%progbits
 148              		.align	2
 149              		.global	takeInputValues
 150              		.code	16
ARM GAS  C:\Users\kylep\AppData\Local\Temp\ccbmExmC.s 			page 8


 151              		.thumb_func
 152              		.type	takeInputValues, %function
 153              	takeInputValues:
 154              	.LFB33:
 115:main.c        ****     volatile uint8 readInputValues = 0;
 155              		.loc 1 115 0
 156              		.cfi_startproc
 157              		@ args = 0, pretend = 0, frame = 8
 158              		@ frame_needed = 0, uses_anonymous_args = 0
 159 0000 10B5     		push	{r4, lr}
 160              		.cfi_def_cfa_offset 8
 161              		.cfi_offset 4, -8
 162              		.cfi_offset 14, -4
 163 0002 82B0     		sub	sp, sp, #8
 164              		.cfi_def_cfa_offset 16
 116:main.c        ****     volatile uint8 previousReadInputValues = 0;
 165              		.loc 1 116 0
 166 0004 0023     		movs	r3, #0
 167 0006 6A46     		mov	r2, sp
 168 0008 D371     		strb	r3, [r2, #7]
 117:main.c        ****     uint8 test = 0;
 169              		.loc 1 117 0
 170 000a 6A46     		mov	r2, sp
 171 000c 9371     		strb	r3, [r2, #6]
 172              	.LVL20:
 123:main.c        ****     {
 173              		.loc 1 123 0
 174 000e 3A4B     		ldr	r3, .L16
 175 0010 9B79     		ldrb	r3, [r3, #6]
 176 0012 012B     		cmp	r3, #1
 177 0014 36D1     		bne	.L7
 125:main.c        ****         readInputValues = inputs_Read();
 178              		.loc 1 125 0
 179 0016 384C     		ldr	r4, .L16
 180 0018 0023     		movs	r3, #0
 181 001a A371     		strb	r3, [r4, #6]
 126:main.c        ****         timerForMotorInputs++;   
 182              		.loc 1 126 0
 183 001c FFF7FEFF 		bl	inputs_Read
 184              	.LVL21:
 185 0020 6B46     		mov	r3, sp
 186 0022 DA1D     		adds	r2, r3, #7
 187 0024 D871     		strb	r0, [r3, #7]
 127:main.c        ****         
 188              		.loc 1 127 0
 189 0026 2389     		ldrh	r3, [r4, #8]
 190 0028 0133     		adds	r3, r3, #1
 191 002a 9BB2     		uxth	r3, r3
 192 002c 2381     		strh	r3, [r4, #8]
 129:main.c        ****         {
 193              		.loc 1 129 0
 194 002e 1378     		ldrb	r3, [r2]
 195 0030 9B07     		lsls	r3, r3, #30
 196 0032 0FD5     		bpl	.L8
 131:main.c        ****             {
 197              		.loc 1 131 0
 198 0034 304B     		ldr	r3, .L16
ARM GAS  C:\Users\kylep\AppData\Local\Temp\ccbmExmC.s 			page 9


 199 0036 5B89     		ldrh	r3, [r3, #10]
 200 0038 FD2B     		cmp	r3, #253
 201 003a 02D9     		bls	.L9
 133:main.c        ****             }
 202              		.loc 1 133 0
 203 003c FE22     		movs	r2, #254
 204 003e 2E4B     		ldr	r3, .L16
 205 0040 5A81     		strh	r2, [r3, #10]
 206              	.L9:
 135:main.c        ****             setBrightness(trackBrightness);
 207              		.loc 1 135 0
 208 0042 2D4B     		ldr	r3, .L16
 209 0044 5889     		ldrh	r0, [r3, #10]
 210 0046 0130     		adds	r0, r0, #1
 211 0048 80B2     		uxth	r0, r0
 212 004a 5881     		strh	r0, [r3, #10]
 136:main.c        ****             test = 2;
 213              		.loc 1 136 0
 214 004c C0B2     		uxtb	r0, r0
 215 004e FFF7FEFF 		bl	setBrightness
 216              	.LVL22:
 217 0052 13E0     		b	.L10
 218              	.LVL23:
 219              	.L8:
 139:main.c        ****         {
 220              		.loc 1 139 0
 221 0054 6B46     		mov	r3, sp
 222 0056 0733     		adds	r3, r3, #7
 223 0058 1B78     		ldrb	r3, [r3]
 224 005a 1B07     		lsls	r3, r3, #28
 225 005c 0ED5     		bpl	.L10
 141:main.c        ****             {
 226              		.loc 1 141 0
 227 005e 264B     		ldr	r3, .L16
 228 0060 5B89     		ldrh	r3, [r3, #10]
 229 0062 012B     		cmp	r3, #1
 230 0064 02D8     		bhi	.L11
 143:main.c        ****             }
 231              		.loc 1 143 0
 232 0066 0122     		movs	r2, #1
 233 0068 234B     		ldr	r3, .L16
 234 006a 5A81     		strh	r2, [r3, #10]
 235              	.L11:
 146:main.c        ****             setBrightness(trackBrightness);
 236              		.loc 1 146 0
 237 006c 224B     		ldr	r3, .L16
 238 006e 5889     		ldrh	r0, [r3, #10]
 239 0070 0138     		subs	r0, r0, #1
 240 0072 80B2     		uxth	r0, r0
 241 0074 5881     		strh	r0, [r3, #10]
 147:main.c        ****             test = 3;
 242              		.loc 1 147 0
 243 0076 C0B2     		uxtb	r0, r0
 244 0078 FFF7FEFF 		bl	setBrightness
 245              	.LVL24:
 246              	.L10:
 150:main.c        ****     }
ARM GAS  C:\Users\kylep\AppData\Local\Temp\ccbmExmC.s 			page 10


 247              		.loc 1 150 0
 248 007c 1E4B     		ldr	r3, .L16
 249 007e 987A     		ldrb	r0, [r3, #10]
 250 0080 FFF7FEFF 		bl	setBrightness
 251              	.LVL25:
 252              	.L7:
 153:main.c        ****     {
 253              		.loc 1 153 0
 254 0084 1C4B     		ldr	r3, .L16
 255 0086 1B89     		ldrh	r3, [r3, #8]
 256 0088 9BB2     		uxth	r3, r3
 257 008a 012B     		cmp	r3, #1
 258 008c 2BD9     		bls	.L12
 155:main.c        ****         
 259              		.loc 1 155 0
 260 008e 0022     		movs	r2, #0
 261 0090 194B     		ldr	r3, .L16
 262 0092 1A81     		strh	r2, [r3, #8]
 157:main.c        ****         {
 263              		.loc 1 157 0
 264 0094 6B46     		mov	r3, sp
 265 0096 0733     		adds	r3, r3, #7
 266 0098 1B78     		ldrb	r3, [r3]
 267 009a 5B07     		lsls	r3, r3, #29
 268 009c 0FD5     		bpl	.L13
 159:main.c        ****         {
 269              		.loc 1 159 0
 270 009e 164B     		ldr	r3, .L16
 271 00a0 9B89     		ldrh	r3, [r3, #12]
 272 00a2 FD2B     		cmp	r3, #253
 273 00a4 02D9     		bls	.L14
 161:main.c        ****         }
 274              		.loc 1 161 0
 275 00a6 FE32     		adds	r2, r2, #254
 276 00a8 134B     		ldr	r3, .L16
 277 00aa 9A81     		strh	r2, [r3, #12]
 278              	.L14:
 164:main.c        ****         setMotorPosition(trackMotor);
 279              		.loc 1 164 0
 280 00ac 124B     		ldr	r3, .L16
 281 00ae 9889     		ldrh	r0, [r3, #12]
 282 00b0 0130     		adds	r0, r0, #1
 283 00b2 80B2     		uxth	r0, r0
 284 00b4 9881     		strh	r0, [r3, #12]
 165:main.c        ****         test = 0;
 285              		.loc 1 165 0
 286 00b6 C0B2     		uxtb	r0, r0
 287 00b8 FFF7FEFF 		bl	setMotorPosition
 288              	.LVL26:
 289 00bc 13E0     		b	.L12
 290              	.LVL27:
 291              	.L13:
 168:main.c        ****         {
 292              		.loc 1 168 0
 293 00be 6B46     		mov	r3, sp
 294 00c0 0733     		adds	r3, r3, #7
 295 00c2 1B78     		ldrb	r3, [r3]
ARM GAS  C:\Users\kylep\AppData\Local\Temp\ccbmExmC.s 			page 11


 296 00c4 DB07     		lsls	r3, r3, #31
 297 00c6 0ED5     		bpl	.L12
 170:main.c        ****         {
 298              		.loc 1 170 0
 299 00c8 0B4B     		ldr	r3, .L16
 300 00ca 9B89     		ldrh	r3, [r3, #12]
 301 00cc 012B     		cmp	r3, #1
 302 00ce 02D8     		bhi	.L15
 172:main.c        ****         }
 303              		.loc 1 172 0
 304 00d0 0122     		movs	r2, #1
 305 00d2 094B     		ldr	r3, .L16
 306 00d4 9A81     		strh	r2, [r3, #12]
 307              	.L15:
 175:main.c        ****         setMotorPosition(trackMotor);
 308              		.loc 1 175 0
 309 00d6 084B     		ldr	r3, .L16
 310 00d8 9889     		ldrh	r0, [r3, #12]
 311 00da 0138     		subs	r0, r0, #1
 312 00dc 80B2     		uxth	r0, r0
 313 00de 9881     		strh	r0, [r3, #12]
 176:main.c        ****         test = 1;
 314              		.loc 1 176 0
 315 00e0 C0B2     		uxtb	r0, r0
 316 00e2 FFF7FEFF 		bl	setMotorPosition
 317              	.LVL28:
 318              	.L12:
 180:main.c        ****     
 319              		.loc 1 180 0
 320 00e6 6B46     		mov	r3, sp
 321 00e8 0733     		adds	r3, r3, #7
 322 00ea 1B78     		ldrb	r3, [r3]
 323 00ec DBB2     		uxtb	r3, r3
 324 00ee 6A46     		mov	r2, sp
 325 00f0 9371     		strb	r3, [r2, #6]
 182:main.c        **** 
 326              		.loc 1 182 0
 327 00f2 02B0     		add	sp, sp, #8
 328              		@ sp needed
 329 00f4 10BD     		pop	{r4, pc}
 330              	.L17:
 331 00f6 C046     		.align	2
 332              	.L16:
 333 00f8 00000000 		.word	.LANCHOR0
 334              		.cfi_endproc
 335              	.LFE33:
 336              		.size	takeInputValues, .-takeInputValues
 337              		.section	.text.clearInitializeAlreadyEEPROM,"ax",%progbits
 338              		.align	2
 339              		.global	clearInitializeAlreadyEEPROM
 340              		.code	16
 341              		.thumb_func
 342              		.type	clearInitializeAlreadyEEPROM, %function
 343              	clearInitializeAlreadyEEPROM:
 344              	.LFB34:
 185:main.c        ****     static const uint8 detectedAlready = 0;
 345              		.loc 1 185 0
ARM GAS  C:\Users\kylep\AppData\Local\Temp\ccbmExmC.s 			page 12


 346              		.cfi_startproc
 347              		@ args = 0, pretend = 0, frame = 0
 348              		@ frame_needed = 0, uses_anonymous_args = 0
 349 0000 10B5     		push	{r4, lr}
 350              		.cfi_def_cfa_offset 8
 351              		.cfi_offset 4, -8
 352              		.cfi_offset 14, -4
 190:main.c        ****     //}
 353              		.loc 1 190 0
 354 0002 0348     		ldr	r0, .L19
 355 0004 C11C     		adds	r1, r0, #3
 356 0006 0630     		adds	r0, r0, #6
 357 0008 0122     		movs	r2, #1
 358 000a FFF7FEFF 		bl	EmEEPROM_Write
 359              	.LVL29:
 192:main.c        **** 
 360              		.loc 1 192 0
 361              		@ sp needed
 362 000e 10BD     		pop	{r4, pc}
 363              	.L20:
 364              		.align	2
 365              	.L19:
 366 0010 00000000 		.word	.LANCHOR1
 367              		.cfi_endproc
 368              	.LFE34:
 369              		.size	clearInitializeAlreadyEEPROM, .-clearInitializeAlreadyEEPROM
 370              		.section	.text.getNonVolatileBarStateMemory,"ax",%progbits
 371              		.align	2
 372              		.global	getNonVolatileBarStateMemory
 373              		.code	16
 374              		.thumb_func
 375              		.type	getNonVolatileBarStateMemory, %function
 376              	getNonVolatileBarStateMemory:
 377              	.LFB35:
 195:main.c        ****     return &eepromBrightnessMotorPosition[0];
 378              		.loc 1 195 0
 379              		.cfi_startproc
 380              		@ args = 0, pretend = 0, frame = 0
 381              		@ frame_needed = 0, uses_anonymous_args = 0
 382              		@ link register save eliminated.
 197:main.c        **** 
 383              		.loc 1 197 0
 384 0000 0048     		ldr	r0, .L22
 385              		@ sp needed
 386 0002 7047     		bx	lr
 387              	.L23:
 388              		.align	2
 389              	.L22:
 390 0004 00000000 		.word	.LANCHOR1
 391              		.cfi_endproc
 392              	.LFE35:
 393              		.size	getNonVolatileBarStateMemory, .-getNonVolatileBarStateMemory
 394              		.section	.text.getVolatileBarStateMemory,"ax",%progbits
 395              		.align	2
 396              		.global	getVolatileBarStateMemory
 397              		.code	16
 398              		.thumb_func
ARM GAS  C:\Users\kylep\AppData\Local\Temp\ccbmExmC.s 			page 13


 399              		.type	getVolatileBarStateMemory, %function
 400              	getVolatileBarStateMemory:
 401              	.LFB36:
 200:main.c        ****     return &ramBrightnessMotorPosition[0];
 402              		.loc 1 200 0
 403              		.cfi_startproc
 404              		@ args = 0, pretend = 0, frame = 0
 405              		@ frame_needed = 0, uses_anonymous_args = 0
 406              		@ link register save eliminated.
 202:main.c        **** 
 407              		.loc 1 202 0
 408 0000 0048     		ldr	r0, .L25
 409              		@ sp needed
 410 0002 7047     		bx	lr
 411              	.L26:
 412              		.align	2
 413              	.L25:
 414 0004 00000000 		.word	.LANCHOR0
 415              		.cfi_endproc
 416              	.LFE36:
 417              		.size	getVolatileBarStateMemory, .-getVolatileBarStateMemory
 418              		.global	timerForMotorInputs
 419              		.global	timerForInputs
 420              		.section	.rodata
 421              		.align	2
 422              		.set	.LANCHOR1,. + 0
 423              		.type	eepromBrightnessMotorPosition, %object
 424              		.size	eepromBrightnessMotorPosition, 6
 425              	eepromBrightnessMotorPosition:
 426 0000 FF       		.byte	-1
 427 0001 00       		.byte	0
 428 0002 00       		.byte	0
 429 0003 00       		.byte	0
 430 0004 00       		.byte	0
 431 0005 00       		.byte	0
 432              		.type	detectedAlready.6613, %object
 433              		.size	detectedAlready.6613, 1
 434              	detectedAlready.6613:
 435 0006 00       		.space	1
 436              		.bss
 437              		.align	2
 438              		.set	.LANCHOR0,. + 0
 439              		.type	ramBrightnessMotorPosition, %object
 440              		.size	ramBrightnessMotorPosition, 6
 441              	ramBrightnessMotorPosition:
 442 0000 00000000 		.space	6
 442      0000
 443              		.type	timerForInputs, %object
 444              		.size	timerForInputs, 1
 445              	timerForInputs:
 446 0006 00       		.space	1
 447 0007 00       		.space	1
 448              		.type	timerForMotorInputs, %object
 449              		.size	timerForMotorInputs, 2
 450              	timerForMotorInputs:
 451 0008 0000     		.space	2
 452              		.type	trackBrightness.6608, %object
ARM GAS  C:\Users\kylep\AppData\Local\Temp\ccbmExmC.s 			page 14


 453              		.size	trackBrightness.6608, 2
 454              	trackBrightness.6608:
 455 000a 0000     		.space	2
 456              		.type	trackMotor.6609, %object
 457              		.size	trackMotor.6609, 2
 458              	trackMotor.6609:
 459 000c 0000     		.space	2
 460              		.text
 461              	.Letext0:
 462              		.file 2 "Generated_Source\\PSoC4/cytypes.h"
 463              		.file 3 "Generated_Source\\PSoC4/PWM_Enable.h"
 464              		.file 4 "Generated_Source\\PSoC4/PWM.h"
 465              		.file 5 "Generated_Source\\PSoC4/CommTimeoutISR.h"
 466              		.file 6 "Generated_Source\\PSoC4/AckTimeoutISR.h"
 467              		.file 7 "Generated_Source\\PSoC4/SamplingTimerISR.h"
 468              		.file 8 "Generated_Source\\PSoC4/ADC_SAR_Seq.h"
 469              		.file 9 "Generated_Source\\PSoC4/UART_LED_ISR.h"
 470              		.file 10 "Generated_Source\\PSoC4/UART_LED.h"
 471              		.file 11 "Generated_Source\\PSoC4/LED_ISR.h"
 472              		.file 12 "Generated_Source\\PSoC4/SamplingTimer.h"
 473              		.file 13 "Generated_Source\\PSoC4/TimeoutTimer.h"
 474              		.file 14 "Generated_Source\\PSoC4/EmEEPROM.h"
 475              		.file 15 "motorControl.h"
 476              		.file 16 "Generated_Source\\PSoC4/modeChangeISR.h"
 477              		.file 17 "DriverControl.h"
 478              		.file 18 "BrightnessCommManager.h"
 479              		.file 19 "Generated_Source\\PSoC4/inputs.h"