ARM GAS  C:\Users\kylep\AppData\Local\Temp\ccUCcGKt.s 			page 1


   1              		.syntax unified
   2              		.cpu cortex-m0
   3              		.fpu softvfp
   4              		.eabi_attribute 20, 1
   5              		.eabi_attribute 21, 1
   6              		.eabi_attribute 23, 3
   7              		.eabi_attribute 24, 1
   8              		.eabi_attribute 25, 1
   9              		.eabi_attribute 26, 1
  10              		.eabi_attribute 30, 1
  11              		.eabi_attribute 34, 0
  12              		.eabi_attribute 18, 4
  13              		.thumb
  14              		.syntax unified
  15              		.file	"motorControl.c"
  16              		.text
  17              	.Ltext0:
  18              		.cfi_sections	.debug_frame
  19              		.section	.text.loadLimitSwitchValue,"ax",%progbits
  20              		.align	2
  21              		.global	loadLimitSwitchValue
  22              		.code	16
  23              		.thumb_func
  24              		.type	loadLimitSwitchValue, %function
  25              	loadLimitSwitchValue:
  26              	.LFB36:
  27              		.file 1 "motorControl.c"
   1:motorControl.c **** /* ========================================
   2:motorControl.c ****  *
   3:motorControl.c ****  * Copyright YOUR COMPANY, THE YEAR
   4:motorControl.c ****  * All Rights Reserved
   5:motorControl.c ****  * UNPUBLISHED, LICENSED SOFTWARE.
   6:motorControl.c ****  *
   7:motorControl.c ****  * CONFIDENTIAL AND PROPRIETARY INFORMATION
   8:motorControl.c ****  * WHICH IS THE PROPERTY OF your company.
   9:motorControl.c ****  *
  10:motorControl.c ****  * ========================================
  11:motorControl.c **** */
  12:motorControl.c **** 
  13:motorControl.c **** #include "motorControl.h"
  14:motorControl.c **** #include "BrightnessCommManager.h"
  15:motorControl.c **** 
  16:motorControl.c **** MotorIO *pMotor;
  17:motorControl.c **** RxPacket * rxPacketLocal;
  18:motorControl.c **** MotorIO motorStatus = 
  19:motorControl.c **** {0, 0, 0, FALSE, 0, 0, 0, 0, 0, 0, 0, 0, 0, 0, 0, 0, 0};
  20:motorControl.c **** MotorIO *pMotor;
  21:motorControl.c **** 
  22:motorControl.c **** uint8 bDoneMovingCalibrate = FALSE;
  23:motorControl.c **** static uint32 timeOutCalibrate = 0;
  24:motorControl.c **** uint16 checkMotorCurrent(void);
  25:motorControl.c **** 
  26:motorControl.c **** /*******************************************************************************
  27:motorControl.c **** * ISR Name: HALL_EFFECT_EDGE_DETECT_INTERRUPT
  28:motorControl.c **** ********************************************************************************
  29:motorControl.c **** *
  30:motorControl.c **** * Summary:
ARM GAS  C:\Users\kylep\AppData\Local\Temp\ccUCcGKt.s 			page 2


  31:motorControl.c **** *  Executes whenever an edge is detected from the hall effect sensor.
  32:motorControl.c **** *
  33:motorControl.c **** * Parameters:  
  34:motorControl.c **** *   None
  35:motorControl.c **** *
  36:motorControl.c **** * Return:
  37:motorControl.c **** *   None
  38:motorControl.c **** *
  39:motorControl.c **** *******************************************************************************/
  40:motorControl.c **** CY_ISR(HALL_EFFECT_EDGE_DETECT_INTERRUPT)
  41:motorControl.c **** {    
  42:motorControl.c ****     //static uint16 testPotValue = 0;
  43:motorControl.c ****     pMotor->hallEffectEdgeDetect = TRUE;
  44:motorControl.c ****     setMotorOutputs(BRAKE,0xFF);
  45:motorControl.c ****     CyDelay(10);
  46:motorControl.c ****     pMotor->forwardLimitCS = ADC_SAR_Seq_GetResult16(POT_FEEDBACK);
  47:motorControl.c ****     pMotor->forwardLimitCS = pMotor->forwardLimitCS>>3;
  48:motorControl.c ****     if(pMotor->forwardLimitCS<60)
  49:motorControl.c ****     {
  50:motorControl.c ****         pMotor->backwardLimitCS=pMotor->forwardLimitCS-pMotor->forwardLimitCS;
  51:motorControl.c ****     }
  52:motorControl.c ****     else
  53:motorControl.c ****     {
  54:motorControl.c ****         pMotor->backwardLimitCS=pMotor->forwardLimitCS-60;
  55:motorControl.c ****     }
  56:motorControl.c ****     pMotor->calibrated = DONE_CALIBRATING;
  57:motorControl.c ****     limitSwitch_ClearInterrupt();
  58:motorControl.c **** }
  59:motorControl.c **** 
  60:motorControl.c **** CY_ISR(OVER_CURRENT_ISR)
  61:motorControl.c **** {
  62:motorControl.c ****     if(ADC_SAR_Seq_IsEndConversion(ADC_SAR_Seq_RETURN_STATUS) !=0)
  63:motorControl.c ****     {
  64:motorControl.c ****         pMotor->motorCurrent[pMotor->motorCurrentSamplesIterator] = checkMotorCurrent();
  65:motorControl.c ****         pMotor->motorCurrentSamplesIterator++;
  66:motorControl.c ****     }
  67:motorControl.c ****     
  68:motorControl.c **** 
  69:motorControl.c ****     if(pMotor->motorCurrent[0]>= OVER_CURRENT_VALUE && pMotor->motorCurrent[1]>= OVER_CURRENT_VALUE
  70:motorControl.c ****     {
  71:motorControl.c ****             setMotorOutputs(BRAKE,0xFF);
  72:motorControl.c ****             for(pMotor->motorCurrentSamplesIterator = 0; pMotor->motorCurrentSamplesIterator<12; pM
  73:motorControl.c ****             {
  74:motorControl.c ****                 pMotor->motorCurrent[pMotor->motorCurrentSamplesIterator] = 0;
  75:motorControl.c ****             }
  76:motorControl.c ****             pMotor->motorCurrentSamplesIterator = 0;
  77:motorControl.c ****             pMotor->bOverCurrentStart = TRUE;
  78:motorControl.c ****     }
  79:motorControl.c ****     if( pMotor->bOverCurrentStart == TRUE)
  80:motorControl.c ****     {
  81:motorControl.c ****         pMotor->overCurrentTimerOutCounter++;
  82:motorControl.c ****         if(pMotor->overCurrentTimerOutCounter>=OVER_CURRENT_TIMER_THRESHOLD)
  83:motorControl.c ****         {
  84:motorControl.c ****             pMotor->overCurrentTimerOutCounter=0;
  85:motorControl.c ****             pMotor->bOverCurrentStart = FALSE;
  86:motorControl.c ****         }
  87:motorControl.c ****     }
ARM GAS  C:\Users\kylep\AppData\Local\Temp\ccUCcGKt.s 			page 3


  88:motorControl.c ****     if(pMotor->motorCurrentSamplesIterator>=12)
  89:motorControl.c ****     {
  90:motorControl.c ****         pMotor->motorCurrentSamplesIterator = 0;
  91:motorControl.c ****     }
  92:motorControl.c ****     
  93:motorControl.c ****     timerForInputs = 1;
  94:motorControl.c ****     
  95:motorControl.c ****     overCurrentTimerISR_ClearPending();
  96:motorControl.c ****     overCurrentTimer_ReadStatusRegister();
  97:motorControl.c ****     //overCurrentTimer_ClearInterrupt(overCurrentTimer_INTR_MASK_TC);
  98:motorControl.c **** }
  99:motorControl.c **** 
 100:motorControl.c **** /*******************************************************************************
 101:motorControl.c **** * Function Name: initializeMotor
 102:motorControl.c **** ********************************************************************************
 103:motorControl.c **** *
 104:motorControl.c **** * Summary:
 105:motorControl.c **** *  Inititates the motor PWM module
 106:motorControl.c **** *
 107:motorControl.c **** * Parameters:  
 108:motorControl.c **** *   None
 109:motorControl.c **** *
 110:motorControl.c **** * Return:
 111:motorControl.c **** *   None
 112:motorControl.c **** *
 113:motorControl.c **** *******************************************************************************/
 114:motorControl.c **** void initializeMotor(void)
 115:motorControl.c **** {  
 116:motorControl.c ****     static const uint8 * pNonVolatileMotorPosition = 0;
 117:motorControl.c ****     pwmClock_Enable();
 118:motorControl.c ****     motorControlPWM_Start();
 119:motorControl.c ****     motorControlPWM_SetCompareMode(motorControlPWM__B_PWM__LESS_THAN);
 120:motorControl.c ****     motorControlPWM_WriteCompare(0x00);
 121:motorControl.c ****     pMotor = &motorStatus;
 122:motorControl.c ****     rxPacketLocal = getRxPacket();
 123:motorControl.c ****     pNonVolatileMotorPosition = getNonVolatileBarStateMemory();
 124:motorControl.c ****     rxPacketLocal->Payload.endMotorPosition = pNonVolatileMotorPosition[1];
 125:motorControl.c ****     pMotor->forwardLimitCS = 255;
 126:motorControl.c ****     setMotorOutputs(BRAKE,0xFF);
 127:motorControl.c ****     overCurrentTimerISR_StartEx(OVER_CURRENT_ISR);
 128:motorControl.c ****     overCurrentTimer_Start();
 129:motorControl.c ****     //aMux_Start();
 130:motorControl.c **** }
 131:motorControl.c **** 
 132:motorControl.c **** /*******************************************************************************
 133:motorControl.c **** * Function Name: setMotorOutputs
 134:motorControl.c **** ********************************************************************************
 135:motorControl.c **** *
 136:motorControl.c **** * Summary:
 137:motorControl.c **** *  Inititates the calibration sequence for the motor
 138:motorControl.c **** *
 139:motorControl.c **** * Parameters:  
 140:motorControl.c **** *   Direction: 00 BRAKE
 141:motorControl.c **** *              01 Forward
 142:motorControl.c **** *              10 Reverse
 143:motorControl.c **** *   Speed:     0-255 Steps of control
 144:motorControl.c **** *
ARM GAS  C:\Users\kylep\AppData\Local\Temp\ccUCcGKt.s 			page 4


 145:motorControl.c **** * Return:
 146:motorControl.c **** *   None
 147:motorControl.c **** *
 148:motorControl.c **** *******************************************************************************/
 149:motorControl.c **** 
 150:motorControl.c **** 
 151:motorControl.c **** /*******************************************************************************
 152:motorControl.c **** * Function Name: calibrateMotor
 153:motorControl.c **** ********************************************************************************
 154:motorControl.c **** *
 155:motorControl.c **** * Summary:
 156:motorControl.c **** *  Inititates the calibration sequence for the motor
 157:motorControl.c **** *
 158:motorControl.c **** * Parameters:  
 159:motorControl.c **** *   None
 160:motorControl.c **** *
 161:motorControl.c **** * Return:
 162:motorControl.c **** *   None
 163:motorControl.c **** *
 164:motorControl.c **** *******************************************************************************/
 165:motorControl.c **** 
 166:motorControl.c **** int16 calibrateMotor(void)
 167:motorControl.c **** {
 168:motorControl.c ****     pMotor->calibrated = START_CALIBRATING;
 169:motorControl.c ****     
 170:motorControl.c ****     while(pMotor->calibrated!=1)
 171:motorControl.c ****     {
 172:motorControl.c ****        //while(bDoneMovingCalibrate == FALSE)
 173:motorControl.c ****        //{
 174:motorControl.c ****             //motorControlLoop(1);
 175:motorControl.c ****        //}
 176:motorControl.c ****        hallEffectISR_StartEx(HALL_EFFECT_EDGE_DETECT_INTERRUPT);
 177:motorControl.c ****        CyDelay(5000);
 178:motorControl.c ****        bDoneMovingCalibrate = FALSE;
 179:motorControl.c ****        while(bDoneMovingCalibrate == FALSE)
 180:motorControl.c ****        {
 181:motorControl.c ****             if(pMotor->calibrated == 1)
 182:motorControl.c ****             {
 183:motorControl.c ****                 timeOutCalibrate = 0;
 184:motorControl.c ****                 CyDelay(1);
 185:motorControl.c ****                 setMotorOutputs(BRAKE,0xFF);
 186:motorControl.c ****                 break;
 187:motorControl.c ****             }
 188:motorControl.c ****      
 189:motorControl.c ****             motorControlLoop(252);
 190:motorControl.c ****        };
 191:motorControl.c ****        // CyDelay(5000);
 192:motorControl.c ****        //bDoneMovingCalibrate = FALSE;
 193:motorControl.c ****        timeOutCalibrate++;
 194:motorControl.c ****        if(timeOutCalibrate >= 6)
 195:motorControl.c ****        {
 196:motorControl.c ****             timeOutCalibrate = 0;
 197:motorControl.c ****             break;
 198:motorControl.c ****        }
 199:motorControl.c ****     }
 200:motorControl.c ****     setMotorOutputs(BRAKE,0xFF);
 201:motorControl.c ****     hallEffectISR_Stop();
ARM GAS  C:\Users\kylep\AppData\Local\Temp\ccUCcGKt.s 			page 5


 202:motorControl.c ****     CyDelay(10);
 203:motorControl.c ****     return pMotor->forwardLimitCS;
 204:motorControl.c **** }
 205:motorControl.c **** 
 206:motorControl.c **** void loadLimitSwitchValue(void)
 207:motorControl.c **** {
  28              		.loc 1 207 0
  29              		.cfi_startproc
  30              		@ args = 0, pretend = 0, frame = 0
  31              		@ frame_needed = 0, uses_anonymous_args = 0
  32 0000 10B5     		push	{r4, lr}
  33              		.cfi_def_cfa_offset 8
  34              		.cfi_offset 4, -8
  35              		.cfi_offset 14, -4
 208:motorControl.c ****     static const uint8 * pLocalNonVolatileMemory;
 209:motorControl.c ****     pLocalNonVolatileMemory = getNonVolatileBarStateMemory();
  36              		.loc 1 209 0
  37 0002 FFF7FEFF 		bl	getNonVolatileBarStateMemory
  38              	.LVL0:
 210:motorControl.c ****     pMotor->forwardLimitCS = pLocalNonVolatileMemory[4];
  39              		.loc 1 210 0
  40 0006 044B     		ldr	r3, .L2
  41 0008 0279     		ldrb	r2, [r0, #4]
  42 000a 1968     		ldr	r1, [r3]
  43 000c 4A80     		strh	r2, [r1, #2]
 211:motorControl.c ****     pMotor->backwardLimitCS = pLocalNonVolatileMemory[5];
  44              		.loc 1 211 0
  45 000e 1B68     		ldr	r3, [r3]
  46 0010 4279     		ldrb	r2, [r0, #5]
  47 0012 9A80     		strh	r2, [r3, #4]
 212:motorControl.c **** }
  48              		.loc 1 212 0
  49              		@ sp needed
  50 0014 10BD     		pop	{r4, pc}
  51              	.L3:
  52 0016 C046     		.align	2
  53              	.L2:
  54 0018 00000000 		.word	pMotor
  55              		.cfi_endproc
  56              	.LFE36:
  57              		.size	loadLimitSwitchValue, .-loadLimitSwitchValue
  58              		.section	.text.setMotorOutputs,"ax",%progbits
  59              		.align	2
  60              		.global	setMotorOutputs
  61              		.code	16
  62              		.thumb_func
  63              		.type	setMotorOutputs, %function
  64              	setMotorOutputs:
  65              	.LFB37:
 213:motorControl.c **** 
 214:motorControl.c **** void setMotorOutputs(Direction direction, Speed speed)
 215:motorControl.c **** {
  66              		.loc 1 215 0
  67              		.cfi_startproc
  68              		@ args = 0, pretend = 0, frame = 0
  69              		@ frame_needed = 0, uses_anonymous_args = 0
  70              	.LVL1:
ARM GAS  C:\Users\kylep\AppData\Local\Temp\ccUCcGKt.s 			page 6


  71 0000 10B5     		push	{r4, lr}
  72              		.cfi_def_cfa_offset 8
  73              		.cfi_offset 4, -8
  74              		.cfi_offset 14, -4
 216:motorControl.c ****     if(direction == FORWARD)
  75              		.loc 1 216 0
  76 0002 0128     		cmp	r0, #1
  77 0004 09D1     		bne	.L5
 217:motorControl.c ****     {
 218:motorControl.c ****         MOTOR_OUTB_LOW;
  78              		.loc 1 218 0
  79 0006 184B     		ldr	r3, .L9
  80 0008 1A68     		ldr	r2, [r3]
  81 000a 3F30     		adds	r0, r0, #63
  82              	.LVL2:
  83 000c 8243     		bics	r2, r0
  84 000e 1A60     		str	r2, [r3]
 219:motorControl.c ****         MOTOR_OUTA_HIGH;
  85              		.loc 1 219 0
  86 0010 1868     		ldr	r0, [r3]
  87 0012 0422     		movs	r2, #4
  88 0014 0243     		orrs	r2, r0
  89 0016 1A60     		str	r2, [r3]
  90 0018 22E0     		b	.L6
  91              	.LVL3:
  92              	.L5:
 220:motorControl.c ****     }
 221:motorControl.c ****     else if(direction == BACKWARDS)
  93              		.loc 1 221 0
  94 001a 0A28     		cmp	r0, #10
  95 001c 09D1     		bne	.L7
 222:motorControl.c ****     {
 223:motorControl.c ****         MOTOR_OUTB_HIGH;
  96              		.loc 1 223 0
  97 001e 124B     		ldr	r3, .L9
  98 0020 1868     		ldr	r0, [r3]
  99              	.LVL4:
 100 0022 4022     		movs	r2, #64
 101 0024 0243     		orrs	r2, r0
 102 0026 1A60     		str	r2, [r3]
 224:motorControl.c ****         MOTOR_OUTA_LOW;
 103              		.loc 1 224 0
 104 0028 1A68     		ldr	r2, [r3]
 105 002a 0420     		movs	r0, #4
 106 002c 8243     		bics	r2, r0
 107 002e 1A60     		str	r2, [r3]
 108 0030 16E0     		b	.L6
 109              	.LVL5:
 110              	.L7:
 225:motorControl.c ****     }
 226:motorControl.c ****     else if(direction == BRAKE)
 111              		.loc 1 226 0
 112 0032 0028     		cmp	r0, #0
 113 0034 09D1     		bne	.L8
 227:motorControl.c ****     {
 228:motorControl.c ****         MOTOR_OUTB_LOW;
 114              		.loc 1 228 0
ARM GAS  C:\Users\kylep\AppData\Local\Temp\ccUCcGKt.s 			page 7


 115 0036 0C4B     		ldr	r3, .L9
 116 0038 1A68     		ldr	r2, [r3]
 117 003a 4030     		adds	r0, r0, #64
 118              	.LVL6:
 119 003c 8243     		bics	r2, r0
 120 003e 1A60     		str	r2, [r3]
 229:motorControl.c ****         MOTOR_OUTA_LOW;
 121              		.loc 1 229 0
 122 0040 1A68     		ldr	r2, [r3]
 123 0042 3C38     		subs	r0, r0, #60
 124 0044 8243     		bics	r2, r0
 125 0046 1A60     		str	r2, [r3]
 126 0048 0AE0     		b	.L6
 127              	.LVL7:
 128              	.L8:
 230:motorControl.c ****     }
 231:motorControl.c ****     else if(direction == OFF_NOTHING)
 129              		.loc 1 231 0
 130 004a 0328     		cmp	r0, #3
 131 004c 08D1     		bne	.L6
 232:motorControl.c ****     {
 233:motorControl.c ****         MOTOR_OUTB_HIGH;
 132              		.loc 1 233 0
 133 004e 064B     		ldr	r3, .L9
 134 0050 1868     		ldr	r0, [r3]
 135              	.LVL8:
 136 0052 4022     		movs	r2, #64
 137 0054 0243     		orrs	r2, r0
 138 0056 1A60     		str	r2, [r3]
 234:motorControl.c ****         MOTOR_OUTA_HIGH;
 139              		.loc 1 234 0
 140 0058 1868     		ldr	r0, [r3]
 141 005a 0422     		movs	r2, #4
 142 005c 0243     		orrs	r2, r0
 143 005e 1A60     		str	r2, [r3]
 144              	.L6:
 235:motorControl.c ****     }
 236:motorControl.c ****     
 237:motorControl.c ****     motorControlPWM_WriteCompare(speed);
 145              		.loc 1 237 0
 146 0060 0800     		movs	r0, r1
 147 0062 FFF7FEFF 		bl	motorControlPWM_WriteCompare
 148              	.LVL9:
 238:motorControl.c **** }
 149              		.loc 1 238 0
 150              		@ sp needed
 151 0066 10BD     		pop	{r4, pc}
 152              	.L10:
 153              		.align	2
 154              	.L9:
 155 0068 00000440 		.word	1074003968
 156              		.cfi_endproc
 157              	.LFE37:
 158              		.size	setMotorOutputs, .-setMotorOutputs
 159              		.section	.text.HALL_EFFECT_EDGE_DETECT_INTERRUPT,"ax",%progbits
 160              		.align	2
 161              		.global	HALL_EFFECT_EDGE_DETECT_INTERRUPT
ARM GAS  C:\Users\kylep\AppData\Local\Temp\ccUCcGKt.s 			page 8


 162              		.code	16
 163              		.thumb_func
 164              		.type	HALL_EFFECT_EDGE_DETECT_INTERRUPT, %function
 165              	HALL_EFFECT_EDGE_DETECT_INTERRUPT:
 166              	.LFB32:
  41:motorControl.c ****     //static uint16 testPotValue = 0;
 167              		.loc 1 41 0
 168              		.cfi_startproc
 169              		@ args = 0, pretend = 0, frame = 0
 170              		@ frame_needed = 0, uses_anonymous_args = 0
 171 0000 70B5     		push	{r4, r5, r6, lr}
 172              		.cfi_def_cfa_offset 16
 173              		.cfi_offset 4, -16
 174              		.cfi_offset 5, -12
 175              		.cfi_offset 6, -8
 176              		.cfi_offset 14, -4
  43:motorControl.c ****     setMotorOutputs(BRAKE,0xFF);
 177              		.loc 1 43 0
 178 0002 114C     		ldr	r4, .L14
 179 0004 0123     		movs	r3, #1
 180 0006 2268     		ldr	r2, [r4]
 181 0008 5373     		strb	r3, [r2, #13]
  44:motorControl.c ****     CyDelay(10);
 182              		.loc 1 44 0
 183 000a FF21     		movs	r1, #255
 184 000c 0020     		movs	r0, #0
 185 000e FFF7FEFF 		bl	setMotorOutputs
 186              	.LVL10:
  45:motorControl.c ****     pMotor->forwardLimitCS = ADC_SAR_Seq_GetResult16(POT_FEEDBACK);
 187              		.loc 1 45 0
 188 0012 0A20     		movs	r0, #10
 189 0014 FFF7FEFF 		bl	CyDelay
 190              	.LVL11:
  46:motorControl.c ****     pMotor->forwardLimitCS = pMotor->forwardLimitCS>>3;
 191              		.loc 1 46 0
 192 0018 2568     		ldr	r5, [r4]
 193 001a 0320     		movs	r0, #3
 194 001c FFF7FEFF 		bl	ADC_SAR_Seq_GetResult16
 195              	.LVL12:
 196 0020 6880     		strh	r0, [r5, #2]
  47:motorControl.c ****     if(pMotor->forwardLimitCS<60)
 197              		.loc 1 47 0
 198 0022 2268     		ldr	r2, [r4]
 199 0024 5388     		ldrh	r3, [r2, #2]
 200 0026 DB08     		lsrs	r3, r3, #3
 201 0028 5380     		strh	r3, [r2, #2]
  48:motorControl.c ****     {
 202              		.loc 1 48 0
 203 002a 2368     		ldr	r3, [r4]
 204 002c 5A88     		ldrh	r2, [r3, #2]
 205 002e 3B2A     		cmp	r2, #59
 206 0030 02D8     		bhi	.L12
  50:motorControl.c ****     }
 207              		.loc 1 50 0
 208 0032 0022     		movs	r2, #0
 209 0034 9A80     		strh	r2, [r3, #4]
 210 0036 01E0     		b	.L13
ARM GAS  C:\Users\kylep\AppData\Local\Temp\ccUCcGKt.s 			page 9


 211              	.L12:
  54:motorControl.c ****     }
 212              		.loc 1 54 0
 213 0038 3C3A     		subs	r2, r2, #60
 214 003a 9A80     		strh	r2, [r3, #4]
 215              	.L13:
  56:motorControl.c ****     limitSwitch_ClearInterrupt();
 216              		.loc 1 56 0
 217 003c 0121     		movs	r1, #1
 218 003e 3022     		movs	r2, #48
 219 0040 9954     		strb	r1, [r3, r2]
  57:motorControl.c **** }
 220              		.loc 1 57 0
 221 0042 FFF7FEFF 		bl	limitSwitch_ClearInterrupt
 222              	.LVL13:
  58:motorControl.c **** 
 223              		.loc 1 58 0
 224              		@ sp needed
 225 0046 70BD     		pop	{r4, r5, r6, pc}
 226              	.L15:
 227              		.align	2
 228              	.L14:
 229 0048 00000000 		.word	pMotor
 230              		.cfi_endproc
 231              	.LFE32:
 232              		.size	HALL_EFFECT_EDGE_DETECT_INTERRUPT, .-HALL_EFFECT_EDGE_DETECT_INTERRUPT
 233              		.section	.text.initializeMotor,"ax",%progbits
 234              		.align	2
 235              		.global	initializeMotor
 236              		.code	16
 237              		.thumb_func
 238              		.type	initializeMotor, %function
 239              	initializeMotor:
 240              	.LFB34:
 115:motorControl.c ****     static const uint8 * pNonVolatileMotorPosition = 0;
 241              		.loc 1 115 0
 242              		.cfi_startproc
 243              		@ args = 0, pretend = 0, frame = 0
 244              		@ frame_needed = 0, uses_anonymous_args = 0
 245 0000 70B5     		push	{r4, r5, r6, lr}
 246              		.cfi_def_cfa_offset 16
 247              		.cfi_offset 4, -16
 248              		.cfi_offset 5, -12
 249              		.cfi_offset 6, -8
 250              		.cfi_offset 14, -4
 117:motorControl.c ****     motorControlPWM_Start();
 251              		.loc 1 117 0
 252 0002 FFF7FEFF 		bl	pwmClock_Start
 253              	.LVL14:
 118:motorControl.c ****     motorControlPWM_SetCompareMode(motorControlPWM__B_PWM__LESS_THAN);
 254              		.loc 1 118 0
 255 0006 FFF7FEFF 		bl	motorControlPWM_Start
 256              	.LVL15:
 119:motorControl.c ****     motorControlPWM_WriteCompare(0x00);
 257              		.loc 1 119 0
 258 000a 0120     		movs	r0, #1
 259 000c FFF7FEFF 		bl	motorControlPWM_SetCompareMode
ARM GAS  C:\Users\kylep\AppData\Local\Temp\ccUCcGKt.s 			page 10


 260              	.LVL16:
 120:motorControl.c ****     pMotor = &motorStatus;
 261              		.loc 1 120 0
 262 0010 0020     		movs	r0, #0
 263 0012 FFF7FEFF 		bl	motorControlPWM_WriteCompare
 264              	.LVL17:
 121:motorControl.c ****     rxPacketLocal = getRxPacket();
 265              		.loc 1 121 0
 266 0016 0C4C     		ldr	r4, .L17
 267 0018 0C4B     		ldr	r3, .L17+4
 268 001a 2360     		str	r3, [r4]
 122:motorControl.c ****     pNonVolatileMotorPosition = getNonVolatileBarStateMemory();
 269              		.loc 1 122 0
 270 001c FFF7FEFF 		bl	getRxPacket
 271              	.LVL18:
 272 0020 0B4D     		ldr	r5, .L17+8
 273 0022 2860     		str	r0, [r5]
 123:motorControl.c ****     rxPacketLocal->Payload.endMotorPosition = pNonVolatileMotorPosition[1];
 274              		.loc 1 123 0
 275 0024 FFF7FEFF 		bl	getNonVolatileBarStateMemory
 276              	.LVL19:
 124:motorControl.c ****     pMotor->forwardLimitCS = 255;
 277              		.loc 1 124 0
 278 0028 2B68     		ldr	r3, [r5]
 279 002a 4278     		ldrb	r2, [r0, #1]
 280 002c 5A80     		strh	r2, [r3, #2]
 125:motorControl.c ****     setMotorOutputs(BRAKE,0xFF);
 281              		.loc 1 125 0
 282 002e 2368     		ldr	r3, [r4]
 283 0030 FF22     		movs	r2, #255
 284 0032 5A80     		strh	r2, [r3, #2]
 126:motorControl.c ****     overCurrentTimerISR_StartEx(OVER_CURRENT_ISR);
 285              		.loc 1 126 0
 286 0034 FF21     		movs	r1, #255
 287 0036 0020     		movs	r0, #0
 288 0038 FFF7FEFF 		bl	setMotorOutputs
 289              	.LVL20:
 127:motorControl.c ****     overCurrentTimer_Start();
 290              		.loc 1 127 0
 291 003c 0548     		ldr	r0, .L17+12
 292 003e FFF7FEFF 		bl	overCurrentTimerISR_StartEx
 293              	.LVL21:
 128:motorControl.c ****     //aMux_Start();
 294              		.loc 1 128 0
 295 0042 FFF7FEFF 		bl	overCurrentTimer_Start
 296              	.LVL22:
 130:motorControl.c **** 
 297              		.loc 1 130 0
 298              		@ sp needed
 299 0046 70BD     		pop	{r4, r5, r6, pc}
 300              	.L18:
 301              		.align	2
 302              	.L17:
 303 0048 00000000 		.word	pMotor
 304 004c 00000000 		.word	.LANCHOR0
 305 0050 00000000 		.word	rxPacketLocal
 306 0054 00000000 		.word	OVER_CURRENT_ISR
ARM GAS  C:\Users\kylep\AppData\Local\Temp\ccUCcGKt.s 			page 11


 307              		.cfi_endproc
 308              	.LFE34:
 309              		.size	initializeMotor, .-initializeMotor
 310              		.global	__aeabi_ui2f
 311              		.global	__aeabi_fdiv
 312              		.global	__aeabi_i2f
 313              		.global	__aeabi_fmul
 314              		.global	__aeabi_f2iz
 315              		.global	__aeabi_f2d
 316              		.global	__aeabi_dmul
 317              		.global	__aeabi_i2d
 318              		.global	__aeabi_dadd
 319              		.global	__aeabi_d2f
 320              		.global	__aeabi_fadd
 321              		.section	.text.motorControlLoop,"ax",%progbits
 322              		.align	2
 323              		.global	motorControlLoop
 324              		.code	16
 325              		.thumb_func
 326              		.type	motorControlLoop, %function
 327              	motorControlLoop:
 328              	.LFB38:
 239:motorControl.c **** 
 240:motorControl.c **** MotorIO * motorControlLoop(int16 manualDesiredPostion)
 241:motorControl.c **** {   
 329              		.loc 1 241 0
 330              		.cfi_startproc
 331              		@ args = 0, pretend = 0, frame = 16
 332              		@ frame_needed = 0, uses_anonymous_args = 0
 333              	.LVL23:
 334 0000 F0B5     		push	{r4, r5, r6, r7, lr}
 335              		.cfi_def_cfa_offset 20
 336              		.cfi_offset 4, -20
 337              		.cfi_offset 5, -16
 338              		.cfi_offset 6, -12
 339              		.cfi_offset 7, -8
 340              		.cfi_offset 14, -4
 341 0002 85B0     		sub	sp, sp, #20
 342              		.cfi_def_cfa_offset 40
 343 0004 0700     		movs	r7, r0
 242:motorControl.c ****     if(pMotor->bOverCurrentStart == FALSE)
 344              		.loc 1 242 0
 345 0006 684B     		ldr	r3, .L35
 346 0008 1C68     		ldr	r4, [r3]
 347 000a 4E23     		movs	r3, #78
 348 000c E35C     		ldrb	r3, [r4, r3]
 349 000e 002B     		cmp	r3, #0
 350 0010 00D0     		beq	.LCB262
 351 0012 C1E0     		b	.L20	@long jump
 352              	.LCB262:
 243:motorControl.c ****     {
 244:motorControl.c ****     //pMotor->motorCurrent = checkMotorCurrent();
 245:motorControl.c ****     //pMotor->busVoltage = checkBusVoltage();   
 246:motorControl.c ****     //setMotorOutputs(BACKWARDS,0xFF);
 247:motorControl.c ****     //if(checkMotorCurrent()< MAX_CURRENT || checkBusVoltage() > MIN_VOLTAGE)
 248:motorControl.c ****     {
 249:motorControl.c ****         if(manualDesiredPostion!=0)
ARM GAS  C:\Users\kylep\AppData\Local\Temp\ccUCcGKt.s 			page 12


 353              		.loc 1 249 0
 354 0014 0028     		cmp	r0, #0
 355 0016 01D0     		beq	.L21
 250:motorControl.c ****         {
 251:motorControl.c ****             pMotor->desiredPot = manualDesiredPostion;
 356              		.loc 1 251 0
 357 0018 2083     		strh	r0, [r4, #24]
 358 001a 1CE0     		b	.L22
 359              	.L21:
 252:motorControl.c ****         }
 253:motorControl.c ****         else
 254:motorControl.c ****         {
 255:motorControl.c ****             //if(getStateOfBar() == 1)
 256:motorControl.c ****             //{
 257:motorControl.c ****             //    pMotor->desiredPot = (int16)getDegaultPosition();
 258:motorControl.c ****             //}
 259:motorControl.c ****             if(pMotor->desiredPot != rxPacketLocal->Payload.endMotorPosition) //&& getStateOfBar() 
 360              		.loc 1 259 0
 361 001c 1822     		movs	r2, #24
 362 001e A35E     		ldrsh	r3, [r4, r2]
 363 0020 624A     		ldr	r2, .L35+4
 364 0022 1268     		ldr	r2, [r2]
 365 0024 5088     		ldrh	r0, [r2, #2]
 366              	.LVL24:
 367 0026 8342     		cmp	r3, r0
 368 0028 15D0     		beq	.L22
 260:motorControl.c ****             {
 261:motorControl.c ****                 pMotor->desiredPot = rxPacketLocal->Payload.endMotorPosition;
 369              		.loc 1 261 0
 370 002a 05B2     		sxth	r5, r0
 371 002c 2583     		strh	r5, [r4, #24]
 262:motorControl.c ****                 pMotor->calculatePercentageOfRange = pMotor->forwardLimitCS;
 372              		.loc 1 262 0
 373 002e 6088     		ldrh	r0, [r4, #2]
 374 0030 FFF7FEFF 		bl	__aeabi_ui2f
 375              	.LVL25:
 376 0034 A060     		str	r0, [r4, #8]
 263:motorControl.c ****                 pMotor->calculatePercentageOfRange = pMotor->calculatePercentageOfRange/255;
 377              		.loc 1 263 0
 378 0036 5E49     		ldr	r1, .L35+8
 379 0038 FFF7FEFF 		bl	__aeabi_fdiv
 380              	.LVL26:
 381 003c 061C     		adds	r6, r0, #0
 382 003e A060     		str	r0, [r4, #8]
 264:motorControl.c ****                 pMotor->desiredPotFloat = pMotor->desiredPot;
 383              		.loc 1 264 0
 384 0040 2800     		movs	r0, r5
 385 0042 FFF7FEFF 		bl	__aeabi_i2f
 386              	.LVL27:
 387 0046 011C     		adds	r1, r0, #0
 388 0048 6061     		str	r0, [r4, #20]
 265:motorControl.c ****                 pMotor->desiredPot = (int16)pMotor->desiredPotFloat*(pMotor->calculatePercentageOfR
 389              		.loc 1 265 0
 390 004a 301C     		adds	r0, r6, #0
 391 004c FFF7FEFF 		bl	__aeabi_fmul
 392              	.LVL28:
 393 0050 FFF7FEFF 		bl	__aeabi_f2iz
ARM GAS  C:\Users\kylep\AppData\Local\Temp\ccUCcGKt.s 			page 13


 394              	.LVL29:
 395 0054 2083     		strh	r0, [r4, #24]
 396              	.L22:
 266:motorControl.c ****             }
 267:motorControl.c ****         }
 268:motorControl.c **** 
 269:motorControl.c ****             //Account for endian change from PSOC 5 to PSOC 3 architectures
 270:motorControl.c ****         //pMotor->desiredPot = pMotor->desiredPot*2;
 271:motorControl.c ****         //pMotor->desiredPot = 0xFF;
 272:motorControl.c **** 
 273:motorControl.c **** 
 274:motorControl.c ****         if(pMotor->desiredPot>=pMotor->forwardLimitCS)//if(pMotor->desiredPot>=255)
 397              		.loc 1 274 0
 398 0056 1823     		movs	r3, #24
 399 0058 E25E     		ldrsh	r2, [r4, r3]
 400 005a 6388     		ldrh	r3, [r4, #2]
 401 005c 9A42     		cmp	r2, r3
 402 005e 00DB     		blt	.L23
 275:motorControl.c ****         {
 276:motorControl.c ****             pMotor->desiredPot = pMotor->forwardLimitCS;
 403              		.loc 1 276 0
 404 0060 2383     		strh	r3, [r4, #24]
 405              	.L23:
 277:motorControl.c **** 
 278:motorControl.c ****         }
 279:motorControl.c ****         
 280:motorControl.c ****         if(pMotor->desiredPot<=pMotor->backwardLimitCS)//if(pMotor->desiredPot>=255)
 406              		.loc 1 280 0
 407 0062 1823     		movs	r3, #24
 408 0064 E25E     		ldrsh	r2, [r4, r3]
 409 0066 A388     		ldrh	r3, [r4, #4]
 410 0068 9A42     		cmp	r2, r3
 411 006a 00DC     		bgt	.L24
 281:motorControl.c ****         {
 282:motorControl.c ****             pMotor->desiredPot = pMotor->backwardLimitCS;
 412              		.loc 1 282 0
 413 006c 2383     		strh	r3, [r4, #24]
 414              	.L24:
 283:motorControl.c **** 
 284:motorControl.c ****         }
 285:motorControl.c ****         
 286:motorControl.c ****         if(pMotor->desiredPot>=HARDWARE_LIMIT_MAX)//if(pMotor->desiredPot>=255)
 415              		.loc 1 286 0
 416 006e 1822     		movs	r2, #24
 417 0070 A35E     		ldrsh	r3, [r4, r2]
 418 0072 FE2B     		cmp	r3, #254
 419 0074 01DD     		ble	.L25
 287:motorControl.c ****         {
 288:motorControl.c ****             pMotor->desiredPot = HARDWARE_LIMIT_MAX;
 420              		.loc 1 288 0
 421 0076 FF23     		movs	r3, #255
 422 0078 2383     		strh	r3, [r4, #24]
 423              	.L25:
 289:motorControl.c ****             //pMotor->calculatePercentageOfRange = pMotor->forwardLimitCS/255;
 290:motorControl.c ****             //pMotor->desiredPot = pMotor->desiredPot*(pMotor->calculatePercentageOfRange);
 291:motorControl.c ****             //pMotor->desiredPot = 255;
 292:motorControl.c ****         }
ARM GAS  C:\Users\kylep\AppData\Local\Temp\ccUCcGKt.s 			page 14


 293:motorControl.c ****         
 294:motorControl.c ****         if(pMotor->desiredPot<=HARDWARE_LIMIT_MIN)
 424              		.loc 1 294 0
 425 007a 1822     		movs	r2, #24
 426 007c A35E     		ldrsh	r3, [r4, r2]
 427 007e 052B     		cmp	r3, #5
 428 0080 01DC     		bgt	.L26
 295:motorControl.c ****         {
 296:motorControl.c ****             pMotor->desiredPot = HARDWARE_LIMIT_MIN;
 429              		.loc 1 296 0
 430 0082 0523     		movs	r3, #5
 431 0084 2383     		strh	r3, [r4, #24]
 432              	.L26:
 297:motorControl.c ****         }
 298:motorControl.c ****        
 299:motorControl.c ****         //previous_error = error or 0 if undefined
 300:motorControl.c ****         //error = setpoint - actual_position
 301:motorControl.c ****         //P = Kp * error
 302:motorControl.c ****         //I = I + Ki * error * dt
 303:motorControl.c ****         //D = Kd * (error - previous_error) / dt
 304:motorControl.c ****         //output = P + I + D
 305:motorControl.c ****         //wait(dt) 
 306:motorControl.c ****         //aMux_Select(0x01);
 307:motorControl.c ****         
 308:motorControl.c ****         pMotor->currentPot = ADC_SAR_Seq_GetResult16(POT_FEEDBACK);
 433              		.loc 1 308 0
 434 0086 0320     		movs	r0, #3
 435 0088 FFF7FEFF 		bl	ADC_SAR_Seq_GetResult16
 436              	.LVL30:
 437 008c 6082     		strh	r0, [r4, #18]
 309:motorControl.c ****         pMotor->currentPot = pMotor->currentPot>>3;
 438              		.loc 1 309 0
 439 008e 464B     		ldr	r3, .L35
 440 0090 1C68     		ldr	r4, [r3]
 441 0092 1223     		movs	r3, #18
 442 0094 E05E     		ldrsh	r0, [r4, r3]
 443 0096 C010     		asrs	r0, r0, #3
 444 0098 6082     		strh	r0, [r4, #18]
 310:motorControl.c ****         
 311:motorControl.c ****         pMotor->errorPot = pMotor->desiredPot - pMotor->currentPot;
 445              		.loc 1 311 0
 446 009a 1822     		movs	r2, #24
 447 009c A35E     		ldrsh	r3, [r4, r2]
 448 009e 181A     		subs	r0, r3, r0
 449 00a0 05B2     		sxth	r5, r0
 450 00a2 6583     		strh	r5, [r4, #26]
 312:motorControl.c ****         pMotor->Proportional = Kp * pMotor->errorPot;
 451              		.loc 1 312 0
 452 00a4 2800     		movs	r0, r5
 453 00a6 FFF7FEFF 		bl	__aeabi_i2f
 454              	.LVL31:
 455 00aa 0190     		str	r0, [sp, #4]
 456 00ac 2062     		str	r0, [r4, #32]
 313:motorControl.c ****         pMotor->Integral =Ki * pMotor->Integral + pMotor->errorPot;
 457              		.loc 1 313 0
 458 00ae 606A     		ldr	r0, [r4, #36]
 459 00b0 FFF7FEFF 		bl	__aeabi_f2d
ARM GAS  C:\Users\kylep\AppData\Local\Temp\ccUCcGKt.s 			page 15


 460              	.LVL32:
 461 00b4 3F4A     		ldr	r2, .L35+12
 462 00b6 404B     		ldr	r3, .L35+16
 463 00b8 FFF7FEFF 		bl	__aeabi_dmul
 464              	.LVL33:
 465 00bc 0290     		str	r0, [sp, #8]
 466 00be 0391     		str	r1, [sp, #12]
 467 00c0 2800     		movs	r0, r5
 468 00c2 FFF7FEFF 		bl	__aeabi_i2d
 469              	.LVL34:
 470 00c6 029A     		ldr	r2, [sp, #8]
 471 00c8 039B     		ldr	r3, [sp, #12]
 472 00ca FFF7FEFF 		bl	__aeabi_dadd
 473              	.LVL35:
 474 00ce FFF7FEFF 		bl	__aeabi_d2f
 475              	.LVL36:
 476 00d2 061C     		adds	r6, r0, #0
 477 00d4 6062     		str	r0, [r4, #36]
 314:motorControl.c ****         pMotor->Derivative = Kd*pMotor->errorPot - pMotor->previousErrorPot;
 478              		.loc 1 314 0
 479 00d6 1C22     		movs	r2, #28
 480 00d8 A05E     		ldrsh	r0, [r4, r2]
 481 00da 281A     		subs	r0, r5, r0
 482 00dc FFF7FEFF 		bl	__aeabi_i2f
 483              	.LVL37:
 484 00e0 051C     		adds	r5, r0, #0
 485 00e2 A062     		str	r0, [r4, #40]
 315:motorControl.c ****         pMotor->MotorOutput = pMotor->Proportional + pMotor->Integral + pMotor->Derivative;
 486              		.loc 1 315 0
 487 00e4 311C     		adds	r1, r6, #0
 488 00e6 0198     		ldr	r0, [sp, #4]
 489 00e8 FFF7FEFF 		bl	__aeabi_fadd
 490              	.LVL38:
 491 00ec 011C     		adds	r1, r0, #0
 492 00ee 281C     		adds	r0, r5, #0
 493 00f0 FFF7FEFF 		bl	__aeabi_fadd
 494              	.LVL39:
 495 00f4 FFF7FEFF 		bl	__aeabi_f2iz
 496              	.LVL40:
 497 00f8 00B2     		sxth	r0, r0
 498 00fa A085     		strh	r0, [r4, #44]
 316:motorControl.c ****         
 317:motorControl.c ****         
 318:motorControl.c ****         
 319:motorControl.c ****         if(pMotor->MotorOutput>=255)
 499              		.loc 1 319 0
 500 00fc FE28     		cmp	r0, #254
 501 00fe 02DD     		ble	.L27
 320:motorControl.c ****         {
 321:motorControl.c ****             pMotor->MotorOutput=255;
 502              		.loc 1 321 0
 503 0100 FF23     		movs	r3, #255
 504 0102 A385     		strh	r3, [r4, #44]
 505 0104 04E0     		b	.L28
 506              	.L27:
 322:motorControl.c ****         }
 323:motorControl.c ****         else if(pMotor->MotorOutput<=-255)
ARM GAS  C:\Users\kylep\AppData\Local\Temp\ccUCcGKt.s 			page 16


 507              		.loc 1 323 0
 508 0106 FE30     		adds	r0, r0, #254
 509 0108 02DA     		bge	.L28
 324:motorControl.c ****         {
 325:motorControl.c ****             pMotor->MotorOutput=-255;
 510              		.loc 1 325 0
 511 010a FF23     		movs	r3, #255
 512 010c 5B42     		rsbs	r3, r3, #0
 513 010e A385     		strh	r3, [r4, #44]
 514              	.L28:
 326:motorControl.c ****         }
 327:motorControl.c ****         
 328:motorControl.c ****         //pMotor->currentCS = getCurrentSense();
 329:motorControl.c ****         
 330:motorControl.c ****         
 331:motorControl.c ****         if(pMotor->MotorOutput >= DESIRED_POSITION-TOLERANCE && pMotor->MotorOutput<= DESIRED_POSIT
 515              		.loc 1 331 0
 516 0110 2C23     		movs	r3, #44
 517 0112 E15E     		ldrsh	r1, [r4, r3]
 518 0114 4B1D     		adds	r3, r1, #5
 519 0116 9BB2     		uxth	r3, r3
 520 0118 0A2B     		cmp	r3, #10
 521 011a 0BD8     		bhi	.L29
 332:motorControl.c ****         {
 333:motorControl.c ****             setMotorOutputs(BRAKE,0xFF);
 522              		.loc 1 333 0
 523 011c FF21     		movs	r1, #255
 524 011e 0020     		movs	r0, #0
 525 0120 FFF7FEFF 		bl	setMotorOutputs
 526              	.LVL41:
 334:motorControl.c ****             CyDelay(5);
 527              		.loc 1 334 0
 528 0124 0520     		movs	r0, #5
 529 0126 FFF7FEFF 		bl	CyDelay
 530              	.LVL42:
 335:motorControl.c ****             bDoneMovingCalibrate = TRUE;
 531              		.loc 1 335 0
 532 012a 0121     		movs	r1, #1
 533 012c 5423     		movs	r3, #84
 534 012e 234A     		ldr	r2, .L35+20
 535 0130 D154     		strb	r1, [r2, r3]
 536 0132 2BE0     		b	.L30
 537              	.L29:
 336:motorControl.c ****         }
 337:motorControl.c ****         else if(pMotor->MotorOutput>DESIRED_POSITION+TOLERANCE)
 538              		.loc 1 337 0
 539 0134 0529     		cmp	r1, #5
 540 0136 17DD     		ble	.L31
 338:motorControl.c ****         {
 339:motorControl.c ****                 bDoneMovingCalibrate = FALSE;
 541              		.loc 1 339 0
 542 0138 0020     		movs	r0, #0
 543 013a 5423     		movs	r3, #84
 544 013c 1F4A     		ldr	r2, .L35+20
 545 013e D054     		strb	r0, [r2, r3]
 340:motorControl.c ****                 setMotorOutputs(FORWARD,pMotor->MotorOutput);
 546              		.loc 1 340 0
ARM GAS  C:\Users\kylep\AppData\Local\Temp\ccUCcGKt.s 			page 17


 547 0140 C9B2     		uxtb	r1, r1
 548 0142 0130     		adds	r0, r0, #1
 549 0144 FFF7FEFF 		bl	setMotorOutputs
 550              	.LVL43:
 341:motorControl.c ****                 if(manualDesiredPostion!=0)
 551              		.loc 1 341 0
 552 0148 002F     		cmp	r7, #0
 553 014a 04D0     		beq	.L32
 342:motorControl.c ****                 {
 343:motorControl.c ****                     setMotorOutputs(FORWARD,0xFF);
 554              		.loc 1 343 0
 555 014c FF21     		movs	r1, #255
 556 014e 0120     		movs	r0, #1
 557 0150 FFF7FEFF 		bl	setMotorOutputs
 558              	.LVL44:
 559 0154 1AE0     		b	.L30
 560              	.L32:
 344:motorControl.c ****                 }
 345:motorControl.c ****                 else
 346:motorControl.c ****                 {
 347:motorControl.c ****                     setMotorOutputs(FORWARD,pMotor->MotorOutput);
 561              		.loc 1 347 0
 562 0156 144B     		ldr	r3, .L35
 563 0158 1B68     		ldr	r3, [r3]
 564 015a 2C21     		movs	r1, #44
 565 015c 595E     		ldrsh	r1, [r3, r1]
 566 015e C9B2     		uxtb	r1, r1
 567 0160 0120     		movs	r0, #1
 568 0162 FFF7FEFF 		bl	setMotorOutputs
 569              	.LVL45:
 570 0166 11E0     		b	.L30
 571              	.L31:
 348:motorControl.c ****                 }
 349:motorControl.c ****         }
 350:motorControl.c ****         else if(pMotor->MotorOutput<DESIRED_POSITION-TOLERANCE)
 572              		.loc 1 350 0
 573 0168 4B1D     		adds	r3, r1, #5
 574 016a 0FDA     		bge	.L30
 351:motorControl.c ****         {
 352:motorControl.c ****             bDoneMovingCalibrate = FALSE;
 575              		.loc 1 352 0
 576 016c 0020     		movs	r0, #0
 577 016e 5423     		movs	r3, #84
 578 0170 124A     		ldr	r2, .L35+20
 579 0172 D054     		strb	r0, [r2, r3]
 353:motorControl.c ****             if(manualDesiredPostion!=0)
 580              		.loc 1 353 0
 581 0174 002F     		cmp	r7, #0
 582 0176 04D0     		beq	.L33
 354:motorControl.c ****             {
 355:motorControl.c ****                 setMotorOutputs(BACKWARDS,0xFF);
 583              		.loc 1 355 0
 584 0178 FF21     		movs	r1, #255
 585 017a 0A30     		adds	r0, r0, #10
 586 017c FFF7FEFF 		bl	setMotorOutputs
 587              	.LVL46:
 588 0180 04E0     		b	.L30
ARM GAS  C:\Users\kylep\AppData\Local\Temp\ccUCcGKt.s 			page 18


 589              	.L33:
 356:motorControl.c ****             }
 357:motorControl.c ****             else
 358:motorControl.c ****             {
 359:motorControl.c ****                 setMotorOutputs(BACKWARDS,-1*pMotor->MotorOutput);
 590              		.loc 1 359 0
 591 0182 4942     		rsbs	r1, r1, #0
 592 0184 C9B2     		uxtb	r1, r1
 593 0186 0A20     		movs	r0, #10
 594 0188 FFF7FEFF 		bl	setMotorOutputs
 595              	.LVL47:
 596              	.L30:
 360:motorControl.c ****             }
 361:motorControl.c ****         }
 362:motorControl.c ****         
 363:motorControl.c ****         pMotor->previousErrorPot = pMotor->errorPot;
 597              		.loc 1 363 0
 598 018c 064B     		ldr	r3, .L35
 599 018e 1B68     		ldr	r3, [r3]
 600 0190 1A21     		movs	r1, #26
 601 0192 5A5E     		ldrsh	r2, [r3, r1]
 602 0194 9A83     		strh	r2, [r3, #28]
 603 0196 03E0     		b	.L34
 604              	.LVL48:
 605              	.L20:
 364:motorControl.c ****     }
 365:motorControl.c ****     }
 366:motorControl.c ****     else
 367:motorControl.c ****     {
 368:motorControl.c ****         setMotorOutputs(BRAKE,0xFF);
 606              		.loc 1 368 0
 607 0198 FF21     		movs	r1, #255
 608 019a 0020     		movs	r0, #0
 609              	.LVL49:
 610 019c FFF7FEFF 		bl	setMotorOutputs
 611              	.LVL50:
 612              	.L34:
 369:motorControl.c ****         //CyDelay(50);
 370:motorControl.c ****         //setMotorOutputs(OFF_NOTHING,0x00);
 371:motorControl.c ****     }
 372:motorControl.c ****     
 373:motorControl.c ****     return pMotor;
 613              		.loc 1 373 0
 614 01a0 014B     		ldr	r3, .L35
 615 01a2 1868     		ldr	r0, [r3]
 374:motorControl.c **** }
 616              		.loc 1 374 0
 617 01a4 05B0     		add	sp, sp, #20
 618              		@ sp needed
 619 01a6 F0BD     		pop	{r4, r5, r6, r7, pc}
 620              	.L36:
 621              		.align	2
 622              	.L35:
 623 01a8 00000000 		.word	pMotor
 624 01ac 00000000 		.word	rxPacketLocal
 625 01b0 00007F43 		.word	1132396544
 626 01b4 C3F5285C 		.word	1546188227
ARM GAS  C:\Users\kylep\AppData\Local\Temp\ccUCcGKt.s 			page 19


 627 01b8 8FC2ED3F 		.word	1072546447
 628 01bc 00000000 		.word	.LANCHOR0
 629              		.cfi_endproc
 630              	.LFE38:
 631              		.size	motorControlLoop, .-motorControlLoop
 632              		.section	.text.calibrateMotor,"ax",%progbits
 633              		.align	2
 634              		.global	calibrateMotor
 635              		.code	16
 636              		.thumb_func
 637              		.type	calibrateMotor, %function
 638              	calibrateMotor:
 639              	.LFB35:
 167:motorControl.c ****     pMotor->calibrated = START_CALIBRATING;
 640              		.loc 1 167 0
 641              		.cfi_startproc
 642              		@ args = 0, pretend = 0, frame = 0
 643              		@ frame_needed = 0, uses_anonymous_args = 0
 644 0000 10B5     		push	{r4, lr}
 645              		.cfi_def_cfa_offset 8
 646              		.cfi_offset 4, -8
 647              		.cfi_offset 14, -4
 168:motorControl.c ****     
 648              		.loc 1 168 0
 649 0002 244B     		ldr	r3, .L45
 650 0004 1A68     		ldr	r2, [r3]
 651 0006 0021     		movs	r1, #0
 652 0008 3023     		movs	r3, #48
 653 000a D154     		strb	r1, [r2, r3]
 170:motorControl.c ****     {
 654              		.loc 1 170 0
 655 000c 2DE0     		b	.L38
 656              	.L44:
 176:motorControl.c ****        CyDelay(5000);
 657              		.loc 1 176 0
 658 000e 2248     		ldr	r0, .L45+4
 659 0010 FFF7FEFF 		bl	hallEffectISR_StartEx
 660              	.LVL51:
 177:motorControl.c ****        bDoneMovingCalibrate = FALSE;
 661              		.loc 1 177 0
 662 0014 2148     		ldr	r0, .L45+8
 663 0016 FFF7FEFF 		bl	CyDelay
 664              	.LVL52:
 178:motorControl.c ****        while(bDoneMovingCalibrate == FALSE)
 665              		.loc 1 178 0
 666 001a 0021     		movs	r1, #0
 667 001c 5423     		movs	r3, #84
 668 001e 204A     		ldr	r2, .L45+12
 669 0020 D154     		strb	r1, [r2, r3]
 179:motorControl.c ****        {
 670              		.loc 1 179 0
 671 0022 13E0     		b	.L39
 672              	.L42:
 181:motorControl.c ****             {
 673              		.loc 1 181 0
 674 0024 1B4B     		ldr	r3, .L45
 675 0026 1A68     		ldr	r2, [r3]
ARM GAS  C:\Users\kylep\AppData\Local\Temp\ccUCcGKt.s 			page 20


 676 0028 3023     		movs	r3, #48
 677 002a D35C     		ldrb	r3, [r2, r3]
 678 002c 012B     		cmp	r3, #1
 679 002e 0AD1     		bne	.L40
 183:motorControl.c ****                 CyDelay(1);
 680              		.loc 1 183 0
 681 0030 0022     		movs	r2, #0
 682 0032 1B4B     		ldr	r3, .L45+12
 683 0034 9A65     		str	r2, [r3, #88]
 184:motorControl.c ****                 setMotorOutputs(BRAKE,0xFF);
 684              		.loc 1 184 0
 685 0036 0120     		movs	r0, #1
 686 0038 FFF7FEFF 		bl	CyDelay
 687              	.LVL53:
 185:motorControl.c ****                 break;
 688              		.loc 1 185 0
 689 003c FF21     		movs	r1, #255
 690 003e 0020     		movs	r0, #0
 691 0040 FFF7FEFF 		bl	setMotorOutputs
 692              	.LVL54:
 186:motorControl.c ****             }
 693              		.loc 1 186 0
 694 0044 07E0     		b	.L41
 695              	.L40:
 189:motorControl.c ****        };
 696              		.loc 1 189 0
 697 0046 FC20     		movs	r0, #252
 698 0048 FFF7FEFF 		bl	motorControlLoop
 699              	.LVL55:
 700              	.L39:
 179:motorControl.c ****        {
 701              		.loc 1 179 0
 702 004c 5423     		movs	r3, #84
 703 004e 144A     		ldr	r2, .L45+12
 704 0050 D35C     		ldrb	r3, [r2, r3]
 705 0052 002B     		cmp	r3, #0
 706 0054 E6D0     		beq	.L42
 707              	.L41:
 193:motorControl.c ****        if(timeOutCalibrate >= 6)
 708              		.loc 1 193 0
 709 0056 124A     		ldr	r2, .L45+12
 710 0058 936D     		ldr	r3, [r2, #88]
 711 005a 0133     		adds	r3, r3, #1
 712 005c 9365     		str	r3, [r2, #88]
 194:motorControl.c ****        {
 713              		.loc 1 194 0
 714 005e 052B     		cmp	r3, #5
 715 0060 03D9     		bls	.L38
 196:motorControl.c ****             break;
 716              		.loc 1 196 0
 717 0062 0022     		movs	r2, #0
 718 0064 0E4B     		ldr	r3, .L45+12
 719 0066 9A65     		str	r2, [r3, #88]
 197:motorControl.c ****        }
 720              		.loc 1 197 0
 721 0068 05E0     		b	.L43
 722              	.L38:
ARM GAS  C:\Users\kylep\AppData\Local\Temp\ccUCcGKt.s 			page 21


 170:motorControl.c ****     {
 723              		.loc 1 170 0
 724 006a 0A4B     		ldr	r3, .L45
 725 006c 1A68     		ldr	r2, [r3]
 726 006e 3023     		movs	r3, #48
 727 0070 D35C     		ldrb	r3, [r2, r3]
 728 0072 012B     		cmp	r3, #1
 729 0074 CBD1     		bne	.L44
 730              	.L43:
 200:motorControl.c ****     hallEffectISR_Stop();
 731              		.loc 1 200 0
 732 0076 FF21     		movs	r1, #255
 733 0078 0020     		movs	r0, #0
 734 007a FFF7FEFF 		bl	setMotorOutputs
 735              	.LVL56:
 201:motorControl.c ****     CyDelay(10);
 736              		.loc 1 201 0
 737 007e FFF7FEFF 		bl	hallEffectISR_Stop
 738              	.LVL57:
 202:motorControl.c ****     return pMotor->forwardLimitCS;
 739              		.loc 1 202 0
 740 0082 0A20     		movs	r0, #10
 741 0084 FFF7FEFF 		bl	CyDelay
 742              	.LVL58:
 203:motorControl.c **** }
 743              		.loc 1 203 0
 744 0088 024B     		ldr	r3, .L45
 745 008a 1B68     		ldr	r3, [r3]
 746 008c 0220     		movs	r0, #2
 747 008e 185E     		ldrsh	r0, [r3, r0]
 204:motorControl.c **** 
 748              		.loc 1 204 0
 749              		@ sp needed
 750 0090 10BD     		pop	{r4, pc}
 751              	.L46:
 752 0092 C046     		.align	2
 753              	.L45:
 754 0094 00000000 		.word	pMotor
 755 0098 00000000 		.word	HALL_EFFECT_EDGE_DETECT_INTERRUPT
 756 009c 88130000 		.word	5000
 757 00a0 00000000 		.word	.LANCHOR0
 758              		.cfi_endproc
 759              	.LFE35:
 760              		.size	calibrateMotor, .-calibrateMotor
 761              		.section	.text.setMotorPosition,"ax",%progbits
 762              		.align	2
 763              		.global	setMotorPosition
 764              		.code	16
 765              		.thumb_func
 766              		.type	setMotorPosition, %function
 767              	setMotorPosition:
 768              	.LFB39:
 375:motorControl.c **** 
 376:motorControl.c **** void setMotorPosition(uint8 localMotorPosition)
 377:motorControl.c **** {
 769              		.loc 1 377 0
 770              		.cfi_startproc
ARM GAS  C:\Users\kylep\AppData\Local\Temp\ccUCcGKt.s 			page 22


 771              		@ args = 0, pretend = 0, frame = 0
 772              		@ frame_needed = 0, uses_anonymous_args = 0
 773              		@ link register save eliminated.
 774              	.LVL59:
 378:motorControl.c ****     rxPacketLocal->Payload.endMotorPosition = localMotorPosition;
 775              		.loc 1 378 0
 776 0000 014B     		ldr	r3, .L48
 777 0002 1B68     		ldr	r3, [r3]
 778 0004 5880     		strh	r0, [r3, #2]
 379:motorControl.c **** }
 779              		.loc 1 379 0
 780              		@ sp needed
 781 0006 7047     		bx	lr
 782              	.L49:
 783              		.align	2
 784              	.L48:
 785 0008 00000000 		.word	rxPacketLocal
 786              		.cfi_endproc
 787              	.LFE39:
 788              		.size	setMotorPosition, .-setMotorPosition
 789              		.section	.text.checkMotorCurrent,"ax",%progbits
 790              		.align	2
 791              		.global	checkMotorCurrent
 792              		.code	16
 793              		.thumb_func
 794              		.type	checkMotorCurrent, %function
 795              	checkMotorCurrent:
 796              	.LFB40:
 380:motorControl.c **** 
 381:motorControl.c **** uint16 checkMotorCurrent(void)
 382:motorControl.c **** {
 797              		.loc 1 382 0
 798              		.cfi_startproc
 799              		@ args = 0, pretend = 0, frame = 0
 800              		@ frame_needed = 0, uses_anonymous_args = 0
 801 0000 10B5     		push	{r4, lr}
 802              		.cfi_def_cfa_offset 8
 803              		.cfi_offset 4, -8
 804              		.cfi_offset 14, -4
 805              	.LVL60:
 383:motorControl.c ****     uint16 motorCurrentValue = 0;
 384:motorControl.c ****     motorCurrentValue = ADC_SAR_Seq_GetResult16(HBridge_CS);
 806              		.loc 1 384 0
 807 0002 0220     		movs	r0, #2
 808 0004 FFF7FEFF 		bl	ADC_SAR_Seq_GetResult16
 809              	.LVL61:
 810 0008 80B2     		uxth	r0, r0
 811              	.LVL62:
 385:motorControl.c ****     return motorCurrentValue;
 386:motorControl.c **** }...
 812              		.loc 1 386 0
 813              		@ sp needed
 814 000a 10BD     		pop	{r4, pc}
 815              		.cfi_endproc
 816              	.LFE40:
 817              		.size	checkMotorCurrent, .-checkMotorCurrent
 818              		.section	.text.OVER_CURRENT_ISR,"ax",%progbits
ARM GAS  C:\Users\kylep\AppData\Local\Temp\ccUCcGKt.s 			page 23


 819              		.align	2
 820              		.global	OVER_CURRENT_ISR
 821              		.code	16
 822              		.thumb_func
 823              		.type	OVER_CURRENT_ISR, %function
 824              	OVER_CURRENT_ISR:
 825              	.LFB33:
  61:motorControl.c **** {
 826              		.loc 1 61 0
 827              		.cfi_startproc
 828              		@ args = 0, pretend = 0, frame = 0
 829              		@ frame_needed = 0, uses_anonymous_args = 0
 830 0000 F8B5     		push	{r3, r4, r5, r6, r7, lr}
 831              		.cfi_def_cfa_offset 24
 832              		.cfi_offset 3, -24
 833              		.cfi_offset 4, -20
 834              		.cfi_offset 5, -16
 835              		.cfi_offset 6, -12
 836              		.cfi_offset 7, -8
 837              		.cfi_offset 14, -4
  62:motorControl.c ****     if(ADC_SAR_Seq_IsEndConversion(ADC_SAR_Seq_RETURN_STATUS) !=0)
 838              		.loc 1 62 0
 839 0002 0120     		movs	r0, #1
 840 0004 FFF7FEFF 		bl	ADC_SAR_Seq_IsEndConversion
 841              	.LVL63:
 842 0008 0028     		cmp	r0, #0
 843 000a 0DD0     		beq	.L52
  64:motorControl.c ****         pMotor->motorCurrent[pMotor->motorCurrentSamplesIterator] = checkMotorCurrent();
 844              		.loc 1 64 0
 845 000c 444E     		ldr	r6, .L58
 846 000e 3768     		ldr	r7, [r6]
 847 0010 4A25     		movs	r5, #74
 848 0012 7C5D     		ldrb	r4, [r7, r5]
 849 0014 FFF7FEFF 		bl	checkMotorCurrent
 850              	.LVL64:
 851 0018 1834     		adds	r4, r4, #24
 852 001a 6400     		lsls	r4, r4, #1
 853 001c 3C19     		adds	r4, r7, r4
 854 001e 6080     		strh	r0, [r4, #2]
  65:motorControl.c ****         pMotor->motorCurrentSamplesIterator++;
 855              		.loc 1 65 0
 856 0020 3268     		ldr	r2, [r6]
 857 0022 535D     		ldrb	r3, [r2, r5]
 858 0024 0133     		adds	r3, r3, #1
 859 0026 5355     		strb	r3, [r2, r5]
 860              	.L52:
  69:motorControl.c ****     if(pMotor->motorCurrent[0]>= OVER_CURRENT_VALUE && pMotor->motorCurrent[1]>= OVER_CURRENT_VALUE
 861              		.loc 1 69 0
 862 0028 3D4B     		ldr	r3, .L58
 863 002a 1B68     		ldr	r3, [r3]
 864 002c 598E     		ldrh	r1, [r3, #50]
 865 002e F422     		movs	r2, #244
 866 0030 FF32     		adds	r2, r2, #255
 867 0032 9142     		cmp	r1, r2
 868 0034 51D9     		bls	.L53
  69:motorControl.c ****     if(pMotor->motorCurrent[0]>= OVER_CURRENT_VALUE && pMotor->motorCurrent[1]>= OVER_CURRENT_VALUE
 869              		.loc 1 69 0 is_stmt 0 discriminator 1
ARM GAS  C:\Users\kylep\AppData\Local\Temp\ccUCcGKt.s 			page 24


 870 0036 998E     		ldrh	r1, [r3, #52]
 871 0038 9142     		cmp	r1, r2
 872 003a 4ED9     		bls	.L53
  69:motorControl.c ****     if(pMotor->motorCurrent[0]>= OVER_CURRENT_VALUE && pMotor->motorCurrent[1]>= OVER_CURRENT_VALUE
 873              		.loc 1 69 0 discriminator 2
 874 003c D98E     		ldrh	r1, [r3, #54]
 875 003e 9142     		cmp	r1, r2
 876 0040 4BD9     		bls	.L53
  69:motorControl.c ****     if(pMotor->motorCurrent[0]>= OVER_CURRENT_VALUE && pMotor->motorCurrent[1]>= OVER_CURRENT_VALUE
 877              		.loc 1 69 0 discriminator 3
 878 0042 198F     		ldrh	r1, [r3, #56]
 879 0044 9142     		cmp	r1, r2
 880 0046 48D9     		bls	.L53
  69:motorControl.c ****     if(pMotor->motorCurrent[0]>= OVER_CURRENT_VALUE && pMotor->motorCurrent[1]>= OVER_CURRENT_VALUE
 881              		.loc 1 69 0 discriminator 4
 882 0048 598F     		ldrh	r1, [r3, #58]
 883 004a 9142     		cmp	r1, r2
 884 004c 45D9     		bls	.L53
  69:motorControl.c ****     if(pMotor->motorCurrent[0]>= OVER_CURRENT_VALUE && pMotor->motorCurrent[1]>= OVER_CURRENT_VALUE
 885              		.loc 1 69 0 discriminator 5
 886 004e 998F     		ldrh	r1, [r3, #60]
 887 0050 9142     		cmp	r1, r2
 888 0052 42D9     		bls	.L53
  69:motorControl.c ****     if(pMotor->motorCurrent[0]>= OVER_CURRENT_VALUE && pMotor->motorCurrent[1]>= OVER_CURRENT_VALUE
 889              		.loc 1 69 0 discriminator 6
 890 0054 D98F     		ldrh	r1, [r3, #62]
 891 0056 9142     		cmp	r1, r2
 892 0058 3FD9     		bls	.L53
  69:motorControl.c ****     if(pMotor->motorCurrent[0]>= OVER_CURRENT_VALUE && pMotor->motorCurrent[1]>= OVER_CURRENT_VALUE
 893              		.loc 1 69 0 discriminator 7
 894 005a B43A     		subs	r2, r2, #180
 895 005c FF3A     		subs	r2, r2, #255
 896 005e 995A     		ldrh	r1, [r3, r2]
 897 0060 F422     		movs	r2, #244
 898 0062 FF32     		adds	r2, r2, #255
 899 0064 9142     		cmp	r1, r2
 900 0066 38D9     		bls	.L53
  69:motorControl.c ****     if(pMotor->motorCurrent[0]>= OVER_CURRENT_VALUE && pMotor->motorCurrent[1]>= OVER_CURRENT_VALUE
 901              		.loc 1 69 0 discriminator 8
 902 0068 B23A     		subs	r2, r2, #178
 903 006a FF3A     		subs	r2, r2, #255
 904 006c 995A     		ldrh	r1, [r3, r2]
 905 006e F422     		movs	r2, #244
 906 0070 FF32     		adds	r2, r2, #255
 907 0072 9142     		cmp	r1, r2
 908 0074 31D9     		bls	.L53
  69:motorControl.c ****     if(pMotor->motorCurrent[0]>= OVER_CURRENT_VALUE && pMotor->motorCurrent[1]>= OVER_CURRENT_VALUE
 909              		.loc 1 69 0 discriminator 9
 910 0076 B03A     		subs	r2, r2, #176
 911 0078 FF3A     		subs	r2, r2, #255
 912 007a 995A     		ldrh	r1, [r3, r2]
 913 007c F422     		movs	r2, #244
 914 007e FF32     		adds	r2, r2, #255
 915 0080 9142     		cmp	r1, r2
 916 0082 2AD9     		bls	.L53
  69:motorControl.c ****     if(pMotor->motorCurrent[0]>= OVER_CURRENT_VALUE && pMotor->motorCurrent[1]>= OVER_CURRENT_VALUE
 917              		.loc 1 69 0 discriminator 10
ARM GAS  C:\Users\kylep\AppData\Local\Temp\ccUCcGKt.s 			page 25


 918 0084 AE3A     		subs	r2, r2, #174
 919 0086 FF3A     		subs	r2, r2, #255
 920 0088 995A     		ldrh	r1, [r3, r2]
 921 008a F422     		movs	r2, #244
 922 008c FF32     		adds	r2, r2, #255
 923 008e 9142     		cmp	r1, r2
 924 0090 23D9     		bls	.L53
  69:motorControl.c ****     if(pMotor->motorCurrent[0]>= OVER_CURRENT_VALUE && pMotor->motorCurrent[1]>= OVER_CURRENT_VALUE
 925              		.loc 1 69 0 discriminator 11
 926 0092 AC3A     		subs	r2, r2, #172
 927 0094 FF3A     		subs	r2, r2, #255
 928 0096 9A5A     		ldrh	r2, [r3, r2]
 929 0098 F423     		movs	r3, #244
 930 009a FF33     		adds	r3, r3, #255
 931 009c 9A42     		cmp	r2, r3
 932 009e 1CD9     		bls	.L53
  71:motorControl.c ****             setMotorOutputs(BRAKE,0xFF);
 933              		.loc 1 71 0 is_stmt 1
 934 00a0 FF21     		movs	r1, #255
 935 00a2 0020     		movs	r0, #0
 936 00a4 FFF7FEFF 		bl	setMotorOutputs
 937              	.LVL65:
  72:motorControl.c ****             for(pMotor->motorCurrentSamplesIterator = 0; pMotor->motorCurrentSamplesIterator<12; pM
 938              		.loc 1 72 0
 939 00a8 1D4B     		ldr	r3, .L58
 940 00aa 1A68     		ldr	r2, [r3]
 941 00ac 0021     		movs	r1, #0
 942 00ae 4A23     		movs	r3, #74
 943 00b0 D154     		strb	r1, [r2, r3]
 944 00b2 08E0     		b	.L54
 945              	.L55:
  74:motorControl.c ****                 pMotor->motorCurrent[pMotor->motorCurrentSamplesIterator] = 0;
 946              		.loc 1 74 0 discriminator 3
 947 00b4 1833     		adds	r3, r3, #24
 948 00b6 5B00     		lsls	r3, r3, #1
 949 00b8 D318     		adds	r3, r2, r3
 950 00ba 0021     		movs	r1, #0
 951 00bc 5980     		strh	r1, [r3, #2]
  72:motorControl.c ****             for(pMotor->motorCurrentSamplesIterator = 0; pMotor->motorCurrentSamplesIterator<12; pM
 952              		.loc 1 72 0 discriminator 3
 953 00be 4A31     		adds	r1, r1, #74
 954 00c0 535C     		ldrb	r3, [r2, r1]
 955 00c2 0133     		adds	r3, r3, #1
 956 00c4 5354     		strb	r3, [r2, r1]
 957              	.L54:
  72:motorControl.c ****             for(pMotor->motorCurrentSamplesIterator = 0; pMotor->motorCurrentSamplesIterator<12; pM
 958              		.loc 1 72 0 is_stmt 0 discriminator 1
 959 00c6 4A23     		movs	r3, #74
 960 00c8 D35C     		ldrb	r3, [r2, r3]
 961 00ca 0B2B     		cmp	r3, #11
 962 00cc F2D9     		bls	.L55
  76:motorControl.c ****             pMotor->motorCurrentSamplesIterator = 0;
 963              		.loc 1 76 0 is_stmt 1
 964 00ce 0021     		movs	r1, #0
 965 00d0 4A23     		movs	r3, #74
 966 00d2 D154     		strb	r1, [r2, r3]
  77:motorControl.c ****             pMotor->bOverCurrentStart = TRUE;
ARM GAS  C:\Users\kylep\AppData\Local\Temp\ccUCcGKt.s 			page 26


 967              		.loc 1 77 0
 968 00d4 0131     		adds	r1, r1, #1
 969 00d6 0433     		adds	r3, r3, #4
 970 00d8 D154     		strb	r1, [r2, r3]
 971              	.L53:
  79:motorControl.c ****     if( pMotor->bOverCurrentStart == TRUE)
 972              		.loc 1 79 0
 973 00da 114B     		ldr	r3, .L58
 974 00dc 1B68     		ldr	r3, [r3]
 975 00de 4E22     		movs	r2, #78
 976 00e0 9A5C     		ldrb	r2, [r3, r2]
 977 00e2 012A     		cmp	r2, #1
 978 00e4 0DD1     		bne	.L56
  81:motorControl.c ****         pMotor->overCurrentTimerOutCounter++;
 979              		.loc 1 81 0
 980 00e6 5021     		movs	r1, #80
 981 00e8 5A5A     		ldrh	r2, [r3, r1]
 982 00ea 0132     		adds	r2, r2, #1
 983 00ec 92B2     		uxth	r2, r2
 984 00ee 5A52     		strh	r2, [r3, r1]
  82:motorControl.c ****         if(pMotor->overCurrentTimerOutCounter>=OVER_CURRENT_TIMER_THRESHOLD)
 985              		.loc 1 82 0
 986 00f0 F421     		movs	r1, #244
 987 00f2 FF31     		adds	r1, r1, #255
 988 00f4 8A42     		cmp	r2, r1
 989 00f6 04D9     		bls	.L56
  84:motorControl.c ****             pMotor->overCurrentTimerOutCounter=0;
 990              		.loc 1 84 0
 991 00f8 0021     		movs	r1, #0
 992 00fa 5022     		movs	r2, #80
 993 00fc 9952     		strh	r1, [r3, r2]
  85:motorControl.c ****             pMotor->bOverCurrentStart = FALSE;
 994              		.loc 1 85 0
 995 00fe 023A     		subs	r2, r2, #2
 996 0100 9954     		strb	r1, [r3, r2]
 997              	.L56:
  88:motorControl.c ****     if(pMotor->motorCurrentSamplesIterator>=12)
 998              		.loc 1 88 0
 999 0102 4A22     		movs	r2, #74
 1000 0104 9A5C     		ldrb	r2, [r3, r2]
 1001 0106 0B2A     		cmp	r2, #11
 1002 0108 02D9     		bls	.L57
  90:motorControl.c ****         pMotor->motorCurrentSamplesIterator = 0;
 1003              		.loc 1 90 0
 1004 010a 0021     		movs	r1, #0
 1005 010c 4A22     		movs	r2, #74
 1006 010e 9954     		strb	r1, [r3, r2]
 1007              	.L57:
  93:motorControl.c ****     timerForInputs = 1;
 1008              		.loc 1 93 0
 1009 0110 0122     		movs	r2, #1
 1010 0112 044B     		ldr	r3, .L58+4
 1011 0114 1A70     		strb	r2, [r3]
  95:motorControl.c ****     overCurrentTimerISR_ClearPending();
 1012              		.loc 1 95 0
 1013 0116 FFF7FEFF 		bl	overCurrentTimerISR_ClearPending
 1014              	.LVL66:
ARM GAS  C:\Users\kylep\AppData\Local\Temp\ccUCcGKt.s 			page 27


  96:motorControl.c ****     overCurrentTimer_ReadStatusRegister();
 1015              		.loc 1 96 0
 1016 011a FFF7FEFF 		bl	overCurrentTimer_ReadStatusRegister
 1017              	.LVL67:
  98:motorControl.c **** }
 1018              		.loc 1 98 0
 1019              		@ sp needed
 1020 011e F8BD     		pop	{r3, r4, r5, r6, r7, pc}
 1021              	.L59:
 1022              		.align	2
 1023              	.L58:
 1024 0120 00000000 		.word	pMotor
 1025 0124 00000000 		.word	timerForInputs
 1026              		.cfi_endproc
 1027              	.LFE33:
 1028              		.size	OVER_CURRENT_ISR, .-OVER_CURRENT_ISR
 1029              		.global	bDoneMovingCalibrate
 1030              		.global	motorStatus
 1031              		.comm	rxPacketLocal,4,4
 1032              		.comm	pMotor,4,4
 1033              		.bss
 1034              		.align	2
 1035              		.set	.LANCHOR0,. + 0
 1036              		.type	motorStatus, %object
 1037              		.size	motorStatus, 84
 1038              	motorStatus:
 1039 0000 00000000 		.space	84
 1039      00000000 
 1039      00000000 
 1039      00000000 
 1039      00000000 
 1040              		.type	bDoneMovingCalibrate, %object
 1041              		.size	bDoneMovingCalibrate, 1
 1042              	bDoneMovingCalibrate:
 1043 0054 00       		.space	1
 1044 0055 000000   		.space	3
 1045              		.type	timeOutCalibrate, %object
 1046              		.size	timeOutCalibrate, 4
 1047              	timeOutCalibrate:
 1048 0058 00000000 		.space	4
 1049              		.text
 1050              	.Letext0:
 1051              		.file 2 "Generated_Source\\PSoC4/cytypes.h"
 1052              		.file 3 "motorControl.h"
 1053              		.file 4 "BrightnessCommManager.h"
 1054              		.file 5 "commonVariables.h"
 1055              		.file 6 "Generated_Source\\PSoC4/motorControlPWM.h"
 1056              		.file 7 "Generated_Source\\PSoC4/CyLib.h"
 1057              		.file 8 "Generated_Source\\PSoC4/ADC_SAR_Seq.h"
 1058              		.file 9 "Generated_Source\\PSoC4/limitSwitch.h"
 1059              		.file 10 "Generated_Source\\PSoC4/pwmClock.h"
 1060              		.file 11 "Generated_Source\\PSoC4/overCurrentTimerISR.h"
 1061              		.file 12 "Generated_Source\\PSoC4/overCurrentTimer.h"
 1062              		.file 13 "Generated_Source\\PSoC4/hallEffectISR.h"