ARM GAS  C:\Users\kylep\AppData\Local\Temp\ccgZEwxP.s 			page 1


   1              		.syntax unified
   2              		.cpu cortex-m0
   3              		.fpu softvfp
   4              		.eabi_attribute 20, 1
   5              		.eabi_attribute 21, 1
   6              		.eabi_attribute 23, 3
   7              		.eabi_attribute 24, 1
   8              		.eabi_attribute 25, 1
   9              		.eabi_attribute 26, 1
  10              		.eabi_attribute 30, 1
  11              		.eabi_attribute 34, 0
  12              		.eabi_attribute 18, 4
  13              		.thumb
  14              		.syntax unified
  15              		.file	"motorControlPWM.c"
  16              		.text
  17              	.Ltext0:
  18              		.cfi_sections	.debug_frame
  19              		.section	.text.motorControlPWM_Enable,"ax",%progbits
  20              		.align	2
  21              		.global	motorControlPWM_Enable
  22              		.code	16
  23              		.thumb_func
  24              		.type	motorControlPWM_Enable, %function
  25              	motorControlPWM_Enable:
  26              	.LFB2:
  27              		.file 1 "Generated_Source\\PSoC4\\motorControlPWM.c"
   1:Generated_Source\PSoC4/motorControlPWM.c **** /*******************************************************************************
   2:Generated_Source\PSoC4/motorControlPWM.c **** * File Name: motorControlPWM.c
   3:Generated_Source\PSoC4/motorControlPWM.c **** * Version 3.30
   4:Generated_Source\PSoC4/motorControlPWM.c **** *
   5:Generated_Source\PSoC4/motorControlPWM.c **** * Description:
   6:Generated_Source\PSoC4/motorControlPWM.c **** *  The PWM User Module consist of an 8 or 16-bit counter with two 8 or 16-bit
   7:Generated_Source\PSoC4/motorControlPWM.c **** *  comparitors. Each instance of this user module is capable of generating
   8:Generated_Source\PSoC4/motorControlPWM.c **** *  two PWM outputs with the same period. The pulse width is selectable between
   9:Generated_Source\PSoC4/motorControlPWM.c **** *  1 and 255/65535. The period is selectable between 2 and 255/65536 clocks.
  10:Generated_Source\PSoC4/motorControlPWM.c **** *  The compare value output may be configured to be active when the present
  11:Generated_Source\PSoC4/motorControlPWM.c **** *  counter is less than or less than/equal to the compare value.
  12:Generated_Source\PSoC4/motorControlPWM.c **** *  A terminal count output is also provided. It generates a pulse one clock
  13:Generated_Source\PSoC4/motorControlPWM.c **** *  width wide when the counter is equal to zero.
  14:Generated_Source\PSoC4/motorControlPWM.c **** *
  15:Generated_Source\PSoC4/motorControlPWM.c **** * Note:
  16:Generated_Source\PSoC4/motorControlPWM.c **** *
  17:Generated_Source\PSoC4/motorControlPWM.c **** *******************************************************************************
  18:Generated_Source\PSoC4/motorControlPWM.c **** * Copyright 2008-2014, Cypress Semiconductor Corporation.  All rights reserved.
  19:Generated_Source\PSoC4/motorControlPWM.c **** * You may use this file only in accordance with the license, terms, conditions,
  20:Generated_Source\PSoC4/motorControlPWM.c **** * disclaimers, and limitations in the end user license agreement accompanying
  21:Generated_Source\PSoC4/motorControlPWM.c **** * the software package with which this file was provided.
  22:Generated_Source\PSoC4/motorControlPWM.c **** ********************************************************************************/
  23:Generated_Source\PSoC4/motorControlPWM.c **** 
  24:Generated_Source\PSoC4/motorControlPWM.c **** #include "motorControlPWM.h"
  25:Generated_Source\PSoC4/motorControlPWM.c **** 
  26:Generated_Source\PSoC4/motorControlPWM.c **** /* Error message for removed <resource> through optimization */
  27:Generated_Source\PSoC4/motorControlPWM.c **** #ifdef motorControlPWM_PWMUDB_genblk1_ctrlreg__REMOVED
  28:Generated_Source\PSoC4/motorControlPWM.c ****     #error PWM_v3_30 detected with a constant 0 for the enable or \
  29:Generated_Source\PSoC4/motorControlPWM.c ****          constant 1 for reset. This will prevent the component from operating.
  30:Generated_Source\PSoC4/motorControlPWM.c **** #endif /* motorControlPWM_PWMUDB_genblk1_ctrlreg__REMOVED */
ARM GAS  C:\Users\kylep\AppData\Local\Temp\ccgZEwxP.s 			page 2


  31:Generated_Source\PSoC4/motorControlPWM.c **** 
  32:Generated_Source\PSoC4/motorControlPWM.c **** uint8 motorControlPWM_initVar = 0u;
  33:Generated_Source\PSoC4/motorControlPWM.c **** 
  34:Generated_Source\PSoC4/motorControlPWM.c **** 
  35:Generated_Source\PSoC4/motorControlPWM.c **** /*******************************************************************************
  36:Generated_Source\PSoC4/motorControlPWM.c **** * Function Name: motorControlPWM_Start
  37:Generated_Source\PSoC4/motorControlPWM.c **** ********************************************************************************
  38:Generated_Source\PSoC4/motorControlPWM.c **** *
  39:Generated_Source\PSoC4/motorControlPWM.c **** * Summary:
  40:Generated_Source\PSoC4/motorControlPWM.c **** *  The start function initializes the pwm with the default values, the
  41:Generated_Source\PSoC4/motorControlPWM.c **** *  enables the counter to begin counting.  It does not enable interrupts,
  42:Generated_Source\PSoC4/motorControlPWM.c **** *  the EnableInt command should be called if interrupt generation is required.
  43:Generated_Source\PSoC4/motorControlPWM.c **** *
  44:Generated_Source\PSoC4/motorControlPWM.c **** * Parameters:
  45:Generated_Source\PSoC4/motorControlPWM.c **** *  None
  46:Generated_Source\PSoC4/motorControlPWM.c **** *
  47:Generated_Source\PSoC4/motorControlPWM.c **** * Return:
  48:Generated_Source\PSoC4/motorControlPWM.c **** *  None
  49:Generated_Source\PSoC4/motorControlPWM.c **** *
  50:Generated_Source\PSoC4/motorControlPWM.c **** * Global variables:
  51:Generated_Source\PSoC4/motorControlPWM.c **** *  motorControlPWM_initVar: Is modified when this function is called for the
  52:Generated_Source\PSoC4/motorControlPWM.c **** *   first time. Is used to ensure that initialization happens only once.
  53:Generated_Source\PSoC4/motorControlPWM.c **** *
  54:Generated_Source\PSoC4/motorControlPWM.c **** *******************************************************************************/
  55:Generated_Source\PSoC4/motorControlPWM.c **** void motorControlPWM_Start(void) 
  56:Generated_Source\PSoC4/motorControlPWM.c **** {
  57:Generated_Source\PSoC4/motorControlPWM.c ****     /* If not Initialized then initialize all required hardware and software */
  58:Generated_Source\PSoC4/motorControlPWM.c ****     if(motorControlPWM_initVar == 0u)
  59:Generated_Source\PSoC4/motorControlPWM.c ****     {
  60:Generated_Source\PSoC4/motorControlPWM.c ****         motorControlPWM_Init();
  61:Generated_Source\PSoC4/motorControlPWM.c ****         motorControlPWM_initVar = 1u;
  62:Generated_Source\PSoC4/motorControlPWM.c ****     }
  63:Generated_Source\PSoC4/motorControlPWM.c ****     motorControlPWM_Enable();
  64:Generated_Source\PSoC4/motorControlPWM.c **** 
  65:Generated_Source\PSoC4/motorControlPWM.c **** }
  66:Generated_Source\PSoC4/motorControlPWM.c **** 
  67:Generated_Source\PSoC4/motorControlPWM.c **** 
  68:Generated_Source\PSoC4/motorControlPWM.c **** /*******************************************************************************
  69:Generated_Source\PSoC4/motorControlPWM.c **** * Function Name: motorControlPWM_Init
  70:Generated_Source\PSoC4/motorControlPWM.c **** ********************************************************************************
  71:Generated_Source\PSoC4/motorControlPWM.c **** *
  72:Generated_Source\PSoC4/motorControlPWM.c **** * Summary:
  73:Generated_Source\PSoC4/motorControlPWM.c **** *  Initialize component's parameters to the parameters set by user in the
  74:Generated_Source\PSoC4/motorControlPWM.c **** *  customizer of the component placed onto schematic. Usually called in
  75:Generated_Source\PSoC4/motorControlPWM.c **** *  motorControlPWM_Start().
  76:Generated_Source\PSoC4/motorControlPWM.c **** *
  77:Generated_Source\PSoC4/motorControlPWM.c **** * Parameters:
  78:Generated_Source\PSoC4/motorControlPWM.c **** *  None
  79:Generated_Source\PSoC4/motorControlPWM.c **** *
  80:Generated_Source\PSoC4/motorControlPWM.c **** * Return:
  81:Generated_Source\PSoC4/motorControlPWM.c **** *  None
  82:Generated_Source\PSoC4/motorControlPWM.c **** *
  83:Generated_Source\PSoC4/motorControlPWM.c **** *******************************************************************************/
  84:Generated_Source\PSoC4/motorControlPWM.c **** void motorControlPWM_Init(void) 
  85:Generated_Source\PSoC4/motorControlPWM.c **** {
  86:Generated_Source\PSoC4/motorControlPWM.c ****     #if (motorControlPWM_UsingFixedFunction || motorControlPWM_UseControl)
  87:Generated_Source\PSoC4/motorControlPWM.c ****         uint8 ctrl;
ARM GAS  C:\Users\kylep\AppData\Local\Temp\ccgZEwxP.s 			page 3


  88:Generated_Source\PSoC4/motorControlPWM.c ****     #endif /* (motorControlPWM_UsingFixedFunction || motorControlPWM_UseControl) */
  89:Generated_Source\PSoC4/motorControlPWM.c **** 
  90:Generated_Source\PSoC4/motorControlPWM.c ****     #if(!motorControlPWM_UsingFixedFunction)
  91:Generated_Source\PSoC4/motorControlPWM.c ****         #if(motorControlPWM_UseStatus)
  92:Generated_Source\PSoC4/motorControlPWM.c ****             /* Interrupt State Backup for Critical Region*/
  93:Generated_Source\PSoC4/motorControlPWM.c ****             uint8 motorControlPWM_interruptState;
  94:Generated_Source\PSoC4/motorControlPWM.c ****         #endif /* (motorControlPWM_UseStatus) */
  95:Generated_Source\PSoC4/motorControlPWM.c ****     #endif /* (!motorControlPWM_UsingFixedFunction) */
  96:Generated_Source\PSoC4/motorControlPWM.c **** 
  97:Generated_Source\PSoC4/motorControlPWM.c ****     #if (motorControlPWM_UsingFixedFunction)
  98:Generated_Source\PSoC4/motorControlPWM.c ****         /* You are allowed to write the compare value (FF only) */
  99:Generated_Source\PSoC4/motorControlPWM.c ****         motorControlPWM_CONTROL |= motorControlPWM_CFG0_MODE;
 100:Generated_Source\PSoC4/motorControlPWM.c ****         #if (motorControlPWM_DeadBand2_4)
 101:Generated_Source\PSoC4/motorControlPWM.c ****             motorControlPWM_CONTROL |= motorControlPWM_CFG0_DB;
 102:Generated_Source\PSoC4/motorControlPWM.c ****         #endif /* (motorControlPWM_DeadBand2_4) */
 103:Generated_Source\PSoC4/motorControlPWM.c **** 
 104:Generated_Source\PSoC4/motorControlPWM.c ****         ctrl = motorControlPWM_CONTROL3 & ((uint8 )(~motorControlPWM_CTRL_CMPMODE1_MASK));
 105:Generated_Source\PSoC4/motorControlPWM.c ****         motorControlPWM_CONTROL3 = ctrl | motorControlPWM_DEFAULT_COMPARE1_MODE;
 106:Generated_Source\PSoC4/motorControlPWM.c **** 
 107:Generated_Source\PSoC4/motorControlPWM.c ****          /* Clear and Set SYNCTC and SYNCCMP bits of RT1 register */
 108:Generated_Source\PSoC4/motorControlPWM.c ****         motorControlPWM_RT1 &= ((uint8)(~motorControlPWM_RT1_MASK));
 109:Generated_Source\PSoC4/motorControlPWM.c ****         motorControlPWM_RT1 |= motorControlPWM_SYNC;
 110:Generated_Source\PSoC4/motorControlPWM.c **** 
 111:Generated_Source\PSoC4/motorControlPWM.c ****         /*Enable DSI Sync all all inputs of the PWM*/
 112:Generated_Source\PSoC4/motorControlPWM.c ****         motorControlPWM_RT1 &= ((uint8)(~motorControlPWM_SYNCDSI_MASK));
 113:Generated_Source\PSoC4/motorControlPWM.c ****         motorControlPWM_RT1 |= motorControlPWM_SYNCDSI_EN;
 114:Generated_Source\PSoC4/motorControlPWM.c **** 
 115:Generated_Source\PSoC4/motorControlPWM.c ****     #elif (motorControlPWM_UseControl)
 116:Generated_Source\PSoC4/motorControlPWM.c ****         /* Set the default compare mode defined in the parameter */
 117:Generated_Source\PSoC4/motorControlPWM.c ****         ctrl = motorControlPWM_CONTROL & ((uint8)(~motorControlPWM_CTRL_CMPMODE2_MASK)) &
 118:Generated_Source\PSoC4/motorControlPWM.c ****                 ((uint8)(~motorControlPWM_CTRL_CMPMODE1_MASK));
 119:Generated_Source\PSoC4/motorControlPWM.c ****         motorControlPWM_CONTROL = ctrl | motorControlPWM_DEFAULT_COMPARE2_MODE |
 120:Generated_Source\PSoC4/motorControlPWM.c ****                                    motorControlPWM_DEFAULT_COMPARE1_MODE;
 121:Generated_Source\PSoC4/motorControlPWM.c ****     #endif /* (motorControlPWM_UsingFixedFunction) */
 122:Generated_Source\PSoC4/motorControlPWM.c **** 
 123:Generated_Source\PSoC4/motorControlPWM.c ****     #if (!motorControlPWM_UsingFixedFunction)
 124:Generated_Source\PSoC4/motorControlPWM.c ****         #if (motorControlPWM_Resolution == 8)
 125:Generated_Source\PSoC4/motorControlPWM.c ****             /* Set FIFO 0 to 1 byte register for period*/
 126:Generated_Source\PSoC4/motorControlPWM.c ****             motorControlPWM_AUX_CONTROLDP0 |= (motorControlPWM_AUX_CTRL_FIFO0_CLR);
 127:Generated_Source\PSoC4/motorControlPWM.c ****         #else /* (motorControlPWM_Resolution == 16)*/
 128:Generated_Source\PSoC4/motorControlPWM.c ****             /* Set FIFO 0 to 1 byte register for period */
 129:Generated_Source\PSoC4/motorControlPWM.c ****             motorControlPWM_AUX_CONTROLDP0 |= (motorControlPWM_AUX_CTRL_FIFO0_CLR);
 130:Generated_Source\PSoC4/motorControlPWM.c ****             motorControlPWM_AUX_CONTROLDP1 |= (motorControlPWM_AUX_CTRL_FIFO0_CLR);
 131:Generated_Source\PSoC4/motorControlPWM.c ****         #endif /* (motorControlPWM_Resolution == 8) */
 132:Generated_Source\PSoC4/motorControlPWM.c **** 
 133:Generated_Source\PSoC4/motorControlPWM.c ****         motorControlPWM_WriteCounter(motorControlPWM_INIT_PERIOD_VALUE);
 134:Generated_Source\PSoC4/motorControlPWM.c ****     #endif /* (!motorControlPWM_UsingFixedFunction) */
 135:Generated_Source\PSoC4/motorControlPWM.c **** 
 136:Generated_Source\PSoC4/motorControlPWM.c ****     motorControlPWM_WritePeriod(motorControlPWM_INIT_PERIOD_VALUE);
 137:Generated_Source\PSoC4/motorControlPWM.c **** 
 138:Generated_Source\PSoC4/motorControlPWM.c ****         #if (motorControlPWM_UseOneCompareMode)
 139:Generated_Source\PSoC4/motorControlPWM.c ****             motorControlPWM_WriteCompare(motorControlPWM_INIT_COMPARE_VALUE1);
 140:Generated_Source\PSoC4/motorControlPWM.c ****         #else
 141:Generated_Source\PSoC4/motorControlPWM.c ****             motorControlPWM_WriteCompare1(motorControlPWM_INIT_COMPARE_VALUE1);
 142:Generated_Source\PSoC4/motorControlPWM.c ****             motorControlPWM_WriteCompare2(motorControlPWM_INIT_COMPARE_VALUE2);
 143:Generated_Source\PSoC4/motorControlPWM.c ****         #endif /* (motorControlPWM_UseOneCompareMode) */
 144:Generated_Source\PSoC4/motorControlPWM.c **** 
ARM GAS  C:\Users\kylep\AppData\Local\Temp\ccgZEwxP.s 			page 4


 145:Generated_Source\PSoC4/motorControlPWM.c ****         #if (motorControlPWM_KillModeMinTime)
 146:Generated_Source\PSoC4/motorControlPWM.c ****             motorControlPWM_WriteKillTime(motorControlPWM_MinimumKillTime);
 147:Generated_Source\PSoC4/motorControlPWM.c ****         #endif /* (motorControlPWM_KillModeMinTime) */
 148:Generated_Source\PSoC4/motorControlPWM.c **** 
 149:Generated_Source\PSoC4/motorControlPWM.c ****         #if (motorControlPWM_DeadBandUsed)
 150:Generated_Source\PSoC4/motorControlPWM.c ****             motorControlPWM_WriteDeadTime(motorControlPWM_INIT_DEAD_TIME);
 151:Generated_Source\PSoC4/motorControlPWM.c ****         #endif /* (motorControlPWM_DeadBandUsed) */
 152:Generated_Source\PSoC4/motorControlPWM.c **** 
 153:Generated_Source\PSoC4/motorControlPWM.c ****     #if (motorControlPWM_UseStatus || motorControlPWM_UsingFixedFunction)
 154:Generated_Source\PSoC4/motorControlPWM.c ****         motorControlPWM_SetInterruptMode(motorControlPWM_INIT_INTERRUPTS_MODE);
 155:Generated_Source\PSoC4/motorControlPWM.c ****     #endif /* (motorControlPWM_UseStatus || motorControlPWM_UsingFixedFunction) */
 156:Generated_Source\PSoC4/motorControlPWM.c **** 
 157:Generated_Source\PSoC4/motorControlPWM.c ****     #if (motorControlPWM_UsingFixedFunction)
 158:Generated_Source\PSoC4/motorControlPWM.c ****         /* Globally Enable the Fixed Function Block chosen */
 159:Generated_Source\PSoC4/motorControlPWM.c ****         motorControlPWM_GLOBAL_ENABLE |= motorControlPWM_BLOCK_EN_MASK;
 160:Generated_Source\PSoC4/motorControlPWM.c ****         /* Set the Interrupt source to come from the status register */
 161:Generated_Source\PSoC4/motorControlPWM.c ****         motorControlPWM_CONTROL2 |= motorControlPWM_CTRL2_IRQ_SEL;
 162:Generated_Source\PSoC4/motorControlPWM.c ****     #else
 163:Generated_Source\PSoC4/motorControlPWM.c ****         #if(motorControlPWM_UseStatus)
 164:Generated_Source\PSoC4/motorControlPWM.c **** 
 165:Generated_Source\PSoC4/motorControlPWM.c ****             /* CyEnterCriticalRegion and CyExitCriticalRegion are used to mark following region cri
 166:Generated_Source\PSoC4/motorControlPWM.c ****             /* Enter Critical Region*/
 167:Generated_Source\PSoC4/motorControlPWM.c ****             motorControlPWM_interruptState = CyEnterCriticalSection();
 168:Generated_Source\PSoC4/motorControlPWM.c ****             /* Use the interrupt output of the status register for IRQ output */
 169:Generated_Source\PSoC4/motorControlPWM.c ****             motorControlPWM_STATUS_AUX_CTRL |= motorControlPWM_STATUS_ACTL_INT_EN_MASK;
 170:Generated_Source\PSoC4/motorControlPWM.c **** 
 171:Generated_Source\PSoC4/motorControlPWM.c ****              /* Exit Critical Region*/
 172:Generated_Source\PSoC4/motorControlPWM.c ****             CyExitCriticalSection(motorControlPWM_interruptState);
 173:Generated_Source\PSoC4/motorControlPWM.c **** 
 174:Generated_Source\PSoC4/motorControlPWM.c ****             /* Clear the FIFO to enable the motorControlPWM_STATUS_FIFOFULL
 175:Generated_Source\PSoC4/motorControlPWM.c ****                    bit to be set on FIFO full. */
 176:Generated_Source\PSoC4/motorControlPWM.c ****             motorControlPWM_ClearFIFO();
 177:Generated_Source\PSoC4/motorControlPWM.c ****         #endif /* (motorControlPWM_UseStatus) */
 178:Generated_Source\PSoC4/motorControlPWM.c ****     #endif /* (motorControlPWM_UsingFixedFunction) */
 179:Generated_Source\PSoC4/motorControlPWM.c **** }
 180:Generated_Source\PSoC4/motorControlPWM.c **** 
 181:Generated_Source\PSoC4/motorControlPWM.c **** 
 182:Generated_Source\PSoC4/motorControlPWM.c **** /*******************************************************************************
 183:Generated_Source\PSoC4/motorControlPWM.c **** * Function Name: motorControlPWM_Enable
 184:Generated_Source\PSoC4/motorControlPWM.c **** ********************************************************************************
 185:Generated_Source\PSoC4/motorControlPWM.c **** *
 186:Generated_Source\PSoC4/motorControlPWM.c **** * Summary:
 187:Generated_Source\PSoC4/motorControlPWM.c **** *  Enables the PWM block operation
 188:Generated_Source\PSoC4/motorControlPWM.c **** *
 189:Generated_Source\PSoC4/motorControlPWM.c **** * Parameters:
 190:Generated_Source\PSoC4/motorControlPWM.c **** *  None
 191:Generated_Source\PSoC4/motorControlPWM.c **** *
 192:Generated_Source\PSoC4/motorControlPWM.c **** * Return:
 193:Generated_Source\PSoC4/motorControlPWM.c **** *  None
 194:Generated_Source\PSoC4/motorControlPWM.c **** *
 195:Generated_Source\PSoC4/motorControlPWM.c **** * Side Effects:
 196:Generated_Source\PSoC4/motorControlPWM.c **** *  This works only if software enable mode is chosen
 197:Generated_Source\PSoC4/motorControlPWM.c **** *
 198:Generated_Source\PSoC4/motorControlPWM.c **** *******************************************************************************/
 199:Generated_Source\PSoC4/motorControlPWM.c **** void motorControlPWM_Enable(void) 
 200:Generated_Source\PSoC4/motorControlPWM.c **** {
  28              		.loc 1 200 0
ARM GAS  C:\Users\kylep\AppData\Local\Temp\ccgZEwxP.s 			page 5


  29              		.cfi_startproc
  30              		@ args = 0, pretend = 0, frame = 0
  31              		@ frame_needed = 0, uses_anonymous_args = 0
  32              		@ link register save eliminated.
 201:Generated_Source\PSoC4/motorControlPWM.c ****     /* Globally Enable the Fixed Function Block chosen */
 202:Generated_Source\PSoC4/motorControlPWM.c ****     #if (motorControlPWM_UsingFixedFunction)
 203:Generated_Source\PSoC4/motorControlPWM.c ****         motorControlPWM_GLOBAL_ENABLE |= motorControlPWM_BLOCK_EN_MASK;
 204:Generated_Source\PSoC4/motorControlPWM.c ****         motorControlPWM_GLOBAL_STBY_ENABLE |= motorControlPWM_BLOCK_STBY_EN_MASK;
 205:Generated_Source\PSoC4/motorControlPWM.c ****     #endif /* (motorControlPWM_UsingFixedFunction) */
 206:Generated_Source\PSoC4/motorControlPWM.c **** 
 207:Generated_Source\PSoC4/motorControlPWM.c ****     /* Enable the PWM from the control register  */
 208:Generated_Source\PSoC4/motorControlPWM.c ****     #if (motorControlPWM_UseControl || motorControlPWM_UsingFixedFunction)
 209:Generated_Source\PSoC4/motorControlPWM.c ****         motorControlPWM_CONTROL |= motorControlPWM_CTRL_ENABLE;
  33              		.loc 1 209 0
  34 0000 034A     		ldr	r2, .L2
  35 0002 1178     		ldrb	r1, [r2]
  36 0004 8023     		movs	r3, #128
  37 0006 5B42     		rsbs	r3, r3, #0
  38 0008 0B43     		orrs	r3, r1
  39 000a DBB2     		uxtb	r3, r3
  40 000c 1370     		strb	r3, [r2]
 210:Generated_Source\PSoC4/motorControlPWM.c ****     #endif /* (motorControlPWM_UseControl || motorControlPWM_UsingFixedFunction) */
 211:Generated_Source\PSoC4/motorControlPWM.c **** }
  41              		.loc 1 211 0
  42              		@ sp needed
  43 000e 7047     		bx	lr
  44              	.L3:
  45              		.align	2
  46              	.L2:
  47 0010 72000F40 		.word	1074724978
  48              		.cfi_endproc
  49              	.LFE2:
  50              		.size	motorControlPWM_Enable, .-motorControlPWM_Enable
  51              		.section	.text.motorControlPWM_Stop,"ax",%progbits
  52              		.align	2
  53              		.global	motorControlPWM_Stop
  54              		.code	16
  55              		.thumb_func
  56              		.type	motorControlPWM_Stop, %function
  57              	motorControlPWM_Stop:
  58              	.LFB3:
 212:Generated_Source\PSoC4/motorControlPWM.c **** 
 213:Generated_Source\PSoC4/motorControlPWM.c **** 
 214:Generated_Source\PSoC4/motorControlPWM.c **** /*******************************************************************************
 215:Generated_Source\PSoC4/motorControlPWM.c **** * Function Name: motorControlPWM_Stop
 216:Generated_Source\PSoC4/motorControlPWM.c **** ********************************************************************************
 217:Generated_Source\PSoC4/motorControlPWM.c **** *
 218:Generated_Source\PSoC4/motorControlPWM.c **** * Summary:
 219:Generated_Source\PSoC4/motorControlPWM.c **** *  The stop function halts the PWM, but does not change any modes or disable
 220:Generated_Source\PSoC4/motorControlPWM.c **** *  interrupts.
 221:Generated_Source\PSoC4/motorControlPWM.c **** *
 222:Generated_Source\PSoC4/motorControlPWM.c **** * Parameters:
 223:Generated_Source\PSoC4/motorControlPWM.c **** *  None
 224:Generated_Source\PSoC4/motorControlPWM.c **** *
 225:Generated_Source\PSoC4/motorControlPWM.c **** * Return:
 226:Generated_Source\PSoC4/motorControlPWM.c **** *  None
 227:Generated_Source\PSoC4/motorControlPWM.c **** *
ARM GAS  C:\Users\kylep\AppData\Local\Temp\ccgZEwxP.s 			page 6


 228:Generated_Source\PSoC4/motorControlPWM.c **** * Side Effects:
 229:Generated_Source\PSoC4/motorControlPWM.c **** *  If the Enable mode is set to Hardware only then this function
 230:Generated_Source\PSoC4/motorControlPWM.c **** *  has no effect on the operation of the PWM
 231:Generated_Source\PSoC4/motorControlPWM.c **** *
 232:Generated_Source\PSoC4/motorControlPWM.c **** *******************************************************************************/
 233:Generated_Source\PSoC4/motorControlPWM.c **** void motorControlPWM_Stop(void) 
 234:Generated_Source\PSoC4/motorControlPWM.c **** {
  59              		.loc 1 234 0
  60              		.cfi_startproc
  61              		@ args = 0, pretend = 0, frame = 0
  62              		@ frame_needed = 0, uses_anonymous_args = 0
  63              		@ link register save eliminated.
 235:Generated_Source\PSoC4/motorControlPWM.c ****     #if (motorControlPWM_UseControl || motorControlPWM_UsingFixedFunction)
 236:Generated_Source\PSoC4/motorControlPWM.c ****         motorControlPWM_CONTROL &= ((uint8)(~motorControlPWM_CTRL_ENABLE));
  64              		.loc 1 236 0
  65 0000 024A     		ldr	r2, .L5
  66 0002 1178     		ldrb	r1, [r2]
  67 0004 7F23     		movs	r3, #127
  68 0006 0B40     		ands	r3, r1
  69 0008 1370     		strb	r3, [r2]
 237:Generated_Source\PSoC4/motorControlPWM.c ****     #endif /* (motorControlPWM_UseControl || motorControlPWM_UsingFixedFunction) */
 238:Generated_Source\PSoC4/motorControlPWM.c **** 
 239:Generated_Source\PSoC4/motorControlPWM.c ****     /* Globally disable the Fixed Function Block chosen */
 240:Generated_Source\PSoC4/motorControlPWM.c ****     #if (motorControlPWM_UsingFixedFunction)
 241:Generated_Source\PSoC4/motorControlPWM.c ****         motorControlPWM_GLOBAL_ENABLE &= ((uint8)(~motorControlPWM_BLOCK_EN_MASK));
 242:Generated_Source\PSoC4/motorControlPWM.c ****         motorControlPWM_GLOBAL_STBY_ENABLE &= ((uint8)(~motorControlPWM_BLOCK_STBY_EN_MASK));
 243:Generated_Source\PSoC4/motorControlPWM.c ****     #endif /* (motorControlPWM_UsingFixedFunction) */
 244:Generated_Source\PSoC4/motorControlPWM.c **** }
  70              		.loc 1 244 0
  71              		@ sp needed
  72 000a 7047     		bx	lr
  73              	.L6:
  74              		.align	2
  75              	.L5:
  76 000c 72000F40 		.word	1074724978
  77              		.cfi_endproc
  78              	.LFE3:
  79              		.size	motorControlPWM_Stop, .-motorControlPWM_Stop
  80              		.section	.text.motorControlPWM_SetCompareMode,"ax",%progbits
  81              		.align	2
  82              		.global	motorControlPWM_SetCompareMode
  83              		.code	16
  84              		.thumb_func
  85              		.type	motorControlPWM_SetCompareMode, %function
  86              	motorControlPWM_SetCompareMode:
  87              	.LFB4:
 245:Generated_Source\PSoC4/motorControlPWM.c **** 
 246:Generated_Source\PSoC4/motorControlPWM.c **** #if (motorControlPWM_UseOneCompareMode)
 247:Generated_Source\PSoC4/motorControlPWM.c ****     #if (motorControlPWM_CompareMode1SW)
 248:Generated_Source\PSoC4/motorControlPWM.c **** 
 249:Generated_Source\PSoC4/motorControlPWM.c **** 
 250:Generated_Source\PSoC4/motorControlPWM.c ****         /*******************************************************************************
 251:Generated_Source\PSoC4/motorControlPWM.c ****         * Function Name: motorControlPWM_SetCompareMode
 252:Generated_Source\PSoC4/motorControlPWM.c ****         ********************************************************************************
 253:Generated_Source\PSoC4/motorControlPWM.c ****         *
 254:Generated_Source\PSoC4/motorControlPWM.c ****         * Summary:
 255:Generated_Source\PSoC4/motorControlPWM.c ****         *  This function writes the Compare Mode for the pwm output when in Dither mode,
ARM GAS  C:\Users\kylep\AppData\Local\Temp\ccgZEwxP.s 			page 7


 256:Generated_Source\PSoC4/motorControlPWM.c ****         *  Center Align Mode or One Output Mode.
 257:Generated_Source\PSoC4/motorControlPWM.c ****         *
 258:Generated_Source\PSoC4/motorControlPWM.c ****         * Parameters:
 259:Generated_Source\PSoC4/motorControlPWM.c ****         *  comparemode:  The new compare mode for the PWM output. Use the compare types
 260:Generated_Source\PSoC4/motorControlPWM.c ****         *                defined in the H file as input arguments.
 261:Generated_Source\PSoC4/motorControlPWM.c ****         *
 262:Generated_Source\PSoC4/motorControlPWM.c ****         * Return:
 263:Generated_Source\PSoC4/motorControlPWM.c ****         *  None
 264:Generated_Source\PSoC4/motorControlPWM.c ****         *
 265:Generated_Source\PSoC4/motorControlPWM.c ****         *******************************************************************************/
 266:Generated_Source\PSoC4/motorControlPWM.c ****         void motorControlPWM_SetCompareMode(uint8 comparemode) 
 267:Generated_Source\PSoC4/motorControlPWM.c ****         {
  88              		.loc 1 267 0
  89              		.cfi_startproc
  90              		@ args = 0, pretend = 0, frame = 0
  91              		@ frame_needed = 0, uses_anonymous_args = 0
  92              	.LVL0:
  93 0000 10B5     		push	{r4, lr}
  94              		.cfi_def_cfa_offset 8
  95              		.cfi_offset 4, -8
  96              		.cfi_offset 14, -4
  97 0002 0300     		movs	r3, r0
 268:Generated_Source\PSoC4/motorControlPWM.c ****             #if(motorControlPWM_UsingFixedFunction)
 269:Generated_Source\PSoC4/motorControlPWM.c **** 
 270:Generated_Source\PSoC4/motorControlPWM.c ****                 #if(0 != motorControlPWM_CTRL_CMPMODE1_SHIFT)
 271:Generated_Source\PSoC4/motorControlPWM.c ****                     uint8 comparemodemasked = ((uint8)((uint8)comparemode << motorControlPWM_CTRL_C
 272:Generated_Source\PSoC4/motorControlPWM.c ****                 #else
 273:Generated_Source\PSoC4/motorControlPWM.c ****                     uint8 comparemodemasked = comparemode;
 274:Generated_Source\PSoC4/motorControlPWM.c ****                 #endif /* (0 != motorControlPWM_CTRL_CMPMODE1_SHIFT) */
 275:Generated_Source\PSoC4/motorControlPWM.c **** 
 276:Generated_Source\PSoC4/motorControlPWM.c ****                 motorControlPWM_CONTROL3 &= ((uint8)(~motorControlPWM_CTRL_CMPMODE1_MASK)); /*Clear
 277:Generated_Source\PSoC4/motorControlPWM.c ****                 motorControlPWM_CONTROL3 |= comparemodemasked;
 278:Generated_Source\PSoC4/motorControlPWM.c **** 
 279:Generated_Source\PSoC4/motorControlPWM.c ****             #elif (motorControlPWM_UseControl)
 280:Generated_Source\PSoC4/motorControlPWM.c **** 
 281:Generated_Source\PSoC4/motorControlPWM.c ****                 #if(0 != motorControlPWM_CTRL_CMPMODE1_SHIFT)
 282:Generated_Source\PSoC4/motorControlPWM.c ****                     uint8 comparemode1masked = ((uint8)((uint8)comparemode << motorControlPWM_CTRL_
 283:Generated_Source\PSoC4/motorControlPWM.c ****                                                 motorControlPWM_CTRL_CMPMODE1_MASK;
 284:Generated_Source\PSoC4/motorControlPWM.c ****                 #else
 285:Generated_Source\PSoC4/motorControlPWM.c ****                     uint8 comparemode1masked = comparemode & motorControlPWM_CTRL_CMPMODE1_MASK;
  98              		.loc 1 285 0
  99 0004 0720     		movs	r0, #7
 100              	.LVL1:
 101 0006 1840     		ands	r0, r3
 102              	.LVL2:
 286:Generated_Source\PSoC4/motorControlPWM.c ****                 #endif /* (0 != motorControlPWM_CTRL_CMPMODE1_SHIFT) */
 287:Generated_Source\PSoC4/motorControlPWM.c **** 
 288:Generated_Source\PSoC4/motorControlPWM.c ****                 #if(0 != motorControlPWM_CTRL_CMPMODE2_SHIFT)
 289:Generated_Source\PSoC4/motorControlPWM.c ****                     uint8 comparemode2masked = ((uint8)((uint8)comparemode << motorControlPWM_CTRL_
 103              		.loc 1 289 0
 104 0008 DB00     		lsls	r3, r3, #3
 105 000a 3822     		movs	r2, #56
 106 000c 1340     		ands	r3, r2
 107              	.LVL3:
 290:Generated_Source\PSoC4/motorControlPWM.c ****                                                motorControlPWM_CTRL_CMPMODE2_MASK;
 291:Generated_Source\PSoC4/motorControlPWM.c ****                 #else
 292:Generated_Source\PSoC4/motorControlPWM.c ****                     uint8 comparemode2masked = comparemode & motorControlPWM_CTRL_CMPMODE2_MASK;
ARM GAS  C:\Users\kylep\AppData\Local\Temp\ccgZEwxP.s 			page 8


 293:Generated_Source\PSoC4/motorControlPWM.c ****                 #endif /* (0 != motorControlPWM_CTRL_CMPMODE2_SHIFT) */
 294:Generated_Source\PSoC4/motorControlPWM.c **** 
 295:Generated_Source\PSoC4/motorControlPWM.c ****                 /*Clear existing mode */
 296:Generated_Source\PSoC4/motorControlPWM.c ****                 motorControlPWM_CONTROL &= ((uint8)(~(motorControlPWM_CTRL_CMPMODE1_MASK |
 108              		.loc 1 296 0
 109 000e 054A     		ldr	r2, .L8
 110 0010 1178     		ldrb	r1, [r2]
 111 0012 3F24     		movs	r4, #63
 112 0014 A143     		bics	r1, r4
 113 0016 1170     		strb	r1, [r2]
 297:Generated_Source\PSoC4/motorControlPWM.c ****                                             motorControlPWM_CTRL_CMPMODE2_MASK)));
 298:Generated_Source\PSoC4/motorControlPWM.c ****                 motorControlPWM_CONTROL |= (comparemode1masked | comparemode2masked);
 114              		.loc 1 298 0
 115 0018 1178     		ldrb	r1, [r2]
 116 001a 1843     		orrs	r0, r3
 117              	.LVL4:
 118 001c 0843     		orrs	r0, r1
 119 001e 1070     		strb	r0, [r2]
 299:Generated_Source\PSoC4/motorControlPWM.c **** 
 300:Generated_Source\PSoC4/motorControlPWM.c ****             #else
 301:Generated_Source\PSoC4/motorControlPWM.c ****                 uint8 temp = comparemode;
 302:Generated_Source\PSoC4/motorControlPWM.c ****             #endif /* (motorControlPWM_UsingFixedFunction) */
 303:Generated_Source\PSoC4/motorControlPWM.c ****         }
 120              		.loc 1 303 0
 121              		@ sp needed
 122 0020 10BD     		pop	{r4, pc}
 123              	.L9:
 124 0022 C046     		.align	2
 125              	.L8:
 126 0024 72000F40 		.word	1074724978
 127              		.cfi_endproc
 128              	.LFE4:
 129              		.size	motorControlPWM_SetCompareMode, .-motorControlPWM_SetCompareMode
 130              		.section	.text.motorControlPWM_WriteCounter,"ax",%progbits
 131              		.align	2
 132              		.global	motorControlPWM_WriteCounter
 133              		.code	16
 134              		.thumb_func
 135              		.type	motorControlPWM_WriteCounter, %function
 136              	motorControlPWM_WriteCounter:
 137              	.LFB5:
 304:Generated_Source\PSoC4/motorControlPWM.c ****     #endif /* motorControlPWM_CompareMode1SW */
 305:Generated_Source\PSoC4/motorControlPWM.c **** 
 306:Generated_Source\PSoC4/motorControlPWM.c **** #else /* UseOneCompareMode */
 307:Generated_Source\PSoC4/motorControlPWM.c **** 
 308:Generated_Source\PSoC4/motorControlPWM.c ****     #if (motorControlPWM_CompareMode1SW)
 309:Generated_Source\PSoC4/motorControlPWM.c **** 
 310:Generated_Source\PSoC4/motorControlPWM.c **** 
 311:Generated_Source\PSoC4/motorControlPWM.c ****         /*******************************************************************************
 312:Generated_Source\PSoC4/motorControlPWM.c ****         * Function Name: motorControlPWM_SetCompareMode1
 313:Generated_Source\PSoC4/motorControlPWM.c ****         ********************************************************************************
 314:Generated_Source\PSoC4/motorControlPWM.c ****         *
 315:Generated_Source\PSoC4/motorControlPWM.c ****         * Summary:
 316:Generated_Source\PSoC4/motorControlPWM.c ****         *  This function writes the Compare Mode for the pwm or pwm1 output
 317:Generated_Source\PSoC4/motorControlPWM.c ****         *
 318:Generated_Source\PSoC4/motorControlPWM.c ****         * Parameters:
 319:Generated_Source\PSoC4/motorControlPWM.c ****         *  comparemode:  The new compare mode for the PWM output. Use the compare types
ARM GAS  C:\Users\kylep\AppData\Local\Temp\ccgZEwxP.s 			page 9


 320:Generated_Source\PSoC4/motorControlPWM.c ****         *                defined in the H file as input arguments.
 321:Generated_Source\PSoC4/motorControlPWM.c ****         *
 322:Generated_Source\PSoC4/motorControlPWM.c ****         * Return:
 323:Generated_Source\PSoC4/motorControlPWM.c ****         *  None
 324:Generated_Source\PSoC4/motorControlPWM.c ****         *
 325:Generated_Source\PSoC4/motorControlPWM.c ****         *******************************************************************************/
 326:Generated_Source\PSoC4/motorControlPWM.c ****         void motorControlPWM_SetCompareMode1(uint8 comparemode) 
 327:Generated_Source\PSoC4/motorControlPWM.c ****         {
 328:Generated_Source\PSoC4/motorControlPWM.c ****             #if(0 != motorControlPWM_CTRL_CMPMODE1_SHIFT)
 329:Generated_Source\PSoC4/motorControlPWM.c ****                 uint8 comparemodemasked = ((uint8)((uint8)comparemode << motorControlPWM_CTRL_CMPMO
 330:Generated_Source\PSoC4/motorControlPWM.c ****                                            motorControlPWM_CTRL_CMPMODE1_MASK;
 331:Generated_Source\PSoC4/motorControlPWM.c ****             #else
 332:Generated_Source\PSoC4/motorControlPWM.c ****                 uint8 comparemodemasked = comparemode & motorControlPWM_CTRL_CMPMODE1_MASK;
 333:Generated_Source\PSoC4/motorControlPWM.c ****             #endif /* (0 != motorControlPWM_CTRL_CMPMODE1_SHIFT) */
 334:Generated_Source\PSoC4/motorControlPWM.c **** 
 335:Generated_Source\PSoC4/motorControlPWM.c ****             #if (motorControlPWM_UseControl)
 336:Generated_Source\PSoC4/motorControlPWM.c ****                 motorControlPWM_CONTROL &= ((uint8)(~motorControlPWM_CTRL_CMPMODE1_MASK)); /*Clear 
 337:Generated_Source\PSoC4/motorControlPWM.c ****                 motorControlPWM_CONTROL |= comparemodemasked;
 338:Generated_Source\PSoC4/motorControlPWM.c ****             #endif /* (motorControlPWM_UseControl) */
 339:Generated_Source\PSoC4/motorControlPWM.c ****         }
 340:Generated_Source\PSoC4/motorControlPWM.c ****     #endif /* motorControlPWM_CompareMode1SW */
 341:Generated_Source\PSoC4/motorControlPWM.c **** 
 342:Generated_Source\PSoC4/motorControlPWM.c **** #if (motorControlPWM_CompareMode2SW)
 343:Generated_Source\PSoC4/motorControlPWM.c **** 
 344:Generated_Source\PSoC4/motorControlPWM.c **** 
 345:Generated_Source\PSoC4/motorControlPWM.c ****     /*******************************************************************************
 346:Generated_Source\PSoC4/motorControlPWM.c ****     * Function Name: motorControlPWM_SetCompareMode2
 347:Generated_Source\PSoC4/motorControlPWM.c ****     ********************************************************************************
 348:Generated_Source\PSoC4/motorControlPWM.c ****     *
 349:Generated_Source\PSoC4/motorControlPWM.c ****     * Summary:
 350:Generated_Source\PSoC4/motorControlPWM.c ****     *  This function writes the Compare Mode for the pwm or pwm2 output
 351:Generated_Source\PSoC4/motorControlPWM.c ****     *
 352:Generated_Source\PSoC4/motorControlPWM.c ****     * Parameters:
 353:Generated_Source\PSoC4/motorControlPWM.c ****     *  comparemode:  The new compare mode for the PWM output. Use the compare types
 354:Generated_Source\PSoC4/motorControlPWM.c ****     *                defined in the H file as input arguments.
 355:Generated_Source\PSoC4/motorControlPWM.c ****     *
 356:Generated_Source\PSoC4/motorControlPWM.c ****     * Return:
 357:Generated_Source\PSoC4/motorControlPWM.c ****     *  None
 358:Generated_Source\PSoC4/motorControlPWM.c ****     *
 359:Generated_Source\PSoC4/motorControlPWM.c ****     *******************************************************************************/
 360:Generated_Source\PSoC4/motorControlPWM.c ****     void motorControlPWM_SetCompareMode2(uint8 comparemode) 
 361:Generated_Source\PSoC4/motorControlPWM.c ****     {
 362:Generated_Source\PSoC4/motorControlPWM.c **** 
 363:Generated_Source\PSoC4/motorControlPWM.c ****         #if(0 != motorControlPWM_CTRL_CMPMODE2_SHIFT)
 364:Generated_Source\PSoC4/motorControlPWM.c ****             uint8 comparemodemasked = ((uint8)((uint8)comparemode << motorControlPWM_CTRL_CMPMODE2_
 365:Generated_Source\PSoC4/motorControlPWM.c ****                                                  motorControlPWM_CTRL_CMPMODE2_MASK;
 366:Generated_Source\PSoC4/motorControlPWM.c ****         #else
 367:Generated_Source\PSoC4/motorControlPWM.c ****             uint8 comparemodemasked = comparemode & motorControlPWM_CTRL_CMPMODE2_MASK;
 368:Generated_Source\PSoC4/motorControlPWM.c ****         #endif /* (0 != motorControlPWM_CTRL_CMPMODE2_SHIFT) */
 369:Generated_Source\PSoC4/motorControlPWM.c **** 
 370:Generated_Source\PSoC4/motorControlPWM.c ****         #if (motorControlPWM_UseControl)
 371:Generated_Source\PSoC4/motorControlPWM.c ****             motorControlPWM_CONTROL &= ((uint8)(~motorControlPWM_CTRL_CMPMODE2_MASK)); /*Clear exis
 372:Generated_Source\PSoC4/motorControlPWM.c ****             motorControlPWM_CONTROL |= comparemodemasked;
 373:Generated_Source\PSoC4/motorControlPWM.c ****         #endif /* (motorControlPWM_UseControl) */
 374:Generated_Source\PSoC4/motorControlPWM.c ****     }
 375:Generated_Source\PSoC4/motorControlPWM.c ****     #endif /*motorControlPWM_CompareMode2SW */
 376:Generated_Source\PSoC4/motorControlPWM.c **** 
ARM GAS  C:\Users\kylep\AppData\Local\Temp\ccgZEwxP.s 			page 10


 377:Generated_Source\PSoC4/motorControlPWM.c **** #endif /* UseOneCompareMode */
 378:Generated_Source\PSoC4/motorControlPWM.c **** 
 379:Generated_Source\PSoC4/motorControlPWM.c **** 
 380:Generated_Source\PSoC4/motorControlPWM.c **** #if (!motorControlPWM_UsingFixedFunction)
 381:Generated_Source\PSoC4/motorControlPWM.c **** 
 382:Generated_Source\PSoC4/motorControlPWM.c **** 
 383:Generated_Source\PSoC4/motorControlPWM.c ****     /*******************************************************************************
 384:Generated_Source\PSoC4/motorControlPWM.c ****     * Function Name: motorControlPWM_WriteCounter
 385:Generated_Source\PSoC4/motorControlPWM.c ****     ********************************************************************************
 386:Generated_Source\PSoC4/motorControlPWM.c ****     *
 387:Generated_Source\PSoC4/motorControlPWM.c ****     * Summary:
 388:Generated_Source\PSoC4/motorControlPWM.c ****     *  Writes a new counter value directly to the counter register. This will be
 389:Generated_Source\PSoC4/motorControlPWM.c ****     *  implemented for that currently running period and only that period. This API
 390:Generated_Source\PSoC4/motorControlPWM.c ****     *  is valid only for UDB implementation and not available for fixed function
 391:Generated_Source\PSoC4/motorControlPWM.c ****     *  PWM implementation.
 392:Generated_Source\PSoC4/motorControlPWM.c ****     *
 393:Generated_Source\PSoC4/motorControlPWM.c ****     * Parameters:
 394:Generated_Source\PSoC4/motorControlPWM.c ****     *  counter:  The period new period counter value.
 395:Generated_Source\PSoC4/motorControlPWM.c ****     *
 396:Generated_Source\PSoC4/motorControlPWM.c ****     * Return:
 397:Generated_Source\PSoC4/motorControlPWM.c ****     *  None
 398:Generated_Source\PSoC4/motorControlPWM.c ****     *
 399:Generated_Source\PSoC4/motorControlPWM.c ****     * Side Effects:
 400:Generated_Source\PSoC4/motorControlPWM.c ****     *  The PWM Period will be reloaded when a counter value will be a zero
 401:Generated_Source\PSoC4/motorControlPWM.c ****     *
 402:Generated_Source\PSoC4/motorControlPWM.c ****     *******************************************************************************/
 403:Generated_Source\PSoC4/motorControlPWM.c ****     void motorControlPWM_WriteCounter(uint8 counter) \
 404:Generated_Source\PSoC4/motorControlPWM.c ****                                        
 405:Generated_Source\PSoC4/motorControlPWM.c ****     {
 138              		.loc 1 405 0
 139              		.cfi_startproc
 140              		@ args = 0, pretend = 0, frame = 0
 141              		@ frame_needed = 0, uses_anonymous_args = 0
 142              		@ link register save eliminated.
 143              	.LVL5:
 406:Generated_Source\PSoC4/motorControlPWM.c ****         CY_SET_REG8(motorControlPWM_COUNTER_LSB_PTR, counter);
 144              		.loc 1 406 0
 145 0000 014B     		ldr	r3, .L11
 146 0002 1870     		strb	r0, [r3]
 407:Generated_Source\PSoC4/motorControlPWM.c ****     }
 147              		.loc 1 407 0
 148              		@ sp needed
 149 0004 7047     		bx	lr
 150              	.L12:
 151 0006 C046     		.align	2
 152              	.L11:
 153 0008 02000F40 		.word	1074724866
 154              		.cfi_endproc
 155              	.LFE5:
 156              		.size	motorControlPWM_WriteCounter, .-motorControlPWM_WriteCounter
 157              		.section	.text.motorControlPWM_ReadCounter,"ax",%progbits
 158              		.align	2
 159              		.global	motorControlPWM_ReadCounter
 160              		.code	16
 161              		.thumb_func
 162              		.type	motorControlPWM_ReadCounter, %function
 163              	motorControlPWM_ReadCounter:
ARM GAS  C:\Users\kylep\AppData\Local\Temp\ccgZEwxP.s 			page 11


 164              	.LFB6:
 408:Generated_Source\PSoC4/motorControlPWM.c **** 
 409:Generated_Source\PSoC4/motorControlPWM.c **** 
 410:Generated_Source\PSoC4/motorControlPWM.c ****     /*******************************************************************************
 411:Generated_Source\PSoC4/motorControlPWM.c ****     * Function Name: motorControlPWM_ReadCounter
 412:Generated_Source\PSoC4/motorControlPWM.c ****     ********************************************************************************
 413:Generated_Source\PSoC4/motorControlPWM.c ****     *
 414:Generated_Source\PSoC4/motorControlPWM.c ****     * Summary:
 415:Generated_Source\PSoC4/motorControlPWM.c ****     *  This function returns the current value of the counter.  It doesn't matter
 416:Generated_Source\PSoC4/motorControlPWM.c ****     *  if the counter is enabled or running.
 417:Generated_Source\PSoC4/motorControlPWM.c ****     *
 418:Generated_Source\PSoC4/motorControlPWM.c ****     * Parameters:
 419:Generated_Source\PSoC4/motorControlPWM.c ****     *  None
 420:Generated_Source\PSoC4/motorControlPWM.c ****     *
 421:Generated_Source\PSoC4/motorControlPWM.c ****     * Return:
 422:Generated_Source\PSoC4/motorControlPWM.c ****     *  The current value of the counter.
 423:Generated_Source\PSoC4/motorControlPWM.c ****     *
 424:Generated_Source\PSoC4/motorControlPWM.c ****     *******************************************************************************/
 425:Generated_Source\PSoC4/motorControlPWM.c ****     uint8 motorControlPWM_ReadCounter(void) 
 426:Generated_Source\PSoC4/motorControlPWM.c ****     {
 165              		.loc 1 426 0
 166              		.cfi_startproc
 167              		@ args = 0, pretend = 0, frame = 0
 168              		@ frame_needed = 0, uses_anonymous_args = 0
 169              		@ link register save eliminated.
 427:Generated_Source\PSoC4/motorControlPWM.c ****         /* Force capture by reading Accumulator */
 428:Generated_Source\PSoC4/motorControlPWM.c ****         /* Must first do a software capture to be able to read the counter */
 429:Generated_Source\PSoC4/motorControlPWM.c ****         /* It is up to the user code to make sure there isn't already captured data in the FIFO */
 430:Generated_Source\PSoC4/motorControlPWM.c ****           (void)CY_GET_REG8(motorControlPWM_COUNTERCAP_LSB_PTR_8BIT);
 170              		.loc 1 430 0
 171 0000 024B     		ldr	r3, .L14
 172 0002 1B78     		ldrb	r3, [r3]
 431:Generated_Source\PSoC4/motorControlPWM.c **** 
 432:Generated_Source\PSoC4/motorControlPWM.c ****         /* Read the data from the FIFO */
 433:Generated_Source\PSoC4/motorControlPWM.c ****         return (CY_GET_REG8(motorControlPWM_CAPTURE_LSB_PTR));
 173              		.loc 1 433 0
 174 0004 024B     		ldr	r3, .L14+4
 175 0006 1878     		ldrb	r0, [r3]
 176 0008 C0B2     		uxtb	r0, r0
 434:Generated_Source\PSoC4/motorControlPWM.c ****     }
 177              		.loc 1 434 0
 178              		@ sp needed
 179 000a 7047     		bx	lr
 180              	.L15:
 181              		.align	2
 182              	.L14:
 183 000c 12000F40 		.word	1074724882
 184 0010 52000F40 		.word	1074724946
 185              		.cfi_endproc
 186              	.LFE6:
 187              		.size	motorControlPWM_ReadCounter, .-motorControlPWM_ReadCounter
 188              		.section	.text.motorControlPWM_WritePeriod,"ax",%progbits
 189              		.align	2
 190              		.global	motorControlPWM_WritePeriod
 191              		.code	16
 192              		.thumb_func
 193              		.type	motorControlPWM_WritePeriod, %function
ARM GAS  C:\Users\kylep\AppData\Local\Temp\ccgZEwxP.s 			page 12


 194              	motorControlPWM_WritePeriod:
 195              	.LFB7:
 435:Generated_Source\PSoC4/motorControlPWM.c **** 
 436:Generated_Source\PSoC4/motorControlPWM.c ****     #if (motorControlPWM_UseStatus)
 437:Generated_Source\PSoC4/motorControlPWM.c **** 
 438:Generated_Source\PSoC4/motorControlPWM.c **** 
 439:Generated_Source\PSoC4/motorControlPWM.c ****         /*******************************************************************************
 440:Generated_Source\PSoC4/motorControlPWM.c ****         * Function Name: motorControlPWM_ClearFIFO
 441:Generated_Source\PSoC4/motorControlPWM.c ****         ********************************************************************************
 442:Generated_Source\PSoC4/motorControlPWM.c ****         *
 443:Generated_Source\PSoC4/motorControlPWM.c ****         * Summary:
 444:Generated_Source\PSoC4/motorControlPWM.c ****         *  This function clears all capture data from the capture FIFO
 445:Generated_Source\PSoC4/motorControlPWM.c ****         *
 446:Generated_Source\PSoC4/motorControlPWM.c ****         * Parameters:
 447:Generated_Source\PSoC4/motorControlPWM.c ****         *  None
 448:Generated_Source\PSoC4/motorControlPWM.c ****         *
 449:Generated_Source\PSoC4/motorControlPWM.c ****         * Return:
 450:Generated_Source\PSoC4/motorControlPWM.c ****         *  None
 451:Generated_Source\PSoC4/motorControlPWM.c ****         *
 452:Generated_Source\PSoC4/motorControlPWM.c ****         *******************************************************************************/
 453:Generated_Source\PSoC4/motorControlPWM.c ****         void motorControlPWM_ClearFIFO(void) 
 454:Generated_Source\PSoC4/motorControlPWM.c ****         {
 455:Generated_Source\PSoC4/motorControlPWM.c ****             while(0u != (motorControlPWM_ReadStatusRegister() & motorControlPWM_STATUS_FIFONEMPTY))
 456:Generated_Source\PSoC4/motorControlPWM.c ****             {
 457:Generated_Source\PSoC4/motorControlPWM.c ****                 (void)motorControlPWM_ReadCapture();
 458:Generated_Source\PSoC4/motorControlPWM.c ****             }
 459:Generated_Source\PSoC4/motorControlPWM.c ****         }
 460:Generated_Source\PSoC4/motorControlPWM.c **** 
 461:Generated_Source\PSoC4/motorControlPWM.c ****     #endif /* motorControlPWM_UseStatus */
 462:Generated_Source\PSoC4/motorControlPWM.c **** 
 463:Generated_Source\PSoC4/motorControlPWM.c **** #endif /* !motorControlPWM_UsingFixedFunction */
 464:Generated_Source\PSoC4/motorControlPWM.c **** 
 465:Generated_Source\PSoC4/motorControlPWM.c **** 
 466:Generated_Source\PSoC4/motorControlPWM.c **** /*******************************************************************************
 467:Generated_Source\PSoC4/motorControlPWM.c **** * Function Name: motorControlPWM_WritePeriod
 468:Generated_Source\PSoC4/motorControlPWM.c **** ********************************************************************************
 469:Generated_Source\PSoC4/motorControlPWM.c **** *
 470:Generated_Source\PSoC4/motorControlPWM.c **** * Summary:
 471:Generated_Source\PSoC4/motorControlPWM.c **** *  This function is used to change the period of the counter.  The new period
 472:Generated_Source\PSoC4/motorControlPWM.c **** *  will be loaded the next time terminal count is detected.
 473:Generated_Source\PSoC4/motorControlPWM.c **** *
 474:Generated_Source\PSoC4/motorControlPWM.c **** * Parameters:
 475:Generated_Source\PSoC4/motorControlPWM.c **** *  period:  Period value. May be between 1 and (2^Resolution)-1.  A value of 0
 476:Generated_Source\PSoC4/motorControlPWM.c **** *           will result in the counter remaining at zero.
 477:Generated_Source\PSoC4/motorControlPWM.c **** *
 478:Generated_Source\PSoC4/motorControlPWM.c **** * Return:
 479:Generated_Source\PSoC4/motorControlPWM.c **** *  None
 480:Generated_Source\PSoC4/motorControlPWM.c **** *
 481:Generated_Source\PSoC4/motorControlPWM.c **** *******************************************************************************/
 482:Generated_Source\PSoC4/motorControlPWM.c **** void motorControlPWM_WritePeriod(uint8 period) 
 483:Generated_Source\PSoC4/motorControlPWM.c **** {
 196              		.loc 1 483 0
 197              		.cfi_startproc
 198              		@ args = 0, pretend = 0, frame = 0
 199              		@ frame_needed = 0, uses_anonymous_args = 0
 200              		@ link register save eliminated.
 201              	.LVL6:
ARM GAS  C:\Users\kylep\AppData\Local\Temp\ccgZEwxP.s 			page 13


 484:Generated_Source\PSoC4/motorControlPWM.c ****     #if(motorControlPWM_UsingFixedFunction)
 485:Generated_Source\PSoC4/motorControlPWM.c ****         CY_SET_REG16(motorControlPWM_PERIOD_LSB_PTR, (uint16)period);
 486:Generated_Source\PSoC4/motorControlPWM.c ****     #else
 487:Generated_Source\PSoC4/motorControlPWM.c ****         CY_SET_REG8(motorControlPWM_PERIOD_LSB_PTR, period);
 202              		.loc 1 487 0
 203 0000 014B     		ldr	r3, .L17
 204 0002 1870     		strb	r0, [r3]
 488:Generated_Source\PSoC4/motorControlPWM.c ****     #endif /* (motorControlPWM_UsingFixedFunction) */
 489:Generated_Source\PSoC4/motorControlPWM.c **** }
 205              		.loc 1 489 0
 206              		@ sp needed
 207 0004 7047     		bx	lr
 208              	.L18:
 209 0006 C046     		.align	2
 210              	.L17:
 211 0008 42000F40 		.word	1074724930
 212              		.cfi_endproc
 213              	.LFE7:
 214              		.size	motorControlPWM_WritePeriod, .-motorControlPWM_WritePeriod
 215              		.section	.text.motorControlPWM_WriteCompare,"ax",%progbits
 216              		.align	2
 217              		.global	motorControlPWM_WriteCompare
 218              		.code	16
 219              		.thumb_func
 220              		.type	motorControlPWM_WriteCompare, %function
 221              	motorControlPWM_WriteCompare:
 222              	.LFB8:
 490:Generated_Source\PSoC4/motorControlPWM.c **** 
 491:Generated_Source\PSoC4/motorControlPWM.c **** #if (motorControlPWM_UseOneCompareMode)
 492:Generated_Source\PSoC4/motorControlPWM.c **** 
 493:Generated_Source\PSoC4/motorControlPWM.c **** 
 494:Generated_Source\PSoC4/motorControlPWM.c ****     /*******************************************************************************
 495:Generated_Source\PSoC4/motorControlPWM.c ****     * Function Name: motorControlPWM_WriteCompare
 496:Generated_Source\PSoC4/motorControlPWM.c ****     ********************************************************************************
 497:Generated_Source\PSoC4/motorControlPWM.c ****     *
 498:Generated_Source\PSoC4/motorControlPWM.c ****     * Summary:
 499:Generated_Source\PSoC4/motorControlPWM.c ****     *  This funtion is used to change the compare1 value when the PWM is in Dither
 500:Generated_Source\PSoC4/motorControlPWM.c ****     *  mode. The compare output will reflect the new value on the next UDB clock.
 501:Generated_Source\PSoC4/motorControlPWM.c ****     *  The compare output will be driven high when the present counter value is
 502:Generated_Source\PSoC4/motorControlPWM.c ****     *  compared to the compare value based on the compare mode defined in
 503:Generated_Source\PSoC4/motorControlPWM.c ****     *  Dither Mode.
 504:Generated_Source\PSoC4/motorControlPWM.c ****     *
 505:Generated_Source\PSoC4/motorControlPWM.c ****     * Parameters:
 506:Generated_Source\PSoC4/motorControlPWM.c ****     *  compare:  New compare value.
 507:Generated_Source\PSoC4/motorControlPWM.c ****     *
 508:Generated_Source\PSoC4/motorControlPWM.c ****     * Return:
 509:Generated_Source\PSoC4/motorControlPWM.c ****     *  None
 510:Generated_Source\PSoC4/motorControlPWM.c ****     *
 511:Generated_Source\PSoC4/motorControlPWM.c ****     * Side Effects:
 512:Generated_Source\PSoC4/motorControlPWM.c ****     *  This function is only available if the PWM mode parameter is set to
 513:Generated_Source\PSoC4/motorControlPWM.c ****     *  Dither Mode, Center Aligned Mode or One Output Mode
 514:Generated_Source\PSoC4/motorControlPWM.c ****     *
 515:Generated_Source\PSoC4/motorControlPWM.c ****     *******************************************************************************/
 516:Generated_Source\PSoC4/motorControlPWM.c ****     void motorControlPWM_WriteCompare(uint8 compare) \
 517:Generated_Source\PSoC4/motorControlPWM.c ****                                        
 518:Generated_Source\PSoC4/motorControlPWM.c ****     {
 223              		.loc 1 518 0
ARM GAS  C:\Users\kylep\AppData\Local\Temp\ccgZEwxP.s 			page 14


 224              		.cfi_startproc
 225              		@ args = 0, pretend = 0, frame = 0
 226              		@ frame_needed = 0, uses_anonymous_args = 0
 227              		@ link register save eliminated.
 228              	.LVL7:
 519:Generated_Source\PSoC4/motorControlPWM.c ****         #if(motorControlPWM_UsingFixedFunction)
 520:Generated_Source\PSoC4/motorControlPWM.c ****             CY_SET_REG16(motorControlPWM_COMPARE1_LSB_PTR, (uint16)compare);
 521:Generated_Source\PSoC4/motorControlPWM.c ****         #else
 522:Generated_Source\PSoC4/motorControlPWM.c ****             CY_SET_REG8(motorControlPWM_COMPARE1_LSB_PTR, compare);
 229              		.loc 1 522 0
 230 0000 014B     		ldr	r3, .L20
 231 0002 1870     		strb	r0, [r3]
 523:Generated_Source\PSoC4/motorControlPWM.c ****         #endif /* (motorControlPWM_UsingFixedFunction) */
 524:Generated_Source\PSoC4/motorControlPWM.c **** 
 525:Generated_Source\PSoC4/motorControlPWM.c ****         #if (motorControlPWM_PWMMode == motorControlPWM__B_PWM__DITHER)
 526:Generated_Source\PSoC4/motorControlPWM.c ****             #if(motorControlPWM_UsingFixedFunction)
 527:Generated_Source\PSoC4/motorControlPWM.c ****                 CY_SET_REG16(motorControlPWM_COMPARE2_LSB_PTR, (uint16)(compare + 1u));
 528:Generated_Source\PSoC4/motorControlPWM.c ****             #else
 529:Generated_Source\PSoC4/motorControlPWM.c ****                 CY_SET_REG8(motorControlPWM_COMPARE2_LSB_PTR, (compare + 1u));
 530:Generated_Source\PSoC4/motorControlPWM.c ****             #endif /* (motorControlPWM_UsingFixedFunction) */
 531:Generated_Source\PSoC4/motorControlPWM.c ****         #endif /* (motorControlPWM_PWMMode == motorControlPWM__B_PWM__DITHER) */
 532:Generated_Source\PSoC4/motorControlPWM.c ****     }
 232              		.loc 1 532 0
 233              		@ sp needed
 234 0004 7047     		bx	lr
 235              	.L21:
 236 0006 C046     		.align	2
 237              	.L20:
 238 0008 22000F40 		.word	1074724898
 239              		.cfi_endproc
 240              	.LFE8:
 241              		.size	motorControlPWM_WriteCompare, .-motorControlPWM_WriteCompare
 242              		.section	.text.motorControlPWM_Init,"ax",%progbits
 243              		.align	2
 244              		.global	motorControlPWM_Init
 245              		.code	16
 246              		.thumb_func
 247              		.type	motorControlPWM_Init, %function
 248              	motorControlPWM_Init:
 249              	.LFB1:
  85:Generated_Source\PSoC4/motorControlPWM.c ****     #if (motorControlPWM_UsingFixedFunction || motorControlPWM_UseControl)
 250              		.loc 1 85 0
 251              		.cfi_startproc
 252              		@ args = 0, pretend = 0, frame = 0
 253              		@ frame_needed = 0, uses_anonymous_args = 0
 254 0000 10B5     		push	{r4, lr}
 255              		.cfi_def_cfa_offset 8
 256              		.cfi_offset 4, -8
 257              		.cfi_offset 14, -4
 117:Generated_Source\PSoC4/motorControlPWM.c ****                 ((uint8)(~motorControlPWM_CTRL_CMPMODE1_MASK));
 258              		.loc 1 117 0
 259 0002 0C49     		ldr	r1, .L23
 260 0004 0B78     		ldrb	r3, [r1]
 261 0006 3F22     		movs	r2, #63
 262 0008 9343     		bics	r3, r2
 263              	.LVL8:
 119:Generated_Source\PSoC4/motorControlPWM.c ****                                    motorControlPWM_DEFAULT_COMPARE1_MODE;
ARM GAS  C:\Users\kylep\AppData\Local\Temp\ccgZEwxP.s 			page 15


 264              		.loc 1 119 0
 265 000a 0D22     		movs	r2, #13
 266 000c 1343     		orrs	r3, r2
 267              	.LVL9:
 268 000e DBB2     		uxtb	r3, r3
 269 0010 0B70     		strb	r3, [r1]
 126:Generated_Source\PSoC4/motorControlPWM.c ****         #else /* (motorControlPWM_Resolution == 16)*/
 270              		.loc 1 126 0
 271 0012 094A     		ldr	r2, .L23+4
 272 0014 1178     		ldrb	r1, [r2]
 273 0016 0123     		movs	r3, #1
 274 0018 0B43     		orrs	r3, r1
 275 001a DBB2     		uxtb	r3, r3
 276 001c 1370     		strb	r3, [r2]
 133:Generated_Source\PSoC4/motorControlPWM.c ****     #endif /* (!motorControlPWM_UsingFixedFunction) */
 277              		.loc 1 133 0
 278 001e FF20     		movs	r0, #255
 279 0020 FFF7FEFF 		bl	motorControlPWM_WriteCounter
 280              	.LVL10:
 136:Generated_Source\PSoC4/motorControlPWM.c **** 
 281              		.loc 1 136 0
 282 0024 FF20     		movs	r0, #255
 283 0026 FFF7FEFF 		bl	motorControlPWM_WritePeriod
 284              	.LVL11:
 139:Generated_Source\PSoC4/motorControlPWM.c ****         #else
 285              		.loc 1 139 0
 286 002a 8020     		movs	r0, #128
 287 002c FFF7FEFF 		bl	motorControlPWM_WriteCompare
 288              	.LVL12:
 179:Generated_Source\PSoC4/motorControlPWM.c **** 
 289              		.loc 1 179 0
 290              		@ sp needed
 291 0030 10BD     		pop	{r4, pc}
 292              	.L24:
 293 0032 C046     		.align	2
 294              	.L23:
 295 0034 72000F40 		.word	1074724978
 296 0038 92000F40 		.word	1074725010
 297              		.cfi_endproc
 298              	.LFE1:
 299              		.size	motorControlPWM_Init, .-motorControlPWM_Init
 300              		.section	.text.motorControlPWM_Start,"ax",%progbits
 301              		.align	2
 302              		.global	motorControlPWM_Start
 303              		.code	16
 304              		.thumb_func
 305              		.type	motorControlPWM_Start, %function
 306              	motorControlPWM_Start:
 307              	.LFB0:
  56:Generated_Source\PSoC4/motorControlPWM.c ****     /* If not Initialized then initialize all required hardware and software */
 308              		.loc 1 56 0
 309              		.cfi_startproc
 310              		@ args = 0, pretend = 0, frame = 0
 311              		@ frame_needed = 0, uses_anonymous_args = 0
 312 0000 10B5     		push	{r4, lr}
 313              		.cfi_def_cfa_offset 8
 314              		.cfi_offset 4, -8
ARM GAS  C:\Users\kylep\AppData\Local\Temp\ccgZEwxP.s 			page 16


 315              		.cfi_offset 14, -4
  58:Generated_Source\PSoC4/motorControlPWM.c ****     {
 316              		.loc 1 58 0
 317 0002 064B     		ldr	r3, .L27
 318 0004 1B78     		ldrb	r3, [r3]
 319 0006 002B     		cmp	r3, #0
 320 0008 04D1     		bne	.L26
  60:Generated_Source\PSoC4/motorControlPWM.c ****         motorControlPWM_initVar = 1u;
 321              		.loc 1 60 0
 322 000a FFF7FEFF 		bl	motorControlPWM_Init
 323              	.LVL13:
  61:Generated_Source\PSoC4/motorControlPWM.c ****     }
 324              		.loc 1 61 0
 325 000e 0122     		movs	r2, #1
 326 0010 024B     		ldr	r3, .L27
 327 0012 1A70     		strb	r2, [r3]
 328              	.L26:
  63:Generated_Source\PSoC4/motorControlPWM.c **** 
 329              		.loc 1 63 0
 330 0014 FFF7FEFF 		bl	motorControlPWM_Enable
 331              	.LVL14:
  65:Generated_Source\PSoC4/motorControlPWM.c **** 
 332              		.loc 1 65 0
 333              		@ sp needed
 334 0018 10BD     		pop	{r4, pc}
 335              	.L28:
 336 001a C046     		.align	2
 337              	.L27:
 338 001c 00000000 		.word	.LANCHOR0
 339              		.cfi_endproc
 340              	.LFE0:
 341              		.size	motorControlPWM_Start, .-motorControlPWM_Start
 342              		.section	.text.motorControlPWM_ReadControlRegister,"ax",%progbits
 343              		.align	2
 344              		.global	motorControlPWM_ReadControlRegister
 345              		.code	16
 346              		.thumb_func
 347              		.type	motorControlPWM_ReadControlRegister, %function
 348              	motorControlPWM_ReadControlRegister:
 349              	.LFB9:
 533:Generated_Source\PSoC4/motorControlPWM.c **** 
 534:Generated_Source\PSoC4/motorControlPWM.c **** 
 535:Generated_Source\PSoC4/motorControlPWM.c **** #else
 536:Generated_Source\PSoC4/motorControlPWM.c **** 
 537:Generated_Source\PSoC4/motorControlPWM.c **** 
 538:Generated_Source\PSoC4/motorControlPWM.c ****     /*******************************************************************************
 539:Generated_Source\PSoC4/motorControlPWM.c ****     * Function Name: motorControlPWM_WriteCompare1
 540:Generated_Source\PSoC4/motorControlPWM.c ****     ********************************************************************************
 541:Generated_Source\PSoC4/motorControlPWM.c ****     *
 542:Generated_Source\PSoC4/motorControlPWM.c ****     * Summary:
 543:Generated_Source\PSoC4/motorControlPWM.c ****     *  This funtion is used to change the compare1 value.  The compare output will
 544:Generated_Source\PSoC4/motorControlPWM.c ****     *  reflect the new value on the next UDB clock.  The compare output will be
 545:Generated_Source\PSoC4/motorControlPWM.c ****     *  driven high when the present counter value is less than or less than or
 546:Generated_Source\PSoC4/motorControlPWM.c ****     *  equal to the compare register, depending on the mode.
 547:Generated_Source\PSoC4/motorControlPWM.c ****     *
 548:Generated_Source\PSoC4/motorControlPWM.c ****     * Parameters:
 549:Generated_Source\PSoC4/motorControlPWM.c ****     *  compare:  New compare value.
ARM GAS  C:\Users\kylep\AppData\Local\Temp\ccgZEwxP.s 			page 17


 550:Generated_Source\PSoC4/motorControlPWM.c ****     *
 551:Generated_Source\PSoC4/motorControlPWM.c ****     * Return:
 552:Generated_Source\PSoC4/motorControlPWM.c ****     *  None
 553:Generated_Source\PSoC4/motorControlPWM.c ****     *
 554:Generated_Source\PSoC4/motorControlPWM.c ****     *******************************************************************************/
 555:Generated_Source\PSoC4/motorControlPWM.c ****     void motorControlPWM_WriteCompare1(uint8 compare) \
 556:Generated_Source\PSoC4/motorControlPWM.c ****                                         
 557:Generated_Source\PSoC4/motorControlPWM.c ****     {
 558:Generated_Source\PSoC4/motorControlPWM.c ****         #if(motorControlPWM_UsingFixedFunction)
 559:Generated_Source\PSoC4/motorControlPWM.c ****             CY_SET_REG16(motorControlPWM_COMPARE1_LSB_PTR, (uint16)compare);
 560:Generated_Source\PSoC4/motorControlPWM.c ****         #else
 561:Generated_Source\PSoC4/motorControlPWM.c ****             CY_SET_REG8(motorControlPWM_COMPARE1_LSB_PTR, compare);
 562:Generated_Source\PSoC4/motorControlPWM.c ****         #endif /* (motorControlPWM_UsingFixedFunction) */
 563:Generated_Source\PSoC4/motorControlPWM.c ****     }
 564:Generated_Source\PSoC4/motorControlPWM.c **** 
 565:Generated_Source\PSoC4/motorControlPWM.c **** 
 566:Generated_Source\PSoC4/motorControlPWM.c ****     /*******************************************************************************
 567:Generated_Source\PSoC4/motorControlPWM.c ****     * Function Name: motorControlPWM_WriteCompare2
 568:Generated_Source\PSoC4/motorControlPWM.c ****     ********************************************************************************
 569:Generated_Source\PSoC4/motorControlPWM.c ****     *
 570:Generated_Source\PSoC4/motorControlPWM.c ****     * Summary:
 571:Generated_Source\PSoC4/motorControlPWM.c ****     *  This funtion is used to change the compare value, for compare1 output.
 572:Generated_Source\PSoC4/motorControlPWM.c ****     *  The compare output will reflect the new value on the next UDB clock.
 573:Generated_Source\PSoC4/motorControlPWM.c ****     *  The compare output will be driven high when the present counter value is
 574:Generated_Source\PSoC4/motorControlPWM.c ****     *  less than or less than or equal to the compare register, depending on the
 575:Generated_Source\PSoC4/motorControlPWM.c ****     *  mode.
 576:Generated_Source\PSoC4/motorControlPWM.c ****     *
 577:Generated_Source\PSoC4/motorControlPWM.c ****     * Parameters:
 578:Generated_Source\PSoC4/motorControlPWM.c ****     *  compare:  New compare value.
 579:Generated_Source\PSoC4/motorControlPWM.c ****     *
 580:Generated_Source\PSoC4/motorControlPWM.c ****     * Return:
 581:Generated_Source\PSoC4/motorControlPWM.c ****     *  None
 582:Generated_Source\PSoC4/motorControlPWM.c ****     *
 583:Generated_Source\PSoC4/motorControlPWM.c ****     *******************************************************************************/
 584:Generated_Source\PSoC4/motorControlPWM.c ****     void motorControlPWM_WriteCompare2(uint8 compare) \
 585:Generated_Source\PSoC4/motorControlPWM.c ****                                         
 586:Generated_Source\PSoC4/motorControlPWM.c ****     {
 587:Generated_Source\PSoC4/motorControlPWM.c ****         #if(motorControlPWM_UsingFixedFunction)
 588:Generated_Source\PSoC4/motorControlPWM.c ****             CY_SET_REG16(motorControlPWM_COMPARE2_LSB_PTR, compare);
 589:Generated_Source\PSoC4/motorControlPWM.c ****         #else
 590:Generated_Source\PSoC4/motorControlPWM.c ****             CY_SET_REG8(motorControlPWM_COMPARE2_LSB_PTR, compare);
 591:Generated_Source\PSoC4/motorControlPWM.c ****         #endif /* (motorControlPWM_UsingFixedFunction) */
 592:Generated_Source\PSoC4/motorControlPWM.c ****     }
 593:Generated_Source\PSoC4/motorControlPWM.c **** #endif /* UseOneCompareMode */
 594:Generated_Source\PSoC4/motorControlPWM.c **** 
 595:Generated_Source\PSoC4/motorControlPWM.c **** #if (motorControlPWM_DeadBandUsed)
 596:Generated_Source\PSoC4/motorControlPWM.c **** 
 597:Generated_Source\PSoC4/motorControlPWM.c **** 
 598:Generated_Source\PSoC4/motorControlPWM.c ****     /*******************************************************************************
 599:Generated_Source\PSoC4/motorControlPWM.c ****     * Function Name: motorControlPWM_WriteDeadTime
 600:Generated_Source\PSoC4/motorControlPWM.c ****     ********************************************************************************
 601:Generated_Source\PSoC4/motorControlPWM.c ****     *
 602:Generated_Source\PSoC4/motorControlPWM.c ****     * Summary:
 603:Generated_Source\PSoC4/motorControlPWM.c ****     *  This function writes the dead-band counts to the corresponding register
 604:Generated_Source\PSoC4/motorControlPWM.c ****     *
 605:Generated_Source\PSoC4/motorControlPWM.c ****     * Parameters:
 606:Generated_Source\PSoC4/motorControlPWM.c ****     *  deadtime:  Number of counts for dead time
ARM GAS  C:\Users\kylep\AppData\Local\Temp\ccgZEwxP.s 			page 18


 607:Generated_Source\PSoC4/motorControlPWM.c ****     *
 608:Generated_Source\PSoC4/motorControlPWM.c ****     * Return:
 609:Generated_Source\PSoC4/motorControlPWM.c ****     *  None
 610:Generated_Source\PSoC4/motorControlPWM.c ****     *
 611:Generated_Source\PSoC4/motorControlPWM.c ****     *******************************************************************************/
 612:Generated_Source\PSoC4/motorControlPWM.c ****     void motorControlPWM_WriteDeadTime(uint8 deadtime) 
 613:Generated_Source\PSoC4/motorControlPWM.c ****     {
 614:Generated_Source\PSoC4/motorControlPWM.c ****         /* If using the Dead Band 1-255 mode then just write the register */
 615:Generated_Source\PSoC4/motorControlPWM.c ****         #if(!motorControlPWM_DeadBand2_4)
 616:Generated_Source\PSoC4/motorControlPWM.c ****             CY_SET_REG8(motorControlPWM_DEADBAND_COUNT_PTR, deadtime);
 617:Generated_Source\PSoC4/motorControlPWM.c ****         #else
 618:Generated_Source\PSoC4/motorControlPWM.c ****             /* Otherwise the data has to be masked and offset */
 619:Generated_Source\PSoC4/motorControlPWM.c ****             /* Clear existing data */
 620:Generated_Source\PSoC4/motorControlPWM.c ****             motorControlPWM_DEADBAND_COUNT &= ((uint8)(~motorControlPWM_DEADBAND_COUNT_MASK));
 621:Generated_Source\PSoC4/motorControlPWM.c **** 
 622:Generated_Source\PSoC4/motorControlPWM.c ****             /* Set new dead time */
 623:Generated_Source\PSoC4/motorControlPWM.c ****             #if(motorControlPWM_DEADBAND_COUNT_SHIFT)
 624:Generated_Source\PSoC4/motorControlPWM.c ****                 motorControlPWM_DEADBAND_COUNT |= ((uint8)((uint8)deadtime << motorControlPWM_DEADB
 625:Generated_Source\PSoC4/motorControlPWM.c ****                                                     motorControlPWM_DEADBAND_COUNT_MASK;
 626:Generated_Source\PSoC4/motorControlPWM.c ****             #else
 627:Generated_Source\PSoC4/motorControlPWM.c ****                 motorControlPWM_DEADBAND_COUNT |= deadtime & motorControlPWM_DEADBAND_COUNT_MASK;
 628:Generated_Source\PSoC4/motorControlPWM.c ****             #endif /* (motorControlPWM_DEADBAND_COUNT_SHIFT) */
 629:Generated_Source\PSoC4/motorControlPWM.c **** 
 630:Generated_Source\PSoC4/motorControlPWM.c ****         #endif /* (!motorControlPWM_DeadBand2_4) */
 631:Generated_Source\PSoC4/motorControlPWM.c ****     }
 632:Generated_Source\PSoC4/motorControlPWM.c **** 
 633:Generated_Source\PSoC4/motorControlPWM.c **** 
 634:Generated_Source\PSoC4/motorControlPWM.c ****     /*******************************************************************************
 635:Generated_Source\PSoC4/motorControlPWM.c ****     * Function Name: motorControlPWM_ReadDeadTime
 636:Generated_Source\PSoC4/motorControlPWM.c ****     ********************************************************************************
 637:Generated_Source\PSoC4/motorControlPWM.c ****     *
 638:Generated_Source\PSoC4/motorControlPWM.c ****     * Summary:
 639:Generated_Source\PSoC4/motorControlPWM.c ****     *  This function reads the dead-band counts from the corresponding register
 640:Generated_Source\PSoC4/motorControlPWM.c ****     *
 641:Generated_Source\PSoC4/motorControlPWM.c ****     * Parameters:
 642:Generated_Source\PSoC4/motorControlPWM.c ****     *  None
 643:Generated_Source\PSoC4/motorControlPWM.c ****     *
 644:Generated_Source\PSoC4/motorControlPWM.c ****     * Return:
 645:Generated_Source\PSoC4/motorControlPWM.c ****     *  Dead Band Counts
 646:Generated_Source\PSoC4/motorControlPWM.c ****     *
 647:Generated_Source\PSoC4/motorControlPWM.c ****     *******************************************************************************/
 648:Generated_Source\PSoC4/motorControlPWM.c ****     uint8 motorControlPWM_ReadDeadTime(void) 
 649:Generated_Source\PSoC4/motorControlPWM.c ****     {
 650:Generated_Source\PSoC4/motorControlPWM.c ****         /* If using the Dead Band 1-255 mode then just read the register */
 651:Generated_Source\PSoC4/motorControlPWM.c ****         #if(!motorControlPWM_DeadBand2_4)
 652:Generated_Source\PSoC4/motorControlPWM.c ****             return (CY_GET_REG8(motorControlPWM_DEADBAND_COUNT_PTR));
 653:Generated_Source\PSoC4/motorControlPWM.c ****         #else
 654:Generated_Source\PSoC4/motorControlPWM.c **** 
 655:Generated_Source\PSoC4/motorControlPWM.c ****             /* Otherwise the data has to be masked and offset */
 656:Generated_Source\PSoC4/motorControlPWM.c ****             #if(motorControlPWM_DEADBAND_COUNT_SHIFT)
 657:Generated_Source\PSoC4/motorControlPWM.c ****                 return ((uint8)(((uint8)(motorControlPWM_DEADBAND_COUNT & motorControlPWM_DEADBAND_
 658:Generated_Source\PSoC4/motorControlPWM.c ****                                                                            motorControlPWM_DEADBAND
 659:Generated_Source\PSoC4/motorControlPWM.c ****             #else
 660:Generated_Source\PSoC4/motorControlPWM.c ****                 return (motorControlPWM_DEADBAND_COUNT & motorControlPWM_DEADBAND_COUNT_MASK);
 661:Generated_Source\PSoC4/motorControlPWM.c ****             #endif /* (motorControlPWM_DEADBAND_COUNT_SHIFT) */
 662:Generated_Source\PSoC4/motorControlPWM.c ****         #endif /* (!motorControlPWM_DeadBand2_4) */
 663:Generated_Source\PSoC4/motorControlPWM.c ****     }
ARM GAS  C:\Users\kylep\AppData\Local\Temp\ccgZEwxP.s 			page 19


 664:Generated_Source\PSoC4/motorControlPWM.c **** #endif /* DeadBandUsed */
 665:Generated_Source\PSoC4/motorControlPWM.c **** 
 666:Generated_Source\PSoC4/motorControlPWM.c **** #if (motorControlPWM_UseStatus || motorControlPWM_UsingFixedFunction)
 667:Generated_Source\PSoC4/motorControlPWM.c **** 
 668:Generated_Source\PSoC4/motorControlPWM.c **** 
 669:Generated_Source\PSoC4/motorControlPWM.c ****     /*******************************************************************************
 670:Generated_Source\PSoC4/motorControlPWM.c ****     * Function Name: motorControlPWM_SetInterruptMode
 671:Generated_Source\PSoC4/motorControlPWM.c ****     ********************************************************************************
 672:Generated_Source\PSoC4/motorControlPWM.c ****     *
 673:Generated_Source\PSoC4/motorControlPWM.c ****     * Summary:
 674:Generated_Source\PSoC4/motorControlPWM.c ****     *  This function configures the interrupts mask control of theinterrupt
 675:Generated_Source\PSoC4/motorControlPWM.c ****     *  source status register.
 676:Generated_Source\PSoC4/motorControlPWM.c ****     *
 677:Generated_Source\PSoC4/motorControlPWM.c ****     * Parameters:
 678:Generated_Source\PSoC4/motorControlPWM.c ****     *  uint8 interruptMode: Bit field containing the interrupt sources enabled
 679:Generated_Source\PSoC4/motorControlPWM.c ****     *
 680:Generated_Source\PSoC4/motorControlPWM.c ****     * Return:
 681:Generated_Source\PSoC4/motorControlPWM.c ****     *  None
 682:Generated_Source\PSoC4/motorControlPWM.c ****     *
 683:Generated_Source\PSoC4/motorControlPWM.c ****     *******************************************************************************/
 684:Generated_Source\PSoC4/motorControlPWM.c ****     void motorControlPWM_SetInterruptMode(uint8 interruptMode) 
 685:Generated_Source\PSoC4/motorControlPWM.c ****     {
 686:Generated_Source\PSoC4/motorControlPWM.c ****         CY_SET_REG8(motorControlPWM_STATUS_MASK_PTR, interruptMode);
 687:Generated_Source\PSoC4/motorControlPWM.c ****     }
 688:Generated_Source\PSoC4/motorControlPWM.c **** 
 689:Generated_Source\PSoC4/motorControlPWM.c **** 
 690:Generated_Source\PSoC4/motorControlPWM.c ****     /*******************************************************************************
 691:Generated_Source\PSoC4/motorControlPWM.c ****     * Function Name: motorControlPWM_ReadStatusRegister
 692:Generated_Source\PSoC4/motorControlPWM.c ****     ********************************************************************************
 693:Generated_Source\PSoC4/motorControlPWM.c ****     *
 694:Generated_Source\PSoC4/motorControlPWM.c ****     * Summary:
 695:Generated_Source\PSoC4/motorControlPWM.c ****     *  This function returns the current state of the status register.
 696:Generated_Source\PSoC4/motorControlPWM.c ****     *
 697:Generated_Source\PSoC4/motorControlPWM.c ****     * Parameters:
 698:Generated_Source\PSoC4/motorControlPWM.c ****     *  None
 699:Generated_Source\PSoC4/motorControlPWM.c ****     *
 700:Generated_Source\PSoC4/motorControlPWM.c ****     * Return:
 701:Generated_Source\PSoC4/motorControlPWM.c ****     *  uint8 : Current status register value. The status register bits are:
 702:Generated_Source\PSoC4/motorControlPWM.c ****     *  [7:6] : Unused(0)
 703:Generated_Source\PSoC4/motorControlPWM.c ****     *  [5]   : Kill event output
 704:Generated_Source\PSoC4/motorControlPWM.c ****     *  [4]   : FIFO not empty
 705:Generated_Source\PSoC4/motorControlPWM.c ****     *  [3]   : FIFO full
 706:Generated_Source\PSoC4/motorControlPWM.c ****     *  [2]   : Terminal count
 707:Generated_Source\PSoC4/motorControlPWM.c ****     *  [1]   : Compare output 2
 708:Generated_Source\PSoC4/motorControlPWM.c ****     *  [0]   : Compare output 1
 709:Generated_Source\PSoC4/motorControlPWM.c ****     *
 710:Generated_Source\PSoC4/motorControlPWM.c ****     *******************************************************************************/
 711:Generated_Source\PSoC4/motorControlPWM.c ****     uint8 motorControlPWM_ReadStatusRegister(void) 
 712:Generated_Source\PSoC4/motorControlPWM.c ****     {
 713:Generated_Source\PSoC4/motorControlPWM.c ****         return (CY_GET_REG8(motorControlPWM_STATUS_PTR));
 714:Generated_Source\PSoC4/motorControlPWM.c ****     }
 715:Generated_Source\PSoC4/motorControlPWM.c **** 
 716:Generated_Source\PSoC4/motorControlPWM.c **** #endif /* (motorControlPWM_UseStatus || motorControlPWM_UsingFixedFunction) */
 717:Generated_Source\PSoC4/motorControlPWM.c **** 
 718:Generated_Source\PSoC4/motorControlPWM.c **** 
 719:Generated_Source\PSoC4/motorControlPWM.c **** #if (motorControlPWM_UseControl)
 720:Generated_Source\PSoC4/motorControlPWM.c **** 
ARM GAS  C:\Users\kylep\AppData\Local\Temp\ccgZEwxP.s 			page 20


 721:Generated_Source\PSoC4/motorControlPWM.c **** 
 722:Generated_Source\PSoC4/motorControlPWM.c ****     /*******************************************************************************
 723:Generated_Source\PSoC4/motorControlPWM.c ****     * Function Name: motorControlPWM_ReadControlRegister
 724:Generated_Source\PSoC4/motorControlPWM.c ****     ********************************************************************************
 725:Generated_Source\PSoC4/motorControlPWM.c ****     *
 726:Generated_Source\PSoC4/motorControlPWM.c ****     * Summary:
 727:Generated_Source\PSoC4/motorControlPWM.c ****     *  Returns the current state of the control register. This API is available
 728:Generated_Source\PSoC4/motorControlPWM.c ****     *  only if the control register is not removed.
 729:Generated_Source\PSoC4/motorControlPWM.c ****     *
 730:Generated_Source\PSoC4/motorControlPWM.c ****     * Parameters:
 731:Generated_Source\PSoC4/motorControlPWM.c ****     *  None
 732:Generated_Source\PSoC4/motorControlPWM.c ****     *
 733:Generated_Source\PSoC4/motorControlPWM.c ****     * Return:
 734:Generated_Source\PSoC4/motorControlPWM.c ****     *  uint8 : Current control register value
 735:Generated_Source\PSoC4/motorControlPWM.c ****     *
 736:Generated_Source\PSoC4/motorControlPWM.c ****     *******************************************************************************/
 737:Generated_Source\PSoC4/motorControlPWM.c ****     uint8 motorControlPWM_ReadControlRegister(void) 
 738:Generated_Source\PSoC4/motorControlPWM.c ****     {
 350              		.loc 1 738 0
 351              		.cfi_startproc
 352              		@ args = 0, pretend = 0, frame = 0
 353              		@ frame_needed = 0, uses_anonymous_args = 0
 354              		@ link register save eliminated.
 739:Generated_Source\PSoC4/motorControlPWM.c ****         uint8 result;
 740:Generated_Source\PSoC4/motorControlPWM.c **** 
 741:Generated_Source\PSoC4/motorControlPWM.c ****         result = CY_GET_REG8(motorControlPWM_CONTROL_PTR);
 355              		.loc 1 741 0
 356 0000 014B     		ldr	r3, .L30
 357 0002 1878     		ldrb	r0, [r3]
 358 0004 C0B2     		uxtb	r0, r0
 359              	.LVL15:
 742:Generated_Source\PSoC4/motorControlPWM.c ****         return (result);
 743:Generated_Source\PSoC4/motorControlPWM.c ****     }
 360              		.loc 1 743 0
 361              		@ sp needed
 362 0006 7047     		bx	lr
 363              	.L31:
 364              		.align	2
 365              	.L30:
 366 0008 72000F40 		.word	1074724978
 367              		.cfi_endproc
 368              	.LFE9:
 369              		.size	motorControlPWM_ReadControlRegister, .-motorControlPWM_ReadControlRegister
 370              		.section	.text.motorControlPWM_WriteControlRegister,"ax",%progbits
 371              		.align	2
 372              		.global	motorControlPWM_WriteControlRegister
 373              		.code	16
 374              		.thumb_func
 375              		.type	motorControlPWM_WriteControlRegister, %function
 376              	motorControlPWM_WriteControlRegister:
 377              	.LFB10:
 744:Generated_Source\PSoC4/motorControlPWM.c **** 
 745:Generated_Source\PSoC4/motorControlPWM.c **** 
 746:Generated_Source\PSoC4/motorControlPWM.c ****     /*******************************************************************************
 747:Generated_Source\PSoC4/motorControlPWM.c ****     * Function Name: motorControlPWM_WriteControlRegister
 748:Generated_Source\PSoC4/motorControlPWM.c ****     ********************************************************************************
 749:Generated_Source\PSoC4/motorControlPWM.c ****     *
ARM GAS  C:\Users\kylep\AppData\Local\Temp\ccgZEwxP.s 			page 21


 750:Generated_Source\PSoC4/motorControlPWM.c ****     * Summary:
 751:Generated_Source\PSoC4/motorControlPWM.c ****     *  Sets the bit field of the control register. This API is available only if
 752:Generated_Source\PSoC4/motorControlPWM.c ****     *  the control register is not removed.
 753:Generated_Source\PSoC4/motorControlPWM.c ****     *
 754:Generated_Source\PSoC4/motorControlPWM.c ****     * Parameters:
 755:Generated_Source\PSoC4/motorControlPWM.c ****     *  uint8 control: Control register bit field, The status register bits are:
 756:Generated_Source\PSoC4/motorControlPWM.c ****     *  [7]   : PWM Enable
 757:Generated_Source\PSoC4/motorControlPWM.c ****     *  [6]   : Reset
 758:Generated_Source\PSoC4/motorControlPWM.c ****     *  [5:3] : Compare Mode2
 759:Generated_Source\PSoC4/motorControlPWM.c ****     *  [2:0] : Compare Mode2
 760:Generated_Source\PSoC4/motorControlPWM.c ****     *
 761:Generated_Source\PSoC4/motorControlPWM.c ****     * Return:
 762:Generated_Source\PSoC4/motorControlPWM.c ****     *  None
 763:Generated_Source\PSoC4/motorControlPWM.c ****     *
 764:Generated_Source\PSoC4/motorControlPWM.c ****     *******************************************************************************/
 765:Generated_Source\PSoC4/motorControlPWM.c ****     void motorControlPWM_WriteControlRegister(uint8 control) 
 766:Generated_Source\PSoC4/motorControlPWM.c ****     {
 378              		.loc 1 766 0
 379              		.cfi_startproc
 380              		@ args = 0, pretend = 0, frame = 0
 381              		@ frame_needed = 0, uses_anonymous_args = 0
 382              		@ link register save eliminated.
 383              	.LVL16:
 767:Generated_Source\PSoC4/motorControlPWM.c ****         CY_SET_REG8(motorControlPWM_CONTROL_PTR, control);
 384              		.loc 1 767 0
 385 0000 014B     		ldr	r3, .L33
 386 0002 1870     		strb	r0, [r3]
 768:Generated_Source\PSoC4/motorControlPWM.c ****     }
 387              		.loc 1 768 0
 388              		@ sp needed
 389 0004 7047     		bx	lr
 390              	.L34:
 391 0006 C046     		.align	2
 392              	.L33:
 393 0008 72000F40 		.word	1074724978
 394              		.cfi_endproc
 395              	.LFE10:
 396              		.size	motorControlPWM_WriteControlRegister, .-motorControlPWM_WriteControlRegister
 397              		.section	.text.motorControlPWM_ReadCapture,"ax",%progbits
 398              		.align	2
 399              		.global	motorControlPWM_ReadCapture
 400              		.code	16
 401              		.thumb_func
 402              		.type	motorControlPWM_ReadCapture, %function
 403              	motorControlPWM_ReadCapture:
 404              	.LFB11:
 769:Generated_Source\PSoC4/motorControlPWM.c **** 
 770:Generated_Source\PSoC4/motorControlPWM.c **** #endif /* (motorControlPWM_UseControl) */
 771:Generated_Source\PSoC4/motorControlPWM.c **** 
 772:Generated_Source\PSoC4/motorControlPWM.c **** 
 773:Generated_Source\PSoC4/motorControlPWM.c **** #if (!motorControlPWM_UsingFixedFunction)
 774:Generated_Source\PSoC4/motorControlPWM.c **** 
 775:Generated_Source\PSoC4/motorControlPWM.c **** 
 776:Generated_Source\PSoC4/motorControlPWM.c ****     /*******************************************************************************
 777:Generated_Source\PSoC4/motorControlPWM.c ****     * Function Name: motorControlPWM_ReadCapture
 778:Generated_Source\PSoC4/motorControlPWM.c ****     ********************************************************************************
 779:Generated_Source\PSoC4/motorControlPWM.c ****     *
ARM GAS  C:\Users\kylep\AppData\Local\Temp\ccgZEwxP.s 			page 22


 780:Generated_Source\PSoC4/motorControlPWM.c ****     * Summary:
 781:Generated_Source\PSoC4/motorControlPWM.c ****     *  Reads the capture value from the capture FIFO.
 782:Generated_Source\PSoC4/motorControlPWM.c ****     *
 783:Generated_Source\PSoC4/motorControlPWM.c ****     * Parameters:
 784:Generated_Source\PSoC4/motorControlPWM.c ****     *  None
 785:Generated_Source\PSoC4/motorControlPWM.c ****     *
 786:Generated_Source\PSoC4/motorControlPWM.c ****     * Return:
 787:Generated_Source\PSoC4/motorControlPWM.c ****     *  uint8/uint16: The current capture value
 788:Generated_Source\PSoC4/motorControlPWM.c ****     *
 789:Generated_Source\PSoC4/motorControlPWM.c ****     *******************************************************************************/
 790:Generated_Source\PSoC4/motorControlPWM.c ****     uint8 motorControlPWM_ReadCapture(void) 
 791:Generated_Source\PSoC4/motorControlPWM.c ****     {
 405              		.loc 1 791 0
 406              		.cfi_startproc
 407              		@ args = 0, pretend = 0, frame = 0
 408              		@ frame_needed = 0, uses_anonymous_args = 0
 409              		@ link register save eliminated.
 792:Generated_Source\PSoC4/motorControlPWM.c ****         return (CY_GET_REG8(motorControlPWM_CAPTURE_LSB_PTR));
 410              		.loc 1 792 0
 411 0000 014B     		ldr	r3, .L36
 412 0002 1878     		ldrb	r0, [r3]
 413 0004 C0B2     		uxtb	r0, r0
 793:Generated_Source\PSoC4/motorControlPWM.c ****     }
 414              		.loc 1 793 0
 415              		@ sp needed
 416 0006 7047     		bx	lr
 417              	.L37:
 418              		.align	2
 419              	.L36:
 420 0008 52000F40 		.word	1074724946
 421              		.cfi_endproc
 422              	.LFE11:
 423              		.size	motorControlPWM_ReadCapture, .-motorControlPWM_ReadCapture
 424              		.section	.text.motorControlPWM_ReadCompare,"ax",%progbits
 425              		.align	2
 426              		.global	motorControlPWM_ReadCompare
 427              		.code	16
 428              		.thumb_func
 429              		.type	motorControlPWM_ReadCompare, %function
 430              	motorControlPWM_ReadCompare:
 431              	.LFB12:
 794:Generated_Source\PSoC4/motorControlPWM.c **** 
 795:Generated_Source\PSoC4/motorControlPWM.c **** #endif /* (!motorControlPWM_UsingFixedFunction) */
 796:Generated_Source\PSoC4/motorControlPWM.c **** 
 797:Generated_Source\PSoC4/motorControlPWM.c **** 
 798:Generated_Source\PSoC4/motorControlPWM.c **** #if (motorControlPWM_UseOneCompareMode)
 799:Generated_Source\PSoC4/motorControlPWM.c **** 
 800:Generated_Source\PSoC4/motorControlPWM.c **** 
 801:Generated_Source\PSoC4/motorControlPWM.c ****     /*******************************************************************************
 802:Generated_Source\PSoC4/motorControlPWM.c ****     * Function Name: motorControlPWM_ReadCompare
 803:Generated_Source\PSoC4/motorControlPWM.c ****     ********************************************************************************
 804:Generated_Source\PSoC4/motorControlPWM.c ****     *
 805:Generated_Source\PSoC4/motorControlPWM.c ****     * Summary:
 806:Generated_Source\PSoC4/motorControlPWM.c ****     *  Reads the compare value for the compare output when the PWM Mode parameter is
 807:Generated_Source\PSoC4/motorControlPWM.c ****     *  set to Dither mode, Center Aligned mode, or One Output mode.
 808:Generated_Source\PSoC4/motorControlPWM.c ****     *
 809:Generated_Source\PSoC4/motorControlPWM.c ****     * Parameters:
ARM GAS  C:\Users\kylep\AppData\Local\Temp\ccgZEwxP.s 			page 23


 810:Generated_Source\PSoC4/motorControlPWM.c ****     *  None
 811:Generated_Source\PSoC4/motorControlPWM.c ****     *
 812:Generated_Source\PSoC4/motorControlPWM.c ****     * Return:
 813:Generated_Source\PSoC4/motorControlPWM.c ****     *  uint8/uint16: Current compare value
 814:Generated_Source\PSoC4/motorControlPWM.c ****     *
 815:Generated_Source\PSoC4/motorControlPWM.c ****     *******************************************************************************/
 816:Generated_Source\PSoC4/motorControlPWM.c ****     uint8 motorControlPWM_ReadCompare(void) 
 817:Generated_Source\PSoC4/motorControlPWM.c ****     {
 432              		.loc 1 817 0
 433              		.cfi_startproc
 434              		@ args = 0, pretend = 0, frame = 0
 435              		@ frame_needed = 0, uses_anonymous_args = 0
 436              		@ link register save eliminated.
 818:Generated_Source\PSoC4/motorControlPWM.c ****         #if(motorControlPWM_UsingFixedFunction)
 819:Generated_Source\PSoC4/motorControlPWM.c ****             return ((uint8)CY_GET_REG16(motorControlPWM_COMPARE1_LSB_PTR));
 820:Generated_Source\PSoC4/motorControlPWM.c ****         #else
 821:Generated_Source\PSoC4/motorControlPWM.c ****             return (CY_GET_REG8(motorControlPWM_COMPARE1_LSB_PTR));
 437              		.loc 1 821 0
 438 0000 014B     		ldr	r3, .L39
 439 0002 1878     		ldrb	r0, [r3]
 440 0004 C0B2     		uxtb	r0, r0
 822:Generated_Source\PSoC4/motorControlPWM.c ****         #endif /* (motorControlPWM_UsingFixedFunction) */
 823:Generated_Source\PSoC4/motorControlPWM.c ****     }
 441              		.loc 1 823 0
 442              		@ sp needed
 443 0006 7047     		bx	lr
 444              	.L40:
 445              		.align	2
 446              	.L39:
 447 0008 22000F40 		.word	1074724898
 448              		.cfi_endproc
 449              	.LFE12:
 450              		.size	motorControlPWM_ReadCompare, .-motorControlPWM_ReadCompare
 451              		.section	.text.motorControlPWM_ReadPeriod,"ax",%progbits
 452              		.align	2
 453              		.global	motorControlPWM_ReadPeriod
 454              		.code	16
 455              		.thumb_func
 456              		.type	motorControlPWM_ReadPeriod, %function
 457              	motorControlPWM_ReadPeriod:
 458              	.LFB13:
 824:Generated_Source\PSoC4/motorControlPWM.c **** 
 825:Generated_Source\PSoC4/motorControlPWM.c **** #else
 826:Generated_Source\PSoC4/motorControlPWM.c **** 
 827:Generated_Source\PSoC4/motorControlPWM.c **** 
 828:Generated_Source\PSoC4/motorControlPWM.c ****     /*******************************************************************************
 829:Generated_Source\PSoC4/motorControlPWM.c ****     * Function Name: motorControlPWM_ReadCompare1
 830:Generated_Source\PSoC4/motorControlPWM.c ****     ********************************************************************************
 831:Generated_Source\PSoC4/motorControlPWM.c ****     *
 832:Generated_Source\PSoC4/motorControlPWM.c ****     * Summary:
 833:Generated_Source\PSoC4/motorControlPWM.c ****     *  Reads the compare value for the compare1 output.
 834:Generated_Source\PSoC4/motorControlPWM.c ****     *
 835:Generated_Source\PSoC4/motorControlPWM.c ****     * Parameters:
 836:Generated_Source\PSoC4/motorControlPWM.c ****     *  None
 837:Generated_Source\PSoC4/motorControlPWM.c ****     *
 838:Generated_Source\PSoC4/motorControlPWM.c ****     * Return:
 839:Generated_Source\PSoC4/motorControlPWM.c ****     *  uint8/uint16: Current compare value.
ARM GAS  C:\Users\kylep\AppData\Local\Temp\ccgZEwxP.s 			page 24


 840:Generated_Source\PSoC4/motorControlPWM.c ****     *
 841:Generated_Source\PSoC4/motorControlPWM.c ****     *******************************************************************************/
 842:Generated_Source\PSoC4/motorControlPWM.c ****     uint8 motorControlPWM_ReadCompare1(void) 
 843:Generated_Source\PSoC4/motorControlPWM.c ****     {
 844:Generated_Source\PSoC4/motorControlPWM.c ****         return (CY_GET_REG8(motorControlPWM_COMPARE1_LSB_PTR));
 845:Generated_Source\PSoC4/motorControlPWM.c ****     }
 846:Generated_Source\PSoC4/motorControlPWM.c **** 
 847:Generated_Source\PSoC4/motorControlPWM.c **** 
 848:Generated_Source\PSoC4/motorControlPWM.c ****     /*******************************************************************************
 849:Generated_Source\PSoC4/motorControlPWM.c ****     * Function Name: motorControlPWM_ReadCompare2
 850:Generated_Source\PSoC4/motorControlPWM.c ****     ********************************************************************************
 851:Generated_Source\PSoC4/motorControlPWM.c ****     *
 852:Generated_Source\PSoC4/motorControlPWM.c ****     * Summary:
 853:Generated_Source\PSoC4/motorControlPWM.c ****     *  Reads the compare value for the compare2 output.
 854:Generated_Source\PSoC4/motorControlPWM.c ****     *
 855:Generated_Source\PSoC4/motorControlPWM.c ****     * Parameters:
 856:Generated_Source\PSoC4/motorControlPWM.c ****     *  None
 857:Generated_Source\PSoC4/motorControlPWM.c ****     *
 858:Generated_Source\PSoC4/motorControlPWM.c ****     * Return:
 859:Generated_Source\PSoC4/motorControlPWM.c ****     *  uint8/uint16: Current compare value.
 860:Generated_Source\PSoC4/motorControlPWM.c ****     *
 861:Generated_Source\PSoC4/motorControlPWM.c ****     *******************************************************************************/
 862:Generated_Source\PSoC4/motorControlPWM.c ****     uint8 motorControlPWM_ReadCompare2(void) 
 863:Generated_Source\PSoC4/motorControlPWM.c ****     {
 864:Generated_Source\PSoC4/motorControlPWM.c ****         return (CY_GET_REG8(motorControlPWM_COMPARE2_LSB_PTR));
 865:Generated_Source\PSoC4/motorControlPWM.c ****     }
 866:Generated_Source\PSoC4/motorControlPWM.c **** 
 867:Generated_Source\PSoC4/motorControlPWM.c **** #endif /* (motorControlPWM_UseOneCompareMode) */
 868:Generated_Source\PSoC4/motorControlPWM.c **** 
 869:Generated_Source\PSoC4/motorControlPWM.c **** 
 870:Generated_Source\PSoC4/motorControlPWM.c **** /*******************************************************************************
 871:Generated_Source\PSoC4/motorControlPWM.c **** * Function Name: motorControlPWM_ReadPeriod
 872:Generated_Source\PSoC4/motorControlPWM.c **** ********************************************************************************
 873:Generated_Source\PSoC4/motorControlPWM.c **** *
 874:Generated_Source\PSoC4/motorControlPWM.c **** * Summary:
 875:Generated_Source\PSoC4/motorControlPWM.c **** *  Reads the period value used by the PWM hardware.
 876:Generated_Source\PSoC4/motorControlPWM.c **** *
 877:Generated_Source\PSoC4/motorControlPWM.c **** * Parameters:
 878:Generated_Source\PSoC4/motorControlPWM.c **** *  None
 879:Generated_Source\PSoC4/motorControlPWM.c **** *
 880:Generated_Source\PSoC4/motorControlPWM.c **** * Return:
 881:Generated_Source\PSoC4/motorControlPWM.c **** *  uint8/16: Period value
 882:Generated_Source\PSoC4/motorControlPWM.c **** *
 883:Generated_Source\PSoC4/motorControlPWM.c **** *******************************************************************************/
 884:Generated_Source\PSoC4/motorControlPWM.c **** uint8 motorControlPWM_ReadPeriod(void) 
 885:Generated_Source\PSoC4/motorControlPWM.c **** {
 459              		.loc 1 885 0
 460              		.cfi_startproc
 461              		@ args = 0, pretend = 0, frame = 0
 462              		@ frame_needed = 0, uses_anonymous_args = 0
 463              		@ link register save eliminated.
 886:Generated_Source\PSoC4/motorControlPWM.c ****     #if(motorControlPWM_UsingFixedFunction)
 887:Generated_Source\PSoC4/motorControlPWM.c ****         return ((uint8)CY_GET_REG16(motorControlPWM_PERIOD_LSB_PTR));
 888:Generated_Source\PSoC4/motorControlPWM.c ****     #else
 889:Generated_Source\PSoC4/motorControlPWM.c ****         return (CY_GET_REG8(motorControlPWM_PERIOD_LSB_PTR));
 464              		.loc 1 889 0
 465 0000 014B     		ldr	r3, .L42
ARM GAS  C:\Users\kylep\AppData\Local\Temp\ccgZEwxP.s 			page 25


 466 0002 1878     		ldrb	r0, [r3]
 467 0004 C0B2     		uxtb	r0, r0
 890:Generated_Source\PSoC4/motorControlPWM.c ****     #endif /* (motorControlPWM_UsingFixedFunction) */
 891:Generated_Source\PSoC4/motorControlPWM.c **** }
 468              		.loc 1 891 0
 469              		@ sp needed
 470 0006 7047     		bx	lr
 471              	.L43:
 472              		.align	2
 473              	.L42:
 474 0008 42000F40 		.word	1074724930
 475              		.cfi_endproc
 476              	.LFE13:
 477              		.size	motorControlPWM_ReadPeriod, .-motorControlPWM_ReadPeriod
 478              		.global	motorControlPWM_initVar
 479              		.bss
 480              		.set	.LANCHOR0,. + 0
 481              		.type	motorControlPWM_initVar, %object
 482              		.size	motorControlPWM_initVar, 1
 483              	motorControlPWM_initVar:
 484 0000 00       		.space	1
 485              		.text
 486              	.Letext0:
 487              		.file 2 "Generated_Source\\PSoC4\\cytypes.h"