ARM GAS  C:\Users\kylep\AppData\Local\Temp\ccZmuvHl.s 			page 1


   1              		.syntax unified
   2              		.cpu cortex-m0
   3              		.fpu softvfp
   4              		.eabi_attribute 20, 1
   5              		.eabi_attribute 21, 1
   6              		.eabi_attribute 23, 3
   7              		.eabi_attribute 24, 1
   8              		.eabi_attribute 25, 1
   9              		.eabi_attribute 26, 1
  10              		.eabi_attribute 30, 1
  11              		.eabi_attribute 34, 0
  12              		.eabi_attribute 18, 4
  13              		.thumb
  14              		.syntax unified
  15              		.file	"motorControlPWM_PM.c"
  16              		.text
  17              	.Ltext0:
  18              		.cfi_sections	.debug_frame
  19              		.section	.text.motorControlPWM_SaveConfig,"ax",%progbits
  20              		.align	2
  21              		.global	motorControlPWM_SaveConfig
  22              		.code	16
  23              		.thumb_func
  24              		.type	motorControlPWM_SaveConfig, %function
  25              	motorControlPWM_SaveConfig:
  26              	.LFB0:
  27              		.file 1 "Generated_Source\\PSoC4\\motorControlPWM_PM.c"
   1:Generated_Source\PSoC4/motorControlPWM_PM.c **** /*******************************************************************************
   2:Generated_Source\PSoC4/motorControlPWM_PM.c **** * File Name: motorControlPWM_PM.c
   3:Generated_Source\PSoC4/motorControlPWM_PM.c **** * Version 3.30
   4:Generated_Source\PSoC4/motorControlPWM_PM.c **** *
   5:Generated_Source\PSoC4/motorControlPWM_PM.c **** * Description:
   6:Generated_Source\PSoC4/motorControlPWM_PM.c **** *  This file provides the power management source code to API for the
   7:Generated_Source\PSoC4/motorControlPWM_PM.c **** *  PWM.
   8:Generated_Source\PSoC4/motorControlPWM_PM.c **** *
   9:Generated_Source\PSoC4/motorControlPWM_PM.c **** * Note:
  10:Generated_Source\PSoC4/motorControlPWM_PM.c **** *
  11:Generated_Source\PSoC4/motorControlPWM_PM.c **** ********************************************************************************
  12:Generated_Source\PSoC4/motorControlPWM_PM.c **** * Copyright 2008-2014, Cypress Semiconductor Corporation.  All rights reserved.
  13:Generated_Source\PSoC4/motorControlPWM_PM.c **** * You may use this file only in accordance with the license, terms, conditions,
  14:Generated_Source\PSoC4/motorControlPWM_PM.c **** * disclaimers, and limitations in the end user license agreement accompanying
  15:Generated_Source\PSoC4/motorControlPWM_PM.c **** * the software package with which this file was provided.
  16:Generated_Source\PSoC4/motorControlPWM_PM.c **** *******************************************************************************/
  17:Generated_Source\PSoC4/motorControlPWM_PM.c **** 
  18:Generated_Source\PSoC4/motorControlPWM_PM.c **** #include "motorControlPWM.h"
  19:Generated_Source\PSoC4/motorControlPWM_PM.c **** 
  20:Generated_Source\PSoC4/motorControlPWM_PM.c **** static motorControlPWM_backupStruct motorControlPWM_backup;
  21:Generated_Source\PSoC4/motorControlPWM_PM.c **** 
  22:Generated_Source\PSoC4/motorControlPWM_PM.c **** 
  23:Generated_Source\PSoC4/motorControlPWM_PM.c **** /*******************************************************************************
  24:Generated_Source\PSoC4/motorControlPWM_PM.c **** * Function Name: motorControlPWM_SaveConfig
  25:Generated_Source\PSoC4/motorControlPWM_PM.c **** ********************************************************************************
  26:Generated_Source\PSoC4/motorControlPWM_PM.c **** *
  27:Generated_Source\PSoC4/motorControlPWM_PM.c **** * Summary:
  28:Generated_Source\PSoC4/motorControlPWM_PM.c **** *  Saves the current user configuration of the component.
  29:Generated_Source\PSoC4/motorControlPWM_PM.c **** *
  30:Generated_Source\PSoC4/motorControlPWM_PM.c **** * Parameters:
ARM GAS  C:\Users\kylep\AppData\Local\Temp\ccZmuvHl.s 			page 2


  31:Generated_Source\PSoC4/motorControlPWM_PM.c **** *  None
  32:Generated_Source\PSoC4/motorControlPWM_PM.c **** *
  33:Generated_Source\PSoC4/motorControlPWM_PM.c **** * Return:
  34:Generated_Source\PSoC4/motorControlPWM_PM.c **** *  None
  35:Generated_Source\PSoC4/motorControlPWM_PM.c **** *
  36:Generated_Source\PSoC4/motorControlPWM_PM.c **** * Global variables:
  37:Generated_Source\PSoC4/motorControlPWM_PM.c **** *  motorControlPWM_backup:  Variables of this global structure are modified to
  38:Generated_Source\PSoC4/motorControlPWM_PM.c **** *  store the values of non retention configuration registers when Sleep() API is
  39:Generated_Source\PSoC4/motorControlPWM_PM.c **** *  called.
  40:Generated_Source\PSoC4/motorControlPWM_PM.c **** *
  41:Generated_Source\PSoC4/motorControlPWM_PM.c **** *******************************************************************************/
  42:Generated_Source\PSoC4/motorControlPWM_PM.c **** void motorControlPWM_SaveConfig(void) 
  43:Generated_Source\PSoC4/motorControlPWM_PM.c **** {
  28              		.loc 1 43 0
  29              		.cfi_startproc
  30              		@ args = 0, pretend = 0, frame = 0
  31              		@ frame_needed = 0, uses_anonymous_args = 0
  32 0000 10B5     		push	{r4, lr}
  33              		.cfi_def_cfa_offset 8
  34              		.cfi_offset 4, -8
  35              		.cfi_offset 14, -4
  44:Generated_Source\PSoC4/motorControlPWM_PM.c **** 
  45:Generated_Source\PSoC4/motorControlPWM_PM.c ****     #if(!motorControlPWM_UsingFixedFunction)
  46:Generated_Source\PSoC4/motorControlPWM_PM.c ****         #if(!motorControlPWM_PWMModeIsCenterAligned)
  47:Generated_Source\PSoC4/motorControlPWM_PM.c ****             motorControlPWM_backup.PWMPeriod = motorControlPWM_ReadPeriod();
  36              		.loc 1 47 0
  37 0002 FFF7FEFF 		bl	motorControlPWM_ReadPeriod
  38              	.LVL0:
  39 0006 044C     		ldr	r4, .L2
  40 0008 A070     		strb	r0, [r4, #2]
  48:Generated_Source\PSoC4/motorControlPWM_PM.c ****         #endif /* (!motorControlPWM_PWMModeIsCenterAligned) */
  49:Generated_Source\PSoC4/motorControlPWM_PM.c ****         motorControlPWM_backup.PWMUdb = motorControlPWM_ReadCounter();
  41              		.loc 1 49 0
  42 000a FFF7FEFF 		bl	motorControlPWM_ReadCounter
  43              	.LVL1:
  44 000e 6070     		strb	r0, [r4, #1]
  50:Generated_Source\PSoC4/motorControlPWM_PM.c ****         #if (motorControlPWM_UseStatus)
  51:Generated_Source\PSoC4/motorControlPWM_PM.c ****             motorControlPWM_backup.InterruptMaskValue = motorControlPWM_STATUS_MASK;
  52:Generated_Source\PSoC4/motorControlPWM_PM.c ****         #endif /* (motorControlPWM_UseStatus) */
  53:Generated_Source\PSoC4/motorControlPWM_PM.c **** 
  54:Generated_Source\PSoC4/motorControlPWM_PM.c ****         #if(motorControlPWM_DeadBandMode == motorControlPWM__B_PWM__DBM_256_CLOCKS || \
  55:Generated_Source\PSoC4/motorControlPWM_PM.c ****             motorControlPWM_DeadBandMode == motorControlPWM__B_PWM__DBM_2_4_CLOCKS)
  56:Generated_Source\PSoC4/motorControlPWM_PM.c ****             motorControlPWM_backup.PWMdeadBandValue = motorControlPWM_ReadDeadTime();
  57:Generated_Source\PSoC4/motorControlPWM_PM.c ****         #endif /*  deadband count is either 2-4 clocks or 256 clocks */
  58:Generated_Source\PSoC4/motorControlPWM_PM.c **** 
  59:Generated_Source\PSoC4/motorControlPWM_PM.c ****         #if(motorControlPWM_KillModeMinTime)
  60:Generated_Source\PSoC4/motorControlPWM_PM.c ****              motorControlPWM_backup.PWMKillCounterPeriod = motorControlPWM_ReadKillTime();
  61:Generated_Source\PSoC4/motorControlPWM_PM.c ****         #endif /* (motorControlPWM_KillModeMinTime) */
  62:Generated_Source\PSoC4/motorControlPWM_PM.c **** 
  63:Generated_Source\PSoC4/motorControlPWM_PM.c ****         #if(motorControlPWM_UseControl)
  64:Generated_Source\PSoC4/motorControlPWM_PM.c ****             motorControlPWM_backup.PWMControlRegister = motorControlPWM_ReadControlRegister();
  45              		.loc 1 64 0
  46 0010 FFF7FEFF 		bl	motorControlPWM_ReadControlRegister
  47              	.LVL2:
  48 0014 E070     		strb	r0, [r4, #3]
  65:Generated_Source\PSoC4/motorControlPWM_PM.c ****         #endif /* (motorControlPWM_UseControl) */
  66:Generated_Source\PSoC4/motorControlPWM_PM.c ****     #endif  /* (!motorControlPWM_UsingFixedFunction) */
ARM GAS  C:\Users\kylep\AppData\Local\Temp\ccZmuvHl.s 			page 3


  67:Generated_Source\PSoC4/motorControlPWM_PM.c **** }
  49              		.loc 1 67 0
  50              		@ sp needed
  51 0016 10BD     		pop	{r4, pc}
  52              	.L3:
  53              		.align	2
  54              	.L2:
  55 0018 00000000 		.word	.LANCHOR0
  56              		.cfi_endproc
  57              	.LFE0:
  58              		.size	motorControlPWM_SaveConfig, .-motorControlPWM_SaveConfig
  59              		.section	.text.motorControlPWM_RestoreConfig,"ax",%progbits
  60              		.align	2
  61              		.global	motorControlPWM_RestoreConfig
  62              		.code	16
  63              		.thumb_func
  64              		.type	motorControlPWM_RestoreConfig, %function
  65              	motorControlPWM_RestoreConfig:
  66              	.LFB1:
  68:Generated_Source\PSoC4/motorControlPWM_PM.c **** 
  69:Generated_Source\PSoC4/motorControlPWM_PM.c **** 
  70:Generated_Source\PSoC4/motorControlPWM_PM.c **** /*******************************************************************************
  71:Generated_Source\PSoC4/motorControlPWM_PM.c **** * Function Name: motorControlPWM_RestoreConfig
  72:Generated_Source\PSoC4/motorControlPWM_PM.c **** ********************************************************************************
  73:Generated_Source\PSoC4/motorControlPWM_PM.c **** *
  74:Generated_Source\PSoC4/motorControlPWM_PM.c **** * Summary:
  75:Generated_Source\PSoC4/motorControlPWM_PM.c **** *  Restores the current user configuration of the component.
  76:Generated_Source\PSoC4/motorControlPWM_PM.c **** *
  77:Generated_Source\PSoC4/motorControlPWM_PM.c **** * Parameters:
  78:Generated_Source\PSoC4/motorControlPWM_PM.c **** *  None
  79:Generated_Source\PSoC4/motorControlPWM_PM.c **** *
  80:Generated_Source\PSoC4/motorControlPWM_PM.c **** * Return:
  81:Generated_Source\PSoC4/motorControlPWM_PM.c **** *  None
  82:Generated_Source\PSoC4/motorControlPWM_PM.c **** *
  83:Generated_Source\PSoC4/motorControlPWM_PM.c **** * Global variables:
  84:Generated_Source\PSoC4/motorControlPWM_PM.c **** *  motorControlPWM_backup:  Variables of this global structure are used to
  85:Generated_Source\PSoC4/motorControlPWM_PM.c **** *  restore the values of non retention registers on wakeup from sleep mode.
  86:Generated_Source\PSoC4/motorControlPWM_PM.c **** *
  87:Generated_Source\PSoC4/motorControlPWM_PM.c **** *******************************************************************************/
  88:Generated_Source\PSoC4/motorControlPWM_PM.c **** void motorControlPWM_RestoreConfig(void) 
  89:Generated_Source\PSoC4/motorControlPWM_PM.c **** {
  67              		.loc 1 89 0
  68              		.cfi_startproc
  69              		@ args = 0, pretend = 0, frame = 0
  70              		@ frame_needed = 0, uses_anonymous_args = 0
  71 0000 10B5     		push	{r4, lr}
  72              		.cfi_def_cfa_offset 8
  73              		.cfi_offset 4, -8
  74              		.cfi_offset 14, -4
  90:Generated_Source\PSoC4/motorControlPWM_PM.c ****         #if(!motorControlPWM_UsingFixedFunction)
  91:Generated_Source\PSoC4/motorControlPWM_PM.c ****             #if(!motorControlPWM_PWMModeIsCenterAligned)
  92:Generated_Source\PSoC4/motorControlPWM_PM.c ****                 motorControlPWM_WritePeriod(motorControlPWM_backup.PWMPeriod);
  75              		.loc 1 92 0
  76 0002 054C     		ldr	r4, .L5
  77 0004 A078     		ldrb	r0, [r4, #2]
  78 0006 FFF7FEFF 		bl	motorControlPWM_WritePeriod
  79              	.LVL3:
ARM GAS  C:\Users\kylep\AppData\Local\Temp\ccZmuvHl.s 			page 4


  93:Generated_Source\PSoC4/motorControlPWM_PM.c ****             #endif /* (!motorControlPWM_PWMModeIsCenterAligned) */
  94:Generated_Source\PSoC4/motorControlPWM_PM.c **** 
  95:Generated_Source\PSoC4/motorControlPWM_PM.c ****             motorControlPWM_WriteCounter(motorControlPWM_backup.PWMUdb);
  80              		.loc 1 95 0
  81 000a 6078     		ldrb	r0, [r4, #1]
  82 000c FFF7FEFF 		bl	motorControlPWM_WriteCounter
  83              	.LVL4:
  96:Generated_Source\PSoC4/motorControlPWM_PM.c **** 
  97:Generated_Source\PSoC4/motorControlPWM_PM.c ****             #if (motorControlPWM_UseStatus)
  98:Generated_Source\PSoC4/motorControlPWM_PM.c ****                 motorControlPWM_STATUS_MASK = motorControlPWM_backup.InterruptMaskValue;
  99:Generated_Source\PSoC4/motorControlPWM_PM.c ****             #endif /* (motorControlPWM_UseStatus) */
 100:Generated_Source\PSoC4/motorControlPWM_PM.c **** 
 101:Generated_Source\PSoC4/motorControlPWM_PM.c ****             #if(motorControlPWM_DeadBandMode == motorControlPWM__B_PWM__DBM_256_CLOCKS || \
 102:Generated_Source\PSoC4/motorControlPWM_PM.c ****                 motorControlPWM_DeadBandMode == motorControlPWM__B_PWM__DBM_2_4_CLOCKS)
 103:Generated_Source\PSoC4/motorControlPWM_PM.c ****                 motorControlPWM_WriteDeadTime(motorControlPWM_backup.PWMdeadBandValue);
 104:Generated_Source\PSoC4/motorControlPWM_PM.c ****             #endif /* deadband count is either 2-4 clocks or 256 clocks */
 105:Generated_Source\PSoC4/motorControlPWM_PM.c **** 
 106:Generated_Source\PSoC4/motorControlPWM_PM.c ****             #if(motorControlPWM_KillModeMinTime)
 107:Generated_Source\PSoC4/motorControlPWM_PM.c ****                 motorControlPWM_WriteKillTime(motorControlPWM_backup.PWMKillCounterPeriod);
 108:Generated_Source\PSoC4/motorControlPWM_PM.c ****             #endif /* (motorControlPWM_KillModeMinTime) */
 109:Generated_Source\PSoC4/motorControlPWM_PM.c **** 
 110:Generated_Source\PSoC4/motorControlPWM_PM.c ****             #if(motorControlPWM_UseControl)
 111:Generated_Source\PSoC4/motorControlPWM_PM.c ****                 motorControlPWM_WriteControlRegister(motorControlPWM_backup.PWMControlRegister);
  84              		.loc 1 111 0
  85 0010 E078     		ldrb	r0, [r4, #3]
  86 0012 FFF7FEFF 		bl	motorControlPWM_WriteControlRegister
  87              	.LVL5:
 112:Generated_Source\PSoC4/motorControlPWM_PM.c ****             #endif /* (motorControlPWM_UseControl) */
 113:Generated_Source\PSoC4/motorControlPWM_PM.c ****         #endif  /* (!motorControlPWM_UsingFixedFunction) */
 114:Generated_Source\PSoC4/motorControlPWM_PM.c ****     }
  88              		.loc 1 114 0
  89              		@ sp needed
  90 0016 10BD     		pop	{r4, pc}
  91              	.L6:
  92              		.align	2
  93              	.L5:
  94 0018 00000000 		.word	.LANCHOR0
  95              		.cfi_endproc
  96              	.LFE1:
  97              		.size	motorControlPWM_RestoreConfig, .-motorControlPWM_RestoreConfig
  98              		.section	.text.motorControlPWM_Sleep,"ax",%progbits
  99              		.align	2
 100              		.global	motorControlPWM_Sleep
 101              		.code	16
 102              		.thumb_func
 103              		.type	motorControlPWM_Sleep, %function
 104              	motorControlPWM_Sleep:
 105              	.LFB2:
 115:Generated_Source\PSoC4/motorControlPWM_PM.c **** 
 116:Generated_Source\PSoC4/motorControlPWM_PM.c **** 
 117:Generated_Source\PSoC4/motorControlPWM_PM.c **** /*******************************************************************************
 118:Generated_Source\PSoC4/motorControlPWM_PM.c **** * Function Name: motorControlPWM_Sleep
 119:Generated_Source\PSoC4/motorControlPWM_PM.c **** ********************************************************************************
 120:Generated_Source\PSoC4/motorControlPWM_PM.c **** *
 121:Generated_Source\PSoC4/motorControlPWM_PM.c **** * Summary:
 122:Generated_Source\PSoC4/motorControlPWM_PM.c **** *  Disables block's operation and saves the user configuration. Should be called
 123:Generated_Source\PSoC4/motorControlPWM_PM.c **** *  just prior to entering sleep.
ARM GAS  C:\Users\kylep\AppData\Local\Temp\ccZmuvHl.s 			page 5


 124:Generated_Source\PSoC4/motorControlPWM_PM.c **** *
 125:Generated_Source\PSoC4/motorControlPWM_PM.c **** * Parameters:
 126:Generated_Source\PSoC4/motorControlPWM_PM.c **** *  None
 127:Generated_Source\PSoC4/motorControlPWM_PM.c **** *
 128:Generated_Source\PSoC4/motorControlPWM_PM.c **** * Return:
 129:Generated_Source\PSoC4/motorControlPWM_PM.c **** *  None
 130:Generated_Source\PSoC4/motorControlPWM_PM.c **** *
 131:Generated_Source\PSoC4/motorControlPWM_PM.c **** * Global variables:
 132:Generated_Source\PSoC4/motorControlPWM_PM.c **** *  motorControlPWM_backup.PWMEnableState:  Is modified depending on the enable
 133:Generated_Source\PSoC4/motorControlPWM_PM.c **** *  state of the block before entering sleep mode.
 134:Generated_Source\PSoC4/motorControlPWM_PM.c **** *
 135:Generated_Source\PSoC4/motorControlPWM_PM.c **** *******************************************************************************/
 136:Generated_Source\PSoC4/motorControlPWM_PM.c **** void motorControlPWM_Sleep(void) 
 137:Generated_Source\PSoC4/motorControlPWM_PM.c **** {
 106              		.loc 1 137 0
 107              		.cfi_startproc
 108              		@ args = 0, pretend = 0, frame = 0
 109              		@ frame_needed = 0, uses_anonymous_args = 0
 110 0000 10B5     		push	{r4, lr}
 111              		.cfi_def_cfa_offset 8
 112              		.cfi_offset 4, -8
 113              		.cfi_offset 14, -4
 138:Generated_Source\PSoC4/motorControlPWM_PM.c ****     #if(motorControlPWM_UseControl)
 139:Generated_Source\PSoC4/motorControlPWM_PM.c ****         if(motorControlPWM_CTRL_ENABLE == (motorControlPWM_CONTROL & motorControlPWM_CTRL_ENABLE))
 114              		.loc 1 139 0
 115 0002 084B     		ldr	r3, .L10
 116 0004 1B78     		ldrb	r3, [r3]
 117 0006 5BB2     		sxtb	r3, r3
 118 0008 002B     		cmp	r3, #0
 119 000a 03DA     		bge	.L8
 140:Generated_Source\PSoC4/motorControlPWM_PM.c ****         {
 141:Generated_Source\PSoC4/motorControlPWM_PM.c ****             /*Component is enabled */
 142:Generated_Source\PSoC4/motorControlPWM_PM.c ****             motorControlPWM_backup.PWMEnableState = 1u;
 120              		.loc 1 142 0
 121 000c 0122     		movs	r2, #1
 122 000e 064B     		ldr	r3, .L10+4
 123 0010 1A70     		strb	r2, [r3]
 124 0012 02E0     		b	.L9
 125              	.L8:
 143:Generated_Source\PSoC4/motorControlPWM_PM.c ****         }
 144:Generated_Source\PSoC4/motorControlPWM_PM.c ****         else
 145:Generated_Source\PSoC4/motorControlPWM_PM.c ****         {
 146:Generated_Source\PSoC4/motorControlPWM_PM.c ****             /* Component is disabled */
 147:Generated_Source\PSoC4/motorControlPWM_PM.c ****             motorControlPWM_backup.PWMEnableState = 0u;
 126              		.loc 1 147 0
 127 0014 0022     		movs	r2, #0
 128 0016 044B     		ldr	r3, .L10+4
 129 0018 1A70     		strb	r2, [r3]
 130              	.L9:
 148:Generated_Source\PSoC4/motorControlPWM_PM.c ****         }
 149:Generated_Source\PSoC4/motorControlPWM_PM.c ****     #endif /* (motorControlPWM_UseControl) */
 150:Generated_Source\PSoC4/motorControlPWM_PM.c **** 
 151:Generated_Source\PSoC4/motorControlPWM_PM.c ****     /* Stop component */
 152:Generated_Source\PSoC4/motorControlPWM_PM.c ****     motorControlPWM_Stop();
 131              		.loc 1 152 0
 132 001a FFF7FEFF 		bl	motorControlPWM_Stop
 133              	.LVL6:
ARM GAS  C:\Users\kylep\AppData\Local\Temp\ccZmuvHl.s 			page 6


 153:Generated_Source\PSoC4/motorControlPWM_PM.c **** 
 154:Generated_Source\PSoC4/motorControlPWM_PM.c ****     /* Save registers configuration */
 155:Generated_Source\PSoC4/motorControlPWM_PM.c ****     motorControlPWM_SaveConfig();
 134              		.loc 1 155 0
 135 001e FFF7FEFF 		bl	motorControlPWM_SaveConfig
 136              	.LVL7:
 156:Generated_Source\PSoC4/motorControlPWM_PM.c **** }
 137              		.loc 1 156 0
 138              		@ sp needed
 139 0022 10BD     		pop	{r4, pc}
 140              	.L11:
 141              		.align	2
 142              	.L10:
 143 0024 72000F40 		.word	1074724978
 144 0028 00000000 		.word	.LANCHOR0
 145              		.cfi_endproc
 146              	.LFE2:
 147              		.size	motorControlPWM_Sleep, .-motorControlPWM_Sleep
 148              		.section	.text.motorControlPWM_Wakeup,"ax",%progbits
 149              		.align	2
 150              		.global	motorControlPWM_Wakeup
 151              		.code	16
 152              		.thumb_func
 153              		.type	motorControlPWM_Wakeup, %function
 154              	motorControlPWM_Wakeup:
 155              	.LFB3:
 157:Generated_Source\PSoC4/motorControlPWM_PM.c **** 
 158:Generated_Source\PSoC4/motorControlPWM_PM.c **** 
 159:Generated_Source\PSoC4/motorControlPWM_PM.c **** /*******************************************************************************
 160:Generated_Source\PSoC4/motorControlPWM_PM.c **** * Function Name: motorControlPWM_Wakeup
 161:Generated_Source\PSoC4/motorControlPWM_PM.c **** ********************************************************************************
 162:Generated_Source\PSoC4/motorControlPWM_PM.c **** *
 163:Generated_Source\PSoC4/motorControlPWM_PM.c **** * Summary:
 164:Generated_Source\PSoC4/motorControlPWM_PM.c **** *  Restores and enables the user configuration. Should be called just after
 165:Generated_Source\PSoC4/motorControlPWM_PM.c **** *  awaking from sleep.
 166:Generated_Source\PSoC4/motorControlPWM_PM.c **** *
 167:Generated_Source\PSoC4/motorControlPWM_PM.c **** * Parameters:
 168:Generated_Source\PSoC4/motorControlPWM_PM.c **** *  None
 169:Generated_Source\PSoC4/motorControlPWM_PM.c **** *
 170:Generated_Source\PSoC4/motorControlPWM_PM.c **** * Return:
 171:Generated_Source\PSoC4/motorControlPWM_PM.c **** *  None
 172:Generated_Source\PSoC4/motorControlPWM_PM.c **** *
 173:Generated_Source\PSoC4/motorControlPWM_PM.c **** * Global variables:
 174:Generated_Source\PSoC4/motorControlPWM_PM.c **** *  motorControlPWM_backup.pwmEnable:  Is used to restore the enable state of
 175:Generated_Source\PSoC4/motorControlPWM_PM.c **** *  block on wakeup from sleep mode.
 176:Generated_Source\PSoC4/motorControlPWM_PM.c **** *
 177:Generated_Source\PSoC4/motorControlPWM_PM.c **** *******************************************************************************/
 178:Generated_Source\PSoC4/motorControlPWM_PM.c **** void motorControlPWM_Wakeup(void) 
 179:Generated_Source\PSoC4/motorControlPWM_PM.c **** {
 156              		.loc 1 179 0
 157              		.cfi_startproc
 158              		@ args = 0, pretend = 0, frame = 0
 159              		@ frame_needed = 0, uses_anonymous_args = 0
 160 0000 10B5     		push	{r4, lr}
 161              		.cfi_def_cfa_offset 8
 162              		.cfi_offset 4, -8
 163              		.cfi_offset 14, -4
ARM GAS  C:\Users\kylep\AppData\Local\Temp\ccZmuvHl.s 			page 7


 180:Generated_Source\PSoC4/motorControlPWM_PM.c ****      /* Restore registers values */
 181:Generated_Source\PSoC4/motorControlPWM_PM.c ****     motorControlPWM_RestoreConfig();
 164              		.loc 1 181 0
 165 0002 FFF7FEFF 		bl	motorControlPWM_RestoreConfig
 166              	.LVL8:
 182:Generated_Source\PSoC4/motorControlPWM_PM.c **** 
 183:Generated_Source\PSoC4/motorControlPWM_PM.c ****     if(motorControlPWM_backup.PWMEnableState != 0u)
 167              		.loc 1 183 0
 168 0006 034B     		ldr	r3, .L14
 169 0008 1B78     		ldrb	r3, [r3]
 170 000a 002B     		cmp	r3, #0
 171 000c 01D0     		beq	.L12
 184:Generated_Source\PSoC4/motorControlPWM_PM.c ****     {
 185:Generated_Source\PSoC4/motorControlPWM_PM.c ****         /* Enable component's operation */
 186:Generated_Source\PSoC4/motorControlPWM_PM.c ****         motorControlPWM_Enable();
 172              		.loc 1 186 0
 173 000e FFF7FEFF 		bl	motorControlPWM_Enable
 174              	.LVL9:
 175              	.L12:
 187:Generated_Source\PSoC4/motorControlPWM_PM.c ****     } /* Do nothing if component's block was disabled before */
 188:Generated_Source\PSoC4/motorControlPWM_PM.c **** 
 189:Generated_Source\PSoC4/motorControlPWM_PM.c **** }
 176              		.loc 1 189 0
 177              		@ sp needed
 178 0012 10BD     		pop	{r4, pc}
 179              	.L15:
 180              		.align	2
 181              	.L14:
 182 0014 00000000 		.word	.LANCHOR0
 183              		.cfi_endproc
 184              	.LFE3:
 185              		.size	motorControlPWM_Wakeup, .-motorControlPWM_Wakeup
 186              		.bss
 187              		.align	2
 188              		.set	.LANCHOR0,. + 0
 189              		.type	motorControlPWM_backup, %object
 190              		.size	motorControlPWM_backup, 4
 191              	motorControlPWM_backup:
 192 0000 00000000 		.space	4
 193              		.text
 194              	.Letext0:
 195              		.file 2 "Generated_Source\\PSoC4\\cytypes.h"
 196              		.file 3 "Generated_Source\\PSoC4\\motorControlPWM.h"