ARM GAS  C:\Users\kylep\AppData\Local\Temp\ccDBFD8h.s 			page 1


   1              		.syntax unified
   2              		.cpu cortex-m0
   3              		.fpu softvfp
   4              		.eabi_attribute 20, 1
   5              		.eabi_attribute 21, 1
   6              		.eabi_attribute 23, 3
   7              		.eabi_attribute 24, 1
   8              		.eabi_attribute 25, 1
   9              		.eabi_attribute 26, 1
  10              		.eabi_attribute 30, 1
  11              		.eabi_attribute 34, 0
  12              		.eabi_attribute 18, 4
  13              		.thumb
  14              		.syntax unified
  15              		.file	"SamplingTimerISR.c"
  16              		.text
  17              	.Ltext0:
  18              		.cfi_sections	.debug_frame
  19              		.section	.text.SamplingTimerISR_Interrupt,"ax",%progbits
  20              		.align	2
  21              		.global	SamplingTimerISR_Interrupt
  22              		.code	16
  23              		.thumb_func
  24              		.type	SamplingTimerISR_Interrupt, %function
  25              	SamplingTimerISR_Interrupt:
  26              	.LFB35:
  27              		.file 1 "Generated_Source\\PSoC4\\SamplingTimerISR.c"
   1:Generated_Source\PSoC4/SamplingTimerISR.c **** /*******************************************************************************
   2:Generated_Source\PSoC4/SamplingTimerISR.c **** * File Name: SamplingTimerISR.c  
   3:Generated_Source\PSoC4/SamplingTimerISR.c **** * Version 1.70
   4:Generated_Source\PSoC4/SamplingTimerISR.c **** *
   5:Generated_Source\PSoC4/SamplingTimerISR.c **** *  Description:
   6:Generated_Source\PSoC4/SamplingTimerISR.c **** *   API for controlling the state of an interrupt.
   7:Generated_Source\PSoC4/SamplingTimerISR.c **** *
   8:Generated_Source\PSoC4/SamplingTimerISR.c **** *
   9:Generated_Source\PSoC4/SamplingTimerISR.c **** *  Note:
  10:Generated_Source\PSoC4/SamplingTimerISR.c **** *
  11:Generated_Source\PSoC4/SamplingTimerISR.c **** ********************************************************************************
  12:Generated_Source\PSoC4/SamplingTimerISR.c **** * Copyright 2008-2015, Cypress Semiconductor Corporation.  All rights reserved.
  13:Generated_Source\PSoC4/SamplingTimerISR.c **** * You may use this file only in accordance with the license, terms, conditions, 
  14:Generated_Source\PSoC4/SamplingTimerISR.c **** * disclaimers, and limitations in the end user license agreement accompanying 
  15:Generated_Source\PSoC4/SamplingTimerISR.c **** * the software package with which this file was provided.
  16:Generated_Source\PSoC4/SamplingTimerISR.c **** *******************************************************************************/
  17:Generated_Source\PSoC4/SamplingTimerISR.c **** 
  18:Generated_Source\PSoC4/SamplingTimerISR.c **** 
  19:Generated_Source\PSoC4/SamplingTimerISR.c **** #include <cydevice_trm.h>
  20:Generated_Source\PSoC4/SamplingTimerISR.c **** #include <CyLib.h>
  21:Generated_Source\PSoC4/SamplingTimerISR.c **** #include <SamplingTimerISR.h>
  22:Generated_Source\PSoC4/SamplingTimerISR.c **** 
  23:Generated_Source\PSoC4/SamplingTimerISR.c **** 
  24:Generated_Source\PSoC4/SamplingTimerISR.c **** #if !defined(SamplingTimerISR__REMOVED) /* Check for removal by optimization */
  25:Generated_Source\PSoC4/SamplingTimerISR.c **** 
  26:Generated_Source\PSoC4/SamplingTimerISR.c **** /*******************************************************************************
  27:Generated_Source\PSoC4/SamplingTimerISR.c **** *  Place your includes, defines and code here 
  28:Generated_Source\PSoC4/SamplingTimerISR.c **** ********************************************************************************/
  29:Generated_Source\PSoC4/SamplingTimerISR.c **** /* `#START SamplingTimerISR_intc` */
  30:Generated_Source\PSoC4/SamplingTimerISR.c **** 
ARM GAS  C:\Users\kylep\AppData\Local\Temp\ccDBFD8h.s 			page 2


  31:Generated_Source\PSoC4/SamplingTimerISR.c **** #include "TemperatureCommManager.h"
  32:Generated_Source\PSoC4/SamplingTimerISR.c **** 
  33:Generated_Source\PSoC4/SamplingTimerISR.c **** /* `#END` */
  34:Generated_Source\PSoC4/SamplingTimerISR.c **** 
  35:Generated_Source\PSoC4/SamplingTimerISR.c **** extern cyisraddress CyRamVectors[CYINT_IRQ_BASE + CY_NUM_INTERRUPTS];
  36:Generated_Source\PSoC4/SamplingTimerISR.c **** 
  37:Generated_Source\PSoC4/SamplingTimerISR.c **** /* Declared in startup, used to set unused interrupts to. */
  38:Generated_Source\PSoC4/SamplingTimerISR.c **** CY_ISR_PROTO(IntDefaultHandler);
  39:Generated_Source\PSoC4/SamplingTimerISR.c **** 
  40:Generated_Source\PSoC4/SamplingTimerISR.c **** 
  41:Generated_Source\PSoC4/SamplingTimerISR.c **** /*******************************************************************************
  42:Generated_Source\PSoC4/SamplingTimerISR.c **** * Function Name: SamplingTimerISR_Start
  43:Generated_Source\PSoC4/SamplingTimerISR.c **** ********************************************************************************
  44:Generated_Source\PSoC4/SamplingTimerISR.c **** *
  45:Generated_Source\PSoC4/SamplingTimerISR.c **** * Summary:
  46:Generated_Source\PSoC4/SamplingTimerISR.c **** *  Set up the interrupt and enable it. This function disables the interrupt, 
  47:Generated_Source\PSoC4/SamplingTimerISR.c **** *  sets the default interrupt vector, sets the priority from the value in the
  48:Generated_Source\PSoC4/SamplingTimerISR.c **** *  Design Wide Resources Interrupt Editor, then enables the interrupt to the 
  49:Generated_Source\PSoC4/SamplingTimerISR.c **** *  interrupt controller.
  50:Generated_Source\PSoC4/SamplingTimerISR.c **** *
  51:Generated_Source\PSoC4/SamplingTimerISR.c **** * Parameters:  
  52:Generated_Source\PSoC4/SamplingTimerISR.c **** *   None
  53:Generated_Source\PSoC4/SamplingTimerISR.c **** *
  54:Generated_Source\PSoC4/SamplingTimerISR.c **** * Return:
  55:Generated_Source\PSoC4/SamplingTimerISR.c **** *   None
  56:Generated_Source\PSoC4/SamplingTimerISR.c **** *
  57:Generated_Source\PSoC4/SamplingTimerISR.c **** *******************************************************************************/
  58:Generated_Source\PSoC4/SamplingTimerISR.c **** void SamplingTimerISR_Start(void)
  59:Generated_Source\PSoC4/SamplingTimerISR.c **** {
  60:Generated_Source\PSoC4/SamplingTimerISR.c ****     /* For all we know the interrupt is active. */
  61:Generated_Source\PSoC4/SamplingTimerISR.c ****     SamplingTimerISR_Disable();
  62:Generated_Source\PSoC4/SamplingTimerISR.c **** 
  63:Generated_Source\PSoC4/SamplingTimerISR.c ****     /* Set the ISR to point to the SamplingTimerISR Interrupt. */
  64:Generated_Source\PSoC4/SamplingTimerISR.c ****     SamplingTimerISR_SetVector(&SamplingTimerISR_Interrupt);
  65:Generated_Source\PSoC4/SamplingTimerISR.c **** 
  66:Generated_Source\PSoC4/SamplingTimerISR.c ****     /* Set the priority. */
  67:Generated_Source\PSoC4/SamplingTimerISR.c ****     SamplingTimerISR_SetPriority((uint8)SamplingTimerISR_INTC_PRIOR_NUMBER);
  68:Generated_Source\PSoC4/SamplingTimerISR.c **** 
  69:Generated_Source\PSoC4/SamplingTimerISR.c ****     /* Enable it. */
  70:Generated_Source\PSoC4/SamplingTimerISR.c ****     SamplingTimerISR_Enable();
  71:Generated_Source\PSoC4/SamplingTimerISR.c **** }
  72:Generated_Source\PSoC4/SamplingTimerISR.c **** 
  73:Generated_Source\PSoC4/SamplingTimerISR.c **** 
  74:Generated_Source\PSoC4/SamplingTimerISR.c **** /*******************************************************************************
  75:Generated_Source\PSoC4/SamplingTimerISR.c **** * Function Name: SamplingTimerISR_StartEx
  76:Generated_Source\PSoC4/SamplingTimerISR.c **** ********************************************************************************
  77:Generated_Source\PSoC4/SamplingTimerISR.c **** *
  78:Generated_Source\PSoC4/SamplingTimerISR.c **** * Summary:
  79:Generated_Source\PSoC4/SamplingTimerISR.c **** *  Sets up the interrupt and enables it. This function disables the interrupt,
  80:Generated_Source\PSoC4/SamplingTimerISR.c **** *  sets the interrupt vector based on the address passed in, sets the priority 
  81:Generated_Source\PSoC4/SamplingTimerISR.c **** *  from the value in the Design Wide Resources Interrupt Editor, then enables 
  82:Generated_Source\PSoC4/SamplingTimerISR.c **** *  the interrupt to the interrupt controller.
  83:Generated_Source\PSoC4/SamplingTimerISR.c **** *  
  84:Generated_Source\PSoC4/SamplingTimerISR.c **** *  When defining ISR functions, the CY_ISR and CY_ISR_PROTO macros should be 
  85:Generated_Source\PSoC4/SamplingTimerISR.c **** *  used to provide consistent definition across compilers:
  86:Generated_Source\PSoC4/SamplingTimerISR.c **** *  
  87:Generated_Source\PSoC4/SamplingTimerISR.c **** *  Function definition example:
ARM GAS  C:\Users\kylep\AppData\Local\Temp\ccDBFD8h.s 			page 3


  88:Generated_Source\PSoC4/SamplingTimerISR.c **** *   CY_ISR(MyISR)
  89:Generated_Source\PSoC4/SamplingTimerISR.c **** *   {
  90:Generated_Source\PSoC4/SamplingTimerISR.c **** *   }
  91:Generated_Source\PSoC4/SamplingTimerISR.c **** *   Function prototype example:
  92:Generated_Source\PSoC4/SamplingTimerISR.c **** *   CY_ISR_PROTO(MyISR);
  93:Generated_Source\PSoC4/SamplingTimerISR.c **** *
  94:Generated_Source\PSoC4/SamplingTimerISR.c **** * Parameters:  
  95:Generated_Source\PSoC4/SamplingTimerISR.c **** *   address: Address of the ISR to set in the interrupt vector table.
  96:Generated_Source\PSoC4/SamplingTimerISR.c **** *
  97:Generated_Source\PSoC4/SamplingTimerISR.c **** * Return:
  98:Generated_Source\PSoC4/SamplingTimerISR.c **** *   None
  99:Generated_Source\PSoC4/SamplingTimerISR.c **** *
 100:Generated_Source\PSoC4/SamplingTimerISR.c **** *******************************************************************************/
 101:Generated_Source\PSoC4/SamplingTimerISR.c **** void SamplingTimerISR_StartEx(cyisraddress address)
 102:Generated_Source\PSoC4/SamplingTimerISR.c **** {
 103:Generated_Source\PSoC4/SamplingTimerISR.c ****     /* For all we know the interrupt is active. */
 104:Generated_Source\PSoC4/SamplingTimerISR.c ****     SamplingTimerISR_Disable();
 105:Generated_Source\PSoC4/SamplingTimerISR.c **** 
 106:Generated_Source\PSoC4/SamplingTimerISR.c ****     /* Set the ISR to point to the SamplingTimerISR Interrupt. */
 107:Generated_Source\PSoC4/SamplingTimerISR.c ****     SamplingTimerISR_SetVector(address);
 108:Generated_Source\PSoC4/SamplingTimerISR.c **** 
 109:Generated_Source\PSoC4/SamplingTimerISR.c ****     /* Set the priority. */
 110:Generated_Source\PSoC4/SamplingTimerISR.c ****     SamplingTimerISR_SetPriority((uint8)SamplingTimerISR_INTC_PRIOR_NUMBER);
 111:Generated_Source\PSoC4/SamplingTimerISR.c **** 
 112:Generated_Source\PSoC4/SamplingTimerISR.c ****     /* Enable it. */
 113:Generated_Source\PSoC4/SamplingTimerISR.c ****     SamplingTimerISR_Enable();
 114:Generated_Source\PSoC4/SamplingTimerISR.c **** }
 115:Generated_Source\PSoC4/SamplingTimerISR.c **** 
 116:Generated_Source\PSoC4/SamplingTimerISR.c **** 
 117:Generated_Source\PSoC4/SamplingTimerISR.c **** /*******************************************************************************
 118:Generated_Source\PSoC4/SamplingTimerISR.c **** * Function Name: SamplingTimerISR_Stop
 119:Generated_Source\PSoC4/SamplingTimerISR.c **** ********************************************************************************
 120:Generated_Source\PSoC4/SamplingTimerISR.c **** *
 121:Generated_Source\PSoC4/SamplingTimerISR.c **** * Summary:
 122:Generated_Source\PSoC4/SamplingTimerISR.c **** *   Disables and removes the interrupt.
 123:Generated_Source\PSoC4/SamplingTimerISR.c **** *
 124:Generated_Source\PSoC4/SamplingTimerISR.c **** * Parameters:  
 125:Generated_Source\PSoC4/SamplingTimerISR.c **** *   None
 126:Generated_Source\PSoC4/SamplingTimerISR.c **** *
 127:Generated_Source\PSoC4/SamplingTimerISR.c **** * Return:
 128:Generated_Source\PSoC4/SamplingTimerISR.c **** *   None
 129:Generated_Source\PSoC4/SamplingTimerISR.c **** *
 130:Generated_Source\PSoC4/SamplingTimerISR.c **** *******************************************************************************/
 131:Generated_Source\PSoC4/SamplingTimerISR.c **** void SamplingTimerISR_Stop(void)
 132:Generated_Source\PSoC4/SamplingTimerISR.c **** {
 133:Generated_Source\PSoC4/SamplingTimerISR.c ****     /* Disable this interrupt. */
 134:Generated_Source\PSoC4/SamplingTimerISR.c ****     SamplingTimerISR_Disable();
 135:Generated_Source\PSoC4/SamplingTimerISR.c **** 
 136:Generated_Source\PSoC4/SamplingTimerISR.c ****     /* Set the ISR to point to the passive one. */
 137:Generated_Source\PSoC4/SamplingTimerISR.c ****     SamplingTimerISR_SetVector(&IntDefaultHandler);
 138:Generated_Source\PSoC4/SamplingTimerISR.c **** }
 139:Generated_Source\PSoC4/SamplingTimerISR.c **** 
 140:Generated_Source\PSoC4/SamplingTimerISR.c **** 
 141:Generated_Source\PSoC4/SamplingTimerISR.c **** /*******************************************************************************
 142:Generated_Source\PSoC4/SamplingTimerISR.c **** * Function Name: SamplingTimerISR_Interrupt
 143:Generated_Source\PSoC4/SamplingTimerISR.c **** ********************************************************************************
 144:Generated_Source\PSoC4/SamplingTimerISR.c **** *
ARM GAS  C:\Users\kylep\AppData\Local\Temp\ccDBFD8h.s 			page 4


 145:Generated_Source\PSoC4/SamplingTimerISR.c **** * Summary:
 146:Generated_Source\PSoC4/SamplingTimerISR.c **** *   The default Interrupt Service Routine for SamplingTimerISR.
 147:Generated_Source\PSoC4/SamplingTimerISR.c **** *
 148:Generated_Source\PSoC4/SamplingTimerISR.c **** *   Add custom code between the START and END comments to keep the next version
 149:Generated_Source\PSoC4/SamplingTimerISR.c **** *   of this file from over-writing your code.
 150:Generated_Source\PSoC4/SamplingTimerISR.c **** *
 151:Generated_Source\PSoC4/SamplingTimerISR.c **** *   Note You may use either the default ISR by using this API, or you may define
 152:Generated_Source\PSoC4/SamplingTimerISR.c **** *   your own separate ISR through ISR_StartEx().
 153:Generated_Source\PSoC4/SamplingTimerISR.c **** *
 154:Generated_Source\PSoC4/SamplingTimerISR.c **** * Parameters:  
 155:Generated_Source\PSoC4/SamplingTimerISR.c **** *   None
 156:Generated_Source\PSoC4/SamplingTimerISR.c **** *
 157:Generated_Source\PSoC4/SamplingTimerISR.c **** * Return:
 158:Generated_Source\PSoC4/SamplingTimerISR.c **** *   None
 159:Generated_Source\PSoC4/SamplingTimerISR.c **** *
 160:Generated_Source\PSoC4/SamplingTimerISR.c **** *******************************************************************************/
 161:Generated_Source\PSoC4/SamplingTimerISR.c **** CY_ISR(SamplingTimerISR_Interrupt)
 162:Generated_Source\PSoC4/SamplingTimerISR.c **** {
  28              		.loc 1 162 0
  29              		.cfi_startproc
  30              		@ args = 0, pretend = 0, frame = 0
  31              		@ frame_needed = 0, uses_anonymous_args = 0
  32 0000 10B5     		push	{r4, lr}
  33              		.cfi_def_cfa_offset 8
  34              		.cfi_offset 4, -8
  35              		.cfi_offset 14, -4
 163:Generated_Source\PSoC4/SamplingTimerISR.c ****     #ifdef SamplingTimerISR_INTERRUPT_INTERRUPT_CALLBACK
 164:Generated_Source\PSoC4/SamplingTimerISR.c ****         SamplingTimerISR_Interrupt_InterruptCallback();
 165:Generated_Source\PSoC4/SamplingTimerISR.c ****     #endif /* SamplingTimerISR_INTERRUPT_INTERRUPT_CALLBACK */ 
 166:Generated_Source\PSoC4/SamplingTimerISR.c **** 
 167:Generated_Source\PSoC4/SamplingTimerISR.c ****     /*  Place your Interrupt code here. */
 168:Generated_Source\PSoC4/SamplingTimerISR.c ****     /* `#START SamplingTimerISR_Interrupt` */
 169:Generated_Source\PSoC4/SamplingTimerISR.c **** 
 170:Generated_Source\PSoC4/SamplingTimerISR.c ****     
 171:Generated_Source\PSoC4/SamplingTimerISR.c ****     
 172:Generated_Source\PSoC4/SamplingTimerISR.c ****     processSamplingTimerRoutine();
  36              		.loc 1 172 0
  37 0002 FFF7FEFF 		bl	processSamplingTimerRoutine
  38              	.LVL0:
 173:Generated_Source\PSoC4/SamplingTimerISR.c ****     
 174:Generated_Source\PSoC4/SamplingTimerISR.c ****     /* `#END` */
 175:Generated_Source\PSoC4/SamplingTimerISR.c **** }
  39              		.loc 1 175 0
  40              		@ sp needed
  41 0006 10BD     		pop	{r4, pc}
  42              		.cfi_endproc
  43              	.LFE35:
  44              		.size	SamplingTimerISR_Interrupt, .-SamplingTimerISR_Interrupt
  45              		.section	.text.SamplingTimerISR_SetVector,"ax",%progbits
  46              		.align	2
  47              		.global	SamplingTimerISR_SetVector
  48              		.code	16
  49              		.thumb_func
  50              		.type	SamplingTimerISR_SetVector, %function
  51              	SamplingTimerISR_SetVector:
  52              	.LFB36:
 176:Generated_Source\PSoC4/SamplingTimerISR.c **** 
ARM GAS  C:\Users\kylep\AppData\Local\Temp\ccDBFD8h.s 			page 5


 177:Generated_Source\PSoC4/SamplingTimerISR.c **** 
 178:Generated_Source\PSoC4/SamplingTimerISR.c **** /*******************************************************************************
 179:Generated_Source\PSoC4/SamplingTimerISR.c **** * Function Name: SamplingTimerISR_SetVector
 180:Generated_Source\PSoC4/SamplingTimerISR.c **** ********************************************************************************
 181:Generated_Source\PSoC4/SamplingTimerISR.c **** *
 182:Generated_Source\PSoC4/SamplingTimerISR.c **** * Summary:
 183:Generated_Source\PSoC4/SamplingTimerISR.c **** *   Change the ISR vector for the Interrupt. Note calling SamplingTimerISR_Start
 184:Generated_Source\PSoC4/SamplingTimerISR.c **** *   will override any effect this method would have had. To set the vector 
 185:Generated_Source\PSoC4/SamplingTimerISR.c **** *   before the component has been started use SamplingTimerISR_StartEx instead.
 186:Generated_Source\PSoC4/SamplingTimerISR.c **** * 
 187:Generated_Source\PSoC4/SamplingTimerISR.c **** *   When defining ISR functions, the CY_ISR and CY_ISR_PROTO macros should be 
 188:Generated_Source\PSoC4/SamplingTimerISR.c **** *   used to provide consistent definition across compilers:
 189:Generated_Source\PSoC4/SamplingTimerISR.c **** *
 190:Generated_Source\PSoC4/SamplingTimerISR.c **** *   Function definition example:
 191:Generated_Source\PSoC4/SamplingTimerISR.c **** *   CY_ISR(MyISR)
 192:Generated_Source\PSoC4/SamplingTimerISR.c **** *   {
 193:Generated_Source\PSoC4/SamplingTimerISR.c **** *   }
 194:Generated_Source\PSoC4/SamplingTimerISR.c **** *
 195:Generated_Source\PSoC4/SamplingTimerISR.c **** *   Function prototype example:
 196:Generated_Source\PSoC4/SamplingTimerISR.c **** *     CY_ISR_PROTO(MyISR);
 197:Generated_Source\PSoC4/SamplingTimerISR.c **** *
 198:Generated_Source\PSoC4/SamplingTimerISR.c **** * Parameters:
 199:Generated_Source\PSoC4/SamplingTimerISR.c **** *   address: Address of the ISR to set in the interrupt vector table.
 200:Generated_Source\PSoC4/SamplingTimerISR.c **** *
 201:Generated_Source\PSoC4/SamplingTimerISR.c **** * Return:
 202:Generated_Source\PSoC4/SamplingTimerISR.c **** *   None
 203:Generated_Source\PSoC4/SamplingTimerISR.c **** *
 204:Generated_Source\PSoC4/SamplingTimerISR.c **** *******************************************************************************/
 205:Generated_Source\PSoC4/SamplingTimerISR.c **** void SamplingTimerISR_SetVector(cyisraddress address)
 206:Generated_Source\PSoC4/SamplingTimerISR.c **** {
  53              		.loc 1 206 0
  54              		.cfi_startproc
  55              		@ args = 0, pretend = 0, frame = 0
  56              		@ frame_needed = 0, uses_anonymous_args = 0
  57              		@ link register save eliminated.
  58              	.LVL1:
 207:Generated_Source\PSoC4/SamplingTimerISR.c ****     CyRamVectors[CYINT_IRQ_BASE + SamplingTimerISR__INTC_NUMBER] = address;
  59              		.loc 1 207 0
  60 0000 014B     		ldr	r3, .L3
  61 0002 1865     		str	r0, [r3, #80]
 208:Generated_Source\PSoC4/SamplingTimerISR.c **** }
  62              		.loc 1 208 0
  63              		@ sp needed
  64 0004 7047     		bx	lr
  65              	.L4:
  66 0006 C046     		.align	2
  67              	.L3:
  68 0008 00000000 		.word	CyRamVectors
  69              		.cfi_endproc
  70              	.LFE36:
  71              		.size	SamplingTimerISR_SetVector, .-SamplingTimerISR_SetVector
  72              		.section	.text.SamplingTimerISR_GetVector,"ax",%progbits
  73              		.align	2
  74              		.global	SamplingTimerISR_GetVector
  75              		.code	16
  76              		.thumb_func
  77              		.type	SamplingTimerISR_GetVector, %function
ARM GAS  C:\Users\kylep\AppData\Local\Temp\ccDBFD8h.s 			page 6


  78              	SamplingTimerISR_GetVector:
  79              	.LFB37:
 209:Generated_Source\PSoC4/SamplingTimerISR.c **** 
 210:Generated_Source\PSoC4/SamplingTimerISR.c **** 
 211:Generated_Source\PSoC4/SamplingTimerISR.c **** /*******************************************************************************
 212:Generated_Source\PSoC4/SamplingTimerISR.c **** * Function Name: SamplingTimerISR_GetVector
 213:Generated_Source\PSoC4/SamplingTimerISR.c **** ********************************************************************************
 214:Generated_Source\PSoC4/SamplingTimerISR.c **** *
 215:Generated_Source\PSoC4/SamplingTimerISR.c **** * Summary:
 216:Generated_Source\PSoC4/SamplingTimerISR.c **** *   Gets the "address" of the current ISR vector for the Interrupt.
 217:Generated_Source\PSoC4/SamplingTimerISR.c **** *
 218:Generated_Source\PSoC4/SamplingTimerISR.c **** * Parameters:
 219:Generated_Source\PSoC4/SamplingTimerISR.c **** *   None
 220:Generated_Source\PSoC4/SamplingTimerISR.c **** *
 221:Generated_Source\PSoC4/SamplingTimerISR.c **** * Return:
 222:Generated_Source\PSoC4/SamplingTimerISR.c **** *   Address of the ISR in the interrupt vector table.
 223:Generated_Source\PSoC4/SamplingTimerISR.c **** *
 224:Generated_Source\PSoC4/SamplingTimerISR.c **** *******************************************************************************/
 225:Generated_Source\PSoC4/SamplingTimerISR.c **** cyisraddress SamplingTimerISR_GetVector(void)
 226:Generated_Source\PSoC4/SamplingTimerISR.c **** {
  80              		.loc 1 226 0
  81              		.cfi_startproc
  82              		@ args = 0, pretend = 0, frame = 0
  83              		@ frame_needed = 0, uses_anonymous_args = 0
  84              		@ link register save eliminated.
 227:Generated_Source\PSoC4/SamplingTimerISR.c ****     return CyRamVectors[CYINT_IRQ_BASE + SamplingTimerISR__INTC_NUMBER];
  85              		.loc 1 227 0
  86 0000 014B     		ldr	r3, .L6
  87 0002 186D     		ldr	r0, [r3, #80]
 228:Generated_Source\PSoC4/SamplingTimerISR.c **** }
  88              		.loc 1 228 0
  89              		@ sp needed
  90 0004 7047     		bx	lr
  91              	.L7:
  92 0006 C046     		.align	2
  93              	.L6:
  94 0008 00000000 		.word	CyRamVectors
  95              		.cfi_endproc
  96              	.LFE37:
  97              		.size	SamplingTimerISR_GetVector, .-SamplingTimerISR_GetVector
  98              		.section	.text.SamplingTimerISR_SetPriority,"ax",%progbits
  99              		.align	2
 100              		.global	SamplingTimerISR_SetPriority
 101              		.code	16
 102              		.thumb_func
 103              		.type	SamplingTimerISR_SetPriority, %function
 104              	SamplingTimerISR_SetPriority:
 105              	.LFB38:
 229:Generated_Source\PSoC4/SamplingTimerISR.c **** 
 230:Generated_Source\PSoC4/SamplingTimerISR.c **** 
 231:Generated_Source\PSoC4/SamplingTimerISR.c **** /*******************************************************************************
 232:Generated_Source\PSoC4/SamplingTimerISR.c **** * Function Name: SamplingTimerISR_SetPriority
 233:Generated_Source\PSoC4/SamplingTimerISR.c **** ********************************************************************************
 234:Generated_Source\PSoC4/SamplingTimerISR.c **** *
 235:Generated_Source\PSoC4/SamplingTimerISR.c **** * Summary:
 236:Generated_Source\PSoC4/SamplingTimerISR.c **** *   Sets the Priority of the Interrupt. 
 237:Generated_Source\PSoC4/SamplingTimerISR.c **** *
ARM GAS  C:\Users\kylep\AppData\Local\Temp\ccDBFD8h.s 			page 7


 238:Generated_Source\PSoC4/SamplingTimerISR.c **** *   Note calling SamplingTimerISR_Start or SamplingTimerISR_StartEx will 
 239:Generated_Source\PSoC4/SamplingTimerISR.c **** *   override any effect this API would have had. This API should only be called
 240:Generated_Source\PSoC4/SamplingTimerISR.c **** *   after SamplingTimerISR_Start or SamplingTimerISR_StartEx has been called. 
 241:Generated_Source\PSoC4/SamplingTimerISR.c **** *   To set the initial priority for the component, use the Design-Wide Resources
 242:Generated_Source\PSoC4/SamplingTimerISR.c **** *   Interrupt Editor.
 243:Generated_Source\PSoC4/SamplingTimerISR.c **** *
 244:Generated_Source\PSoC4/SamplingTimerISR.c **** *   Note This API has no effect on Non-maskable interrupt NMI).
 245:Generated_Source\PSoC4/SamplingTimerISR.c **** *
 246:Generated_Source\PSoC4/SamplingTimerISR.c **** * Parameters:
 247:Generated_Source\PSoC4/SamplingTimerISR.c **** *   priority: Priority of the interrupt, 0 being the highest priority
 248:Generated_Source\PSoC4/SamplingTimerISR.c **** *             PSoC 3 and PSoC 5LP: Priority is from 0 to 7.
 249:Generated_Source\PSoC4/SamplingTimerISR.c **** *             PSoC 4: Priority is from 0 to 3.
 250:Generated_Source\PSoC4/SamplingTimerISR.c **** *
 251:Generated_Source\PSoC4/SamplingTimerISR.c **** * Return:
 252:Generated_Source\PSoC4/SamplingTimerISR.c **** *   None
 253:Generated_Source\PSoC4/SamplingTimerISR.c **** *
 254:Generated_Source\PSoC4/SamplingTimerISR.c **** *******************************************************************************/
 255:Generated_Source\PSoC4/SamplingTimerISR.c **** void SamplingTimerISR_SetPriority(uint8 priority)
 256:Generated_Source\PSoC4/SamplingTimerISR.c **** {
 106              		.loc 1 256 0
 107              		.cfi_startproc
 108              		@ args = 0, pretend = 0, frame = 0
 109              		@ frame_needed = 0, uses_anonymous_args = 0
 110              	.LVL2:
 111 0000 10B5     		push	{r4, lr}
 112              		.cfi_def_cfa_offset 8
 113              		.cfi_offset 4, -8
 114              		.cfi_offset 14, -4
 115 0002 0400     		movs	r4, r0
 116              	.LVL3:
 257:Generated_Source\PSoC4/SamplingTimerISR.c **** 	uint8 interruptState;
 258:Generated_Source\PSoC4/SamplingTimerISR.c ****     uint32 priorityOffset = ((SamplingTimerISR__INTC_NUMBER % 4u) * 8u) + 6u;
 259:Generated_Source\PSoC4/SamplingTimerISR.c ****     
 260:Generated_Source\PSoC4/SamplingTimerISR.c **** 	interruptState = CyEnterCriticalSection();
 117              		.loc 1 260 0
 118 0004 FFF7FEFF 		bl	CyEnterCriticalSection
 119              	.LVL4:
 261:Generated_Source\PSoC4/SamplingTimerISR.c ****     *SamplingTimerISR_INTC_PRIOR = (*SamplingTimerISR_INTC_PRIOR & (uint32)(~SamplingTimerISR__INTC
 120              		.loc 1 261 0
 121 0008 044A     		ldr	r2, .L9
 122 000a 1368     		ldr	r3, [r2]
 123 000c C021     		movs	r1, #192
 124 000e 8B43     		bics	r3, r1
 262:Generated_Source\PSoC4/SamplingTimerISR.c ****                                     ((uint32)priority << priorityOffset);
 125              		.loc 1 262 0
 126 0010 A401     		lsls	r4, r4, #6
 261:Generated_Source\PSoC4/SamplingTimerISR.c ****     *SamplingTimerISR_INTC_PRIOR = (*SamplingTimerISR_INTC_PRIOR & (uint32)(~SamplingTimerISR__INTC
 127              		.loc 1 261 0
 128 0012 1C43     		orrs	r4, r3
 129 0014 1460     		str	r4, [r2]
 263:Generated_Source\PSoC4/SamplingTimerISR.c **** 	CyExitCriticalSection(interruptState);
 130              		.loc 1 263 0
 131 0016 FFF7FEFF 		bl	CyExitCriticalSection
 132              	.LVL5:
 264:Generated_Source\PSoC4/SamplingTimerISR.c **** }
 133              		.loc 1 264 0
 134              		@ sp needed
ARM GAS  C:\Users\kylep\AppData\Local\Temp\ccDBFD8h.s 			page 8


 135 001a 10BD     		pop	{r4, pc}
 136              	.L10:
 137              		.align	2
 138              	.L9:
 139 001c 04E400E0 		.word	-536812540
 140              		.cfi_endproc
 141              	.LFE38:
 142              		.size	SamplingTimerISR_SetPriority, .-SamplingTimerISR_SetPriority
 143              		.section	.text.SamplingTimerISR_GetPriority,"ax",%progbits
 144              		.align	2
 145              		.global	SamplingTimerISR_GetPriority
 146              		.code	16
 147              		.thumb_func
 148              		.type	SamplingTimerISR_GetPriority, %function
 149              	SamplingTimerISR_GetPriority:
 150              	.LFB39:
 265:Generated_Source\PSoC4/SamplingTimerISR.c **** 
 266:Generated_Source\PSoC4/SamplingTimerISR.c **** 
 267:Generated_Source\PSoC4/SamplingTimerISR.c **** /*******************************************************************************
 268:Generated_Source\PSoC4/SamplingTimerISR.c **** * Function Name: SamplingTimerISR_GetPriority
 269:Generated_Source\PSoC4/SamplingTimerISR.c **** ********************************************************************************
 270:Generated_Source\PSoC4/SamplingTimerISR.c **** *
 271:Generated_Source\PSoC4/SamplingTimerISR.c **** * Summary:
 272:Generated_Source\PSoC4/SamplingTimerISR.c **** *   Gets the Priority of the Interrupt.
 273:Generated_Source\PSoC4/SamplingTimerISR.c **** *
 274:Generated_Source\PSoC4/SamplingTimerISR.c **** * Parameters:
 275:Generated_Source\PSoC4/SamplingTimerISR.c **** *   None
 276:Generated_Source\PSoC4/SamplingTimerISR.c **** *
 277:Generated_Source\PSoC4/SamplingTimerISR.c **** * Return:
 278:Generated_Source\PSoC4/SamplingTimerISR.c **** *   Priority of the interrupt, 0 being the highest priority
 279:Generated_Source\PSoC4/SamplingTimerISR.c **** *    PSoC 3 and PSoC 5LP: Priority is from 0 to 7.
 280:Generated_Source\PSoC4/SamplingTimerISR.c **** *    PSoC 4: Priority is from 0 to 3.
 281:Generated_Source\PSoC4/SamplingTimerISR.c **** *
 282:Generated_Source\PSoC4/SamplingTimerISR.c **** *******************************************************************************/
 283:Generated_Source\PSoC4/SamplingTimerISR.c **** uint8 SamplingTimerISR_GetPriority(void)
 284:Generated_Source\PSoC4/SamplingTimerISR.c **** {
 151              		.loc 1 284 0
 152              		.cfi_startproc
 153              		@ args = 0, pretend = 0, frame = 0
 154              		@ frame_needed = 0, uses_anonymous_args = 0
 155              		@ link register save eliminated.
 156              	.LVL6:
 285:Generated_Source\PSoC4/SamplingTimerISR.c ****     uint32 priority;
 286:Generated_Source\PSoC4/SamplingTimerISR.c **** 	uint32 priorityOffset = ((SamplingTimerISR__INTC_NUMBER % 4u) * 8u) + 6u;
 287:Generated_Source\PSoC4/SamplingTimerISR.c **** 
 288:Generated_Source\PSoC4/SamplingTimerISR.c ****     priority = (*SamplingTimerISR_INTC_PRIOR & SamplingTimerISR__INTC_PRIOR_MASK) >> priorityOffset
 157              		.loc 1 288 0
 158 0000 024B     		ldr	r3, .L12
 159 0002 1868     		ldr	r0, [r3]
 160 0004 8009     		lsrs	r0, r0, #6
 161              	.LVL7:
 289:Generated_Source\PSoC4/SamplingTimerISR.c **** 
 290:Generated_Source\PSoC4/SamplingTimerISR.c ****     return (uint8)priority;
 162              		.loc 1 290 0
 163 0006 0323     		movs	r3, #3
 164 0008 1840     		ands	r0, r3
 165              	.LVL8:
ARM GAS  C:\Users\kylep\AppData\Local\Temp\ccDBFD8h.s 			page 9


 291:Generated_Source\PSoC4/SamplingTimerISR.c **** }
 166              		.loc 1 291 0
 167              		@ sp needed
 168 000a 7047     		bx	lr
 169              	.L13:
 170              		.align	2
 171              	.L12:
 172 000c 04E400E0 		.word	-536812540
 173              		.cfi_endproc
 174              	.LFE39:
 175              		.size	SamplingTimerISR_GetPriority, .-SamplingTimerISR_GetPriority
 176              		.section	.text.SamplingTimerISR_Enable,"ax",%progbits
 177              		.align	2
 178              		.global	SamplingTimerISR_Enable
 179              		.code	16
 180              		.thumb_func
 181              		.type	SamplingTimerISR_Enable, %function
 182              	SamplingTimerISR_Enable:
 183              	.LFB40:
 292:Generated_Source\PSoC4/SamplingTimerISR.c **** 
 293:Generated_Source\PSoC4/SamplingTimerISR.c **** 
 294:Generated_Source\PSoC4/SamplingTimerISR.c **** /*******************************************************************************
 295:Generated_Source\PSoC4/SamplingTimerISR.c **** * Function Name: SamplingTimerISR_Enable
 296:Generated_Source\PSoC4/SamplingTimerISR.c **** ********************************************************************************
 297:Generated_Source\PSoC4/SamplingTimerISR.c **** *
 298:Generated_Source\PSoC4/SamplingTimerISR.c **** * Summary:
 299:Generated_Source\PSoC4/SamplingTimerISR.c **** *   Enables the interrupt to the interrupt controller. Do not call this function
 300:Generated_Source\PSoC4/SamplingTimerISR.c **** *   unless ISR_Start() has been called or the functionality of the ISR_Start() 
 301:Generated_Source\PSoC4/SamplingTimerISR.c **** *   function, which sets the vector and the priority, has been called.
 302:Generated_Source\PSoC4/SamplingTimerISR.c **** *
 303:Generated_Source\PSoC4/SamplingTimerISR.c **** * Parameters:
 304:Generated_Source\PSoC4/SamplingTimerISR.c **** *   None
 305:Generated_Source\PSoC4/SamplingTimerISR.c **** *
 306:Generated_Source\PSoC4/SamplingTimerISR.c **** * Return:
 307:Generated_Source\PSoC4/SamplingTimerISR.c **** *   None
 308:Generated_Source\PSoC4/SamplingTimerISR.c **** *
 309:Generated_Source\PSoC4/SamplingTimerISR.c **** *******************************************************************************/
 310:Generated_Source\PSoC4/SamplingTimerISR.c **** void SamplingTimerISR_Enable(void)
 311:Generated_Source\PSoC4/SamplingTimerISR.c **** {
 184              		.loc 1 311 0
 185              		.cfi_startproc
 186              		@ args = 0, pretend = 0, frame = 0
 187              		@ frame_needed = 0, uses_anonymous_args = 0
 188              		@ link register save eliminated.
 312:Generated_Source\PSoC4/SamplingTimerISR.c ****     /* Enable the general interrupt. */
 313:Generated_Source\PSoC4/SamplingTimerISR.c ****     *SamplingTimerISR_INTC_SET_EN = SamplingTimerISR__INTC_MASK;
 189              		.loc 1 313 0
 190 0000 1022     		movs	r2, #16
 191 0002 014B     		ldr	r3, .L15
 192 0004 1A60     		str	r2, [r3]
 314:Generated_Source\PSoC4/SamplingTimerISR.c **** }
 193              		.loc 1 314 0
 194              		@ sp needed
 195 0006 7047     		bx	lr
 196              	.L16:
 197              		.align	2
 198              	.L15:
ARM GAS  C:\Users\kylep\AppData\Local\Temp\ccDBFD8h.s 			page 10


 199 0008 00E100E0 		.word	-536813312
 200              		.cfi_endproc
 201              	.LFE40:
 202              		.size	SamplingTimerISR_Enable, .-SamplingTimerISR_Enable
 203              		.section	.text.SamplingTimerISR_GetState,"ax",%progbits
 204              		.align	2
 205              		.global	SamplingTimerISR_GetState
 206              		.code	16
 207              		.thumb_func
 208              		.type	SamplingTimerISR_GetState, %function
 209              	SamplingTimerISR_GetState:
 210              	.LFB41:
 315:Generated_Source\PSoC4/SamplingTimerISR.c **** 
 316:Generated_Source\PSoC4/SamplingTimerISR.c **** 
 317:Generated_Source\PSoC4/SamplingTimerISR.c **** /*******************************************************************************
 318:Generated_Source\PSoC4/SamplingTimerISR.c **** * Function Name: SamplingTimerISR_GetState
 319:Generated_Source\PSoC4/SamplingTimerISR.c **** ********************************************************************************
 320:Generated_Source\PSoC4/SamplingTimerISR.c **** *
 321:Generated_Source\PSoC4/SamplingTimerISR.c **** * Summary:
 322:Generated_Source\PSoC4/SamplingTimerISR.c **** *   Gets the state (enabled, disabled) of the Interrupt.
 323:Generated_Source\PSoC4/SamplingTimerISR.c **** *
 324:Generated_Source\PSoC4/SamplingTimerISR.c **** * Parameters:
 325:Generated_Source\PSoC4/SamplingTimerISR.c **** *   None
 326:Generated_Source\PSoC4/SamplingTimerISR.c **** *
 327:Generated_Source\PSoC4/SamplingTimerISR.c **** * Return:
 328:Generated_Source\PSoC4/SamplingTimerISR.c **** *   1 if enabled, 0 if disabled.
 329:Generated_Source\PSoC4/SamplingTimerISR.c **** *
 330:Generated_Source\PSoC4/SamplingTimerISR.c **** *******************************************************************************/
 331:Generated_Source\PSoC4/SamplingTimerISR.c **** uint8 SamplingTimerISR_GetState(void)
 332:Generated_Source\PSoC4/SamplingTimerISR.c **** {
 211              		.loc 1 332 0
 212              		.cfi_startproc
 213              		@ args = 0, pretend = 0, frame = 0
 214              		@ frame_needed = 0, uses_anonymous_args = 0
 215              		@ link register save eliminated.
 333:Generated_Source\PSoC4/SamplingTimerISR.c ****     /* Get the state of the general interrupt. */
 334:Generated_Source\PSoC4/SamplingTimerISR.c ****     return ((*SamplingTimerISR_INTC_SET_EN & (uint32)SamplingTimerISR__INTC_MASK) != 0u) ? 1u:0u;
 216              		.loc 1 334 0
 217 0000 034B     		ldr	r3, .L20
 218 0002 1B68     		ldr	r3, [r3]
 219 0004 DB06     		lsls	r3, r3, #27
 220 0006 01D5     		bpl	.L19
 221 0008 0120     		movs	r0, #1
 222 000a 00E0     		b	.L18
 223              	.L19:
 224 000c 0020     		movs	r0, #0
 225              	.L18:
 335:Generated_Source\PSoC4/SamplingTimerISR.c **** }
 226              		.loc 1 335 0 discriminator 4
 227              		@ sp needed
 228 000e 7047     		bx	lr
 229              	.L21:
 230              		.align	2
 231              	.L20:
 232 0010 00E100E0 		.word	-536813312
 233              		.cfi_endproc
 234              	.LFE41:
ARM GAS  C:\Users\kylep\AppData\Local\Temp\ccDBFD8h.s 			page 11


 235              		.size	SamplingTimerISR_GetState, .-SamplingTimerISR_GetState
 236              		.section	.text.SamplingTimerISR_Disable,"ax",%progbits
 237              		.align	2
 238              		.global	SamplingTimerISR_Disable
 239              		.code	16
 240              		.thumb_func
 241              		.type	SamplingTimerISR_Disable, %function
 242              	SamplingTimerISR_Disable:
 243              	.LFB42:
 336:Generated_Source\PSoC4/SamplingTimerISR.c **** 
 337:Generated_Source\PSoC4/SamplingTimerISR.c **** 
 338:Generated_Source\PSoC4/SamplingTimerISR.c **** /*******************************************************************************
 339:Generated_Source\PSoC4/SamplingTimerISR.c **** * Function Name: SamplingTimerISR_Disable
 340:Generated_Source\PSoC4/SamplingTimerISR.c **** ********************************************************************************
 341:Generated_Source\PSoC4/SamplingTimerISR.c **** *
 342:Generated_Source\PSoC4/SamplingTimerISR.c **** * Summary:
 343:Generated_Source\PSoC4/SamplingTimerISR.c **** *   Disables the Interrupt in the interrupt controller.
 344:Generated_Source\PSoC4/SamplingTimerISR.c **** *
 345:Generated_Source\PSoC4/SamplingTimerISR.c **** * Parameters:
 346:Generated_Source\PSoC4/SamplingTimerISR.c **** *   None
 347:Generated_Source\PSoC4/SamplingTimerISR.c **** *
 348:Generated_Source\PSoC4/SamplingTimerISR.c **** * Return:
 349:Generated_Source\PSoC4/SamplingTimerISR.c **** *   None
 350:Generated_Source\PSoC4/SamplingTimerISR.c **** *
 351:Generated_Source\PSoC4/SamplingTimerISR.c **** *******************************************************************************/
 352:Generated_Source\PSoC4/SamplingTimerISR.c **** void SamplingTimerISR_Disable(void)
 353:Generated_Source\PSoC4/SamplingTimerISR.c **** {
 244              		.loc 1 353 0
 245              		.cfi_startproc
 246              		@ args = 0, pretend = 0, frame = 0
 247              		@ frame_needed = 0, uses_anonymous_args = 0
 248              		@ link register save eliminated.
 354:Generated_Source\PSoC4/SamplingTimerISR.c ****     /* Disable the general interrupt. */
 355:Generated_Source\PSoC4/SamplingTimerISR.c ****     *SamplingTimerISR_INTC_CLR_EN = SamplingTimerISR__INTC_MASK;
 249              		.loc 1 355 0
 250 0000 1022     		movs	r2, #16
 251 0002 014B     		ldr	r3, .L23
 252 0004 1A60     		str	r2, [r3]
 356:Generated_Source\PSoC4/SamplingTimerISR.c **** }
 253              		.loc 1 356 0
 254              		@ sp needed
 255 0006 7047     		bx	lr
 256              	.L24:
 257              		.align	2
 258              	.L23:
 259 0008 80E100E0 		.word	-536813184
 260              		.cfi_endproc
 261              	.LFE42:
 262              		.size	SamplingTimerISR_Disable, .-SamplingTimerISR_Disable
 263              		.section	.text.SamplingTimerISR_Start,"ax",%progbits
 264              		.align	2
 265              		.global	SamplingTimerISR_Start
 266              		.code	16
 267              		.thumb_func
 268              		.type	SamplingTimerISR_Start, %function
 269              	SamplingTimerISR_Start:
 270              	.LFB32:
ARM GAS  C:\Users\kylep\AppData\Local\Temp\ccDBFD8h.s 			page 12


  59:Generated_Source\PSoC4/SamplingTimerISR.c ****     /* For all we know the interrupt is active. */
 271              		.loc 1 59 0
 272              		.cfi_startproc
 273              		@ args = 0, pretend = 0, frame = 0
 274              		@ frame_needed = 0, uses_anonymous_args = 0
 275 0000 10B5     		push	{r4, lr}
 276              		.cfi_def_cfa_offset 8
 277              		.cfi_offset 4, -8
 278              		.cfi_offset 14, -4
  61:Generated_Source\PSoC4/SamplingTimerISR.c **** 
 279              		.loc 1 61 0
 280 0002 FFF7FEFF 		bl	SamplingTimerISR_Disable
 281              	.LVL9:
  64:Generated_Source\PSoC4/SamplingTimerISR.c **** 
 282              		.loc 1 64 0
 283 0006 0448     		ldr	r0, .L26
 284 0008 FFF7FEFF 		bl	SamplingTimerISR_SetVector
 285              	.LVL10:
  67:Generated_Source\PSoC4/SamplingTimerISR.c **** 
 286              		.loc 1 67 0
 287 000c 0320     		movs	r0, #3
 288 000e FFF7FEFF 		bl	SamplingTimerISR_SetPriority
 289              	.LVL11:
  70:Generated_Source\PSoC4/SamplingTimerISR.c **** }
 290              		.loc 1 70 0
 291 0012 FFF7FEFF 		bl	SamplingTimerISR_Enable
 292              	.LVL12:
  71:Generated_Source\PSoC4/SamplingTimerISR.c **** 
 293              		.loc 1 71 0
 294              		@ sp needed
 295 0016 10BD     		pop	{r4, pc}
 296              	.L27:
 297              		.align	2
 298              	.L26:
 299 0018 00000000 		.word	SamplingTimerISR_Interrupt
 300              		.cfi_endproc
 301              	.LFE32:
 302              		.size	SamplingTimerISR_Start, .-SamplingTimerISR_Start
 303              		.section	.text.SamplingTimerISR_StartEx,"ax",%progbits
 304              		.align	2
 305              		.global	SamplingTimerISR_StartEx
 306              		.code	16
 307              		.thumb_func
 308              		.type	SamplingTimerISR_StartEx, %function
 309              	SamplingTimerISR_StartEx:
 310              	.LFB33:
 102:Generated_Source\PSoC4/SamplingTimerISR.c ****     /* For all we know the interrupt is active. */
 311              		.loc 1 102 0
 312              		.cfi_startproc
 313              		@ args = 0, pretend = 0, frame = 0
 314              		@ frame_needed = 0, uses_anonymous_args = 0
 315              	.LVL13:
 316 0000 10B5     		push	{r4, lr}
 317              		.cfi_def_cfa_offset 8
 318              		.cfi_offset 4, -8
 319              		.cfi_offset 14, -4
 320 0002 0400     		movs	r4, r0
ARM GAS  C:\Users\kylep\AppData\Local\Temp\ccDBFD8h.s 			page 13


 104:Generated_Source\PSoC4/SamplingTimerISR.c **** 
 321              		.loc 1 104 0
 322 0004 FFF7FEFF 		bl	SamplingTimerISR_Disable
 323              	.LVL14:
 107:Generated_Source\PSoC4/SamplingTimerISR.c **** 
 324              		.loc 1 107 0
 325 0008 2000     		movs	r0, r4
 326 000a FFF7FEFF 		bl	SamplingTimerISR_SetVector
 327              	.LVL15:
 110:Generated_Source\PSoC4/SamplingTimerISR.c **** 
 328              		.loc 1 110 0
 329 000e 0320     		movs	r0, #3
 330 0010 FFF7FEFF 		bl	SamplingTimerISR_SetPriority
 331              	.LVL16:
 113:Generated_Source\PSoC4/SamplingTimerISR.c **** }
 332              		.loc 1 113 0
 333 0014 FFF7FEFF 		bl	SamplingTimerISR_Enable
 334              	.LVL17:
 114:Generated_Source\PSoC4/SamplingTimerISR.c **** 
 335              		.loc 1 114 0
 336              		@ sp needed
 337              	.LVL18:
 338 0018 10BD     		pop	{r4, pc}
 339              		.cfi_endproc
 340              	.LFE33:
 341              		.size	SamplingTimerISR_StartEx, .-SamplingTimerISR_StartEx
 342 001a C046     		.section	.text.SamplingTimerISR_Stop,"ax",%progbits
 343              		.align	2
 344              		.global	SamplingTimerISR_Stop
 345              		.code	16
 346              		.thumb_func
 347              		.type	SamplingTimerISR_Stop, %function
 348              	SamplingTimerISR_Stop:
 349              	.LFB34:
 132:Generated_Source\PSoC4/SamplingTimerISR.c ****     /* Disable this interrupt. */
 350              		.loc 1 132 0
 351              		.cfi_startproc
 352              		@ args = 0, pretend = 0, frame = 0
 353              		@ frame_needed = 0, uses_anonymous_args = 0
 354 0000 10B5     		push	{r4, lr}
 355              		.cfi_def_cfa_offset 8
 356              		.cfi_offset 4, -8
 357              		.cfi_offset 14, -4
 134:Generated_Source\PSoC4/SamplingTimerISR.c **** 
 358              		.loc 1 134 0
 359 0002 FFF7FEFF 		bl	SamplingTimerISR_Disable
 360              	.LVL19:
 137:Generated_Source\PSoC4/SamplingTimerISR.c **** }
 361              		.loc 1 137 0
 362 0006 0248     		ldr	r0, .L30
 363 0008 FFF7FEFF 		bl	SamplingTimerISR_SetVector
 364              	.LVL20:
 138:Generated_Source\PSoC4/SamplingTimerISR.c **** 
 365              		.loc 1 138 0
 366              		@ sp needed
 367 000c 10BD     		pop	{r4, pc}
 368              	.L31:
ARM GAS  C:\Users\kylep\AppData\Local\Temp\ccDBFD8h.s 			page 14


 369 000e C046     		.align	2
 370              	.L30:
 371 0010 00000000 		.word	IntDefaultHandler
 372              		.cfi_endproc
 373              	.LFE34:
 374              		.size	SamplingTimerISR_Stop, .-SamplingTimerISR_Stop
 375              		.section	.text.SamplingTimerISR_SetPending,"ax",%progbits
 376              		.align	2
 377              		.global	SamplingTimerISR_SetPending
 378              		.code	16
 379              		.thumb_func
 380              		.type	SamplingTimerISR_SetPending, %function
 381              	SamplingTimerISR_SetPending:
 382              	.LFB43:
 357:Generated_Source\PSoC4/SamplingTimerISR.c **** 
 358:Generated_Source\PSoC4/SamplingTimerISR.c **** 
 359:Generated_Source\PSoC4/SamplingTimerISR.c **** /*******************************************************************************
 360:Generated_Source\PSoC4/SamplingTimerISR.c **** * Function Name: SamplingTimerISR_SetPending
 361:Generated_Source\PSoC4/SamplingTimerISR.c **** ********************************************************************************
 362:Generated_Source\PSoC4/SamplingTimerISR.c **** *
 363:Generated_Source\PSoC4/SamplingTimerISR.c **** * Summary:
 364:Generated_Source\PSoC4/SamplingTimerISR.c **** *   Causes the Interrupt to enter the pending state, a software method of
 365:Generated_Source\PSoC4/SamplingTimerISR.c **** *   generating the interrupt.
 366:Generated_Source\PSoC4/SamplingTimerISR.c **** *
 367:Generated_Source\PSoC4/SamplingTimerISR.c **** * Parameters:
 368:Generated_Source\PSoC4/SamplingTimerISR.c **** *   None
 369:Generated_Source\PSoC4/SamplingTimerISR.c **** *
 370:Generated_Source\PSoC4/SamplingTimerISR.c **** * Return:
 371:Generated_Source\PSoC4/SamplingTimerISR.c **** *   None
 372:Generated_Source\PSoC4/SamplingTimerISR.c **** *
 373:Generated_Source\PSoC4/SamplingTimerISR.c **** * Side Effects:
 374:Generated_Source\PSoC4/SamplingTimerISR.c **** *   If interrupts are enabled and the interrupt is set up properly, the ISR is
 375:Generated_Source\PSoC4/SamplingTimerISR.c **** *   entered (depending on the priority of this interrupt and other pending 
 376:Generated_Source\PSoC4/SamplingTimerISR.c **** *   interrupts).
 377:Generated_Source\PSoC4/SamplingTimerISR.c **** *
 378:Generated_Source\PSoC4/SamplingTimerISR.c **** *******************************************************************************/
 379:Generated_Source\PSoC4/SamplingTimerISR.c **** void SamplingTimerISR_SetPending(void)
 380:Generated_Source\PSoC4/SamplingTimerISR.c **** {
 383              		.loc 1 380 0
 384              		.cfi_startproc
 385              		@ args = 0, pretend = 0, frame = 0
 386              		@ frame_needed = 0, uses_anonymous_args = 0
 387              		@ link register save eliminated.
 381:Generated_Source\PSoC4/SamplingTimerISR.c ****     *SamplingTimerISR_INTC_SET_PD = SamplingTimerISR__INTC_MASK;
 388              		.loc 1 381 0
 389 0000 1022     		movs	r2, #16
 390 0002 014B     		ldr	r3, .L33
 391 0004 1A60     		str	r2, [r3]
 382:Generated_Source\PSoC4/SamplingTimerISR.c **** }
 392              		.loc 1 382 0
 393              		@ sp needed
 394 0006 7047     		bx	lr
 395              	.L34:
 396              		.align	2
 397              	.L33:
 398 0008 00E200E0 		.word	-536813056
 399              		.cfi_endproc
ARM GAS  C:\Users\kylep\AppData\Local\Temp\ccDBFD8h.s 			page 15


 400              	.LFE43:
 401              		.size	SamplingTimerISR_SetPending, .-SamplingTimerISR_SetPending
 402              		.section	.text.SamplingTimerISR_ClearPending,"ax",%progbits
 403              		.align	2
 404              		.global	SamplingTimerISR_ClearPending
 405              		.code	16
 406              		.thumb_func
 407              		.type	SamplingTimerISR_ClearPending, %function
 408              	SamplingTimerISR_ClearPending:
 409              	.LFB44:
 383:Generated_Source\PSoC4/SamplingTimerISR.c **** 
 384:Generated_Source\PSoC4/SamplingTimerISR.c **** 
 385:Generated_Source\PSoC4/SamplingTimerISR.c **** /*******************************************************************************
 386:Generated_Source\PSoC4/SamplingTimerISR.c **** * Function Name: SamplingTimerISR_ClearPending
 387:Generated_Source\PSoC4/SamplingTimerISR.c **** ********************************************************************************
 388:Generated_Source\PSoC4/SamplingTimerISR.c **** *
 389:Generated_Source\PSoC4/SamplingTimerISR.c **** * Summary:
 390:Generated_Source\PSoC4/SamplingTimerISR.c **** *   Clears a pending interrupt in the interrupt controller.
 391:Generated_Source\PSoC4/SamplingTimerISR.c **** *
 392:Generated_Source\PSoC4/SamplingTimerISR.c **** *   Note Some interrupt sources are clear-on-read and require the block 
 393:Generated_Source\PSoC4/SamplingTimerISR.c **** *   interrupt/status register to be read/cleared with the appropriate block API 
 394:Generated_Source\PSoC4/SamplingTimerISR.c **** *   (GPIO, UART, and so on). Otherwise the ISR will continue to remain in 
 395:Generated_Source\PSoC4/SamplingTimerISR.c **** *   pending state even though the interrupt itself is cleared using this API.
 396:Generated_Source\PSoC4/SamplingTimerISR.c **** *
 397:Generated_Source\PSoC4/SamplingTimerISR.c **** * Parameters:
 398:Generated_Source\PSoC4/SamplingTimerISR.c **** *   None
 399:Generated_Source\PSoC4/SamplingTimerISR.c **** *
 400:Generated_Source\PSoC4/SamplingTimerISR.c **** * Return:
 401:Generated_Source\PSoC4/SamplingTimerISR.c **** *   None
 402:Generated_Source\PSoC4/SamplingTimerISR.c **** *
 403:Generated_Source\PSoC4/SamplingTimerISR.c **** *******************************************************************************/
 404:Generated_Source\PSoC4/SamplingTimerISR.c **** void SamplingTimerISR_ClearPending(void)
 405:Generated_Source\PSoC4/SamplingTimerISR.c **** {
 410              		.loc 1 405 0
 411              		.cfi_startproc
 412              		@ args = 0, pretend = 0, frame = 0
 413              		@ frame_needed = 0, uses_anonymous_args = 0
 414              		@ link register save eliminated.
 406:Generated_Source\PSoC4/SamplingTimerISR.c ****     *SamplingTimerISR_INTC_CLR_PD = SamplingTimerISR__INTC_MASK;
 415              		.loc 1 406 0
 416 0000 1022     		movs	r2, #16
 417 0002 014B     		ldr	r3, .L36
 418 0004 1A60     		str	r2, [r3]
 407:Generated_Source\PSoC4/SamplingTimerISR.c **** }
 419              		.loc 1 407 0
 420              		@ sp needed
 421 0006 7047     		bx	lr
 422              	.L37:
 423              		.align	2
 424              	.L36:
 425 0008 80E200E0 		.word	-536812928
 426              		.cfi_endproc
 427              	.LFE44:
 428              		.size	SamplingTimerISR_ClearPending, .-SamplingTimerISR_ClearPending
 429              		.text
 430              	.Letext0:
 431              		.file 2 "Generated_Source\\PSoC4/cytypes.h"
ARM GAS  C:\Users\kylep\AppData\Local\Temp\ccDBFD8h.s 			page 16


 432              		.file 3 "./TemperatureCommManager.h"
 433              		.file 4 "Generated_Source\\PSoC4/CyLib.h"