ARM GAS  C:\Users\kylep\AppData\Local\Temp\ccNXIZc9.s 			page 1


   1              		.syntax unified
   2              		.cpu cortex-m0
   3              		.fpu softvfp
   4              		.eabi_attribute 20, 1
   5              		.eabi_attribute 21, 1
   6              		.eabi_attribute 23, 3
   7              		.eabi_attribute 24, 1
   8              		.eabi_attribute 25, 1
   9              		.eabi_attribute 26, 1
  10              		.eabi_attribute 30, 1
  11              		.eabi_attribute 34, 0
  12              		.eabi_attribute 18, 4
  13              		.thumb
  14              		.syntax unified
  15              		.file	"TemperatureCommManager.c"
  16              		.text
  17              	.Ltext0:
  18              		.cfi_sections	.debug_frame
  19              		.section	.text.getHighestTemperature,"ax",%progbits
  20              		.align	2
  21              		.code	16
  22              		.thumb_func
  23              		.type	getHighestTemperature, %function
  24              	getHighestTemperature:
  25              	.LFB43:
  26              		.file 1 "TemperatureCommManager.c"
   1:TemperatureCommManager.c **** /* ========================================
   2:TemperatureCommManager.c ****  *
   3:TemperatureCommManager.c ****  * Copyright YOUR COMPANY, THE YEAR
   4:TemperatureCommManager.c ****  * All Rights Reserved
   5:TemperatureCommManager.c ****  * UNPUBLISHED, LICENSED SOFTWARE.
   6:TemperatureCommManager.c ****  *
   7:TemperatureCommManager.c ****  * CONFIDENTIAL AND PROPRIETARY INFORMATION
   8:TemperatureCommManager.c ****  * WHICH IS THE PROPERTY OF your company.
   9:TemperatureCommManager.c ****  *
  10:TemperatureCommManager.c ****  * ========================================
  11:TemperatureCommManager.c **** */
  12:TemperatureCommManager.c **** /**********CHANGE LOG**********/
  13:TemperatureCommManager.c **** 
  14:TemperatureCommManager.c **** 
  15:TemperatureCommManager.c **** /**********PREPROCESSOR DIRECTIVES**********/
  16:TemperatureCommManager.c **** #include "CommonVariables.h"
  17:TemperatureCommManager.c **** #include "TemperatureCommManager.h"
  18:TemperatureCommManager.c **** #include "DriverControl.h"
  19:TemperatureCommManager.c **** 
  20:TemperatureCommManager.c **** #define MAX_PAYLOAD_BYTE_COUNT  MAX_DRIVER_COUNT * 2 + 2
  21:TemperatureCommManager.c **** #define HEADER_BYTE_COUNT       2
  22:TemperatureCommManager.c **** #define EOP_BYTE_COUNT          2
  23:TemperatureCommManager.c **** #define MAX_PACKET_SIZE         HEADER_BYTE_COUNT + MAX_PAYLOAD_BYTE_COUNT + EOP_BYTE_COUNT
  24:TemperatureCommManager.c **** 
  25:TemperatureCommManager.c **** #define PACKET_TYPE_COUNT       6
  26:TemperatureCommManager.c **** #define HEADER_START_INDEX      0
  27:TemperatureCommManager.c **** #define PAYLOAD_START_INDEX     HEADER_BYTE_COUNT
  28:TemperatureCommManager.c **** 
  29:TemperatureCommManager.c **** #define TIMEOUT_LIMIT_IN_MILLISECONDS   30
  30:TemperatureCommManager.c ****     
  31:TemperatureCommManager.c **** /**********DEFINED CONSTANTS**********/
ARM GAS  C:\Users\kylep\AppData\Local\Temp\ccNXIZc9.s 			page 2


  32:TemperatureCommManager.c **** enum PacketState
  33:TemperatureCommManager.c **** {
  34:TemperatureCommManager.c ****     HEADER_STATE,
  35:TemperatureCommManager.c ****     PAYLOAD_STATE,
  36:TemperatureCommManager.c ****     EOP_STATE
  37:TemperatureCommManager.c **** };
  38:TemperatureCommManager.c **** 
  39:TemperatureCommManager.c **** /**********DATA STRUCTURES**********/
  40:TemperatureCommManager.c **** typedef struct
  41:TemperatureCommManager.c **** {
  42:TemperatureCommManager.c ****     const uint8 HEADER_BYTE;
  43:TemperatureCommManager.c ****     const uint8 PACKET_TYPE;
  44:TemperatureCommManager.c ****     const uint8 PAYLOAD_SIZE;
  45:TemperatureCommManager.c ****     const uint8 EOP_CARRIAGE_RETURN;
  46:TemperatureCommManager.c ****     const uint8 EOP_LINE_FEED;
  47:TemperatureCommManager.c **** }Packet;
  48:TemperatureCommManager.c **** 
  49:TemperatureCommManager.c **** static Packet PacketList[PACKET_TYPE_COUNT] = 
  50:TemperatureCommManager.c **** {
  51:TemperatureCommManager.c ****     {'~', 'C', 9, '\r', '\n'},          //Definition: Driver Count
  52:TemperatureCommManager.c ****                                         //Payload:
  53:TemperatureCommManager.c ****                                         //Byte 0: Number of Drivers, Value Range:1-8
  54:TemperatureCommManager.c ****                                         //Byte1-Byte8:Driver ID, Value Range:1-8
  55:TemperatureCommManager.c ****     {'~', 'A', 9, '\r', '\n'},          //Definition: Acknowledgement Packet
  56:TemperatureCommManager.c ****                                         //Payload:
  57:TemperatureCommManager.c ****                                         //Byte 0: Number of Drivers, Value Range:1-8
  58:TemperatureCommManager.c ****                                         //Byte1-Byte8:Driver ID, Value Range:1-8
  59:TemperatureCommManager.c ****     {'~', 'T', 18, '\r', '\n'},         //T for LED Temp, Modules 0(head)-7(Kaboose), Value Range: 
  60:TemperatureCommManager.c ****     {'~', 'U', 18, '\r', '\n'},         //U for Switch Node Temp, Modules 0(head)-7(Kaboose), Value
  61:TemperatureCommManager.c ****     {'~', 'W', 18, '\r', '\n'},         //W for Micro Temp, Modules 0(head)-7(Kaboose), Value Range
  62:TemperatureCommManager.c ****     {'~', 'V', 18, '\r', '\n'}          //V for Ambient Temp, Modules 0(head)-7(Kaboose), Value Ran
  63:TemperatureCommManager.c **** };   
  64:TemperatureCommManager.c **** 
  65:TemperatureCommManager.c **** static uint8 lastDriverPacket[MAX_PACKET_SIZE - 9];
  66:TemperatureCommManager.c **** static uint8 temperaturePayload[ADC_SAMPLE_COUNT - 1][MAX_PAYLOAD_BYTE_COUNT];
  67:TemperatureCommManager.c **** 
  68:TemperatureCommManager.c **** /**********GLOBAL VARIABLES**********/
  69:TemperatureCommManager.c **** static uint16 timerCount = 0;
  70:TemperatureCommManager.c **** 
  71:TemperatureCommManager.c **** static uint8 bLastDriverInChain = FALSE;
  72:TemperatureCommManager.c **** 
  73:TemperatureCommManager.c **** uint8 bReadyToSendNextBrightnessTimeoutPacket = FALSE;
  74:TemperatureCommManager.c **** uint8 readyToSendThresholdCounter = 0;
  75:TemperatureCommManager.c **** 
  76:TemperatureCommManager.c **** 
  77:TemperatureCommManager.c **** uint8 sendTempPacketBack = 0;
  78:TemperatureCommManager.c **** /**********LOCAL FUNCTION PROTOTYPES**********/
  79:TemperatureCommManager.c **** static void detectPacket(uint8 dataByte);
  80:TemperatureCommManager.c **** static uint8 processTemperaturePacket(uint8* packet, uint8 length);
  81:TemperatureCommManager.c **** static uint8 processFinalDriverCountPacket(uint8* packet, uint8 length);
  82:TemperatureCommManager.c **** static uint8 processAckPacket(uint8* packet, uint8 length);
  83:TemperatureCommManager.c **** static int16 getHighestTemperature(uint8* packet, uint8 length);
  84:TemperatureCommManager.c **** 
  85:TemperatureCommManager.c **** /**********DEFINED GLOBAL FUNCTIONS**********/
  86:TemperatureCommManager.c **** 
  87:TemperatureCommManager.c **** uint8 isReadyToSendNextBrightnessPacket(void)
  88:TemperatureCommManager.c **** {
ARM GAS  C:\Users\kylep\AppData\Local\Temp\ccNXIZc9.s 			page 3


  89:TemperatureCommManager.c ****    return bReadyToSendNextBrightnessTimeoutPacket;
  90:TemperatureCommManager.c **** }
  91:TemperatureCommManager.c **** 
  92:TemperatureCommManager.c **** void clearIsReadyToSendNextBrightnessPacket(void)
  93:TemperatureCommManager.c **** {
  94:TemperatureCommManager.c ****     bReadyToSendNextBrightnessTimeoutPacket = FALSE;
  95:TemperatureCommManager.c **** }
  96:TemperatureCommManager.c **** 
  97:TemperatureCommManager.c **** /*******************************************************************************
  98:TemperatureCommManager.c **** * Function Name: isLastDriver
  99:TemperatureCommManager.c **** ********************************************************************************
 100:TemperatureCommManager.c **** *
 101:TemperatureCommManager.c **** * Summary:
 102:TemperatureCommManager.c **** *  Returns if the current module is last driver in packet based on a ACK timeout.
 103:TemperatureCommManager.c **** *  An ACK timeout is when there is no ACK packet sent from the next module within 
 104:TemperatureCommManager.c **** *  the timeout perioud.
 105:TemperatureCommManager.c **** * Parameters:
 106:TemperatureCommManager.c **** *  None.
 107:TemperatureCommManager.c **** *
 108:TemperatureCommManager.c **** * Return:
 109:TemperatureCommManager.c **** *  TRUE if the module is the last in the chain.
 110:TemperatureCommManager.c **** *
 111:TemperatureCommManager.c **** *******************************************************************************/
 112:TemperatureCommManager.c **** uint8 isLastDriver(void)
 113:TemperatureCommManager.c **** {
 114:TemperatureCommManager.c ****     return bLastDriverInChain;
 115:TemperatureCommManager.c **** }
 116:TemperatureCommManager.c **** 
 117:TemperatureCommManager.c **** 
 118:TemperatureCommManager.c **** /*******************************************************************************
 119:TemperatureCommManager.c **** * Function Name: processTemperatureByteReceivedHandler
 120:TemperatureCommManager.c **** ********************************************************************************
 121:TemperatureCommManager.c **** *
 122:TemperatureCommManager.c **** * Summary:
 123:TemperatureCommManager.c **** *  Called in UART_In_ISR(), triggers when a byte is received from the end driver.
 124:TemperatureCommManager.c **** *
 125:TemperatureCommManager.c **** * Parameters:
 126:TemperatureCommManager.c **** *  None.
 127:TemperatureCommManager.c **** *
 128:TemperatureCommManager.c **** * Return:
 129:TemperatureCommManager.c **** *  None.
 130:TemperatureCommManager.c **** *
 131:TemperatureCommManager.c **** *******************************************************************************/
 132:TemperatureCommManager.c **** void processTemperatureByteReceivedHandler(void)
 133:TemperatureCommManager.c **** {
 134:TemperatureCommManager.c ****     //uint8 dataByte = 0;
 135:TemperatureCommManager.c ****     //uint32 interruptSource = 0;
 136:TemperatureCommManager.c ****     
 137:TemperatureCommManager.c ****     //do
 138:TemperatureCommManager.c ****     //{
 139:TemperatureCommManager.c ****     //    dataByte = (uint8)(UART_Temperature_UartGetByte() & 0xFF);
 140:TemperatureCommManager.c ****     //    detectPacket(dataByte);
 141:TemperatureCommManager.c ****     //}while(UART_Temperature_SpiUartGetRxBufferSize() > 0);
 142:TemperatureCommManager.c ****     
 143:TemperatureCommManager.c ****     //interruptSource = UART_Temperature_GetRxInterruptSourceMasked();
 144:TemperatureCommManager.c ****     //UART_Temperature_ClearRxInterruptSource(interruptSource);
 145:TemperatureCommManager.c **** }
ARM GAS  C:\Users\kylep\AppData\Local\Temp\ccNXIZc9.s 			page 4


 146:TemperatureCommManager.c **** 
 147:TemperatureCommManager.c **** 
 148:TemperatureCommManager.c **** 
 149:TemperatureCommManager.c **** /*******************************************************************************
 150:TemperatureCommManager.c **** * Function Name: setLastDriverPacket
 151:TemperatureCommManager.c **** ********************************************************************************
 152:TemperatureCommManager.c **** *
 153:TemperatureCommManager.c **** * Summary:
 154:TemperatureCommManager.c **** *  Passes the Count packet from BrightnessCommManager to TemperatureCommManager.
 155:TemperatureCommManager.c **** *  This should only be called in the last driver of the chain.
 156:TemperatureCommManager.c **** *
 157:TemperatureCommManager.c **** * Parameters:
 158:TemperatureCommManager.c **** *  dataPacket: The reference to the packet being passed
 159:TemperatureCommManager.c **** *  length: The length of the packet in bytes
 160:TemperatureCommManager.c **** *
 161:TemperatureCommManager.c **** * Return:
 162:TemperatureCommManager.c **** *  SUCCESS for valid parameters, FAILURE otherwise
 163:TemperatureCommManager.c **** *
 164:TemperatureCommManager.c **** *******************************************************************************/
 165:TemperatureCommManager.c **** uint8 setLastDriverPacket(uint8* dataPacket, uint8 length)
 166:TemperatureCommManager.c **** {
 167:TemperatureCommManager.c ****     if((dataPacket == NULL) || (length != (MAX_PACKET_SIZE - 9)))
 168:TemperatureCommManager.c ****         return FAILURE;
 169:TemperatureCommManager.c ****     
 170:TemperatureCommManager.c ****     memcpy(lastDriverPacket, dataPacket, length);
 171:TemperatureCommManager.c ****     
 172:TemperatureCommManager.c ****     return SUCCESS;
 173:TemperatureCommManager.c **** }
 174:TemperatureCommManager.c **** 
 175:TemperatureCommManager.c **** /*******************************************************************************
 176:TemperatureCommManager.c **** * Function Name: processAckTimeoutRoutine
 177:TemperatureCommManager.c **** ********************************************************************************
 178:TemperatureCommManager.c **** *
 179:TemperatureCommManager.c **** * Summary:
 180:TemperatureCommManager.c **** *  Called in AckTimeoutISR(), counts up while waiting for an ACK from the next
 181:TemperatureCommManager.c **** *  driver in the chain. If the timer limit is reached, it is assumed that this
 182:TemperatureCommManager.c **** *  driver is the last driver of the chain.
 183:TemperatureCommManager.c **** *
 184:TemperatureCommManager.c **** * Parameters:
 185:TemperatureCommManager.c **** *  None.
 186:TemperatureCommManager.c **** *
 187:TemperatureCommManager.c **** * Return:
 188:TemperatureCommManager.c **** *  None.
 189:TemperatureCommManager.c **** *
 190:TemperatureCommManager.c **** *******************************************************************************/
 191:TemperatureCommManager.c **** void processAckTimeoutRoutine(void)
 192:TemperatureCommManager.c **** {
 193:TemperatureCommManager.c ****     AckTimer_ClearInterrupt(AckTimer_INTR_MASK_TC);
 194:TemperatureCommManager.c ****     
 195:TemperatureCommManager.c ****     if(timerCount < TIMEOUT_LIMIT_IN_MILLISECONDS)
 196:TemperatureCommManager.c ****     {
 197:TemperatureCommManager.c ****         
 198:TemperatureCommManager.c ****         //UART_LED_PutArray(lastDriverPacket, MAX_PACKET_SIZE - 9);
 199:TemperatureCommManager.c ****         timerCount++;
 200:TemperatureCommManager.c ****     }
 201:TemperatureCommManager.c ****     else
 202:TemperatureCommManager.c ****     {
ARM GAS  C:\Users\kylep\AppData\Local\Temp\ccNXIZc9.s 			page 5


 203:TemperatureCommManager.c ****         bLastDriverInChain = TRUE;
 204:TemperatureCommManager.c ****         //UART_LED_Control_Write(FALSE);
 205:TemperatureCommManager.c ****         AckTimer_Stop();
 206:TemperatureCommManager.c ****         timerCount = 0;
 207:TemperatureCommManager.c ****         setDriverCount(lastDriverPacket[PAYLOAD_START_INDEX]);
 208:TemperatureCommManager.c ****         //UART_Temperature_SpiUartPutArray(lastDriverPacket, MAX_PACKET_SIZE - 9);
 209:TemperatureCommManager.c ****         memset(lastDriverPacket, 0, MAX_PACKET_SIZE - 9);
 210:TemperatureCommManager.c ****     }
 211:TemperatureCommManager.c **** }
 212:TemperatureCommManager.c **** 
 213:TemperatureCommManager.c **** /*******************************************************************************
 214:TemperatureCommManager.c **** * Function Name: processSamplingTimerRoutine
 215:TemperatureCommManager.c **** ********************************************************************************
 216:TemperatureCommManager.c **** *
 217:TemperatureCommManager.c **** * Summary:
 218:TemperatureCommManager.c **** *  Called in SamplingTimerISR(), samples temperatures at a periodic rate. This timer
 219:TemperatureCommManager.c **** *  should only run in the last driver of the chain, since the last board drives
 220:TemperatureCommManager.c **** *  the sampling rate throughout the chain.
 221:TemperatureCommManager.c **** *
 222:TemperatureCommManager.c **** * Parameters:
 223:TemperatureCommManager.c **** *  None.
 224:TemperatureCommManager.c **** *
 225:TemperatureCommManager.c **** * Return:
 226:TemperatureCommManager.c **** *  None.
 227:TemperatureCommManager.c **** *
 228:TemperatureCommManager.c **** *******************************************************************************/
 229:TemperatureCommManager.c **** void processSamplingTimerRoutine(void)
 230:TemperatureCommManager.c **** {
 231:TemperatureCommManager.c ****     static int16 ADC_Data[ADC_SAMPLE_COUNT] = {0, 0, 0, 0};
 232:TemperatureCommManager.c ****     static int16 HighestTemperatures[ADC_SAMPLE_COUNT - 1] = {0, 0, 0};
 233:TemperatureCommManager.c ****     static enum TemperaturePoint channelNumber = LED;
 234:TemperatureCommManager.c ****     static uint8 temporaryPacket[5] = {'~', 'B', 0, '\r', '\n'};
 235:TemperatureCommManager.c ****     
 236:TemperatureCommManager.c ****     uint8 packet[MAX_PACKET_SIZE];
 237:TemperatureCommManager.c ****     uint8 driverID = 0;
 238:TemperatureCommManager.c ****     uint16 temperatureSample = 0;
 239:TemperatureCommManager.c ****     
 240:TemperatureCommManager.c ****     SamplingTimer_ClearInterrupt(SamplingTimer_INTR_MASK_TC);   
 241:TemperatureCommManager.c ****     
 242:TemperatureCommManager.c ****     //readyToSendThresholdCounter++;
 243:TemperatureCommManager.c ****     
 244:TemperatureCommManager.c ****     //if(readyToSendThresholdCounter>=1)
 245:TemperatureCommManager.c ****     //{
 246:TemperatureCommManager.c ****     //    readyToSendThresholdCounter = 0;
 247:TemperatureCommManager.c ****     //    bReadyToSendNextBrightnessTimeoutPacket = TRUE;
 248:TemperatureCommManager.c ****     //}
 249:TemperatureCommManager.c ****     
 250:TemperatureCommManager.c **** 
 251:TemperatureCommManager.c ****     //Get next temperature sample to add to array
 252:TemperatureCommManager.c ****     getTemperatureSample(FALSE, 0, ADC_Data, ADC_SAMPLE_COUNT);
 253:TemperatureCommManager.c ****     temperatureSample = ADC_Data[channelNumber];    
 254:TemperatureCommManager.c ****     driverID = getDriverID();
 255:TemperatureCommManager.c ****     
 256:TemperatureCommManager.c ****     //Create packet for temperature data
 257:TemperatureCommManager.c ****     memset(packet, 0, MAX_PACKET_SIZE);
 258:TemperatureCommManager.c ****     packet[HEADER_START_INDEX] = PacketList[channelNumber + 2].HEADER_BYTE;
 259:TemperatureCommManager.c ****     packet[HEADER_START_INDEX + 1] = PacketList[channelNumber + 2].PACKET_TYPE;
ARM GAS  C:\Users\kylep\AppData\Local\Temp\ccNXIZc9.s 			page 6


 260:TemperatureCommManager.c ****     packet[PAYLOAD_START_INDEX + PacketList[channelNumber + 2].PAYLOAD_SIZE] 
 261:TemperatureCommManager.c ****         = PacketList[channelNumber + 2].EOP_CARRIAGE_RETURN;
 262:TemperatureCommManager.c ****     packet[PAYLOAD_START_INDEX + PacketList[channelNumber + 2].PAYLOAD_SIZE + 1]
 263:TemperatureCommManager.c ****         = PacketList[channelNumber + 2].EOP_LINE_FEED;
 264:TemperatureCommManager.c ****         
 265:TemperatureCommManager.c ****     memcpy(&packet[PAYLOAD_START_INDEX], temperaturePayload[channelNumber],
 266:TemperatureCommManager.c ****         MAX_PAYLOAD_BYTE_COUNT);
 267:TemperatureCommManager.c ****     packet[PAYLOAD_START_INDEX + driverID * 2] = (temperatureSample >> 8) & 0xFF;
 268:TemperatureCommManager.c ****     packet[PAYLOAD_START_INDEX + driverID * 2 + 1] = temperatureSample & 0xFF;
 269:TemperatureCommManager.c ****     
 270:TemperatureCommManager.c ****     if(driverID == HEAD_MODULE_ID)
 271:TemperatureCommManager.c ****     {   //Add max temperature to packet if this is the head module
 272:TemperatureCommManager.c ****         //checkForUnderVoltage(ADC_Data[VOLTAGE_SENSE]);
 273:TemperatureCommManager.c ****         temperatureSample = (uint16)(getMaxTemperature(channelNumber));
 274:TemperatureCommManager.c ****         packet[PAYLOAD_START_INDEX] = (temperatureSample >> 8) & 0xFF;
 275:TemperatureCommManager.c ****         packet[PAYLOAD_START_INDEX + 1] = temperatureSample & 0xFF;
 276:TemperatureCommManager.c ****     }
 277:TemperatureCommManager.c ****     
 278:TemperatureCommManager.c ****     //Send off temperature packet
 279:TemperatureCommManager.c ****     //packet[getDriverID()+2] = getDriverID();
 280:TemperatureCommManager.c ****     
 281:TemperatureCommManager.c ****     sendTempPacketBack++;
 282:TemperatureCommManager.c ****     if(sendTempPacketBack>2)
 283:TemperatureCommManager.c ****     {
 284:TemperatureCommManager.c ****         sendTempPacketBack = 0;
 285:TemperatureCommManager.c ****         //UART_Temperature_SpiUartPutArray(packet, MAX_PACKET_SIZE);
 286:TemperatureCommManager.c ****     }
 287:TemperatureCommManager.c ****     HighestTemperatures[channelNumber] =
 288:TemperatureCommManager.c ****         getHighestTemperature(&packet[PAYLOAD_START_INDEX + 2], MAX_PAYLOAD_BYTE_COUNT);
 289:TemperatureCommManager.c ****     
 290:TemperatureCommManager.c ****     if((driverID == HEAD_MODULE_ID) && (channelNumber == SWITCH_NODE))
 291:TemperatureCommManager.c ****     {   //Adjust brightness based on temp and send new brightness
 292:TemperatureCommManager.c ****         regulateBrightness(HighestTemperatures, ADC_SAMPLE_COUNT - 1);             
 293:TemperatureCommManager.c ****         temporaryPacket[PAYLOAD_START_INDEX] = getNewMaxBrightness();
 294:TemperatureCommManager.c ****         //UART_Temperature_SpiUartPutArray(temporaryPacket, 5);
 295:TemperatureCommManager.c ****     }
 296:TemperatureCommManager.c ****     
 297:TemperatureCommManager.c ****     //Enable injection before obtaining the micro temp in the next iteration
 298:TemperatureCommManager.c ****     if(channelNumber == (MICRO - 1))
 299:TemperatureCommManager.c ****         ADC_SAR_Seq_EnableInjection();
 300:TemperatureCommManager.c ****     
 301:TemperatureCommManager.c ****     channelNumber = (channelNumber + 1) % (ADC_SAMPLE_COUNT - 1);
 302:TemperatureCommManager.c ****     
 303:TemperatureCommManager.c **** }
 304:TemperatureCommManager.c **** 
 305:TemperatureCommManager.c **** /**********DEFINED LOCAL FUNCTIONS**********/
 306:TemperatureCommManager.c **** /*******************************************************************************
 307:TemperatureCommManager.c **** * Function Name: detectPacket
 308:TemperatureCommManager.c **** ********************************************************************************
 309:TemperatureCommManager.c **** *
 310:TemperatureCommManager.c **** * Summary:
 311:TemperatureCommManager.c **** *  Determines if the incoming byte belongs to a valid packet. If the packet is
 312:TemperatureCommManager.c **** *  valid, then the payload is processed.
 313:TemperatureCommManager.c **** *
 314:TemperatureCommManager.c **** * Parameters:
 315:TemperatureCommManager.c **** *  dataByte: The next byte to check in the packet
 316:TemperatureCommManager.c **** *
ARM GAS  C:\Users\kylep\AppData\Local\Temp\ccNXIZc9.s 			page 7


 317:TemperatureCommManager.c **** * Return:
 318:TemperatureCommManager.c **** *  None.
 319:TemperatureCommManager.c **** *
 320:TemperatureCommManager.c **** *******************************************************************************/
 321:TemperatureCommManager.c **** static void detectPacket(uint8 dataByte)
 322:TemperatureCommManager.c **** {
 323:TemperatureCommManager.c ****     static uint8 packet[MAX_PACKET_SIZE];   
 324:TemperatureCommManager.c ****     static enum PacketState currentState = HEADER_STATE;
 325:TemperatureCommManager.c ****     static uint8 currentPacketIndex = HEADER_START_INDEX;
 326:TemperatureCommManager.c ****     static uint8 dataTypeIndex = 0;    
 327:TemperatureCommManager.c ****     uint8 loopIndex = 0;
 328:TemperatureCommManager.c ****     
 329:TemperatureCommManager.c ****     switch(currentState)
 330:TemperatureCommManager.c ****     {
 331:TemperatureCommManager.c ****         case HEADER_STATE:
 332:TemperatureCommManager.c ****             if((currentPacketIndex == HEADER_START_INDEX) &&
 333:TemperatureCommManager.c ****                 (dataByte == PacketList[dataTypeIndex].HEADER_BYTE))
 334:TemperatureCommManager.c ****             {
 335:TemperatureCommManager.c ****                 packet[currentPacketIndex] = dataByte;
 336:TemperatureCommManager.c ****                 currentPacketIndex++;
 337:TemperatureCommManager.c ****             }
 338:TemperatureCommManager.c ****             else if(currentPacketIndex == (HEADER_START_INDEX + 1))
 339:TemperatureCommManager.c ****             {
 340:TemperatureCommManager.c ****                 for(loopIndex = 0; loopIndex < PACKET_TYPE_COUNT; loopIndex++)
 341:TemperatureCommManager.c ****                 {
 342:TemperatureCommManager.c ****                     if(dataByte == PacketList[loopIndex].PACKET_TYPE)
 343:TemperatureCommManager.c ****                     {
 344:TemperatureCommManager.c ****                         dataTypeIndex = loopIndex;                        
 345:TemperatureCommManager.c ****                         packet[currentPacketIndex] = dataByte;
 346:TemperatureCommManager.c ****                         currentPacketIndex++;
 347:TemperatureCommManager.c ****                         currentState = PAYLOAD_STATE;
 348:TemperatureCommManager.c ****                         break;
 349:TemperatureCommManager.c ****                     }
 350:TemperatureCommManager.c ****                 }
 351:TemperatureCommManager.c ****                 
 352:TemperatureCommManager.c ****                 if(loopIndex >= PACKET_TYPE_COUNT)
 353:TemperatureCommManager.c ****                 {
 354:TemperatureCommManager.c ****                     currentPacketIndex = HEADER_START_INDEX;
 355:TemperatureCommManager.c ****                     dataTypeIndex = 0;
 356:TemperatureCommManager.c ****                 }
 357:TemperatureCommManager.c ****             }
 358:TemperatureCommManager.c ****             else
 359:TemperatureCommManager.c ****             {
 360:TemperatureCommManager.c ****                 currentPacketIndex = HEADER_START_INDEX;
 361:TemperatureCommManager.c ****                 dataTypeIndex = 0;
 362:TemperatureCommManager.c ****             }
 363:TemperatureCommManager.c ****             break;
 364:TemperatureCommManager.c ****         case PAYLOAD_STATE:
 365:TemperatureCommManager.c ****             packet[currentPacketIndex] = dataByte;
 366:TemperatureCommManager.c ****             currentPacketIndex++;
 367:TemperatureCommManager.c ****             
 368:TemperatureCommManager.c ****             if(currentPacketIndex >= (PAYLOAD_START_INDEX + PacketList[dataTypeIndex].PAYLOAD_SIZE)
 369:TemperatureCommManager.c ****                 currentState = EOP_STATE;
 370:TemperatureCommManager.c ****             break;
 371:TemperatureCommManager.c ****         case EOP_STATE:
 372:TemperatureCommManager.c ****             if((currentPacketIndex == (PAYLOAD_START_INDEX + PacketList[dataTypeIndex].PAYLOAD_SIZE
 373:TemperatureCommManager.c ****                 (dataByte == PacketList[dataTypeIndex].EOP_CARRIAGE_RETURN))
ARM GAS  C:\Users\kylep\AppData\Local\Temp\ccNXIZc9.s 			page 8


 374:TemperatureCommManager.c ****             {
 375:TemperatureCommManager.c ****                 packet[currentPacketIndex] = dataByte;
 376:TemperatureCommManager.c ****                 currentPacketIndex++;
 377:TemperatureCommManager.c ****             }
 378:TemperatureCommManager.c ****             else if((currentPacketIndex == (PAYLOAD_START_INDEX + PacketList[dataTypeIndex].PAYLOAD
 379:TemperatureCommManager.c ****                     && (dataByte == PacketList[dataTypeIndex].EOP_LINE_FEED))
 380:TemperatureCommManager.c ****             {
 381:TemperatureCommManager.c ****                 packet[currentPacketIndex] = dataByte;
 382:TemperatureCommManager.c **** 				
 383:TemperatureCommManager.c **** 				if(dataTypeIndex == 0)
 384:TemperatureCommManager.c ****                     processFinalDriverCountPacket(packet, MAX_PACKET_SIZE - 9);                   
 385:TemperatureCommManager.c **** 				else if(dataTypeIndex == 1)
 386:TemperatureCommManager.c ****                     processAckPacket(packet, MAX_PACKET_SIZE - 9);
 387:TemperatureCommManager.c ****                 else
 388:TemperatureCommManager.c ****                     processTemperaturePacket(packet, MAX_PACKET_SIZE);
 389:TemperatureCommManager.c ****     	        
 390:TemperatureCommManager.c ****                 currentPacketIndex = HEADER_START_INDEX;
 391:TemperatureCommManager.c ****                 currentState = HEADER_STATE;
 392:TemperatureCommManager.c ****                 dataTypeIndex = 0;
 393:TemperatureCommManager.c ****             }
 394:TemperatureCommManager.c ****             else
 395:TemperatureCommManager.c ****             {
 396:TemperatureCommManager.c ****                 currentPacketIndex = HEADER_START_INDEX;
 397:TemperatureCommManager.c ****                 currentState = HEADER_STATE;
 398:TemperatureCommManager.c ****                 dataTypeIndex = 0;
 399:TemperatureCommManager.c ****             }
 400:TemperatureCommManager.c ****             break;
 401:TemperatureCommManager.c ****     }
 402:TemperatureCommManager.c **** }
 403:TemperatureCommManager.c **** 
 404:TemperatureCommManager.c **** /*******************************************************************************
 405:TemperatureCommManager.c **** * Function Name: processTemperaturePacket
 406:TemperatureCommManager.c **** ********************************************************************************
 407:TemperatureCommManager.c **** *
 408:TemperatureCommManager.c **** * Summary:
 409:TemperatureCommManager.c **** *  Obtains the temperature for this module, adds the temperature to this packet, and
 410:TemperatureCommManager.c **** *  sends the packet to the previous module.
 411:TemperatureCommManager.c **** *
 412:TemperatureCommManager.c **** * Parameters:
 413:TemperatureCommManager.c **** *  packet: The reference to the temperature packet to process.
 414:TemperatureCommManager.c **** *  length: The byte count for this packet.
 415:TemperatureCommManager.c **** *
 416:TemperatureCommManager.c **** * Return:
 417:TemperatureCommManager.c **** *  SUCCESS for valid inputs, FAILURE otherwise
 418:TemperatureCommManager.c **** *
 419:TemperatureCommManager.c **** *******************************************************************************/
 420:TemperatureCommManager.c **** static uint8 processTemperaturePacket(uint8* packet, uint8 length)
 421:TemperatureCommManager.c **** {
 422:TemperatureCommManager.c ****     uint8 driverID = 0;
 423:TemperatureCommManager.c ****     uint8 channelNumber;
 424:TemperatureCommManager.c ****     
 425:TemperatureCommManager.c ****     if(packet == NULL || length != MAX_PACKET_SIZE)
 426:TemperatureCommManager.c ****         return FAILURE;
 427:TemperatureCommManager.c ****     
 428:TemperatureCommManager.c ****     driverID = getDriverID();
 429:TemperatureCommManager.c ****     if((driverID < HEAD_MODULE_ID) || (driverID > MAX_DRIVER_COUNT))
 430:TemperatureCommManager.c ****         return FAILURE;
ARM GAS  C:\Users\kylep\AppData\Local\Temp\ccNXIZc9.s 			page 9


 431:TemperatureCommManager.c ****     
 432:TemperatureCommManager.c ****     for(channelNumber = 0; channelNumber < ADC_SAMPLE_COUNT; channelNumber++)
 433:TemperatureCommManager.c ****     {   //Determining ADC channel number based on packet type
 434:TemperatureCommManager.c ****         if(packet[HEADER_START_INDEX + 1] == PacketList[channelNumber + 2].PACKET_TYPE)
 435:TemperatureCommManager.c ****             break;
 436:TemperatureCommManager.c ****     }
 437:TemperatureCommManager.c ****     
 438:TemperatureCommManager.c ****     memcpy(temperaturePayload[channelNumber],
 439:TemperatureCommManager.c ****         &packet[PAYLOAD_START_INDEX], MAX_PAYLOAD_BYTE_COUNT);
 440:TemperatureCommManager.c ****     
 441:TemperatureCommManager.c ****     return SUCCESS; //Return here if this is a head module
 442:TemperatureCommManager.c **** }
 443:TemperatureCommManager.c **** 
 444:TemperatureCommManager.c **** /*******************************************************************************
 445:TemperatureCommManager.c **** * Function Name: processFinalDriverCountPacket
 446:TemperatureCommManager.c **** ********************************************************************************
 447:TemperatureCommManager.c **** *
 448:TemperatureCommManager.c **** * Summary:
 449:TemperatureCommManager.c **** *  Sends the complete driver count packet to the previous module without modification.
 450:TemperatureCommManager.c **** *
 451:TemperatureCommManager.c **** * Parameters:
 452:TemperatureCommManager.c **** *  packet: The reference to the complete driver count packet.
 453:TemperatureCommManager.c **** *  length: The byte count for this packet.
 454:TemperatureCommManager.c **** *
 455:TemperatureCommManager.c **** * Return:
 456:TemperatureCommManager.c **** *  SUCCESS for valid inputs, FAILURE otherwise
 457:TemperatureCommManager.c **** *
 458:TemperatureCommManager.c **** *******************************************************************************/
 459:TemperatureCommManager.c **** static uint8 processFinalDriverCountPacket(uint8* packet, uint8 length)
 460:TemperatureCommManager.c **** {
 461:TemperatureCommManager.c ****     if(packet == NULL || (length != MAX_PACKET_SIZE - 9))
 462:TemperatureCommManager.c ****         return FAILURE;
 463:TemperatureCommManager.c ****     
 464:TemperatureCommManager.c ****     setDriverCount(packet[PAYLOAD_START_INDEX]);
 465:TemperatureCommManager.c ****     //UART_Temperature_SpiUartPutArray(packet, MAX_PACKET_SIZE - 9);
 466:TemperatureCommManager.c ****     
 467:TemperatureCommManager.c ****     
 468:TemperatureCommManager.c ****     if(getDriverID() == HEAD_MODULE_ID)
 469:TemperatureCommManager.c ****     {
 470:TemperatureCommManager.c ****         //UART_LED_Control_Write(TRUE); 
 471:TemperatureCommManager.c ****     }
 472:TemperatureCommManager.c ****     else
 473:TemperatureCommManager.c ****     {
 474:TemperatureCommManager.c ****         //UART_LED_Control_Write(FALSE);
 475:TemperatureCommManager.c ****     }
 476:TemperatureCommManager.c ****     return SUCCESS;
 477:TemperatureCommManager.c **** }
 478:TemperatureCommManager.c **** 
 479:TemperatureCommManager.c **** /*******************************************************************************
 480:TemperatureCommManager.c **** * Function Name: processAckPacket
 481:TemperatureCommManager.c **** ********************************************************************************
 482:TemperatureCommManager.c **** *
 483:TemperatureCommManager.c **** * Summary:
 484:TemperatureCommManager.c **** *  Receiving the ack packet indicates that there is a module appended to this one.
 485:TemperatureCommManager.c **** *
 486:TemperatureCommManager.c **** * Parameters:
 487:TemperatureCommManager.c **** *  packet: The reference to the ack packet.
ARM GAS  C:\Users\kylep\AppData\Local\Temp\ccNXIZc9.s 			page 10


 488:TemperatureCommManager.c **** *  length: The byte count for this packet.
 489:TemperatureCommManager.c **** *
 490:TemperatureCommManager.c **** * Return:
 491:TemperatureCommManager.c **** *  SUCCESS for valid inputs, FAILURE otherwise
 492:TemperatureCommManager.c **** *
 493:TemperatureCommManager.c **** *******************************************************************************/
 494:TemperatureCommManager.c **** static uint8 processAckPacket(uint8* packet, uint8 length)
 495:TemperatureCommManager.c **** {
 496:TemperatureCommManager.c ****     if(packet == NULL || length != (MAX_PACKET_SIZE - 9))
 497:TemperatureCommManager.c ****         return FAILURE;
 498:TemperatureCommManager.c ****     
 499:TemperatureCommManager.c ****     AckTimer_Stop();
 500:TemperatureCommManager.c ****     timerCount = 0;
 501:TemperatureCommManager.c ****     setAsNotLastDriverInChain();
 502:TemperatureCommManager.c ****     return SUCCESS;
 503:TemperatureCommManager.c **** }
 504:TemperatureCommManager.c **** 
 505:TemperatureCommManager.c **** /*******************************************************************************
 506:TemperatureCommManager.c **** * Function Name: getHighestTemperature
 507:TemperatureCommManager.c **** ********************************************************************************
 508:TemperatureCommManager.c **** *
 509:TemperatureCommManager.c **** * Summary:
 510:TemperatureCommManager.c **** *  Returns the highest temperature detected out of all modules.
 511:TemperatureCommManager.c **** *
 512:TemperatureCommManager.c **** * Parameters:
 513:TemperatureCommManager.c **** *  packet: The reference to the temperature packet to process.
 514:TemperatureCommManager.c **** *  length: The byte count for this packet.
 515:TemperatureCommManager.c **** *
 516:TemperatureCommManager.c **** * Return:
 517:TemperatureCommManager.c **** *  The highest temperature detected out of all modules, 0 if there is an input error
 518:TemperatureCommManager.c **** *
 519:TemperatureCommManager.c **** *******************************************************************************/
 520:TemperatureCommManager.c **** static int16 getHighestTemperature(uint8* packet, uint8 length)
 521:TemperatureCommManager.c **** {
  27              		.loc 1 521 0
  28              		.cfi_startproc
  29              		@ args = 0, pretend = 0, frame = 0
  30              		@ frame_needed = 0, uses_anonymous_args = 0
  31              	.LVL0:
  32 0000 10B5     		push	{r4, lr}
  33              		.cfi_def_cfa_offset 8
  34              		.cfi_offset 4, -8
  35              		.cfi_offset 14, -4
  36              	.LVL1:
 522:TemperatureCommManager.c ****     int16 highestTemperature = 0;
 523:TemperatureCommManager.c ****     int16 temperatureToCheck = 0;
 524:TemperatureCommManager.c ****     uint8 moduleIndex = 0;
 525:TemperatureCommManager.c ****     
 526:TemperatureCommManager.c ****     if(packet == NULL || length != MAX_PAYLOAD_BYTE_COUNT)
  37              		.loc 1 526 0
  38 0002 0028     		cmp	r0, #0
  39 0004 14D0     		beq	.L6
  40              		.loc 1 526 0 is_stmt 0 discriminator 1
  41 0006 1229     		cmp	r1, #18
  42 0008 14D1     		bne	.L7
  43 000a 0023     		movs	r3, #0
  44 000c 0024     		movs	r4, #0
ARM GAS  C:\Users\kylep\AppData\Local\Temp\ccNXIZc9.s 			page 11


  45 000e 0BE0     		b	.L3
  46              	.LVL2:
  47              	.L5:
 527:TemperatureCommManager.c ****         return 0;
 528:TemperatureCommManager.c ****     
 529:TemperatureCommManager.c ****     for(moduleIndex = 0; moduleIndex < MAX_DRIVER_COUNT; moduleIndex++)
 530:TemperatureCommManager.c ****     {
 531:TemperatureCommManager.c ****         temperatureToCheck = 0;
 532:TemperatureCommManager.c ****         temperatureToCheck = (int16)(packet[moduleIndex * 2] << 8);
  48              		.loc 1 532 0 is_stmt 1
  49 0010 5900     		lsls	r1, r3, #1
  50 0012 425C     		ldrb	r2, [r0, r1]
  51 0014 1202     		lsls	r2, r2, #8
  52 0016 12B2     		sxth	r2, r2
  53              	.LVL3:
 533:TemperatureCommManager.c ****         temperatureToCheck |= (int16)(packet[moduleIndex * 2 + 1]);
  54              		.loc 1 533 0
  55 0018 4118     		adds	r1, r0, r1
  56 001a 4978     		ldrb	r1, [r1, #1]
  57 001c 0A43     		orrs	r2, r1
  58              	.LVL4:
 534:TemperatureCommManager.c ****         
 535:TemperatureCommManager.c ****         if(temperatureToCheck > highestTemperature)
  59              		.loc 1 535 0
  60 001e 9442     		cmp	r4, r2
  61 0020 00DA     		bge	.L4
 536:TemperatureCommManager.c ****             highestTemperature = temperatureToCheck;
  62              		.loc 1 536 0
  63 0022 1400     		movs	r4, r2
  64              	.LVL5:
  65              	.L4:
 529:TemperatureCommManager.c ****     {
  66              		.loc 1 529 0 discriminator 2
  67 0024 0133     		adds	r3, r3, #1
  68              	.LVL6:
  69 0026 DBB2     		uxtb	r3, r3
  70              	.LVL7:
  71              	.L3:
 529:TemperatureCommManager.c ****     {
  72              		.loc 1 529 0 is_stmt 0 discriminator 1
  73 0028 072B     		cmp	r3, #7
  74 002a F1D9     		bls	.L5
 537:TemperatureCommManager.c ****     }
 538:TemperatureCommManager.c ****     
 539:TemperatureCommManager.c ****     return highestTemperature;
  75              		.loc 1 539 0 is_stmt 1
  76 002c 2000     		movs	r0, r4
  77              	.LVL8:
  78 002e 02E0     		b	.L2
  79              	.LVL9:
  80              	.L6:
 527:TemperatureCommManager.c ****     
  81              		.loc 1 527 0
  82 0030 0020     		movs	r0, #0
  83              	.LVL10:
  84 0032 00E0     		b	.L2
  85              	.LVL11:
ARM GAS  C:\Users\kylep\AppData\Local\Temp\ccNXIZc9.s 			page 12


  86              	.L7:
  87 0034 0020     		movs	r0, #0
  88              	.LVL12:
  89              	.L2:
 540:TemperatureCommManager.c **** }
  90              		.loc 1 540 0
  91              		@ sp needed
  92 0036 10BD     		pop	{r4, pc}
  93              		.cfi_endproc
  94              	.LFE43:
  95              		.size	getHighestTemperature, .-getHighestTemperature
  96              		.section	.text.isReadyToSendNextBrightnessPacket,"ax",%progbits
  97              		.align	2
  98              		.global	isReadyToSendNextBrightnessPacket
  99              		.code	16
 100              		.thumb_func
 101              		.type	isReadyToSendNextBrightnessPacket, %function
 102              	isReadyToSendNextBrightnessPacket:
 103              	.LFB32:
  88:TemperatureCommManager.c ****    return bReadyToSendNextBrightnessTimeoutPacket;
 104              		.loc 1 88 0
 105              		.cfi_startproc
 106              		@ args = 0, pretend = 0, frame = 0
 107              		@ frame_needed = 0, uses_anonymous_args = 0
 108              		@ link register save eliminated.
  89:TemperatureCommManager.c **** }
 109              		.loc 1 89 0
 110 0000 014B     		ldr	r3, .L10
 111 0002 1878     		ldrb	r0, [r3]
  90:TemperatureCommManager.c **** 
 112              		.loc 1 90 0
 113              		@ sp needed
 114 0004 7047     		bx	lr
 115              	.L11:
 116 0006 C046     		.align	2
 117              	.L10:
 118 0008 00000000 		.word	.LANCHOR0
 119              		.cfi_endproc
 120              	.LFE32:
 121              		.size	isReadyToSendNextBrightnessPacket, .-isReadyToSendNextBrightnessPacket
 122              		.section	.text.clearIsReadyToSendNextBrightnessPacket,"ax",%progbits
 123              		.align	2
 124              		.global	clearIsReadyToSendNextBrightnessPacket
 125              		.code	16
 126              		.thumb_func
 127              		.type	clearIsReadyToSendNextBrightnessPacket, %function
 128              	clearIsReadyToSendNextBrightnessPacket:
 129              	.LFB33:
  93:TemperatureCommManager.c ****     bReadyToSendNextBrightnessTimeoutPacket = FALSE;
 130              		.loc 1 93 0
 131              		.cfi_startproc
 132              		@ args = 0, pretend = 0, frame = 0
 133              		@ frame_needed = 0, uses_anonymous_args = 0
 134              		@ link register save eliminated.
  94:TemperatureCommManager.c **** }
 135              		.loc 1 94 0
 136 0000 0022     		movs	r2, #0
ARM GAS  C:\Users\kylep\AppData\Local\Temp\ccNXIZc9.s 			page 13


 137 0002 014B     		ldr	r3, .L13
 138 0004 1A70     		strb	r2, [r3]
  95:TemperatureCommManager.c **** 
 139              		.loc 1 95 0
 140              		@ sp needed
 141 0006 7047     		bx	lr
 142              	.L14:
 143              		.align	2
 144              	.L13:
 145 0008 00000000 		.word	.LANCHOR0
 146              		.cfi_endproc
 147              	.LFE33:
 148              		.size	clearIsReadyToSendNextBrightnessPacket, .-clearIsReadyToSendNextBrightnessPacket
 149              		.section	.text.isLastDriver,"ax",%progbits
 150              		.align	2
 151              		.global	isLastDriver
 152              		.code	16
 153              		.thumb_func
 154              		.type	isLastDriver, %function
 155              	isLastDriver:
 156              	.LFB34:
 113:TemperatureCommManager.c ****     return bLastDriverInChain;
 157              		.loc 1 113 0
 158              		.cfi_startproc
 159              		@ args = 0, pretend = 0, frame = 0
 160              		@ frame_needed = 0, uses_anonymous_args = 0
 161              		@ link register save eliminated.
 114:TemperatureCommManager.c **** }
 162              		.loc 1 114 0
 163 0000 014B     		ldr	r3, .L16
 164 0002 5878     		ldrb	r0, [r3, #1]
 115:TemperatureCommManager.c **** 
 165              		.loc 1 115 0
 166              		@ sp needed
 167 0004 7047     		bx	lr
 168              	.L17:
 169 0006 C046     		.align	2
 170              	.L16:
 171 0008 00000000 		.word	.LANCHOR0
 172              		.cfi_endproc
 173              	.LFE34:
 174              		.size	isLastDriver, .-isLastDriver
 175              		.section	.text.processTemperatureByteReceivedHandler,"ax",%progbits
 176              		.align	2
 177              		.global	processTemperatureByteReceivedHandler
 178              		.code	16
 179              		.thumb_func
 180              		.type	processTemperatureByteReceivedHandler, %function
 181              	processTemperatureByteReceivedHandler:
 182              	.LFB35:
 133:TemperatureCommManager.c ****     //uint8 dataByte = 0;
 183              		.loc 1 133 0
 184              		.cfi_startproc
 185              		@ args = 0, pretend = 0, frame = 0
 186              		@ frame_needed = 0, uses_anonymous_args = 0
 187              		@ link register save eliminated.
 145:TemperatureCommManager.c **** 
ARM GAS  C:\Users\kylep\AppData\Local\Temp\ccNXIZc9.s 			page 14


 188              		.loc 1 145 0
 189              		@ sp needed
 190 0000 7047     		bx	lr
 191              		.cfi_endproc
 192              	.LFE35:
 193              		.size	processTemperatureByteReceivedHandler, .-processTemperatureByteReceivedHandler
 194 0002 C046     		.section	.text.setLastDriverPacket,"ax",%progbits
 195              		.align	2
 196              		.global	setLastDriverPacket
 197              		.code	16
 198              		.thumb_func
 199              		.type	setLastDriverPacket, %function
 200              	setLastDriverPacket:
 201              	.LFB36:
 166:TemperatureCommManager.c ****     if((dataPacket == NULL) || (length != (MAX_PACKET_SIZE - 9)))
 202              		.loc 1 166 0
 203              		.cfi_startproc
 204              		@ args = 0, pretend = 0, frame = 0
 205              		@ frame_needed = 0, uses_anonymous_args = 0
 206              	.LVL13:
 207 0000 10B5     		push	{r4, lr}
 208              		.cfi_def_cfa_offset 8
 209              		.cfi_offset 4, -8
 210              		.cfi_offset 14, -4
 167:TemperatureCommManager.c ****         return FAILURE;
 211              		.loc 1 167 0
 212 0002 0028     		cmp	r0, #0
 213 0004 09D0     		beq	.L21
 167:TemperatureCommManager.c ****         return FAILURE;
 214              		.loc 1 167 0 is_stmt 0 discriminator 1
 215 0006 0D29     		cmp	r1, #13
 216 0008 09D1     		bne	.L22
 170:TemperatureCommManager.c ****     
 217              		.loc 1 170 0 is_stmt 1
 218 000a 0A00     		movs	r2, r1
 219 000c 0100     		movs	r1, r0
 220              	.LVL14:
 221 000e 0548     		ldr	r0, .L23
 222              	.LVL15:
 223 0010 0430     		adds	r0, r0, #4
 224 0012 FFF7FEFF 		bl	memcpy
 225              	.LVL16:
 172:TemperatureCommManager.c **** }
 226              		.loc 1 172 0
 227 0016 0020     		movs	r0, #0
 228 0018 02E0     		b	.L20
 229              	.LVL17:
 230              	.L21:
 168:TemperatureCommManager.c ****     
 231              		.loc 1 168 0
 232 001a 0120     		movs	r0, #1
 233              	.LVL18:
 234 001c 00E0     		b	.L20
 235              	.LVL19:
 236              	.L22:
 237 001e 0120     		movs	r0, #1
 238              	.LVL20:
ARM GAS  C:\Users\kylep\AppData\Local\Temp\ccNXIZc9.s 			page 15


 239              	.L20:
 173:TemperatureCommManager.c **** 
 240              		.loc 1 173 0
 241              		@ sp needed
 242 0020 10BD     		pop	{r4, pc}
 243              	.L24:
 244 0022 C046     		.align	2
 245              	.L23:
 246 0024 00000000 		.word	.LANCHOR0
 247              		.cfi_endproc
 248              	.LFE36:
 249              		.size	setLastDriverPacket, .-setLastDriverPacket
 250              		.section	.text.processAckTimeoutRoutine,"ax",%progbits
 251              		.align	2
 252              		.global	processAckTimeoutRoutine
 253              		.code	16
 254              		.thumb_func
 255              		.type	processAckTimeoutRoutine, %function
 256              	processAckTimeoutRoutine:
 257              	.LFB37:
 192:TemperatureCommManager.c ****     AckTimer_ClearInterrupt(AckTimer_INTR_MASK_TC);
 258              		.loc 1 192 0
 259              		.cfi_startproc
 260              		@ args = 0, pretend = 0, frame = 0
 261              		@ frame_needed = 0, uses_anonymous_args = 0
 262 0000 10B5     		push	{r4, lr}
 263              		.cfi_def_cfa_offset 8
 264              		.cfi_offset 4, -8
 265              		.cfi_offset 14, -4
 193:TemperatureCommManager.c ****     
 266              		.loc 1 193 0
 267 0002 0120     		movs	r0, #1
 268 0004 FFF7FEFF 		bl	AckTimer_ClearInterrupt
 269              	.LVL21:
 195:TemperatureCommManager.c ****     {
 270              		.loc 1 195 0
 271 0008 0B4B     		ldr	r3, .L28
 272 000a 5B8A     		ldrh	r3, [r3, #18]
 273 000c 1D2B     		cmp	r3, #29
 274 000e 03D8     		bhi	.L26
 199:TemperatureCommManager.c ****     }
 275              		.loc 1 199 0
 276 0010 0133     		adds	r3, r3, #1
 277 0012 094A     		ldr	r2, .L28
 278 0014 5382     		strh	r3, [r2, #18]
 279 0016 0EE0     		b	.L25
 280              	.L26:
 203:TemperatureCommManager.c ****         //UART_LED_Control_Write(FALSE);
 281              		.loc 1 203 0
 282 0018 074C     		ldr	r4, .L28
 283 001a 0123     		movs	r3, #1
 284 001c 6370     		strb	r3, [r4, #1]
 205:TemperatureCommManager.c ****         timerCount = 0;
 285              		.loc 1 205 0
 286 001e FFF7FEFF 		bl	AckTimer_Stop
 287              	.LVL22:
 206:TemperatureCommManager.c ****         setDriverCount(lastDriverPacket[PAYLOAD_START_INDEX]);
ARM GAS  C:\Users\kylep\AppData\Local\Temp\ccNXIZc9.s 			page 16


 288              		.loc 1 206 0
 289 0022 0023     		movs	r3, #0
 290 0024 6382     		strh	r3, [r4, #18]
 207:TemperatureCommManager.c ****         //UART_Temperature_SpiUartPutArray(lastDriverPacket, MAX_PACKET_SIZE - 9);
 291              		.loc 1 207 0
 292 0026 A079     		ldrb	r0, [r4, #6]
 293 0028 FFF7FEFF 		bl	setDriverCount
 294              	.LVL23:
 209:TemperatureCommManager.c ****     }
 295              		.loc 1 209 0
 296 002c 201D     		adds	r0, r4, #4
 297 002e 0D22     		movs	r2, #13
 298 0030 0021     		movs	r1, #0
 299 0032 FFF7FEFF 		bl	memset
 300              	.LVL24:
 301              	.L25:
 211:TemperatureCommManager.c **** 
 302              		.loc 1 211 0
 303              		@ sp needed
 304 0036 10BD     		pop	{r4, pc}
 305              	.L29:
 306              		.align	2
 307              	.L28:
 308 0038 00000000 		.word	.LANCHOR0
 309              		.cfi_endproc
 310              	.LFE37:
 311              		.size	processAckTimeoutRoutine, .-processAckTimeoutRoutine
 312              		.global	__aeabi_idivmod
 313              		.section	.text.processSamplingTimerRoutine,"ax",%progbits
 314              		.align	2
 315              		.global	processSamplingTimerRoutine
 316              		.code	16
 317              		.thumb_func
 318              		.type	processSamplingTimerRoutine, %function
 319              	processSamplingTimerRoutine:
 320              	.LFB38:
 230:TemperatureCommManager.c ****     static int16 ADC_Data[ADC_SAMPLE_COUNT] = {0, 0, 0, 0};
 321              		.loc 1 230 0
 322              		.cfi_startproc
 323              		@ args = 0, pretend = 0, frame = 32
 324              		@ frame_needed = 0, uses_anonymous_args = 0
 325 0000 F0B5     		push	{r4, r5, r6, r7, lr}
 326              		.cfi_def_cfa_offset 20
 327              		.cfi_offset 4, -20
 328              		.cfi_offset 5, -16
 329              		.cfi_offset 6, -12
 330              		.cfi_offset 7, -8
 331              		.cfi_offset 14, -4
 332 0002 5746     		mov	r7, r10
 333 0004 4E46     		mov	r6, r9
 334 0006 4546     		mov	r5, r8
 335 0008 E0B4     		push	{r5, r6, r7}
 336              		.cfi_def_cfa_offset 32
 337              		.cfi_offset 8, -32
 338              		.cfi_offset 9, -28
 339              		.cfi_offset 10, -24
 340 000a 88B0     		sub	sp, sp, #32
ARM GAS  C:\Users\kylep\AppData\Local\Temp\ccNXIZc9.s 			page 17


 341              		.cfi_def_cfa_offset 64
 342              	.LVL25:
 240:TemperatureCommManager.c ****     
 343              		.loc 1 240 0
 344 000c 0120     		movs	r0, #1
 345 000e FFF7FEFF 		bl	SamplingTimer_ClearInterrupt
 346              	.LVL26:
 252:TemperatureCommManager.c ****     temperatureSample = ADC_Data[channelNumber];    
 347              		.loc 1 252 0
 348 0012 404D     		ldr	r5, .L35
 349 0014 2A00     		movs	r2, r5
 350 0016 1432     		adds	r2, r2, #20
 351 0018 0423     		movs	r3, #4
 352 001a 0021     		movs	r1, #0
 353 001c 0020     		movs	r0, #0
 354 001e FFF7FEFF 		bl	getTemperatureSample
 355              	.LVL27:
 253:TemperatureCommManager.c ****     driverID = getDriverID();
 356              		.loc 1 253 0
 357 0022 2B7F     		ldrb	r3, [r5, #28]
 358 0024 5B00     		lsls	r3, r3, #1
 359 0026 EB18     		adds	r3, r5, r3
 360 0028 1422     		movs	r2, #20
 361 002a 9B5E     		ldrsh	r3, [r3, r2]
 362 002c 9946     		mov	r9, r3
 363 002e 6A46     		mov	r2, sp
 364 0030 D380     		strh	r3, [r2, #6]
 365 0032 D388     		ldrh	r3, [r2, #6]
 366 0034 9A46     		mov	r10, r3
 367              	.LVL28:
 254:TemperatureCommManager.c ****     
 368              		.loc 1 254 0
 369 0036 FFF7FEFF 		bl	getDriverID
 370              	.LVL29:
 371 003a 0400     		movs	r4, r0
 372 003c 8046     		mov	r8, r0
 373              	.LVL30:
 257:TemperatureCommManager.c ****     packet[HEADER_START_INDEX] = PacketList[channelNumber + 2].HEADER_BYTE;
 374              		.loc 1 257 0
 375 003e 1622     		movs	r2, #22
 376 0040 0021     		movs	r1, #0
 377 0042 02A8     		add	r0, sp, #8
 378 0044 FFF7FEFF 		bl	memset
 379              	.LVL31:
 258:TemperatureCommManager.c ****     packet[HEADER_START_INDEX + 1] = PacketList[channelNumber + 2].PACKET_TYPE;
 380              		.loc 1 258 0
 381 0048 2E7F     		ldrb	r6, [r5, #28]
 382 004a B21C     		adds	r2, r6, #2
 383 004c 3249     		ldr	r1, .L35+4
 384 004e 9300     		lsls	r3, r2, #2
 385 0050 9B18     		adds	r3, r3, r2
 386 0052 5A5C     		ldrb	r2, [r3, r1]
 387 0054 02A8     		add	r0, sp, #8
 388 0056 0270     		strb	r2, [r0]
 259:TemperatureCommManager.c ****     packet[PAYLOAD_START_INDEX + PacketList[channelNumber + 2].PAYLOAD_SIZE] 
 389              		.loc 1 259 0
 390 0058 CB18     		adds	r3, r1, r3
ARM GAS  C:\Users\kylep\AppData\Local\Temp\ccNXIZc9.s 			page 18


 391 005a 5A78     		ldrb	r2, [r3, #1]
 392 005c 4270     		strb	r2, [r0, #1]
 260:TemperatureCommManager.c ****         = PacketList[channelNumber + 2].EOP_CARRIAGE_RETURN;
 393              		.loc 1 260 0
 394 005e 9A78     		ldrb	r2, [r3, #2]
 395 0060 911C     		adds	r1, r2, #2
 261:TemperatureCommManager.c ****     packet[PAYLOAD_START_INDEX + PacketList[channelNumber + 2].PAYLOAD_SIZE + 1]
 396              		.loc 1 261 0
 397 0062 D878     		ldrb	r0, [r3, #3]
 398 0064 02AF     		add	r7, sp, #8
 399 0066 7854     		strb	r0, [r7, r1]
 262:TemperatureCommManager.c ****         = PacketList[channelNumber + 2].EOP_LINE_FEED;
 400              		.loc 1 262 0
 401 0068 0332     		adds	r2, r2, #3
 263:TemperatureCommManager.c ****         
 402              		.loc 1 263 0
 403 006a 1B79     		ldrb	r3, [r3, #4]
 404 006c BB54     		strb	r3, [r7, r2]
 265:TemperatureCommManager.c ****         MAX_PAYLOAD_BYTE_COUNT);
 405              		.loc 1 265 0
 406 006e 2035     		adds	r5, r5, #32
 407 0070 F300     		lsls	r3, r6, #3
 408 0072 9B19     		adds	r3, r3, r6
 409 0074 5900     		lsls	r1, r3, #1
 410 0076 6918     		adds	r1, r5, r1
 411 0078 1222     		movs	r2, #18
 412 007a B81C     		adds	r0, r7, #2
 413 007c FFF7FEFF 		bl	memcpy
 414              	.LVL32:
 267:TemperatureCommManager.c ****     packet[PAYLOAD_START_INDEX + driverID * 2 + 1] = temperatureSample & 0xFF;
 415              		.loc 1 267 0
 416 0080 0134     		adds	r4, r4, #1
 417              	.LVL33:
 418 0082 6400     		lsls	r4, r4, #1
 419 0084 5346     		mov	r3, r10
 420 0086 1F0A     		lsrs	r7, r3, #8
 421 0088 02AB     		add	r3, sp, #8
 422 008a 1F55     		strb	r7, [r3, r4]
 268:TemperatureCommManager.c ****     
 423              		.loc 1 268 0
 424 008c 0134     		adds	r4, r4, #1
 425 008e 4A46     		mov	r2, r9
 426 0090 1A55     		strb	r2, [r3, r4]
 270:TemperatureCommManager.c ****     {   //Add max temperature to packet if this is the head module
 427              		.loc 1 270 0
 428 0092 4346     		mov	r3, r8
 429 0094 012B     		cmp	r3, #1
 430 0096 07D1     		bne	.L31
 273:TemperatureCommManager.c ****         packet[PAYLOAD_START_INDEX] = (temperatureSample >> 8) & 0xFF;
 431              		.loc 1 273 0
 432 0098 3000     		movs	r0, r6
 433 009a FFF7FEFF 		bl	getMaxTemperature
 434              	.LVL34:
 435 009e 83B2     		uxth	r3, r0
 436              	.LVL35:
 274:TemperatureCommManager.c ****         packet[PAYLOAD_START_INDEX + 1] = temperatureSample & 0xFF;
 437              		.loc 1 274 0
ARM GAS  C:\Users\kylep\AppData\Local\Temp\ccNXIZc9.s 			page 19


 438 00a0 1B0A     		lsrs	r3, r3, #8
 439              	.LVL36:
 440 00a2 02AA     		add	r2, sp, #8
 441 00a4 9370     		strb	r3, [r2, #2]
 275:TemperatureCommManager.c ****     }
 442              		.loc 1 275 0
 443 00a6 D070     		strb	r0, [r2, #3]
 444              	.LVL37:
 445              	.L31:
 281:TemperatureCommManager.c ****     if(sendTempPacketBack>2)
 446              		.loc 1 281 0
 447 00a8 1A49     		ldr	r1, .L35
 448 00aa 5622     		movs	r2, #86
 449 00ac 8B5C     		ldrb	r3, [r1, r2]
 450 00ae 0133     		adds	r3, r3, #1
 451 00b0 DBB2     		uxtb	r3, r3
 452 00b2 8B54     		strb	r3, [r1, r2]
 282:TemperatureCommManager.c ****     {
 453              		.loc 1 282 0
 454 00b4 022B     		cmp	r3, #2
 455 00b6 03D9     		bls	.L32
 284:TemperatureCommManager.c ****         //UART_Temperature_SpiUartPutArray(packet, MAX_PACKET_SIZE);
 456              		.loc 1 284 0
 457 00b8 0021     		movs	r1, #0
 458 00ba 5623     		movs	r3, #86
 459 00bc 154A     		ldr	r2, .L35
 460 00be D154     		strb	r1, [r2, r3]
 461              	.L32:
 287:TemperatureCommManager.c ****         getHighestTemperature(&packet[PAYLOAD_START_INDEX + 2], MAX_PAYLOAD_BYTE_COUNT);
 462              		.loc 1 287 0
 463 00c0 144C     		ldr	r4, .L35
 464 00c2 257F     		ldrb	r5, [r4, #28]
 288:TemperatureCommManager.c ****     
 465              		.loc 1 288 0
 466 00c4 1221     		movs	r1, #18
 467 00c6 03A8     		add	r0, sp, #12
 468 00c8 FFF7FEFF 		bl	getHighestTemperature
 469              	.LVL38:
 287:TemperatureCommManager.c ****         getHighestTemperature(&packet[PAYLOAD_START_INDEX + 2], MAX_PAYLOAD_BYTE_COUNT);
 470              		.loc 1 287 0
 471 00cc 6B00     		lsls	r3, r5, #1
 472 00ce E318     		adds	r3, r4, r3
 473 00d0 5822     		movs	r2, #88
 474 00d2 9852     		strh	r0, [r3, r2]
 290:TemperatureCommManager.c ****     {   //Adjust brightness based on temp and send new brightness
 475              		.loc 1 290 0
 476 00d4 4346     		mov	r3, r8
 477 00d6 012B     		cmp	r3, #1
 478 00d8 08D1     		bne	.L33
 290:TemperatureCommManager.c ****     {   //Adjust brightness based on temp and send new brightness
 479              		.loc 1 290 0 is_stmt 0 discriminator 1
 480 00da 012D     		cmp	r5, #1
 481 00dc 06D1     		bne	.L33
 292:TemperatureCommManager.c ****         temporaryPacket[PAYLOAD_START_INDEX] = getNewMaxBrightness();
 482              		.loc 1 292 0 is_stmt 1
 483 00de 0321     		movs	r1, #3
 484 00e0 2000     		movs	r0, r4
ARM GAS  C:\Users\kylep\AppData\Local\Temp\ccNXIZc9.s 			page 20


 485 00e2 5830     		adds	r0, r0, #88
 486 00e4 FFF7FEFF 		bl	regulateBrightness
 487              	.LVL39:
 293:TemperatureCommManager.c ****         //UART_Temperature_SpiUartPutArray(temporaryPacket, 5);
 488              		.loc 1 293 0
 489 00e8 FFF7FEFF 		bl	getNewMaxBrightness
 490              	.LVL40:
 491              	.L33:
 298:TemperatureCommManager.c ****         ADC_SAR_Seq_EnableInjection();
 492              		.loc 1 298 0
 493 00ec 094B     		ldr	r3, .L35
 494 00ee 1B7F     		ldrb	r3, [r3, #28]
 495 00f0 032B     		cmp	r3, #3
 496 00f2 01D1     		bne	.L34
 299:TemperatureCommManager.c ****     
 497              		.loc 1 299 0
 498 00f4 FFF7FEFF 		bl	ADC_SAR_Seq_EnableInjection
 499              	.LVL41:
 500              	.L34:
 301:TemperatureCommManager.c ****     
 501              		.loc 1 301 0
 502 00f8 064C     		ldr	r4, .L35
 503 00fa 207F     		ldrb	r0, [r4, #28]
 504 00fc 0130     		adds	r0, r0, #1
 505 00fe 0321     		movs	r1, #3
 506 0100 FFF7FEFF 		bl	__aeabi_idivmod
 507              	.LVL42:
 508 0104 2177     		strb	r1, [r4, #28]
 303:TemperatureCommManager.c **** 
 509              		.loc 1 303 0
 510 0106 08B0     		add	sp, sp, #32
 511              		@ sp needed
 512 0108 1CBC     		pop	{r2, r3, r4}
 513 010a 9046     		mov	r8, r2
 514 010c 9946     		mov	r9, r3
 515 010e A246     		mov	r10, r4
 516 0110 F0BD     		pop	{r4, r5, r6, r7, pc}
 517              	.L36:
 518 0112 C046     		.align	2
 519              	.L35:
 520 0114 00000000 		.word	.LANCHOR0
 521 0118 00000000 		.word	.LANCHOR1
 522              		.cfi_endproc
 523              	.LFE38:
 524              		.size	processSamplingTimerRoutine, .-processSamplingTimerRoutine
 525              		.global	sendTempPacketBack
 526              		.global	readyToSendThresholdCounter
 527              		.global	bReadyToSendNextBrightnessTimeoutPacket
 528              		.section	.rodata
 529              		.align	2
 530              		.set	.LANCHOR1,. + 0
 531              		.type	PacketList, %object
 532              		.size	PacketList, 30
 533              	PacketList:
 534 0000 7E       		.byte	126
 535 0001 43       		.byte	67
 536 0002 09       		.byte	9
ARM GAS  C:\Users\kylep\AppData\Local\Temp\ccNXIZc9.s 			page 21


 537 0003 0D       		.byte	13
 538 0004 0A       		.byte	10
 539 0005 7E       		.byte	126
 540 0006 41       		.byte	65
 541 0007 09       		.byte	9
 542 0008 0D       		.byte	13
 543 0009 0A       		.byte	10
 544 000a 7E       		.byte	126
 545 000b 54       		.byte	84
 546 000c 12       		.byte	18
 547 000d 0D       		.byte	13
 548 000e 0A       		.byte	10
 549 000f 7E       		.byte	126
 550 0010 55       		.byte	85
 551 0011 12       		.byte	18
 552 0012 0D       		.byte	13
 553 0013 0A       		.byte	10
 554 0014 7E       		.byte	126
 555 0015 57       		.byte	87
 556 0016 12       		.byte	18
 557 0017 0D       		.byte	13
 558 0018 0A       		.byte	10
 559 0019 7E       		.byte	126
 560 001a 56       		.byte	86
 561 001b 12       		.byte	18
 562 001c 0D       		.byte	13
 563 001d 0A       		.byte	10
 564              		.bss
 565              		.align	2
 566              		.set	.LANCHOR0,. + 0
 567              		.type	bReadyToSendNextBrightnessTimeoutPacket, %object
 568              		.size	bReadyToSendNextBrightnessTimeoutPacket, 1
 569              	bReadyToSendNextBrightnessTimeoutPacket:
 570 0000 00       		.space	1
 571              		.type	bLastDriverInChain, %object
 572              		.size	bLastDriverInChain, 1
 573              	bLastDriverInChain:
 574 0001 00       		.space	1
 575 0002 0000     		.space	2
 576              		.type	lastDriverPacket, %object
 577              		.size	lastDriverPacket, 13
 578              	lastDriverPacket:
 579 0004 00000000 		.space	13
 579      00000000 
 579      00000000 
 579      00
 580 0011 00       		.space	1
 581              		.type	timerCount, %object
 582              		.size	timerCount, 2
 583              	timerCount:
 584 0012 0000     		.space	2
 585              		.type	ADC_Data.6589, %object
 586              		.size	ADC_Data.6589, 8
 587              	ADC_Data.6589:
 588 0014 00000000 		.space	8
 588      00000000 
 589              		.type	channelNumber.6591, %object
ARM GAS  C:\Users\kylep\AppData\Local\Temp\ccNXIZc9.s 			page 22


 590              		.size	channelNumber.6591, 1
 591              	channelNumber.6591:
 592 001c 00       		.space	1
 593 001d 000000   		.space	3
 594              		.type	temperaturePayload, %object
 595              		.size	temperaturePayload, 54
 596              	temperaturePayload:
 597 0020 00000000 		.space	54
 597      00000000 
 597      00000000 
 597      00000000 
 597      00000000 
 598              		.type	sendTempPacketBack, %object
 599              		.size	sendTempPacketBack, 1
 600              	sendTempPacketBack:
 601 0056 00       		.space	1
 602 0057 00       		.space	1
 603              		.type	HighestTemperatures.6590, %object
 604              		.size	HighestTemperatures.6590, 6
 605              	HighestTemperatures.6590:
 606 0058 00000000 		.space	6
 606      0000
 607              		.type	readyToSendThresholdCounter, %object
 608              		.size	readyToSendThresholdCounter, 1
 609              	readyToSendThresholdCounter:
 610 005e 00       		.space	1
 611              		.text
 612              	.Letext0:
 613              		.file 2 "Generated_Source\\PSoC4/cytypes.h"
 614              		.file 3 "Generated_Source\\PSoC4/AckTimer.h"
 615              		.file 4 "DriverControl.h"
 616              		.file 5 "Generated_Source\\PSoC4/SamplingTimer.h"
 617              		.file 6 "Generated_Source\\PSoC4/ADC_SAR_Seq.h"