ARM GAS  C:\Users\kylep\AppData\Local\Temp\ccyBhV9W.s 			page 1


   1              		.syntax unified
   2              		.cpu cortex-m0
   3              		.fpu softvfp
   4              		.eabi_attribute 20, 1
   5              		.eabi_attribute 21, 1
   6              		.eabi_attribute 23, 3
   7              		.eabi_attribute 24, 1
   8              		.eabi_attribute 25, 1
   9              		.eabi_attribute 26, 1
  10              		.eabi_attribute 30, 1
  11              		.eabi_attribute 34, 0
  12              		.eabi_attribute 18, 4
  13              		.thumb
  14              		.syntax unified
  15              		.file	"UART_LED_ISR.c"
  16              		.text
  17              	.Ltext0:
  18              		.cfi_sections	.debug_frame
  19              		.section	.text.UART_LED_ISR_Interrupt,"ax",%progbits
  20              		.align	2
  21              		.global	UART_LED_ISR_Interrupt
  22              		.code	16
  23              		.thumb_func
  24              		.type	UART_LED_ISR_Interrupt, %function
  25              	UART_LED_ISR_Interrupt:
  26              	.LFB35:
  27              		.file 1 "Generated_Source\\PSoC4\\UART_LED_ISR.c"
   1:Generated_Source\PSoC4/UART_LED_ISR.c **** /*******************************************************************************
   2:Generated_Source\PSoC4/UART_LED_ISR.c **** * File Name: UART_LED_ISR.c  
   3:Generated_Source\PSoC4/UART_LED_ISR.c **** * Version 1.70
   4:Generated_Source\PSoC4/UART_LED_ISR.c **** *
   5:Generated_Source\PSoC4/UART_LED_ISR.c **** *  Description:
   6:Generated_Source\PSoC4/UART_LED_ISR.c **** *   API for controlling the state of an interrupt.
   7:Generated_Source\PSoC4/UART_LED_ISR.c **** *
   8:Generated_Source\PSoC4/UART_LED_ISR.c **** *
   9:Generated_Source\PSoC4/UART_LED_ISR.c **** *  Note:
  10:Generated_Source\PSoC4/UART_LED_ISR.c **** *
  11:Generated_Source\PSoC4/UART_LED_ISR.c **** ********************************************************************************
  12:Generated_Source\PSoC4/UART_LED_ISR.c **** * Copyright 2008-2015, Cypress Semiconductor Corporation.  All rights reserved.
  13:Generated_Source\PSoC4/UART_LED_ISR.c **** * You may use this file only in accordance with the license, terms, conditions, 
  14:Generated_Source\PSoC4/UART_LED_ISR.c **** * disclaimers, and limitations in the end user license agreement accompanying 
  15:Generated_Source\PSoC4/UART_LED_ISR.c **** * the software package with which this file was provided.
  16:Generated_Source\PSoC4/UART_LED_ISR.c **** *******************************************************************************/
  17:Generated_Source\PSoC4/UART_LED_ISR.c **** 
  18:Generated_Source\PSoC4/UART_LED_ISR.c **** 
  19:Generated_Source\PSoC4/UART_LED_ISR.c **** #include <cydevice_trm.h>
  20:Generated_Source\PSoC4/UART_LED_ISR.c **** #include <CyLib.h>
  21:Generated_Source\PSoC4/UART_LED_ISR.c **** #include <UART_LED_ISR.h>
  22:Generated_Source\PSoC4/UART_LED_ISR.c **** 
  23:Generated_Source\PSoC4/UART_LED_ISR.c **** 
  24:Generated_Source\PSoC4/UART_LED_ISR.c **** #if !defined(UART_LED_ISR__REMOVED) /* Check for removal by optimization */
  25:Generated_Source\PSoC4/UART_LED_ISR.c **** 
  26:Generated_Source\PSoC4/UART_LED_ISR.c **** /*******************************************************************************
  27:Generated_Source\PSoC4/UART_LED_ISR.c **** *  Place your includes, defines and code here 
  28:Generated_Source\PSoC4/UART_LED_ISR.c **** ********************************************************************************/
  29:Generated_Source\PSoC4/UART_LED_ISR.c **** /* `#START UART_LED_ISR_intc` */
  30:Generated_Source\PSoC4/UART_LED_ISR.c **** #include "BrightnessCommManager.h"
ARM GAS  C:\Users\kylep\AppData\Local\Temp\ccyBhV9W.s 			page 2


  31:Generated_Source\PSoC4/UART_LED_ISR.c **** /* `#END` */
  32:Generated_Source\PSoC4/UART_LED_ISR.c **** 
  33:Generated_Source\PSoC4/UART_LED_ISR.c **** extern cyisraddress CyRamVectors[CYINT_IRQ_BASE + CY_NUM_INTERRUPTS];
  34:Generated_Source\PSoC4/UART_LED_ISR.c **** 
  35:Generated_Source\PSoC4/UART_LED_ISR.c **** /* Declared in startup, used to set unused interrupts to. */
  36:Generated_Source\PSoC4/UART_LED_ISR.c **** CY_ISR_PROTO(IntDefaultHandler);
  37:Generated_Source\PSoC4/UART_LED_ISR.c **** 
  38:Generated_Source\PSoC4/UART_LED_ISR.c **** 
  39:Generated_Source\PSoC4/UART_LED_ISR.c **** /*******************************************************************************
  40:Generated_Source\PSoC4/UART_LED_ISR.c **** * Function Name: UART_LED_ISR_Start
  41:Generated_Source\PSoC4/UART_LED_ISR.c **** ********************************************************************************
  42:Generated_Source\PSoC4/UART_LED_ISR.c **** *
  43:Generated_Source\PSoC4/UART_LED_ISR.c **** * Summary:
  44:Generated_Source\PSoC4/UART_LED_ISR.c **** *  Set up the interrupt and enable it. This function disables the interrupt, 
  45:Generated_Source\PSoC4/UART_LED_ISR.c **** *  sets the default interrupt vector, sets the priority from the value in the
  46:Generated_Source\PSoC4/UART_LED_ISR.c **** *  Design Wide Resources Interrupt Editor, then enables the interrupt to the 
  47:Generated_Source\PSoC4/UART_LED_ISR.c **** *  interrupt controller.
  48:Generated_Source\PSoC4/UART_LED_ISR.c **** *
  49:Generated_Source\PSoC4/UART_LED_ISR.c **** * Parameters:  
  50:Generated_Source\PSoC4/UART_LED_ISR.c **** *   None
  51:Generated_Source\PSoC4/UART_LED_ISR.c **** *
  52:Generated_Source\PSoC4/UART_LED_ISR.c **** * Return:
  53:Generated_Source\PSoC4/UART_LED_ISR.c **** *   None
  54:Generated_Source\PSoC4/UART_LED_ISR.c **** *
  55:Generated_Source\PSoC4/UART_LED_ISR.c **** *******************************************************************************/
  56:Generated_Source\PSoC4/UART_LED_ISR.c **** void UART_LED_ISR_Start(void)
  57:Generated_Source\PSoC4/UART_LED_ISR.c **** {
  58:Generated_Source\PSoC4/UART_LED_ISR.c ****     /* For all we know the interrupt is active. */
  59:Generated_Source\PSoC4/UART_LED_ISR.c ****     UART_LED_ISR_Disable();
  60:Generated_Source\PSoC4/UART_LED_ISR.c **** 
  61:Generated_Source\PSoC4/UART_LED_ISR.c ****     /* Set the ISR to point to the UART_LED_ISR Interrupt. */
  62:Generated_Source\PSoC4/UART_LED_ISR.c ****     UART_LED_ISR_SetVector(&UART_LED_ISR_Interrupt);
  63:Generated_Source\PSoC4/UART_LED_ISR.c **** 
  64:Generated_Source\PSoC4/UART_LED_ISR.c ****     /* Set the priority. */
  65:Generated_Source\PSoC4/UART_LED_ISR.c ****     UART_LED_ISR_SetPriority((uint8)UART_LED_ISR_INTC_PRIOR_NUMBER);
  66:Generated_Source\PSoC4/UART_LED_ISR.c **** 
  67:Generated_Source\PSoC4/UART_LED_ISR.c ****     /* Enable it. */
  68:Generated_Source\PSoC4/UART_LED_ISR.c ****     UART_LED_ISR_Enable();
  69:Generated_Source\PSoC4/UART_LED_ISR.c **** }
  70:Generated_Source\PSoC4/UART_LED_ISR.c **** 
  71:Generated_Source\PSoC4/UART_LED_ISR.c **** 
  72:Generated_Source\PSoC4/UART_LED_ISR.c **** /*******************************************************************************
  73:Generated_Source\PSoC4/UART_LED_ISR.c **** * Function Name: UART_LED_ISR_StartEx
  74:Generated_Source\PSoC4/UART_LED_ISR.c **** ********************************************************************************
  75:Generated_Source\PSoC4/UART_LED_ISR.c **** *
  76:Generated_Source\PSoC4/UART_LED_ISR.c **** * Summary:
  77:Generated_Source\PSoC4/UART_LED_ISR.c **** *  Sets up the interrupt and enables it. This function disables the interrupt,
  78:Generated_Source\PSoC4/UART_LED_ISR.c **** *  sets the interrupt vector based on the address passed in, sets the priority 
  79:Generated_Source\PSoC4/UART_LED_ISR.c **** *  from the value in the Design Wide Resources Interrupt Editor, then enables 
  80:Generated_Source\PSoC4/UART_LED_ISR.c **** *  the interrupt to the interrupt controller.
  81:Generated_Source\PSoC4/UART_LED_ISR.c **** *  
  82:Generated_Source\PSoC4/UART_LED_ISR.c **** *  When defining ISR functions, the CY_ISR and CY_ISR_PROTO macros should be 
  83:Generated_Source\PSoC4/UART_LED_ISR.c **** *  used to provide consistent definition across compilers:
  84:Generated_Source\PSoC4/UART_LED_ISR.c **** *  
  85:Generated_Source\PSoC4/UART_LED_ISR.c **** *  Function definition example:
  86:Generated_Source\PSoC4/UART_LED_ISR.c **** *   CY_ISR(MyISR)
  87:Generated_Source\PSoC4/UART_LED_ISR.c **** *   {
ARM GAS  C:\Users\kylep\AppData\Local\Temp\ccyBhV9W.s 			page 3


  88:Generated_Source\PSoC4/UART_LED_ISR.c **** *   }
  89:Generated_Source\PSoC4/UART_LED_ISR.c **** *   Function prototype example:
  90:Generated_Source\PSoC4/UART_LED_ISR.c **** *   CY_ISR_PROTO(MyISR);
  91:Generated_Source\PSoC4/UART_LED_ISR.c **** *
  92:Generated_Source\PSoC4/UART_LED_ISR.c **** * Parameters:  
  93:Generated_Source\PSoC4/UART_LED_ISR.c **** *   address: Address of the ISR to set in the interrupt vector table.
  94:Generated_Source\PSoC4/UART_LED_ISR.c **** *
  95:Generated_Source\PSoC4/UART_LED_ISR.c **** * Return:
  96:Generated_Source\PSoC4/UART_LED_ISR.c **** *   None
  97:Generated_Source\PSoC4/UART_LED_ISR.c **** *
  98:Generated_Source\PSoC4/UART_LED_ISR.c **** *******************************************************************************/
  99:Generated_Source\PSoC4/UART_LED_ISR.c **** void UART_LED_ISR_StartEx(cyisraddress address)
 100:Generated_Source\PSoC4/UART_LED_ISR.c **** {
 101:Generated_Source\PSoC4/UART_LED_ISR.c ****     /* For all we know the interrupt is active. */
 102:Generated_Source\PSoC4/UART_LED_ISR.c ****     UART_LED_ISR_Disable();
 103:Generated_Source\PSoC4/UART_LED_ISR.c **** 
 104:Generated_Source\PSoC4/UART_LED_ISR.c ****     /* Set the ISR to point to the UART_LED_ISR Interrupt. */
 105:Generated_Source\PSoC4/UART_LED_ISR.c ****     UART_LED_ISR_SetVector(address);
 106:Generated_Source\PSoC4/UART_LED_ISR.c **** 
 107:Generated_Source\PSoC4/UART_LED_ISR.c ****     /* Set the priority. */
 108:Generated_Source\PSoC4/UART_LED_ISR.c ****     UART_LED_ISR_SetPriority((uint8)UART_LED_ISR_INTC_PRIOR_NUMBER);
 109:Generated_Source\PSoC4/UART_LED_ISR.c **** 
 110:Generated_Source\PSoC4/UART_LED_ISR.c ****     /* Enable it. */
 111:Generated_Source\PSoC4/UART_LED_ISR.c ****     UART_LED_ISR_Enable();
 112:Generated_Source\PSoC4/UART_LED_ISR.c **** }
 113:Generated_Source\PSoC4/UART_LED_ISR.c **** 
 114:Generated_Source\PSoC4/UART_LED_ISR.c **** 
 115:Generated_Source\PSoC4/UART_LED_ISR.c **** /*******************************************************************************
 116:Generated_Source\PSoC4/UART_LED_ISR.c **** * Function Name: UART_LED_ISR_Stop
 117:Generated_Source\PSoC4/UART_LED_ISR.c **** ********************************************************************************
 118:Generated_Source\PSoC4/UART_LED_ISR.c **** *
 119:Generated_Source\PSoC4/UART_LED_ISR.c **** * Summary:
 120:Generated_Source\PSoC4/UART_LED_ISR.c **** *   Disables and removes the interrupt.
 121:Generated_Source\PSoC4/UART_LED_ISR.c **** *
 122:Generated_Source\PSoC4/UART_LED_ISR.c **** * Parameters:  
 123:Generated_Source\PSoC4/UART_LED_ISR.c **** *   None
 124:Generated_Source\PSoC4/UART_LED_ISR.c **** *
 125:Generated_Source\PSoC4/UART_LED_ISR.c **** * Return:
 126:Generated_Source\PSoC4/UART_LED_ISR.c **** *   None
 127:Generated_Source\PSoC4/UART_LED_ISR.c **** *
 128:Generated_Source\PSoC4/UART_LED_ISR.c **** *******************************************************************************/
 129:Generated_Source\PSoC4/UART_LED_ISR.c **** void UART_LED_ISR_Stop(void)
 130:Generated_Source\PSoC4/UART_LED_ISR.c **** {
 131:Generated_Source\PSoC4/UART_LED_ISR.c ****     /* Disable this interrupt. */
 132:Generated_Source\PSoC4/UART_LED_ISR.c ****     UART_LED_ISR_Disable();
 133:Generated_Source\PSoC4/UART_LED_ISR.c **** 
 134:Generated_Source\PSoC4/UART_LED_ISR.c ****     /* Set the ISR to point to the passive one. */
 135:Generated_Source\PSoC4/UART_LED_ISR.c ****     UART_LED_ISR_SetVector(&IntDefaultHandler);
 136:Generated_Source\PSoC4/UART_LED_ISR.c **** }
 137:Generated_Source\PSoC4/UART_LED_ISR.c **** 
 138:Generated_Source\PSoC4/UART_LED_ISR.c **** 
 139:Generated_Source\PSoC4/UART_LED_ISR.c **** /*******************************************************************************
 140:Generated_Source\PSoC4/UART_LED_ISR.c **** * Function Name: UART_LED_ISR_Interrupt
 141:Generated_Source\PSoC4/UART_LED_ISR.c **** ********************************************************************************
 142:Generated_Source\PSoC4/UART_LED_ISR.c **** *
 143:Generated_Source\PSoC4/UART_LED_ISR.c **** * Summary:
 144:Generated_Source\PSoC4/UART_LED_ISR.c **** *   The default Interrupt Service Routine for UART_LED_ISR.
ARM GAS  C:\Users\kylep\AppData\Local\Temp\ccyBhV9W.s 			page 4


 145:Generated_Source\PSoC4/UART_LED_ISR.c **** *
 146:Generated_Source\PSoC4/UART_LED_ISR.c **** *   Add custom code between the START and END comments to keep the next version
 147:Generated_Source\PSoC4/UART_LED_ISR.c **** *   of this file from over-writing your code.
 148:Generated_Source\PSoC4/UART_LED_ISR.c **** *
 149:Generated_Source\PSoC4/UART_LED_ISR.c **** *   Note You may use either the default ISR by using this API, or you may define
 150:Generated_Source\PSoC4/UART_LED_ISR.c **** *   your own separate ISR through ISR_StartEx().
 151:Generated_Source\PSoC4/UART_LED_ISR.c **** *
 152:Generated_Source\PSoC4/UART_LED_ISR.c **** * Parameters:  
 153:Generated_Source\PSoC4/UART_LED_ISR.c **** *   None
 154:Generated_Source\PSoC4/UART_LED_ISR.c **** *
 155:Generated_Source\PSoC4/UART_LED_ISR.c **** * Return:
 156:Generated_Source\PSoC4/UART_LED_ISR.c **** *   None
 157:Generated_Source\PSoC4/UART_LED_ISR.c **** *
 158:Generated_Source\PSoC4/UART_LED_ISR.c **** *******************************************************************************/
 159:Generated_Source\PSoC4/UART_LED_ISR.c **** CY_ISR(UART_LED_ISR_Interrupt)
 160:Generated_Source\PSoC4/UART_LED_ISR.c **** {
  28              		.loc 1 160 0
  29              		.cfi_startproc
  30              		@ args = 0, pretend = 0, frame = 0
  31              		@ frame_needed = 0, uses_anonymous_args = 0
  32 0000 10B5     		push	{r4, lr}
  33              		.cfi_def_cfa_offset 8
  34              		.cfi_offset 4, -8
  35              		.cfi_offset 14, -4
 161:Generated_Source\PSoC4/UART_LED_ISR.c ****     #ifdef UART_LED_ISR_INTERRUPT_INTERRUPT_CALLBACK
 162:Generated_Source\PSoC4/UART_LED_ISR.c ****         UART_LED_ISR_Interrupt_InterruptCallback();
 163:Generated_Source\PSoC4/UART_LED_ISR.c ****     #endif /* UART_LED_ISR_INTERRUPT_INTERRUPT_CALLBACK */ 
 164:Generated_Source\PSoC4/UART_LED_ISR.c **** 
 165:Generated_Source\PSoC4/UART_LED_ISR.c ****     /*  Place your Interrupt code here. */
 166:Generated_Source\PSoC4/UART_LED_ISR.c ****     /* `#START UART_LED_ISR_Interrupt` */
 167:Generated_Source\PSoC4/UART_LED_ISR.c ****     processBrightnessByteReceivedHandler();
  36              		.loc 1 167 0
  37 0002 FFF7FEFF 		bl	processBrightnessByteReceivedHandler
  38              	.LVL0:
 168:Generated_Source\PSoC4/UART_LED_ISR.c ****     /* `#END` */
 169:Generated_Source\PSoC4/UART_LED_ISR.c **** }
  39              		.loc 1 169 0
  40              		@ sp needed
  41 0006 10BD     		pop	{r4, pc}
  42              		.cfi_endproc
  43              	.LFE35:
  44              		.size	UART_LED_ISR_Interrupt, .-UART_LED_ISR_Interrupt
  45              		.section	.text.UART_LED_ISR_SetVector,"ax",%progbits
  46              		.align	2
  47              		.global	UART_LED_ISR_SetVector
  48              		.code	16
  49              		.thumb_func
  50              		.type	UART_LED_ISR_SetVector, %function
  51              	UART_LED_ISR_SetVector:
  52              	.LFB36:
 170:Generated_Source\PSoC4/UART_LED_ISR.c **** 
 171:Generated_Source\PSoC4/UART_LED_ISR.c **** 
 172:Generated_Source\PSoC4/UART_LED_ISR.c **** /*******************************************************************************
 173:Generated_Source\PSoC4/UART_LED_ISR.c **** * Function Name: UART_LED_ISR_SetVector
 174:Generated_Source\PSoC4/UART_LED_ISR.c **** ********************************************************************************
 175:Generated_Source\PSoC4/UART_LED_ISR.c **** *
 176:Generated_Source\PSoC4/UART_LED_ISR.c **** * Summary:
ARM GAS  C:\Users\kylep\AppData\Local\Temp\ccyBhV9W.s 			page 5


 177:Generated_Source\PSoC4/UART_LED_ISR.c **** *   Change the ISR vector for the Interrupt. Note calling UART_LED_ISR_Start
 178:Generated_Source\PSoC4/UART_LED_ISR.c **** *   will override any effect this method would have had. To set the vector 
 179:Generated_Source\PSoC4/UART_LED_ISR.c **** *   before the component has been started use UART_LED_ISR_StartEx instead.
 180:Generated_Source\PSoC4/UART_LED_ISR.c **** * 
 181:Generated_Source\PSoC4/UART_LED_ISR.c **** *   When defining ISR functions, the CY_ISR and CY_ISR_PROTO macros should be 
 182:Generated_Source\PSoC4/UART_LED_ISR.c **** *   used to provide consistent definition across compilers:
 183:Generated_Source\PSoC4/UART_LED_ISR.c **** *
 184:Generated_Source\PSoC4/UART_LED_ISR.c **** *   Function definition example:
 185:Generated_Source\PSoC4/UART_LED_ISR.c **** *   CY_ISR(MyISR)
 186:Generated_Source\PSoC4/UART_LED_ISR.c **** *   {
 187:Generated_Source\PSoC4/UART_LED_ISR.c **** *   }
 188:Generated_Source\PSoC4/UART_LED_ISR.c **** *
 189:Generated_Source\PSoC4/UART_LED_ISR.c **** *   Function prototype example:
 190:Generated_Source\PSoC4/UART_LED_ISR.c **** *     CY_ISR_PROTO(MyISR);
 191:Generated_Source\PSoC4/UART_LED_ISR.c **** *
 192:Generated_Source\PSoC4/UART_LED_ISR.c **** * Parameters:
 193:Generated_Source\PSoC4/UART_LED_ISR.c **** *   address: Address of the ISR to set in the interrupt vector table.
 194:Generated_Source\PSoC4/UART_LED_ISR.c **** *
 195:Generated_Source\PSoC4/UART_LED_ISR.c **** * Return:
 196:Generated_Source\PSoC4/UART_LED_ISR.c **** *   None
 197:Generated_Source\PSoC4/UART_LED_ISR.c **** *
 198:Generated_Source\PSoC4/UART_LED_ISR.c **** *******************************************************************************/
 199:Generated_Source\PSoC4/UART_LED_ISR.c **** void UART_LED_ISR_SetVector(cyisraddress address)
 200:Generated_Source\PSoC4/UART_LED_ISR.c **** {
  53              		.loc 1 200 0
  54              		.cfi_startproc
  55              		@ args = 0, pretend = 0, frame = 0
  56              		@ frame_needed = 0, uses_anonymous_args = 0
  57              		@ link register save eliminated.
  58              	.LVL1:
 201:Generated_Source\PSoC4/UART_LED_ISR.c ****     CyRamVectors[CYINT_IRQ_BASE + UART_LED_ISR__INTC_NUMBER] = address;
  59              		.loc 1 201 0
  60 0000 014B     		ldr	r3, .L3
  61 0002 D866     		str	r0, [r3, #108]
 202:Generated_Source\PSoC4/UART_LED_ISR.c **** }
  62              		.loc 1 202 0
  63              		@ sp needed
  64 0004 7047     		bx	lr
  65              	.L4:
  66 0006 C046     		.align	2
  67              	.L3:
  68 0008 00000000 		.word	CyRamVectors
  69              		.cfi_endproc
  70              	.LFE36:
  71              		.size	UART_LED_ISR_SetVector, .-UART_LED_ISR_SetVector
  72              		.section	.text.UART_LED_ISR_GetVector,"ax",%progbits
  73              		.align	2
  74              		.global	UART_LED_ISR_GetVector
  75              		.code	16
  76              		.thumb_func
  77              		.type	UART_LED_ISR_GetVector, %function
  78              	UART_LED_ISR_GetVector:
  79              	.LFB37:
 203:Generated_Source\PSoC4/UART_LED_ISR.c **** 
 204:Generated_Source\PSoC4/UART_LED_ISR.c **** 
 205:Generated_Source\PSoC4/UART_LED_ISR.c **** /*******************************************************************************
 206:Generated_Source\PSoC4/UART_LED_ISR.c **** * Function Name: UART_LED_ISR_GetVector
ARM GAS  C:\Users\kylep\AppData\Local\Temp\ccyBhV9W.s 			page 6


 207:Generated_Source\PSoC4/UART_LED_ISR.c **** ********************************************************************************
 208:Generated_Source\PSoC4/UART_LED_ISR.c **** *
 209:Generated_Source\PSoC4/UART_LED_ISR.c **** * Summary:
 210:Generated_Source\PSoC4/UART_LED_ISR.c **** *   Gets the "address" of the current ISR vector for the Interrupt.
 211:Generated_Source\PSoC4/UART_LED_ISR.c **** *
 212:Generated_Source\PSoC4/UART_LED_ISR.c **** * Parameters:
 213:Generated_Source\PSoC4/UART_LED_ISR.c **** *   None
 214:Generated_Source\PSoC4/UART_LED_ISR.c **** *
 215:Generated_Source\PSoC4/UART_LED_ISR.c **** * Return:
 216:Generated_Source\PSoC4/UART_LED_ISR.c **** *   Address of the ISR in the interrupt vector table.
 217:Generated_Source\PSoC4/UART_LED_ISR.c **** *
 218:Generated_Source\PSoC4/UART_LED_ISR.c **** *******************************************************************************/
 219:Generated_Source\PSoC4/UART_LED_ISR.c **** cyisraddress UART_LED_ISR_GetVector(void)
 220:Generated_Source\PSoC4/UART_LED_ISR.c **** {
  80              		.loc 1 220 0
  81              		.cfi_startproc
  82              		@ args = 0, pretend = 0, frame = 0
  83              		@ frame_needed = 0, uses_anonymous_args = 0
  84              		@ link register save eliminated.
 221:Generated_Source\PSoC4/UART_LED_ISR.c ****     return CyRamVectors[CYINT_IRQ_BASE + UART_LED_ISR__INTC_NUMBER];
  85              		.loc 1 221 0
  86 0000 014B     		ldr	r3, .L6
  87 0002 D86E     		ldr	r0, [r3, #108]
 222:Generated_Source\PSoC4/UART_LED_ISR.c **** }
  88              		.loc 1 222 0
  89              		@ sp needed
  90 0004 7047     		bx	lr
  91              	.L7:
  92 0006 C046     		.align	2
  93              	.L6:
  94 0008 00000000 		.word	CyRamVectors
  95              		.cfi_endproc
  96              	.LFE37:
  97              		.size	UART_LED_ISR_GetVector, .-UART_LED_ISR_GetVector
  98              		.section	.text.UART_LED_ISR_SetPriority,"ax",%progbits
  99              		.align	2
 100              		.global	UART_LED_ISR_SetPriority
 101              		.code	16
 102              		.thumb_func
 103              		.type	UART_LED_ISR_SetPriority, %function
 104              	UART_LED_ISR_SetPriority:
 105              	.LFB38:
 223:Generated_Source\PSoC4/UART_LED_ISR.c **** 
 224:Generated_Source\PSoC4/UART_LED_ISR.c **** 
 225:Generated_Source\PSoC4/UART_LED_ISR.c **** /*******************************************************************************
 226:Generated_Source\PSoC4/UART_LED_ISR.c **** * Function Name: UART_LED_ISR_SetPriority
 227:Generated_Source\PSoC4/UART_LED_ISR.c **** ********************************************************************************
 228:Generated_Source\PSoC4/UART_LED_ISR.c **** *
 229:Generated_Source\PSoC4/UART_LED_ISR.c **** * Summary:
 230:Generated_Source\PSoC4/UART_LED_ISR.c **** *   Sets the Priority of the Interrupt. 
 231:Generated_Source\PSoC4/UART_LED_ISR.c **** *
 232:Generated_Source\PSoC4/UART_LED_ISR.c **** *   Note calling UART_LED_ISR_Start or UART_LED_ISR_StartEx will 
 233:Generated_Source\PSoC4/UART_LED_ISR.c **** *   override any effect this API would have had. This API should only be called
 234:Generated_Source\PSoC4/UART_LED_ISR.c **** *   after UART_LED_ISR_Start or UART_LED_ISR_StartEx has been called. 
 235:Generated_Source\PSoC4/UART_LED_ISR.c **** *   To set the initial priority for the component, use the Design-Wide Resources
 236:Generated_Source\PSoC4/UART_LED_ISR.c **** *   Interrupt Editor.
 237:Generated_Source\PSoC4/UART_LED_ISR.c **** *
ARM GAS  C:\Users\kylep\AppData\Local\Temp\ccyBhV9W.s 			page 7


 238:Generated_Source\PSoC4/UART_LED_ISR.c **** *   Note This API has no effect on Non-maskable interrupt NMI).
 239:Generated_Source\PSoC4/UART_LED_ISR.c **** *
 240:Generated_Source\PSoC4/UART_LED_ISR.c **** * Parameters:
 241:Generated_Source\PSoC4/UART_LED_ISR.c **** *   priority: Priority of the interrupt, 0 being the highest priority
 242:Generated_Source\PSoC4/UART_LED_ISR.c **** *             PSoC 3 and PSoC 5LP: Priority is from 0 to 7.
 243:Generated_Source\PSoC4/UART_LED_ISR.c **** *             PSoC 4: Priority is from 0 to 3.
 244:Generated_Source\PSoC4/UART_LED_ISR.c **** *
 245:Generated_Source\PSoC4/UART_LED_ISR.c **** * Return:
 246:Generated_Source\PSoC4/UART_LED_ISR.c **** *   None
 247:Generated_Source\PSoC4/UART_LED_ISR.c **** *
 248:Generated_Source\PSoC4/UART_LED_ISR.c **** *******************************************************************************/
 249:Generated_Source\PSoC4/UART_LED_ISR.c **** void UART_LED_ISR_SetPriority(uint8 priority)
 250:Generated_Source\PSoC4/UART_LED_ISR.c **** {
 106              		.loc 1 250 0
 107              		.cfi_startproc
 108              		@ args = 0, pretend = 0, frame = 0
 109              		@ frame_needed = 0, uses_anonymous_args = 0
 110              	.LVL2:
 111 0000 10B5     		push	{r4, lr}
 112              		.cfi_def_cfa_offset 8
 113              		.cfi_offset 4, -8
 114              		.cfi_offset 14, -4
 115 0002 0400     		movs	r4, r0
 116              	.LVL3:
 251:Generated_Source\PSoC4/UART_LED_ISR.c **** 	uint8 interruptState;
 252:Generated_Source\PSoC4/UART_LED_ISR.c ****     uint32 priorityOffset = ((UART_LED_ISR__INTC_NUMBER % 4u) * 8u) + 6u;
 253:Generated_Source\PSoC4/UART_LED_ISR.c ****     
 254:Generated_Source\PSoC4/UART_LED_ISR.c **** 	interruptState = CyEnterCriticalSection();
 117              		.loc 1 254 0
 118 0004 FFF7FEFF 		bl	CyEnterCriticalSection
 119              	.LVL4:
 255:Generated_Source\PSoC4/UART_LED_ISR.c ****     *UART_LED_ISR_INTC_PRIOR = (*UART_LED_ISR_INTC_PRIOR & (uint32)(~UART_LED_ISR__INTC_PRIOR_MASK)
 120              		.loc 1 255 0
 121 0008 044A     		ldr	r2, .L9
 122 000a 1368     		ldr	r3, [r2]
 123 000c 9B00     		lsls	r3, r3, #2
 124 000e 9B08     		lsrs	r3, r3, #2
 256:Generated_Source\PSoC4/UART_LED_ISR.c ****                                     ((uint32)priority << priorityOffset);
 125              		.loc 1 256 0
 126 0010 A407     		lsls	r4, r4, #30
 255:Generated_Source\PSoC4/UART_LED_ISR.c ****     *UART_LED_ISR_INTC_PRIOR = (*UART_LED_ISR_INTC_PRIOR & (uint32)(~UART_LED_ISR__INTC_PRIOR_MASK)
 127              		.loc 1 255 0
 128 0012 1C43     		orrs	r4, r3
 129 0014 1460     		str	r4, [r2]
 257:Generated_Source\PSoC4/UART_LED_ISR.c **** 	CyExitCriticalSection(interruptState);
 130              		.loc 1 257 0
 131 0016 FFF7FEFF 		bl	CyExitCriticalSection
 132              	.LVL5:
 258:Generated_Source\PSoC4/UART_LED_ISR.c **** }
 133              		.loc 1 258 0
 134              		@ sp needed
 135 001a 10BD     		pop	{r4, pc}
 136              	.L10:
 137              		.align	2
 138              	.L9:
 139 001c 08E400E0 		.word	-536812536
 140              		.cfi_endproc
ARM GAS  C:\Users\kylep\AppData\Local\Temp\ccyBhV9W.s 			page 8


 141              	.LFE38:
 142              		.size	UART_LED_ISR_SetPriority, .-UART_LED_ISR_SetPriority
 143              		.section	.text.UART_LED_ISR_GetPriority,"ax",%progbits
 144              		.align	2
 145              		.global	UART_LED_ISR_GetPriority
 146              		.code	16
 147              		.thumb_func
 148              		.type	UART_LED_ISR_GetPriority, %function
 149              	UART_LED_ISR_GetPriority:
 150              	.LFB39:
 259:Generated_Source\PSoC4/UART_LED_ISR.c **** 
 260:Generated_Source\PSoC4/UART_LED_ISR.c **** 
 261:Generated_Source\PSoC4/UART_LED_ISR.c **** /*******************************************************************************
 262:Generated_Source\PSoC4/UART_LED_ISR.c **** * Function Name: UART_LED_ISR_GetPriority
 263:Generated_Source\PSoC4/UART_LED_ISR.c **** ********************************************************************************
 264:Generated_Source\PSoC4/UART_LED_ISR.c **** *
 265:Generated_Source\PSoC4/UART_LED_ISR.c **** * Summary:
 266:Generated_Source\PSoC4/UART_LED_ISR.c **** *   Gets the Priority of the Interrupt.
 267:Generated_Source\PSoC4/UART_LED_ISR.c **** *
 268:Generated_Source\PSoC4/UART_LED_ISR.c **** * Parameters:
 269:Generated_Source\PSoC4/UART_LED_ISR.c **** *   None
 270:Generated_Source\PSoC4/UART_LED_ISR.c **** *
 271:Generated_Source\PSoC4/UART_LED_ISR.c **** * Return:
 272:Generated_Source\PSoC4/UART_LED_ISR.c **** *   Priority of the interrupt, 0 being the highest priority
 273:Generated_Source\PSoC4/UART_LED_ISR.c **** *    PSoC 3 and PSoC 5LP: Priority is from 0 to 7.
 274:Generated_Source\PSoC4/UART_LED_ISR.c **** *    PSoC 4: Priority is from 0 to 3.
 275:Generated_Source\PSoC4/UART_LED_ISR.c **** *
 276:Generated_Source\PSoC4/UART_LED_ISR.c **** *******************************************************************************/
 277:Generated_Source\PSoC4/UART_LED_ISR.c **** uint8 UART_LED_ISR_GetPriority(void)
 278:Generated_Source\PSoC4/UART_LED_ISR.c **** {
 151              		.loc 1 278 0
 152              		.cfi_startproc
 153              		@ args = 0, pretend = 0, frame = 0
 154              		@ frame_needed = 0, uses_anonymous_args = 0
 155              		@ link register save eliminated.
 156              	.LVL6:
 279:Generated_Source\PSoC4/UART_LED_ISR.c ****     uint32 priority;
 280:Generated_Source\PSoC4/UART_LED_ISR.c **** 	uint32 priorityOffset = ((UART_LED_ISR__INTC_NUMBER % 4u) * 8u) + 6u;
 281:Generated_Source\PSoC4/UART_LED_ISR.c **** 
 282:Generated_Source\PSoC4/UART_LED_ISR.c ****     priority = (*UART_LED_ISR_INTC_PRIOR & UART_LED_ISR__INTC_PRIOR_MASK) >> priorityOffset;
 157              		.loc 1 282 0
 158 0000 014B     		ldr	r3, .L12
 159 0002 1868     		ldr	r0, [r3]
 160              	.LVL7:
 283:Generated_Source\PSoC4/UART_LED_ISR.c **** 
 284:Generated_Source\PSoC4/UART_LED_ISR.c ****     return (uint8)priority;
 161              		.loc 1 284 0
 162 0004 800F     		lsrs	r0, r0, #30
 163              	.LVL8:
 285:Generated_Source\PSoC4/UART_LED_ISR.c **** }
 164              		.loc 1 285 0
 165              		@ sp needed
 166 0006 7047     		bx	lr
 167              	.L13:
 168              		.align	2
 169              	.L12:
 170 0008 08E400E0 		.word	-536812536
ARM GAS  C:\Users\kylep\AppData\Local\Temp\ccyBhV9W.s 			page 9


 171              		.cfi_endproc
 172              	.LFE39:
 173              		.size	UART_LED_ISR_GetPriority, .-UART_LED_ISR_GetPriority
 174              		.section	.text.UART_LED_ISR_Enable,"ax",%progbits
 175              		.align	2
 176              		.global	UART_LED_ISR_Enable
 177              		.code	16
 178              		.thumb_func
 179              		.type	UART_LED_ISR_Enable, %function
 180              	UART_LED_ISR_Enable:
 181              	.LFB40:
 286:Generated_Source\PSoC4/UART_LED_ISR.c **** 
 287:Generated_Source\PSoC4/UART_LED_ISR.c **** 
 288:Generated_Source\PSoC4/UART_LED_ISR.c **** /*******************************************************************************
 289:Generated_Source\PSoC4/UART_LED_ISR.c **** * Function Name: UART_LED_ISR_Enable
 290:Generated_Source\PSoC4/UART_LED_ISR.c **** ********************************************************************************
 291:Generated_Source\PSoC4/UART_LED_ISR.c **** *
 292:Generated_Source\PSoC4/UART_LED_ISR.c **** * Summary:
 293:Generated_Source\PSoC4/UART_LED_ISR.c **** *   Enables the interrupt to the interrupt controller. Do not call this function
 294:Generated_Source\PSoC4/UART_LED_ISR.c **** *   unless ISR_Start() has been called or the functionality of the ISR_Start() 
 295:Generated_Source\PSoC4/UART_LED_ISR.c **** *   function, which sets the vector and the priority, has been called.
 296:Generated_Source\PSoC4/UART_LED_ISR.c **** *
 297:Generated_Source\PSoC4/UART_LED_ISR.c **** * Parameters:
 298:Generated_Source\PSoC4/UART_LED_ISR.c **** *   None
 299:Generated_Source\PSoC4/UART_LED_ISR.c **** *
 300:Generated_Source\PSoC4/UART_LED_ISR.c **** * Return:
 301:Generated_Source\PSoC4/UART_LED_ISR.c **** *   None
 302:Generated_Source\PSoC4/UART_LED_ISR.c **** *
 303:Generated_Source\PSoC4/UART_LED_ISR.c **** *******************************************************************************/
 304:Generated_Source\PSoC4/UART_LED_ISR.c **** void UART_LED_ISR_Enable(void)
 305:Generated_Source\PSoC4/UART_LED_ISR.c **** {
 182              		.loc 1 305 0
 183              		.cfi_startproc
 184              		@ args = 0, pretend = 0, frame = 0
 185              		@ frame_needed = 0, uses_anonymous_args = 0
 186              		@ link register save eliminated.
 306:Generated_Source\PSoC4/UART_LED_ISR.c ****     /* Enable the general interrupt. */
 307:Generated_Source\PSoC4/UART_LED_ISR.c ****     *UART_LED_ISR_INTC_SET_EN = UART_LED_ISR__INTC_MASK;
 187              		.loc 1 307 0
 188 0000 8022     		movs	r2, #128
 189 0002 1201     		lsls	r2, r2, #4
 190 0004 014B     		ldr	r3, .L15
 191 0006 1A60     		str	r2, [r3]
 308:Generated_Source\PSoC4/UART_LED_ISR.c **** }
 192              		.loc 1 308 0
 193              		@ sp needed
 194 0008 7047     		bx	lr
 195              	.L16:
 196 000a C046     		.align	2
 197              	.L15:
 198 000c 00E100E0 		.word	-536813312
 199              		.cfi_endproc
 200              	.LFE40:
 201              		.size	UART_LED_ISR_Enable, .-UART_LED_ISR_Enable
 202              		.section	.text.UART_LED_ISR_GetState,"ax",%progbits
 203              		.align	2
 204              		.global	UART_LED_ISR_GetState
ARM GAS  C:\Users\kylep\AppData\Local\Temp\ccyBhV9W.s 			page 10


 205              		.code	16
 206              		.thumb_func
 207              		.type	UART_LED_ISR_GetState, %function
 208              	UART_LED_ISR_GetState:
 209              	.LFB41:
 309:Generated_Source\PSoC4/UART_LED_ISR.c **** 
 310:Generated_Source\PSoC4/UART_LED_ISR.c **** 
 311:Generated_Source\PSoC4/UART_LED_ISR.c **** /*******************************************************************************
 312:Generated_Source\PSoC4/UART_LED_ISR.c **** * Function Name: UART_LED_ISR_GetState
 313:Generated_Source\PSoC4/UART_LED_ISR.c **** ********************************************************************************
 314:Generated_Source\PSoC4/UART_LED_ISR.c **** *
 315:Generated_Source\PSoC4/UART_LED_ISR.c **** * Summary:
 316:Generated_Source\PSoC4/UART_LED_ISR.c **** *   Gets the state (enabled, disabled) of the Interrupt.
 317:Generated_Source\PSoC4/UART_LED_ISR.c **** *
 318:Generated_Source\PSoC4/UART_LED_ISR.c **** * Parameters:
 319:Generated_Source\PSoC4/UART_LED_ISR.c **** *   None
 320:Generated_Source\PSoC4/UART_LED_ISR.c **** *
 321:Generated_Source\PSoC4/UART_LED_ISR.c **** * Return:
 322:Generated_Source\PSoC4/UART_LED_ISR.c **** *   1 if enabled, 0 if disabled.
 323:Generated_Source\PSoC4/UART_LED_ISR.c **** *
 324:Generated_Source\PSoC4/UART_LED_ISR.c **** *******************************************************************************/
 325:Generated_Source\PSoC4/UART_LED_ISR.c **** uint8 UART_LED_ISR_GetState(void)
 326:Generated_Source\PSoC4/UART_LED_ISR.c **** {
 210              		.loc 1 326 0
 211              		.cfi_startproc
 212              		@ args = 0, pretend = 0, frame = 0
 213              		@ frame_needed = 0, uses_anonymous_args = 0
 214              		@ link register save eliminated.
 327:Generated_Source\PSoC4/UART_LED_ISR.c ****     /* Get the state of the general interrupt. */
 328:Generated_Source\PSoC4/UART_LED_ISR.c ****     return ((*UART_LED_ISR_INTC_SET_EN & (uint32)UART_LED_ISR__INTC_MASK) != 0u) ? 1u:0u;
 215              		.loc 1 328 0
 216 0000 034B     		ldr	r3, .L20
 217 0002 1B68     		ldr	r3, [r3]
 218 0004 1B05     		lsls	r3, r3, #20
 219 0006 01D5     		bpl	.L19
 220 0008 0120     		movs	r0, #1
 221 000a 00E0     		b	.L18
 222              	.L19:
 223 000c 0020     		movs	r0, #0
 224              	.L18:
 329:Generated_Source\PSoC4/UART_LED_ISR.c **** }
 225              		.loc 1 329 0 discriminator 4
 226              		@ sp needed
 227 000e 7047     		bx	lr
 228              	.L21:
 229              		.align	2
 230              	.L20:
 231 0010 00E100E0 		.word	-536813312
 232              		.cfi_endproc
 233              	.LFE41:
 234              		.size	UART_LED_ISR_GetState, .-UART_LED_ISR_GetState
 235              		.section	.text.UART_LED_ISR_Disable,"ax",%progbits
 236              		.align	2
 237              		.global	UART_LED_ISR_Disable
 238              		.code	16
 239              		.thumb_func
 240              		.type	UART_LED_ISR_Disable, %function
ARM GAS  C:\Users\kylep\AppData\Local\Temp\ccyBhV9W.s 			page 11


 241              	UART_LED_ISR_Disable:
 242              	.LFB42:
 330:Generated_Source\PSoC4/UART_LED_ISR.c **** 
 331:Generated_Source\PSoC4/UART_LED_ISR.c **** 
 332:Generated_Source\PSoC4/UART_LED_ISR.c **** /*******************************************************************************
 333:Generated_Source\PSoC4/UART_LED_ISR.c **** * Function Name: UART_LED_ISR_Disable
 334:Generated_Source\PSoC4/UART_LED_ISR.c **** ********************************************************************************
 335:Generated_Source\PSoC4/UART_LED_ISR.c **** *
 336:Generated_Source\PSoC4/UART_LED_ISR.c **** * Summary:
 337:Generated_Source\PSoC4/UART_LED_ISR.c **** *   Disables the Interrupt in the interrupt controller.
 338:Generated_Source\PSoC4/UART_LED_ISR.c **** *
 339:Generated_Source\PSoC4/UART_LED_ISR.c **** * Parameters:
 340:Generated_Source\PSoC4/UART_LED_ISR.c **** *   None
 341:Generated_Source\PSoC4/UART_LED_ISR.c **** *
 342:Generated_Source\PSoC4/UART_LED_ISR.c **** * Return:
 343:Generated_Source\PSoC4/UART_LED_ISR.c **** *   None
 344:Generated_Source\PSoC4/UART_LED_ISR.c **** *
 345:Generated_Source\PSoC4/UART_LED_ISR.c **** *******************************************************************************/
 346:Generated_Source\PSoC4/UART_LED_ISR.c **** void UART_LED_ISR_Disable(void)
 347:Generated_Source\PSoC4/UART_LED_ISR.c **** {
 243              		.loc 1 347 0
 244              		.cfi_startproc
 245              		@ args = 0, pretend = 0, frame = 0
 246              		@ frame_needed = 0, uses_anonymous_args = 0
 247              		@ link register save eliminated.
 348:Generated_Source\PSoC4/UART_LED_ISR.c ****     /* Disable the general interrupt. */
 349:Generated_Source\PSoC4/UART_LED_ISR.c ****     *UART_LED_ISR_INTC_CLR_EN = UART_LED_ISR__INTC_MASK;
 248              		.loc 1 349 0
 249 0000 8022     		movs	r2, #128
 250 0002 1201     		lsls	r2, r2, #4
 251 0004 014B     		ldr	r3, .L23
 252 0006 1A60     		str	r2, [r3]
 350:Generated_Source\PSoC4/UART_LED_ISR.c **** }
 253              		.loc 1 350 0
 254              		@ sp needed
 255 0008 7047     		bx	lr
 256              	.L24:
 257 000a C046     		.align	2
 258              	.L23:
 259 000c 80E100E0 		.word	-536813184
 260              		.cfi_endproc
 261              	.LFE42:
 262              		.size	UART_LED_ISR_Disable, .-UART_LED_ISR_Disable
 263              		.section	.text.UART_LED_ISR_Start,"ax",%progbits
 264              		.align	2
 265              		.global	UART_LED_ISR_Start
 266              		.code	16
 267              		.thumb_func
 268              		.type	UART_LED_ISR_Start, %function
 269              	UART_LED_ISR_Start:
 270              	.LFB32:
  57:Generated_Source\PSoC4/UART_LED_ISR.c ****     /* For all we know the interrupt is active. */
 271              		.loc 1 57 0
 272              		.cfi_startproc
 273              		@ args = 0, pretend = 0, frame = 0
 274              		@ frame_needed = 0, uses_anonymous_args = 0
 275 0000 10B5     		push	{r4, lr}
ARM GAS  C:\Users\kylep\AppData\Local\Temp\ccyBhV9W.s 			page 12


 276              		.cfi_def_cfa_offset 8
 277              		.cfi_offset 4, -8
 278              		.cfi_offset 14, -4
  59:Generated_Source\PSoC4/UART_LED_ISR.c **** 
 279              		.loc 1 59 0
 280 0002 FFF7FEFF 		bl	UART_LED_ISR_Disable
 281              	.LVL9:
  62:Generated_Source\PSoC4/UART_LED_ISR.c **** 
 282              		.loc 1 62 0
 283 0006 0448     		ldr	r0, .L26
 284 0008 FFF7FEFF 		bl	UART_LED_ISR_SetVector
 285              	.LVL10:
  65:Generated_Source\PSoC4/UART_LED_ISR.c **** 
 286              		.loc 1 65 0
 287 000c 0320     		movs	r0, #3
 288 000e FFF7FEFF 		bl	UART_LED_ISR_SetPriority
 289              	.LVL11:
  68:Generated_Source\PSoC4/UART_LED_ISR.c **** }
 290              		.loc 1 68 0
 291 0012 FFF7FEFF 		bl	UART_LED_ISR_Enable
 292              	.LVL12:
  69:Generated_Source\PSoC4/UART_LED_ISR.c **** 
 293              		.loc 1 69 0
 294              		@ sp needed
 295 0016 10BD     		pop	{r4, pc}
 296              	.L27:
 297              		.align	2
 298              	.L26:
 299 0018 00000000 		.word	UART_LED_ISR_Interrupt
 300              		.cfi_endproc
 301              	.LFE32:
 302              		.size	UART_LED_ISR_Start, .-UART_LED_ISR_Start
 303              		.section	.text.UART_LED_ISR_StartEx,"ax",%progbits
 304              		.align	2
 305              		.global	UART_LED_ISR_StartEx
 306              		.code	16
 307              		.thumb_func
 308              		.type	UART_LED_ISR_StartEx, %function
 309              	UART_LED_ISR_StartEx:
 310              	.LFB33:
 100:Generated_Source\PSoC4/UART_LED_ISR.c ****     /* For all we know the interrupt is active. */
 311              		.loc 1 100 0
 312              		.cfi_startproc
 313              		@ args = 0, pretend = 0, frame = 0
 314              		@ frame_needed = 0, uses_anonymous_args = 0
 315              	.LVL13:
 316 0000 10B5     		push	{r4, lr}
 317              		.cfi_def_cfa_offset 8
 318              		.cfi_offset 4, -8
 319              		.cfi_offset 14, -4
 320 0002 0400     		movs	r4, r0
 102:Generated_Source\PSoC4/UART_LED_ISR.c **** 
 321              		.loc 1 102 0
 322 0004 FFF7FEFF 		bl	UART_LED_ISR_Disable
 323              	.LVL14:
 105:Generated_Source\PSoC4/UART_LED_ISR.c **** 
 324              		.loc 1 105 0
ARM GAS  C:\Users\kylep\AppData\Local\Temp\ccyBhV9W.s 			page 13


 325 0008 2000     		movs	r0, r4
 326 000a FFF7FEFF 		bl	UART_LED_ISR_SetVector
 327              	.LVL15:
 108:Generated_Source\PSoC4/UART_LED_ISR.c **** 
 328              		.loc 1 108 0
 329 000e 0320     		movs	r0, #3
 330 0010 FFF7FEFF 		bl	UART_LED_ISR_SetPriority
 331              	.LVL16:
 111:Generated_Source\PSoC4/UART_LED_ISR.c **** }
 332              		.loc 1 111 0
 333 0014 FFF7FEFF 		bl	UART_LED_ISR_Enable
 334              	.LVL17:
 112:Generated_Source\PSoC4/UART_LED_ISR.c **** 
 335              		.loc 1 112 0
 336              		@ sp needed
 337              	.LVL18:
 338 0018 10BD     		pop	{r4, pc}
 339              		.cfi_endproc
 340              	.LFE33:
 341              		.size	UART_LED_ISR_StartEx, .-UART_LED_ISR_StartEx
 342 001a C046     		.section	.text.UART_LED_ISR_Stop,"ax",%progbits
 343              		.align	2
 344              		.global	UART_LED_ISR_Stop
 345              		.code	16
 346              		.thumb_func
 347              		.type	UART_LED_ISR_Stop, %function
 348              	UART_LED_ISR_Stop:
 349              	.LFB34:
 130:Generated_Source\PSoC4/UART_LED_ISR.c ****     /* Disable this interrupt. */
 350              		.loc 1 130 0
 351              		.cfi_startproc
 352              		@ args = 0, pretend = 0, frame = 0
 353              		@ frame_needed = 0, uses_anonymous_args = 0
 354 0000 10B5     		push	{r4, lr}
 355              		.cfi_def_cfa_offset 8
 356              		.cfi_offset 4, -8
 357              		.cfi_offset 14, -4
 132:Generated_Source\PSoC4/UART_LED_ISR.c **** 
 358              		.loc 1 132 0
 359 0002 FFF7FEFF 		bl	UART_LED_ISR_Disable
 360              	.LVL19:
 135:Generated_Source\PSoC4/UART_LED_ISR.c **** }
 361              		.loc 1 135 0
 362 0006 0248     		ldr	r0, .L30
 363 0008 FFF7FEFF 		bl	UART_LED_ISR_SetVector
 364              	.LVL20:
 136:Generated_Source\PSoC4/UART_LED_ISR.c **** 
 365              		.loc 1 136 0
 366              		@ sp needed
 367 000c 10BD     		pop	{r4, pc}
 368              	.L31:
 369 000e C046     		.align	2
 370              	.L30:
 371 0010 00000000 		.word	IntDefaultHandler
 372              		.cfi_endproc
 373              	.LFE34:
 374              		.size	UART_LED_ISR_Stop, .-UART_LED_ISR_Stop
ARM GAS  C:\Users\kylep\AppData\Local\Temp\ccyBhV9W.s 			page 14


 375              		.section	.text.UART_LED_ISR_SetPending,"ax",%progbits
 376              		.align	2
 377              		.global	UART_LED_ISR_SetPending
 378              		.code	16
 379              		.thumb_func
 380              		.type	UART_LED_ISR_SetPending, %function
 381              	UART_LED_ISR_SetPending:
 382              	.LFB43:
 351:Generated_Source\PSoC4/UART_LED_ISR.c **** 
 352:Generated_Source\PSoC4/UART_LED_ISR.c **** 
 353:Generated_Source\PSoC4/UART_LED_ISR.c **** /*******************************************************************************
 354:Generated_Source\PSoC4/UART_LED_ISR.c **** * Function Name: UART_LED_ISR_SetPending
 355:Generated_Source\PSoC4/UART_LED_ISR.c **** ********************************************************************************
 356:Generated_Source\PSoC4/UART_LED_ISR.c **** *
 357:Generated_Source\PSoC4/UART_LED_ISR.c **** * Summary:
 358:Generated_Source\PSoC4/UART_LED_ISR.c **** *   Causes the Interrupt to enter the pending state, a software method of
 359:Generated_Source\PSoC4/UART_LED_ISR.c **** *   generating the interrupt.
 360:Generated_Source\PSoC4/UART_LED_ISR.c **** *
 361:Generated_Source\PSoC4/UART_LED_ISR.c **** * Parameters:
 362:Generated_Source\PSoC4/UART_LED_ISR.c **** *   None
 363:Generated_Source\PSoC4/UART_LED_ISR.c **** *
 364:Generated_Source\PSoC4/UART_LED_ISR.c **** * Return:
 365:Generated_Source\PSoC4/UART_LED_ISR.c **** *   None
 366:Generated_Source\PSoC4/UART_LED_ISR.c **** *
 367:Generated_Source\PSoC4/UART_LED_ISR.c **** * Side Effects:
 368:Generated_Source\PSoC4/UART_LED_ISR.c **** *   If interrupts are enabled and the interrupt is set up properly, the ISR is
 369:Generated_Source\PSoC4/UART_LED_ISR.c **** *   entered (depending on the priority of this interrupt and other pending 
 370:Generated_Source\PSoC4/UART_LED_ISR.c **** *   interrupts).
 371:Generated_Source\PSoC4/UART_LED_ISR.c **** *
 372:Generated_Source\PSoC4/UART_LED_ISR.c **** *******************************************************************************/
 373:Generated_Source\PSoC4/UART_LED_ISR.c **** void UART_LED_ISR_SetPending(void)
 374:Generated_Source\PSoC4/UART_LED_ISR.c **** {
 383              		.loc 1 374 0
 384              		.cfi_startproc
 385              		@ args = 0, pretend = 0, frame = 0
 386              		@ frame_needed = 0, uses_anonymous_args = 0
 387              		@ link register save eliminated.
 375:Generated_Source\PSoC4/UART_LED_ISR.c ****     *UART_LED_ISR_INTC_SET_PD = UART_LED_ISR__INTC_MASK;
 388              		.loc 1 375 0
 389 0000 8022     		movs	r2, #128
 390 0002 1201     		lsls	r2, r2, #4
 391 0004 014B     		ldr	r3, .L33
 392 0006 1A60     		str	r2, [r3]
 376:Generated_Source\PSoC4/UART_LED_ISR.c **** }
 393              		.loc 1 376 0
 394              		@ sp needed
 395 0008 7047     		bx	lr
 396              	.L34:
 397 000a C046     		.align	2
 398              	.L33:
 399 000c 00E200E0 		.word	-536813056
 400              		.cfi_endproc
 401              	.LFE43:
 402              		.size	UART_LED_ISR_SetPending, .-UART_LED_ISR_SetPending
 403              		.section	.text.UART_LED_ISR_ClearPending,"ax",%progbits
 404              		.align	2
 405              		.global	UART_LED_ISR_ClearPending
ARM GAS  C:\Users\kylep\AppData\Local\Temp\ccyBhV9W.s 			page 15


 406              		.code	16
 407              		.thumb_func
 408              		.type	UART_LED_ISR_ClearPending, %function
 409              	UART_LED_ISR_ClearPending:
 410              	.LFB44:
 377:Generated_Source\PSoC4/UART_LED_ISR.c **** 
 378:Generated_Source\PSoC4/UART_LED_ISR.c **** 
 379:Generated_Source\PSoC4/UART_LED_ISR.c **** /*******************************************************************************
 380:Generated_Source\PSoC4/UART_LED_ISR.c **** * Function Name: UART_LED_ISR_ClearPending
 381:Generated_Source\PSoC4/UART_LED_ISR.c **** ********************************************************************************
 382:Generated_Source\PSoC4/UART_LED_ISR.c **** *
 383:Generated_Source\PSoC4/UART_LED_ISR.c **** * Summary:
 384:Generated_Source\PSoC4/UART_LED_ISR.c **** *   Clears a pending interrupt in the interrupt controller.
 385:Generated_Source\PSoC4/UART_LED_ISR.c **** *
 386:Generated_Source\PSoC4/UART_LED_ISR.c **** *   Note Some interrupt sources are clear-on-read and require the block 
 387:Generated_Source\PSoC4/UART_LED_ISR.c **** *   interrupt/status register to be read/cleared with the appropriate block API 
 388:Generated_Source\PSoC4/UART_LED_ISR.c **** *   (GPIO, UART, and so on). Otherwise the ISR will continue to remain in 
 389:Generated_Source\PSoC4/UART_LED_ISR.c **** *   pending state even though the interrupt itself is cleared using this API.
 390:Generated_Source\PSoC4/UART_LED_ISR.c **** *
 391:Generated_Source\PSoC4/UART_LED_ISR.c **** * Parameters:
 392:Generated_Source\PSoC4/UART_LED_ISR.c **** *   None
 393:Generated_Source\PSoC4/UART_LED_ISR.c **** *
 394:Generated_Source\PSoC4/UART_LED_ISR.c **** * Return:
 395:Generated_Source\PSoC4/UART_LED_ISR.c **** *   None
 396:Generated_Source\PSoC4/UART_LED_ISR.c **** *
 397:Generated_Source\PSoC4/UART_LED_ISR.c **** *******************************************************************************/
 398:Generated_Source\PSoC4/UART_LED_ISR.c **** void UART_LED_ISR_ClearPending(void)
 399:Generated_Source\PSoC4/UART_LED_ISR.c **** {
 411              		.loc 1 399 0
 412              		.cfi_startproc
 413              		@ args = 0, pretend = 0, frame = 0
 414              		@ frame_needed = 0, uses_anonymous_args = 0
 415              		@ link register save eliminated.
 400:Generated_Source\PSoC4/UART_LED_ISR.c ****     *UART_LED_ISR_INTC_CLR_PD = UART_LED_ISR__INTC_MASK;
 416              		.loc 1 400 0
 417 0000 8022     		movs	r2, #128
 418 0002 1201     		lsls	r2, r2, #4
 419 0004 014B     		ldr	r3, .L36
 420 0006 1A60     		str	r2, [r3]
 401:Generated_Source\PSoC4/UART_LED_ISR.c **** }
 421              		.loc 1 401 0
 422              		@ sp needed
 423 0008 7047     		bx	lr
 424              	.L37:
 425 000a C046     		.align	2
 426              	.L36:
 427 000c 80E200E0 		.word	-536812928
 428              		.cfi_endproc
 429              	.LFE44:
 430              		.size	UART_LED_ISR_ClearPending, .-UART_LED_ISR_ClearPending
 431              		.text
 432              	.Letext0:
 433              		.file 2 "Generated_Source\\PSoC4/cytypes.h"
 434              		.file 3 "./BrightnessCommManager.h"
 435              		.file 4 "Generated_Source\\PSoC4/CyLib.h"